
bin/main.elf:     file format elf32-littlearm


Disassembly of section .isr_vector:

08000000 <InterruptVector>:
 8000000:	20050000 	andcs	r0, r5, r0
 8000004:	0800033d 	stmdaeq	r0, {r0, r2, r3, r4, r5, r8, r9}
 8000008:	08000321 	stmdaeq	r0, {r0, r5, r8, r9}
 800000c:	08000333 	stmdaeq	r0, {r0, r1, r4, r5, r8, r9}
 8000010:	08000321 	stmdaeq	r0, {r0, r5, r8, r9}
 8000014:	08000321 	stmdaeq	r0, {r0, r5, r8, r9}
 8000018:	08000321 	stmdaeq	r0, {r0, r5, r8, r9}
 800001c:	00000000 	andeq	r0, r0, r0
 8000020:	00000000 	andeq	r0, r0, r0
 8000024:	00000000 	andeq	r0, r0, r0
 8000028:	00000000 	andeq	r0, r0, r0
 800002c:	08000321 	stmdaeq	r0, {r0, r5, r8, r9}
 8000030:	08000321 	stmdaeq	r0, {r0, r5, r8, r9}
 8000034:	00000000 	andeq	r0, r0, r0
 8000038:	08000321 	stmdaeq	r0, {r0, r5, r8, r9}
 800003c:	08000321 	stmdaeq	r0, {r0, r5, r8, r9}
 8000040:	08000321 	stmdaeq	r0, {r0, r5, r8, r9}
 8000044:	08000321 	stmdaeq	r0, {r0, r5, r8, r9}
 8000048:	08000321 	stmdaeq	r0, {r0, r5, r8, r9}
 800004c:	08000321 	stmdaeq	r0, {r0, r5, r8, r9}
 8000050:	08000321 	stmdaeq	r0, {r0, r5, r8, r9}
 8000054:	08000321 	stmdaeq	r0, {r0, r5, r8, r9}
 8000058:	08000321 	stmdaeq	r0, {r0, r5, r8, r9}
 800005c:	08000321 	stmdaeq	r0, {r0, r5, r8, r9}
 8000060:	08000321 	stmdaeq	r0, {r0, r5, r8, r9}
 8000064:	08000321 	stmdaeq	r0, {r0, r5, r8, r9}
 8000068:	08000321 	stmdaeq	r0, {r0, r5, r8, r9}
 800006c:	08000321 	stmdaeq	r0, {r0, r5, r8, r9}
 8000070:	08000321 	stmdaeq	r0, {r0, r5, r8, r9}
 8000074:	08000321 	stmdaeq	r0, {r0, r5, r8, r9}
 8000078:	08000321 	stmdaeq	r0, {r0, r5, r8, r9}
 800007c:	08000321 	stmdaeq	r0, {r0, r5, r8, r9}
 8000080:	08000321 	stmdaeq	r0, {r0, r5, r8, r9}
 8000084:	08000321 	stmdaeq	r0, {r0, r5, r8, r9}
 8000088:	08000321 	stmdaeq	r0, {r0, r5, r8, r9}
 800008c:	08000321 	stmdaeq	r0, {r0, r5, r8, r9}
 8000090:	08000321 	stmdaeq	r0, {r0, r5, r8, r9}
 8000094:	08000321 	stmdaeq	r0, {r0, r5, r8, r9}
 8000098:	08000321 	stmdaeq	r0, {r0, r5, r8, r9}
 800009c:	08000321 	stmdaeq	r0, {r0, r5, r8, r9}
 80000a0:	08000321 	stmdaeq	r0, {r0, r5, r8, r9}
 80000a4:	08000321 	stmdaeq	r0, {r0, r5, r8, r9}
 80000a8:	08000321 	stmdaeq	r0, {r0, r5, r8, r9}
 80000ac:	08000321 	stmdaeq	r0, {r0, r5, r8, r9}
 80000b0:	08000321 	stmdaeq	r0, {r0, r5, r8, r9}
 80000b4:	08000321 	stmdaeq	r0, {r0, r5, r8, r9}
 80000b8:	08000321 	stmdaeq	r0, {r0, r5, r8, r9}
 80000bc:	08000321 	stmdaeq	r0, {r0, r5, r8, r9}
 80000c0:	08000321 	stmdaeq	r0, {r0, r5, r8, r9}
 80000c4:	08000321 	stmdaeq	r0, {r0, r5, r8, r9}
 80000c8:	08000321 	stmdaeq	r0, {r0, r5, r8, r9}
 80000cc:	08000321 	stmdaeq	r0, {r0, r5, r8, r9}
 80000d0:	08000321 	stmdaeq	r0, {r0, r5, r8, r9}
 80000d4:	08000321 	stmdaeq	r0, {r0, r5, r8, r9}
 80000d8:	08000321 	stmdaeq	r0, {r0, r5, r8, r9}
 80000dc:	08000321 	stmdaeq	r0, {r0, r5, r8, r9}
 80000e0:	08000321 	stmdaeq	r0, {r0, r5, r8, r9}
 80000e4:	08000321 	stmdaeq	r0, {r0, r5, r8, r9}
 80000e8:	08000321 	stmdaeq	r0, {r0, r5, r8, r9}
 80000ec:	08000321 	stmdaeq	r0, {r0, r5, r8, r9}
 80000f0:	08000321 	stmdaeq	r0, {r0, r5, r8, r9}
 80000f4:	08000321 	stmdaeq	r0, {r0, r5, r8, r9}
 80000f8:	08000321 	stmdaeq	r0, {r0, r5, r8, r9}
 80000fc:	08000321 	stmdaeq	r0, {r0, r5, r8, r9}
 8000100:	08000321 	stmdaeq	r0, {r0, r5, r8, r9}
 8000104:	08000321 	stmdaeq	r0, {r0, r5, r8, r9}
 8000108:	08000321 	stmdaeq	r0, {r0, r5, r8, r9}
 800010c:	08000321 	stmdaeq	r0, {r0, r5, r8, r9}
 8000110:	08000321 	stmdaeq	r0, {r0, r5, r8, r9}
 8000114:	08000321 	stmdaeq	r0, {r0, r5, r8, r9}
 8000118:	08000321 	stmdaeq	r0, {r0, r5, r8, r9}
 800011c:	08000321 	stmdaeq	r0, {r0, r5, r8, r9}
 8000120:	08000321 	stmdaeq	r0, {r0, r5, r8, r9}
 8000124:	08000321 	stmdaeq	r0, {r0, r5, r8, r9}
 8000128:	08000321 	stmdaeq	r0, {r0, r5, r8, r9}
 800012c:	08000321 	stmdaeq	r0, {r0, r5, r8, r9}
 8000130:	08000321 	stmdaeq	r0, {r0, r5, r8, r9}
 8000134:	08000321 	stmdaeq	r0, {r0, r5, r8, r9}
 8000138:	08000321 	stmdaeq	r0, {r0, r5, r8, r9}
 800013c:	08000321 	stmdaeq	r0, {r0, r5, r8, r9}
 8000140:	08000321 	stmdaeq	r0, {r0, r5, r8, r9}
 8000144:	08000321 	stmdaeq	r0, {r0, r5, r8, r9}
 8000148:	08000321 	stmdaeq	r0, {r0, r5, r8, r9}
 800014c:	08000321 	stmdaeq	r0, {r0, r5, r8, r9}
 8000150:	08000321 	stmdaeq	r0, {r0, r5, r8, r9}
 8000154:	08000321 	stmdaeq	r0, {r0, r5, r8, r9}
 8000158:	08000321 	stmdaeq	r0, {r0, r5, r8, r9}
 800015c:	08000321 	stmdaeq	r0, {r0, r5, r8, r9}
 8000160:	08000321 	stmdaeq	r0, {r0, r5, r8, r9}
 8000164:	08000321 	stmdaeq	r0, {r0, r5, r8, r9}
 8000168:	08000321 	stmdaeq	r0, {r0, r5, r8, r9}
 800016c:	08000321 	stmdaeq	r0, {r0, r5, r8, r9}
 8000170:	08000321 	stmdaeq	r0, {r0, r5, r8, r9}
 8000174:	08000321 	stmdaeq	r0, {r0, r5, r8, r9}
 8000178:	08000321 	stmdaeq	r0, {r0, r5, r8, r9}
 800017c:	00000000 	andeq	r0, r0, r0
 8000180:	08000321 	stmdaeq	r0, {r0, r5, r8, r9}
 8000184:	08000321 	stmdaeq	r0, {r0, r5, r8, r9}
 8000188:	08000321 	stmdaeq	r0, {r0, r5, r8, r9}
 800018c:	08000321 	stmdaeq	r0, {r0, r5, r8, r9}
 8000190:	08000321 	stmdaeq	r0, {r0, r5, r8, r9}
 8000194:	08000321 	stmdaeq	r0, {r0, r5, r8, r9}
 8000198:	08000321 	stmdaeq	r0, {r0, r5, r8, r9}
 800019c:	08000321 	stmdaeq	r0, {r0, r5, r8, r9}
 80001a0:	08000321 	stmdaeq	r0, {r0, r5, r8, r9}
 80001a4:	08000321 	stmdaeq	r0, {r0, r5, r8, r9}
 80001a8:	08000321 	stmdaeq	r0, {r0, r5, r8, r9}
 80001ac:	08000321 	stmdaeq	r0, {r0, r5, r8, r9}
 80001b0:	08000321 	stmdaeq	r0, {r0, r5, r8, r9}
 80001b4:	08000321 	stmdaeq	r0, {r0, r5, r8, r9}
 80001b8:	08000321 	stmdaeq	r0, {r0, r5, r8, r9}
 80001bc:	08000321 	stmdaeq	r0, {r0, r5, r8, r9}
 80001c0:	08000321 	stmdaeq	r0, {r0, r5, r8, r9}
 80001c4:	08000321 	stmdaeq	r0, {r0, r5, r8, r9}

Disassembly of section .inits:

080001c8 <__data_regions_array_start>:
 80001c8:	08001188 	stmdaeq	r0, {r3, r7, r8, ip}
 80001cc:	20000000 	andcs	r0, r0, r0
 80001d0:	20000430 	andcs	r0, r0, r0, lsr r4
 80001d4:	08001188 	stmdaeq	r0, {r3, r7, r8, ip}
 80001d8:	ffff0000 			; <UNDEFINED> instruction: 0xffff0000
 80001dc:	ffff0000 			; <UNDEFINED> instruction: 0xffff0000

080001e0 <__bss_regions_array_start>:
 80001e0:	20000430 	andcs	r0, r0, r0, lsr r4
 80001e4:	20000450 	andcs	r0, r0, r0, asr r4
 80001e8:	ffff0000 			; <UNDEFINED> instruction: 0xffff0000
 80001ec:	ffff0000 			; <UNDEFINED> instruction: 0xffff0000

080001f0 <_init>:
 80001f0:	b5f8      	push	{r3, r4, r5, r6, r7, lr}
 80001f2:	bf00      	nop
 80001f4:	bcf8      	pop	{r3, r4, r5, r6, r7}
 80001f6:	bc08      	pop	{r3}
 80001f8:	469e      	mov	lr, r3
 80001fa:	4770      	bx	lr

080001fc <_fini>:
 80001fc:	b5f8      	push	{r3, r4, r5, r6, r7, lr}
 80001fe:	bf00      	nop
 8000200:	bcf8      	pop	{r3, r4, r5, r6, r7}
 8000202:	bc08      	pop	{r3}
 8000204:	469e      	mov	lr, r3
 8000206:	4770      	bx	lr

08000208 <__init_array_start>:
 8000208:	08001079 	stmdaeq	r0, {r0, r3, r4, r5, r6, ip}

0800020c <__frame_dummy_init_array_entry>:
 800020c:	08000281 	stmdaeq	r0, {r0, r7, r9}

08000210 <__do_global_dtors_aux_fini_array_entry>:
 8000210:	08000259 	stmdaeq	r0, {r0, r3, r4, r6, r9}

Disassembly of section .data:

20000000 <SystemCoreClock>:
20000000:	00f42400 	rscseq	r2, r4, r0, lsl #8
20000004:	ffffffff 			; <UNDEFINED> instruction: 0xffffffff

20000008 <impure_data>:
20000008:	00000000 	andeq	r0, r0, r0
2000000c:	200002f4 	strdcs	r0, [r0], -r4
20000010:	2000035c 	andcs	r0, r0, ip, asr r3
20000014:	200003c4 	andcs	r0, r0, r4, asr #7
20000018:	00000000 	andeq	r0, r0, r0
2000001c:	00000000 	andeq	r0, r0, r0
20000020:	00000000 	andeq	r0, r0, r0
20000024:	00000000 	andeq	r0, r0, r0
20000028:	00000000 	andeq	r0, r0, r0
2000002c:	00000000 	andeq	r0, r0, r0
20000030:	00000000 	andeq	r0, r0, r0
20000034:	00000000 	andeq	r0, r0, r0
20000038:	00000000 	andeq	r0, r0, r0
2000003c:	08001174 	stmdaeq	r0, {r2, r4, r5, r6, r8, ip}
20000040:	00000000 	andeq	r0, r0, r0
20000044:	00000000 	andeq	r0, r0, r0
20000048:	00000000 	andeq	r0, r0, r0
2000004c:	00000000 	andeq	r0, r0, r0
20000050:	00000000 	andeq	r0, r0, r0
20000054:	00000000 	andeq	r0, r0, r0
20000058:	00000000 	andeq	r0, r0, r0
2000005c:	00000000 	andeq	r0, r0, r0
20000060:	00000000 	andeq	r0, r0, r0
20000064:	00000000 	andeq	r0, r0, r0
20000068:	00000000 	andeq	r0, r0, r0
2000006c:	00000000 	andeq	r0, r0, r0
20000070:	00000000 	andeq	r0, r0, r0
20000074:	00000000 	andeq	r0, r0, r0
20000078:	00000000 	andeq	r0, r0, r0
2000007c:	00000000 	andeq	r0, r0, r0
20000080:	00000000 	andeq	r0, r0, r0
20000084:	00000000 	andeq	r0, r0, r0
20000088:	00000000 	andeq	r0, r0, r0
2000008c:	00000000 	andeq	r0, r0, r0
20000090:	00000000 	andeq	r0, r0, r0
20000094:	00000000 	andeq	r0, r0, r0
20000098:	00000000 	andeq	r0, r0, r0
2000009c:	00000000 	andeq	r0, r0, r0
200000a0:	00000000 	andeq	r0, r0, r0
200000a4:	00000000 	andeq	r0, r0, r0
200000a8:	00000000 	andeq	r0, r0, r0
200000ac:	00000000 	andeq	r0, r0, r0
200000b0:	00000001 	andeq	r0, r0, r1
200000b4:	00000000 	andeq	r0, r0, r0
200000b8:	abcd330e 	blge	1f34ccf8 <__etext+0x1734bb70>
200000bc:	e66d1234 			; <UNDEFINED> instruction: 0xe66d1234
200000c0:	0005deec 	andeq	sp, r5, ip, ror #29
200000c4:	0000000b 	andeq	r0, r0, fp
200000c8:	00000000 	andeq	r0, r0, r0
200000cc:	00000000 	andeq	r0, r0, r0
200000d0:	00000000 	andeq	r0, r0, r0
200000d4:	00000000 	andeq	r0, r0, r0
200000d8:	00000000 	andeq	r0, r0, r0
200000dc:	00000000 	andeq	r0, r0, r0
200000e0:	00000000 	andeq	r0, r0, r0
200000e4:	00000000 	andeq	r0, r0, r0
200000e8:	00000000 	andeq	r0, r0, r0
200000ec:	00000000 	andeq	r0, r0, r0
200000f0:	00000000 	andeq	r0, r0, r0
200000f4:	00000000 	andeq	r0, r0, r0
200000f8:	00000000 	andeq	r0, r0, r0
200000fc:	00000000 	andeq	r0, r0, r0
20000100:	00000000 	andeq	r0, r0, r0
20000104:	00000000 	andeq	r0, r0, r0
20000108:	00000000 	andeq	r0, r0, r0
2000010c:	00000000 	andeq	r0, r0, r0
20000110:	00000000 	andeq	r0, r0, r0
20000114:	00000000 	andeq	r0, r0, r0
20000118:	00000000 	andeq	r0, r0, r0
2000011c:	00000000 	andeq	r0, r0, r0
20000120:	00000000 	andeq	r0, r0, r0
20000124:	00000000 	andeq	r0, r0, r0
20000128:	00000000 	andeq	r0, r0, r0
2000012c:	00000000 	andeq	r0, r0, r0
20000130:	00000000 	andeq	r0, r0, r0
20000134:	00000000 	andeq	r0, r0, r0
20000138:	00000000 	andeq	r0, r0, r0
2000013c:	00000000 	andeq	r0, r0, r0
20000140:	00000000 	andeq	r0, r0, r0
20000144:	00000000 	andeq	r0, r0, r0
20000148:	00000000 	andeq	r0, r0, r0
2000014c:	00000000 	andeq	r0, r0, r0
20000150:	00000000 	andeq	r0, r0, r0
20000154:	00000000 	andeq	r0, r0, r0
20000158:	00000000 	andeq	r0, r0, r0
2000015c:	00000000 	andeq	r0, r0, r0
20000160:	00000000 	andeq	r0, r0, r0
20000164:	00000000 	andeq	r0, r0, r0
20000168:	00000000 	andeq	r0, r0, r0
2000016c:	00000000 	andeq	r0, r0, r0
20000170:	00000000 	andeq	r0, r0, r0
20000174:	00000000 	andeq	r0, r0, r0
20000178:	00000000 	andeq	r0, r0, r0
2000017c:	00000000 	andeq	r0, r0, r0
20000180:	00000000 	andeq	r0, r0, r0
20000184:	00000000 	andeq	r0, r0, r0
20000188:	00000000 	andeq	r0, r0, r0
2000018c:	00000000 	andeq	r0, r0, r0
20000190:	00000000 	andeq	r0, r0, r0
20000194:	00000000 	andeq	r0, r0, r0
20000198:	00000000 	andeq	r0, r0, r0
2000019c:	00000000 	andeq	r0, r0, r0
200001a0:	00000000 	andeq	r0, r0, r0
200001a4:	00000000 	andeq	r0, r0, r0
200001a8:	00000000 	andeq	r0, r0, r0
200001ac:	00000000 	andeq	r0, r0, r0
200001b0:	00000000 	andeq	r0, r0, r0
200001b4:	00000000 	andeq	r0, r0, r0
200001b8:	00000000 	andeq	r0, r0, r0
200001bc:	00000000 	andeq	r0, r0, r0
200001c0:	00000000 	andeq	r0, r0, r0
200001c4:	00000000 	andeq	r0, r0, r0
200001c8:	00000000 	andeq	r0, r0, r0
200001cc:	00000000 	andeq	r0, r0, r0
200001d0:	00000000 	andeq	r0, r0, r0
200001d4:	00000000 	andeq	r0, r0, r0
200001d8:	00000000 	andeq	r0, r0, r0
200001dc:	00000000 	andeq	r0, r0, r0
200001e0:	00000000 	andeq	r0, r0, r0
200001e4:	00000000 	andeq	r0, r0, r0
200001e8:	00000000 	andeq	r0, r0, r0
200001ec:	00000000 	andeq	r0, r0, r0
200001f0:	00000000 	andeq	r0, r0, r0
200001f4:	00000000 	andeq	r0, r0, r0
200001f8:	00000000 	andeq	r0, r0, r0
200001fc:	00000000 	andeq	r0, r0, r0
20000200:	00000000 	andeq	r0, r0, r0
20000204:	00000000 	andeq	r0, r0, r0
20000208:	00000000 	andeq	r0, r0, r0
2000020c:	00000000 	andeq	r0, r0, r0
20000210:	00000000 	andeq	r0, r0, r0
20000214:	00000000 	andeq	r0, r0, r0
20000218:	00000000 	andeq	r0, r0, r0
2000021c:	00000000 	andeq	r0, r0, r0
20000220:	00000000 	andeq	r0, r0, r0
20000224:	00000000 	andeq	r0, r0, r0
20000228:	00000000 	andeq	r0, r0, r0
2000022c:	00000000 	andeq	r0, r0, r0
20000230:	00000000 	andeq	r0, r0, r0
20000234:	00000000 	andeq	r0, r0, r0
20000238:	00000000 	andeq	r0, r0, r0
2000023c:	00000000 	andeq	r0, r0, r0
20000240:	00000000 	andeq	r0, r0, r0
20000244:	00000000 	andeq	r0, r0, r0
20000248:	00000000 	andeq	r0, r0, r0
2000024c:	00000000 	andeq	r0, r0, r0
20000250:	00000000 	andeq	r0, r0, r0
20000254:	00000000 	andeq	r0, r0, r0
20000258:	00000000 	andeq	r0, r0, r0
2000025c:	00000000 	andeq	r0, r0, r0
20000260:	00000000 	andeq	r0, r0, r0
20000264:	00000000 	andeq	r0, r0, r0
20000268:	00000000 	andeq	r0, r0, r0
2000026c:	00000000 	andeq	r0, r0, r0
20000270:	00000000 	andeq	r0, r0, r0
20000274:	00000000 	andeq	r0, r0, r0
20000278:	00000000 	andeq	r0, r0, r0
2000027c:	00000000 	andeq	r0, r0, r0
20000280:	00000000 	andeq	r0, r0, r0
20000284:	00000000 	andeq	r0, r0, r0
20000288:	00000000 	andeq	r0, r0, r0
2000028c:	00000000 	andeq	r0, r0, r0
20000290:	00000000 	andeq	r0, r0, r0
20000294:	00000000 	andeq	r0, r0, r0
20000298:	00000000 	andeq	r0, r0, r0
2000029c:	00000000 	andeq	r0, r0, r0
200002a0:	00000000 	andeq	r0, r0, r0
200002a4:	00000000 	andeq	r0, r0, r0
200002a8:	00000000 	andeq	r0, r0, r0
200002ac:	00000000 	andeq	r0, r0, r0
200002b0:	00000000 	andeq	r0, r0, r0
200002b4:	00000000 	andeq	r0, r0, r0
200002b8:	00000000 	andeq	r0, r0, r0
200002bc:	00000000 	andeq	r0, r0, r0
200002c0:	00000000 	andeq	r0, r0, r0
200002c4:	00000000 	andeq	r0, r0, r0
200002c8:	00000000 	andeq	r0, r0, r0
200002cc:	00000000 	andeq	r0, r0, r0
200002d0:	00000000 	andeq	r0, r0, r0
200002d4:	00000000 	andeq	r0, r0, r0
200002d8:	00000000 	andeq	r0, r0, r0
200002dc:	00000000 	andeq	r0, r0, r0
200002e0:	00000000 	andeq	r0, r0, r0
200002e4:	00000000 	andeq	r0, r0, r0
200002e8:	00000000 	andeq	r0, r0, r0
200002ec:	00000000 	andeq	r0, r0, r0
200002f0:	00000000 	andeq	r0, r0, r0
200002f4:	00000000 	andeq	r0, r0, r0
200002f8:	00000000 	andeq	r0, r0, r0
200002fc:	00000000 	andeq	r0, r0, r0
20000300:	00000000 	andeq	r0, r0, r0
20000304:	00000000 	andeq	r0, r0, r0
20000308:	00000000 	andeq	r0, r0, r0
2000030c:	00000000 	andeq	r0, r0, r0
20000310:	00000000 	andeq	r0, r0, r0
20000314:	00000000 	andeq	r0, r0, r0
20000318:	00000000 	andeq	r0, r0, r0
2000031c:	00000000 	andeq	r0, r0, r0
20000320:	00000000 	andeq	r0, r0, r0
20000324:	00000000 	andeq	r0, r0, r0
20000328:	00000000 	andeq	r0, r0, r0
2000032c:	00000000 	andeq	r0, r0, r0
20000330:	00000000 	andeq	r0, r0, r0
20000334:	00000000 	andeq	r0, r0, r0
20000338:	00000000 	andeq	r0, r0, r0
2000033c:	00000000 	andeq	r0, r0, r0
20000340:	00000000 	andeq	r0, r0, r0
20000344:	00000000 	andeq	r0, r0, r0
20000348:	00000000 	andeq	r0, r0, r0
2000034c:	00000000 	andeq	r0, r0, r0
20000350:	00000000 	andeq	r0, r0, r0
20000354:	00000000 	andeq	r0, r0, r0
20000358:	00000000 	andeq	r0, r0, r0
2000035c:	00000000 	andeq	r0, r0, r0
20000360:	00000000 	andeq	r0, r0, r0
20000364:	00000000 	andeq	r0, r0, r0
20000368:	00000000 	andeq	r0, r0, r0
2000036c:	00000000 	andeq	r0, r0, r0
20000370:	00000000 	andeq	r0, r0, r0
20000374:	00000000 	andeq	r0, r0, r0
20000378:	00000000 	andeq	r0, r0, r0
2000037c:	00000000 	andeq	r0, r0, r0
20000380:	00000000 	andeq	r0, r0, r0
20000384:	00000000 	andeq	r0, r0, r0
20000388:	00000000 	andeq	r0, r0, r0
2000038c:	00000000 	andeq	r0, r0, r0
20000390:	00000000 	andeq	r0, r0, r0
20000394:	00000000 	andeq	r0, r0, r0
20000398:	00000000 	andeq	r0, r0, r0
2000039c:	00000000 	andeq	r0, r0, r0
200003a0:	00000000 	andeq	r0, r0, r0
200003a4:	00000000 	andeq	r0, r0, r0
200003a8:	00000000 	andeq	r0, r0, r0
200003ac:	00000000 	andeq	r0, r0, r0
200003b0:	00000000 	andeq	r0, r0, r0
200003b4:	00000000 	andeq	r0, r0, r0
200003b8:	00000000 	andeq	r0, r0, r0
200003bc:	00000000 	andeq	r0, r0, r0
200003c0:	00000000 	andeq	r0, r0, r0
200003c4:	00000000 	andeq	r0, r0, r0
200003c8:	00000000 	andeq	r0, r0, r0
200003cc:	00000000 	andeq	r0, r0, r0
200003d0:	00000000 	andeq	r0, r0, r0
200003d4:	00000000 	andeq	r0, r0, r0
200003d8:	00000000 	andeq	r0, r0, r0
200003dc:	00000000 	andeq	r0, r0, r0
200003e0:	00000000 	andeq	r0, r0, r0
200003e4:	00000000 	andeq	r0, r0, r0
200003e8:	00000000 	andeq	r0, r0, r0
200003ec:	00000000 	andeq	r0, r0, r0
200003f0:	00000000 	andeq	r0, r0, r0
200003f4:	00000000 	andeq	r0, r0, r0
200003f8:	00000000 	andeq	r0, r0, r0
200003fc:	00000000 	andeq	r0, r0, r0
20000400:	00000000 	andeq	r0, r0, r0
20000404:	00000000 	andeq	r0, r0, r0
20000408:	00000000 	andeq	r0, r0, r0
2000040c:	00000000 	andeq	r0, r0, r0
20000410:	00000000 	andeq	r0, r0, r0
20000414:	00000000 	andeq	r0, r0, r0
20000418:	00000000 	andeq	r0, r0, r0
2000041c:	00000000 	andeq	r0, r0, r0
20000420:	00000000 	andeq	r0, r0, r0
20000424:	00000000 	andeq	r0, r0, r0
20000428:	00000000 	andeq	r0, r0, r0
2000042c:	00000000 	andeq	r0, r0, r0

Disassembly of section .bss:

20000430 <__bss_start__>:
20000430:	00000000 	andeq	r0, r0, r0

20000434 <object.6271>:
20000434:	00000000 	andeq	r0, r0, r0
20000438:	00000000 	andeq	r0, r0, r0
2000043c:	00000000 	andeq	r0, r0, r0
20000440:	00000000 	andeq	r0, r0, r0
20000444:	00000000 	andeq	r0, r0, r0
20000448:	00000000 	andeq	r0, r0, r0

2000044c <uwTick>:
2000044c:	00000000 	andeq	r0, r0, r0

Disassembly of section .text:

08000214 <deregister_tm_clones>:
 8000214:	48054b04 	stmdami	r5, {r2, r8, r9, fp, lr}
 8000218:	2b061a1b 	blcs	8186a8c <_sidata+0x185904>
 800021c:	4b04d902 	blmi	813662c <_sidata+0x1354a4>
 8000220:	4718b103 	ldrmi	fp, [r8, -r3, lsl #2]
 8000224:	4770      	bx	lr
 8000226:	0433bf00 	ldrteq	fp, [r3], #-3840	; 0xfffff100
 800022a:	2000      	movs	r0, #0
 800022c:	20000430 	andcs	r0, r0, r0, lsr r4
 8000230:	0000      	movs	r0, r0
 8000232:	49050000 	stmdbmi	r5, {}	; <UNPREDICTABLE>

08000234 <register_tm_clones>:
 8000234:	4905      	ldr	r1, [pc, #20]	; (800024c <register_tm_clones+0x18>)
 8000236:	4806      	ldr	r0, [pc, #24]	; (8000250 <register_tm_clones+0x1c>)
 8000238:	10891a09 	addne	r1, r9, r9, lsl #20
 800023c:	eb01 71d1 	add.w	r1, r1, r1, lsr #31
 8000240:	d0021049 	andle	r1, r2, r9, asr #32
 8000244:	4b03      	ldr	r3, [pc, #12]	; (8000254 <register_tm_clones+0x20>)
 8000246:	4718b103 	ldrmi	fp, [r8, -r3, lsl #2]
 800024a:	4770      	bx	lr
 800024c:	0430      	lsls	r0, r6, #16
 800024e:	04302000 	ldrteq	r2, [r0], #-0
 8000252:	2000      	movs	r0, #0
 8000254:	0000      	movs	r0, r0
 8000256:	b5100000 	ldrlt	r0, [r0, #-0]

08000258 <__do_global_dtors_aux>:
 8000258:	b510      	push	{r4, lr}
 800025a:	4c06      	ldr	r4, [pc, #24]	; (8000274 <__do_global_dtors_aux+0x1c>)
 800025c:	7823      	ldrb	r3, [r4, #0]
 800025e:	f7ffb943 			; <UNDEFINED> instruction: 0xf7ffb943
 8000262:	ffd8 4b04 			; <UNDEFINED> instruction: 0xffd84b04
 8000266:	4804b113 	stmdami	r4, {r0, r1, r4, r8, ip, sp, pc}
 800026a:	f3af 8000 	nop.w
 800026e:	70232301 	eorvc	r2, r3, r1, lsl #6
 8000272:	bd10      	pop	{r4, pc}
 8000274:	20000430 	andcs	r0, r0, r0, lsr r4
 8000278:	0000      	movs	r0, r0
 800027a:	117c0000 	cmnne	ip, r0
 800027e:	0800      	lsrs	r0, r0, #32

08000280 <frame_dummy>:
 8000280:	4b08b508 	blmi	822d6a8 <_sidata+0x22c520>
 8000284:	b11b      	cbz	r3, 800028e <frame_dummy+0xe>
 8000286:	49084808 	stmdbmi	r8, {r3, fp, lr}
 800028a:	f3af 8000 	nop.w
 800028e:	68034808 	stmdavs	r3, {r3, fp, lr}
 8000292:	b913      	cbnz	r3, 800029a <frame_dummy+0x1a>
 8000294:	4008e8bd 			; <UNDEFINED> instruction: 0x4008e8bd
 8000298:	e7cc      	b.n	8000234 <register_tm_clones>
 800029a:	2b004b06 	blcs	8012eba <_sidata+0x11d32>
 800029e:	d0f9      	beq.n	8000294 <frame_dummy+0x14>
 80002a0:	e7f74798 			; <UNDEFINED> instruction: 0xe7f74798
 80002a4:	0000      	movs	r0, r0
 80002a6:	117c0000 	cmnne	ip, r0
 80002aa:	0800      	lsrs	r0, r0, #32
 80002ac:	0434      	lsls	r4, r6, #16
 80002ae:	04302000 	ldrteq	r2, [r0], #-0
 80002b2:	2000      	movs	r0, #0
 80002b4:	0000      	movs	r0, r0
 80002b6:	4b130000 	blmi	84c02be <_sidata+0x4bf136>

080002b8 <_mainCRTStartup>:
 80002b8:	4b13      	ldr	r3, [pc, #76]	; (8000308 <_mainCRTStartup+0x50>)
 80002ba:	2b00      	cmp	r3, #0
 80002bc:	bf08      	it	eq
 80002be:	469d4b11 			; <UNDEFINED> instruction: 0x469d4b11
 80002c2:	f5a3 3a80 	sub.w	sl, r3, #65536	; 0x10000
 80002c6:	2100      	moveq	r1, #0
 80002c8:	468b      	mov	fp, r1
 80002ca:	460f      	mov	r7, r1
 80002cc:	4811      	ldr	r0, [pc, #68]	; (8000314 <_mainCRTStartup+0x5c>)
 80002ce:	4a12      	ldr	r2, [pc, #72]	; (8000318 <_mainCRTStartup+0x60>)
 80002d0:	1a12      	subs	r2, r2, r0
 80002d2:	f000 fe31 	bl	8000f38 <memset>
 80002d6:	4b0d      	ldr	r3, [pc, #52]	; (800030c <_mainCRTStartup+0x54>)
 80002d8:	2b00      	cmp	r3, #0
 80002da:	d000      	beq.n	80002de <_mainCRTStartup+0x26>
 80002dc:	4798      	blx	r3
 80002de:	4b0c      	ldr	r3, [pc, #48]	; (8000310 <_mainCRTStartup+0x58>)
 80002e0:	2b00      	cmp	r3, #0
 80002e2:	d000      	beq.n	80002e6 <_mainCRTStartup+0x2e>
 80002e4:	4798      	blx	r3
 80002e6:	2000      	movs	r0, #0
 80002e8:	2100      	movs	r1, #0
 80002ea:	0004      	movs	r4, r0
 80002ec:	000d      	movs	r5, r1
 80002ee:	480b      	ldr	r0, [pc, #44]	; (800031c <_mainCRTStartup+0x64>)
 80002f0:	f000 fdce 	bl	8000e90 <atexit>
 80002f4:	f000 fdf8 	bl	8000ee8 <__libc_init_array>
 80002f8:	0020      	movs	r0, r4
 80002fa:	0029      	movs	r1, r5
 80002fc:	f000 fdaa 	bl	8000e54 <main>
 8000300:	f000 fdcc 	bl	8000e9c <exit>
 8000304:	00080000 	andeq	r0, r8, r0
 8000308:	20050000 	andcs	r0, r5, r0
 800030c:	00000000 	andeq	r0, r0, r0
 8000310:	00000000 	andeq	r0, r0, r0
 8000314:	20000430 	andcs	r0, r0, r0, lsr r4
 8000318:	20000450 	andcs	r0, r0, r0, asr r4
 800031c:	08000ebd 	stmdaeq	r0, {r0, r2, r3, r4, r5, r7, r9, sl, fp}

08000320 <Default_Handler>:
 8000320:	4668      	mov	r0, sp
 8000322:	f020 0107 	bic.w	r1, r0, #7
 8000326:	468d      	mov	sp, r1
 8000328:	b501      	push	{r0, lr}
 800032a:	e8bd 4001 	ldmia.w	sp!, {r0, lr}
 800032e:	4685      	mov	sp, r0
 8000330:	4770      	bx	lr

08000332 <HardFault_Handler>:
 8000332:	4668      	mov	r0, sp
 8000334:	f020 0107 	bic.w	r1, r0, #7
 8000338:	468d      	mov	sp, r1
 800033a:	e7fe      	b.n	800033a <HardFault_Handler+0x8>

0800033c <Reset_Handler>:
 800033c:	490e      	ldr	r1, [pc, #56]	; (8000378 <Reset_Handler+0x3c>)
 800033e:	4b0f      	ldr	r3, [pc, #60]	; (800037c <Reset_Handler+0x40>)
 8000340:	1a5b      	subs	r3, r3, r1
 8000342:	109b      	asrs	r3, r3, #2
 8000344:	2200      	movs	r2, #0
 8000346:	429a      	cmp	r2, r3
 8000348:	d006      	beq.n	8000358 <Reset_Handler+0x1c>
 800034a:	480d      	ldr	r0, [pc, #52]	; (8000380 <Reset_Handler+0x44>)
 800034c:	f850 0022 	ldr.w	r0, [r0, r2, lsl #2]
 8000350:	f841 0022 	str.w	r0, [r1, r2, lsl #2]
 8000354:	3201      	adds	r2, #1
 8000356:	e7f6      	b.n	8000346 <Reset_Handler+0xa>
 8000358:	4a0a      	ldr	r2, [pc, #40]	; (8000384 <Reset_Handler+0x48>)
 800035a:	f8d2 3088 	ldr.w	r3, [r2, #136]	; 0x88
 800035e:	f443 0370 	orr.w	r3, r3, #15728640	; 0xf00000
 8000362:	f8c2 3088 	str.w	r3, [r2, #136]	; 0x88
 8000366:	f502 720c 	add.w	r2, r2, #560	; 0x230
 800036a:	6853      	ldr	r3, [r2, #4]
 800036c:	f023 4340 	bic.w	r3, r3, #3221225472	; 0xc0000000
 8000370:	6053      	str	r3, [r2, #4]
 8000372:	f000 bd6f 	b.w	8000e54 <main>
 8000376:	bf00      	nop
 8000378:	20000000 	andcs	r0, r0, r0
 800037c:	20000430 	andcs	r0, r0, r0, lsr r4
 8000380:	08001188 	stmdaeq	r0, {r3, r7, r8, ip}
 8000384:	e000ed00 	and	lr, r0, r0, lsl #26

08000388 <SystemClock_Config>:
 8000388:	b510      	push	{r4, lr}
 800038a:	b092      	sub	sp, #72	; 0x48
 800038c:	2301      	movs	r3, #1
 800038e:	9306      	str	r3, [sp, #24]
 8000390:	f44f 3380 	mov.w	r3, #65536	; 0x10000
 8000394:	9307      	str	r3, [sp, #28]
 8000396:	f44f 0380 	mov.w	r3, #4194304	; 0x400000
 800039a:	930d      	str	r3, [sp, #52]	; 0x34
 800039c:	2319      	movs	r3, #25
 800039e:	930e      	str	r3, [sp, #56]	; 0x38
 80003a0:	f44f 73d8 	mov.w	r3, #432	; 0x1b0
 80003a4:	2402      	movs	r4, #2
 80003a6:	930f      	str	r3, [sp, #60]	; 0x3c
 80003a8:	a806      	add	r0, sp, #24
 80003aa:	2309      	movs	r3, #9
 80003ac:	940c      	str	r4, [sp, #48]	; 0x30
 80003ae:	9410      	str	r4, [sp, #64]	; 0x40
 80003b0:	9311      	str	r3, [sp, #68]	; 0x44
 80003b2:	f000 f917 	bl	80005e4 <HAL_RCC_OscConfig>
 80003b6:	b100      	cbz	r0, 80003ba <SystemClock_Config+0x32>
 80003b8:	e7fe      	b.n	80003b8 <SystemClock_Config+0x30>
 80003ba:	f000 f883 	bl	80004c4 <HAL_PWREx_EnableOverDrive>
 80003be:	b100      	cbz	r0, 80003c2 <SystemClock_Config+0x3a>
 80003c0:	e7fe      	b.n	80003c0 <SystemClock_Config+0x38>
 80003c2:	230f      	movs	r3, #15
 80003c4:	9301      	str	r3, [sp, #4]
 80003c6:	f44f 53a0 	mov.w	r3, #5120	; 0x1400
 80003ca:	9003      	str	r0, [sp, #12]
 80003cc:	9304      	str	r3, [sp, #16]
 80003ce:	a801      	add	r0, sp, #4
 80003d0:	f44f 5380 	mov.w	r3, #4096	; 0x1000
 80003d4:	2107      	movs	r1, #7
 80003d6:	9402      	str	r4, [sp, #8]
 80003d8:	9305      	str	r3, [sp, #20]
 80003da:	f000 fadd 	bl	8000998 <HAL_RCC_ClockConfig>
 80003de:	b100      	cbz	r0, 80003e2 <SystemClock_Config+0x5a>
 80003e0:	e7fe      	b.n	80003e0 <SystemClock_Config+0x58>
 80003e2:	b012      	add	sp, #72	; 0x48
 80003e4:	bd10      	pop	{r4, pc}
 80003e6:	0000      	movs	r0, r0

080003e8 <CPU_CACHE_Enable>:
 80003e8:	4b20      	ldr	r3, [pc, #128]	; (800046c <CPU_CACHE_Enable+0x84>)
 80003ea:	695a      	ldr	r2, [r3, #20]
 80003ec:	f442 2280 	orr.w	r2, r2, #262144	; 0x40000
 80003f0:	b5f0      	push	{r4, r5, r6, r7, lr}
 80003f2:	615a      	str	r2, [r3, #20]
 80003f4:	f3bf 8f4f 	dsb	sy
 80003f8:	f3bf 8f4f 	dsb	sy
 80003fc:	f3bf 8f6f 	isb	sy
 8000400:	2100      	movs	r1, #0
 8000402:	f8c3 1250 	str.w	r1, [r3, #592]	; 0x250
 8000406:	695a      	ldr	r2, [r3, #20]
 8000408:	f442 3200 	orr.w	r2, r2, #131072	; 0x20000
 800040c:	615a      	str	r2, [r3, #20]
 800040e:	f3bf 8f4f 	dsb	sy
 8000412:	f3bf 8f6f 	isb	sy
 8000416:	f8c3 1084 	str.w	r1, [r3, #132]	; 0x84
 800041a:	f8d3 3080 	ldr.w	r3, [r3, #128]	; 0x80
 800041e:	f003 0407 	and.w	r4, r3, #7
 8000422:	f3c3 324e 	ubfx	r2, r3, #13, #15
 8000426:	3404      	adds	r4, #4
 8000428:	f3c3 03c9 	ubfx	r3, r3, #3, #10
 800042c:	fab3 f583 	clz	r5, r3
 8000430:	f005 051f 	and.w	r5, r5, #31
 8000434:	f3bf 8f4f 	dsb	sy
 8000438:	fa02 f704 	lsl.w	r7, r2, r4
 800043c:	4619      	mov	r1, r3
 800043e:	fa01 f605 	lsl.w	r6, r1, r5
 8000442:	480a      	ldr	r0, [pc, #40]	; (800046c <CPU_CACHE_Enable+0x84>)
 8000444:	433e      	orrs	r6, r7
 8000446:	f111 31ff 	adds.w	r1, r1, #4294967295	; 0xffffffff
 800044a:	f8c0 6260 	str.w	r6, [r0, #608]	; 0x260
 800044e:	d2f6      	bcs.n	800043e <CPU_CACHE_Enable+0x56>
 8000450:	f112 32ff 	adds.w	r2, r2, #4294967295	; 0xffffffff
 8000454:	d2f0      	bcs.n	8000438 <CPU_CACHE_Enable+0x50>
 8000456:	f3bf 8f4f 	dsb	sy
 800045a:	6943      	ldr	r3, [r0, #20]
 800045c:	f443 3380 	orr.w	r3, r3, #65536	; 0x10000
 8000460:	6143      	str	r3, [r0, #20]
 8000462:	f3bf 8f4f 	dsb	sy
 8000466:	f3bf 8f6f 	isb	sy
 800046a:	bdf0      	pop	{r4, r5, r6, r7, pc}
 800046c:	e000ed00 	and	lr, r0, r0, lsl #26

08000470 <HAL_InitTick>:
 8000470:	b510      	push	{r4, lr}
 8000472:	4604      	mov	r4, r0
 8000474:	f000 fbba 	bl	8000bec <HAL_RCC_GetHCLKFreq>
 8000478:	f44f 737a 	mov.w	r3, #1000	; 0x3e8
 800047c:	fbb0 f0f3 	udiv	r0, r0, r3
 8000480:	f000 f89a 	bl	80005b8 <HAL_SYSTICK_Config>
 8000484:	f04f 30ff 	mov.w	r0, #4294967295	; 0xffffffff
 8000488:	4621      	mov	r1, r4
 800048a:	2200      	movs	r2, #0
 800048c:	f000 f864 	bl	8000558 <HAL_NVIC_SetPriority>
 8000490:	2000      	movs	r0, #0
 8000492:	bd10      	pop	{r4, pc}

08000494 <HAL_Init>:
 8000494:	4a07      	ldr	r2, [pc, #28]	; (80004b4 <HAL_Init+0x20>)
 8000496:	b508      	push	{r3, lr}
 8000498:	6813      	ldr	r3, [r2, #0]
 800049a:	f443 7300 	orr.w	r3, r3, #512	; 0x200
 800049e:	6013      	str	r3, [r2, #0]
 80004a0:	2003      	movs	r0, #3
 80004a2:	f000 f847 	bl	8000534 <HAL_NVIC_SetPriorityGrouping>
 80004a6:	200f      	movs	r0, #15
 80004a8:	f7ff ffe2 	bl	8000470 <HAL_InitTick>
 80004ac:	f000 fca6 	bl	8000dfc <HAL_MspInit>
 80004b0:	2000      	movs	r0, #0
 80004b2:	bd08      	pop	{r3, pc}
 80004b4:	40023c00 	andmi	r3, r2, r0, lsl #24

080004b8 <HAL_GetTick>:
 80004b8:	4b01      	ldr	r3, [pc, #4]	; (80004c0 <HAL_GetTick+0x8>)
 80004ba:	6818      	ldr	r0, [r3, #0]
 80004bc:	4770      	bx	lr
 80004be:	bf00      	nop
 80004c0:	2000044c 	andcs	r0, r0, ip, asr #8

080004c4 <HAL_PWREx_EnableOverDrive>:
 80004c4:	4b19      	ldr	r3, [pc, #100]	; (800052c <HAL_PWREx_EnableOverDrive+0x68>)
 80004c6:	6c1a      	ldr	r2, [r3, #64]	; 0x40
 80004c8:	b513      	push	{r0, r1, r4, lr}
 80004ca:	f042 5280 	orr.w	r2, r2, #268435456	; 0x10000000
 80004ce:	641a      	str	r2, [r3, #64]	; 0x40
 80004d0:	6c1b      	ldr	r3, [r3, #64]	; 0x40
 80004d2:	4a17      	ldr	r2, [pc, #92]	; (8000530 <HAL_PWREx_EnableOverDrive+0x6c>)
 80004d4:	f003 5380 	and.w	r3, r3, #268435456	; 0x10000000
 80004d8:	9301      	str	r3, [sp, #4]
 80004da:	9b01      	ldr	r3, [sp, #4]
 80004dc:	6813      	ldr	r3, [r2, #0]
 80004de:	f443 3380 	orr.w	r3, r3, #65536	; 0x10000
 80004e2:	6013      	str	r3, [r2, #0]
 80004e4:	f7ff ffe8 	bl	80004b8 <HAL_GetTick>
 80004e8:	4604      	mov	r4, r0
 80004ea:	4b11      	ldr	r3, [pc, #68]	; (8000530 <HAL_PWREx_EnableOverDrive+0x6c>)
 80004ec:	685a      	ldr	r2, [r3, #4]
 80004ee:	03d2      	lsls	r2, r2, #15
 80004f0:	d407      	bmi.n	8000502 <HAL_PWREx_EnableOverDrive+0x3e>
 80004f2:	f7ff ffe1 	bl	80004b8 <HAL_GetTick>
 80004f6:	1b00      	subs	r0, r0, r4
 80004f8:	f5b0 7f7a 	cmp.w	r0, #1000	; 0x3e8
 80004fc:	d9f5      	bls.n	80004ea <HAL_PWREx_EnableOverDrive+0x26>
 80004fe:	2003      	movs	r0, #3
 8000500:	e012      	b.n	8000528 <HAL_PWREx_EnableOverDrive+0x64>
 8000502:	681a      	ldr	r2, [r3, #0]
 8000504:	f442 3200 	orr.w	r2, r2, #131072	; 0x20000
 8000508:	601a      	str	r2, [r3, #0]
 800050a:	f7ff ffd5 	bl	80004b8 <HAL_GetTick>
 800050e:	4604      	mov	r4, r0
 8000510:	4b07      	ldr	r3, [pc, #28]	; (8000530 <HAL_PWREx_EnableOverDrive+0x6c>)
 8000512:	685b      	ldr	r3, [r3, #4]
 8000514:	039b      	lsls	r3, r3, #14
 8000516:	d406      	bmi.n	8000526 <HAL_PWREx_EnableOverDrive+0x62>
 8000518:	f7ff ffce 	bl	80004b8 <HAL_GetTick>
 800051c:	1b00      	subs	r0, r0, r4
 800051e:	f5b0 7f7a 	cmp.w	r0, #1000	; 0x3e8
 8000522:	d9f5      	bls.n	8000510 <HAL_PWREx_EnableOverDrive+0x4c>
 8000524:	e7eb      	b.n	80004fe <HAL_PWREx_EnableOverDrive+0x3a>
 8000526:	2000      	movs	r0, #0
 8000528:	b002      	add	sp, #8
 800052a:	bd10      	pop	{r4, pc}
 800052c:	40023800 	andmi	r3, r2, r0, lsl #16
 8000530:	40007000 	andmi	r7, r0, r0

08000534 <HAL_NVIC_SetPriorityGrouping>:
 8000534:	4a07      	ldr	r2, [pc, #28]	; (8000554 <HAL_NVIC_SetPriorityGrouping+0x20>)
 8000536:	68d3      	ldr	r3, [r2, #12]
 8000538:	f423 63e0 	bic.w	r3, r3, #1792	; 0x700
 800053c:	041b      	lsls	r3, r3, #16
 800053e:	0c1b      	lsrs	r3, r3, #16
 8000540:	f043 63bf 	orr.w	r3, r3, #100139008	; 0x5f80000
 8000544:	f443 3300 	orr.w	r3, r3, #131072	; 0x20000
 8000548:	f000 0007 	and.w	r0, r0, #7
 800054c:	ea43 2300 	orr.w	r3, r3, r0, lsl #8
 8000550:	60d3      	str	r3, [r2, #12]
 8000552:	4770      	bx	lr
 8000554:	e000ed00 	and	lr, r0, r0, lsl #26

08000558 <HAL_NVIC_SetPriority>:
 8000558:	4b15      	ldr	r3, [pc, #84]	; (80005b0 <HAL_NVIC_SetPriority+0x58>)
 800055a:	68db      	ldr	r3, [r3, #12]
 800055c:	f3c3 2302 	ubfx	r3, r3, #8, #3
 8000560:	b570      	push	{r4, r5, r6, lr}
 8000562:	f1c3 0507 	rsb	r5, r3, #7
 8000566:	1d1c      	adds	r4, r3, #4
 8000568:	2d04      	cmp	r5, #4
 800056a:	bf28      	it	cs
 800056c:	2504      	movcs	r5, #4
 800056e:	2c06      	cmp	r4, #6
 8000570:	bf8c      	ite	hi
 8000572:	3b03      	subhi	r3, #3
 8000574:	2300      	movls	r3, #0
 8000576:	2401      	movs	r4, #1
 8000578:	fa04 f603 	lsl.w	r6, r4, r3
 800057c:	40ac      	lsls	r4, r5
 800057e:	3c01      	subs	r4, #1
 8000580:	3e01      	subs	r6, #1
 8000582:	4021      	ands	r1, r4
 8000584:	4099      	lsls	r1, r3
 8000586:	4032      	ands	r2, r6
 8000588:	2800      	cmp	r0, #0
 800058a:	ea42 0201 	orr.w	r2, r2, r1
 800058e:	ea4f 1202 	mov.w	r2, r2, lsl #4
 8000592:	bfaf      	iteee	ge
 8000594:	f100 4060 	addge.w	r0, r0, #3758096384	; 0xe0000000
 8000598:	f000 000f 	andlt.w	r0, r0, #15
 800059c:	4b05      	ldrlt	r3, [pc, #20]	; (80005b4 <HAL_NVIC_SetPriority+0x5c>)
 800059e:	b2d2      	uxtblt	r2, r2
 80005a0:	bfa5      	ittet	ge
 80005a2:	f500 4061 	addge.w	r0, r0, #57600	; 0xe100
 80005a6:	b2d2      	uxtbge	r2, r2
 80005a8:	541a      	strblt	r2, [r3, r0]
 80005aa:	f880 2300 	strbge.w	r2, [r0, #768]	; 0x300
 80005ae:	bd70      	pop	{r4, r5, r6, pc}
 80005b0:	e000ed00 	and	lr, r0, r0, lsl #26
 80005b4:	e000ed14 	and	lr, r0, r4, lsl sp

080005b8 <HAL_SYSTICK_Config>:
 80005b8:	3801      	subs	r0, #1
 80005ba:	f1b0 7f80 	cmp.w	r0, #16777216	; 0x1000000
 80005be:	bf3f      	itttt	cc
 80005c0:	4b06      	ldrcc	r3, [pc, #24]	; (80005dc <HAL_SYSTICK_Config+0x24>)
 80005c2:	4a07      	ldrcc	r2, [pc, #28]	; (80005e0 <HAL_SYSTICK_Config+0x28>)
 80005c4:	6058      	strcc	r0, [r3, #4]
 80005c6:	21f0      	movcc	r1, #240	; 0xf0
 80005c8:	bf3f      	itttt	cc
 80005ca:	f882 1023 	strbcc.w	r1, [r2, #35]	; 0x23
 80005ce:	2000      	movcc	r0, #0
 80005d0:	2207      	movcc	r2, #7
 80005d2:	6098      	strcc	r0, [r3, #8]
 80005d4:	bf34      	ite	cc
 80005d6:	601a      	strcc	r2, [r3, #0]
 80005d8:	2001      	movcs	r0, #1
 80005da:	4770      	bx	lr
 80005dc:	e000e010 	and	lr, r0, r0, lsl r0
 80005e0:	e000ed00 	and	lr, r0, r0, lsl #26

080005e4 <HAL_RCC_OscConfig>:
 80005e4:	6803      	ldr	r3, [r0, #0]
 80005e6:	b573      	push	{r0, r1, r4, r5, r6, lr}
 80005e8:	07de      	lsls	r6, r3, #31
 80005ea:	4604      	mov	r4, r0
 80005ec:	d403      	bmi.n	80005f6 <HAL_RCC_OscConfig+0x12>
 80005ee:	6823      	ldr	r3, [r4, #0]
 80005f0:	079d      	lsls	r5, r3, #30
 80005f2:	d473      	bmi.n	80006dc <HAL_RCC_OscConfig+0xf8>
 80005f4:	e0c5      	b.n	8000782 <HAL_RCC_OscConfig+0x19e>
 80005f6:	4ba5      	ldr	r3, [pc, #660]	; (800088c <HAL_RCC_OscConfig+0x2a8>)
 80005f8:	689a      	ldr	r2, [r3, #8]
 80005fa:	f002 020c 	and.w	r2, r2, #12
 80005fe:	2a04      	cmp	r2, #4
 8000600:	d007      	beq.n	8000612 <HAL_RCC_OscConfig+0x2e>
 8000602:	689a      	ldr	r2, [r3, #8]
 8000604:	f002 020c 	and.w	r2, r2, #12
 8000608:	2a08      	cmp	r2, #8
 800060a:	d10b      	bne.n	8000624 <HAL_RCC_OscConfig+0x40>
 800060c:	685b      	ldr	r3, [r3, #4]
 800060e:	0258      	lsls	r0, r3, #9
 8000610:	d508      	bpl.n	8000624 <HAL_RCC_OscConfig+0x40>
 8000612:	4b9e      	ldr	r3, [pc, #632]	; (800088c <HAL_RCC_OscConfig+0x2a8>)
 8000614:	681b      	ldr	r3, [r3, #0]
 8000616:	0399      	lsls	r1, r3, #14
 8000618:	d5e9      	bpl.n	80005ee <HAL_RCC_OscConfig+0xa>
 800061a:	6863      	ldr	r3, [r4, #4]
 800061c:	2b00      	cmp	r3, #0
 800061e:	d1e6      	bne.n	80005ee <HAL_RCC_OscConfig+0xa>
 8000620:	2001      	movs	r0, #1
 8000622:	e1b5      	b.n	8000990 <HAL_RCC_OscConfig+0x3ac>
 8000624:	4b99      	ldr	r3, [pc, #612]	; (800088c <HAL_RCC_OscConfig+0x2a8>)
 8000626:	681a      	ldr	r2, [r3, #0]
 8000628:	f422 3280 	bic.w	r2, r2, #65536	; 0x10000
 800062c:	601a      	str	r2, [r3, #0]
 800062e:	681a      	ldr	r2, [r3, #0]
 8000630:	f422 2280 	bic.w	r2, r2, #262144	; 0x40000
 8000634:	601a      	str	r2, [r3, #0]
 8000636:	681a      	ldr	r2, [r3, #0]
 8000638:	f422 3280 	bic.w	r2, r2, #65536	; 0x10000
 800063c:	601a      	str	r2, [r3, #0]
 800063e:	f7ff ff3b 	bl	80004b8 <HAL_GetTick>
 8000642:	4605      	mov	r5, r0
 8000644:	4b91      	ldr	r3, [pc, #580]	; (800088c <HAL_RCC_OscConfig+0x2a8>)
 8000646:	681a      	ldr	r2, [r3, #0]
 8000648:	0392      	lsls	r2, r2, #14
 800064a:	d508      	bpl.n	800065e <HAL_RCC_OscConfig+0x7a>
 800064c:	f7ff ff34 	bl	80004b8 <HAL_GetTick>
 8000650:	f241 3388 	movw	r3, #5000	; 0x1388
 8000654:	1b40      	subs	r0, r0, r5
 8000656:	4298      	cmp	r0, r3
 8000658:	d9f4      	bls.n	8000644 <HAL_RCC_OscConfig+0x60>
 800065a:	2003      	movs	r0, #3
 800065c:	e198      	b.n	8000990 <HAL_RCC_OscConfig+0x3ac>
 800065e:	681a      	ldr	r2, [r3, #0]
 8000660:	f422 3280 	bic.w	r2, r2, #65536	; 0x10000
 8000664:	601a      	str	r2, [r3, #0]
 8000666:	6862      	ldr	r2, [r4, #4]
 8000668:	f5b2 3f80 	cmp.w	r2, #65536	; 0x10000
 800066c:	d103      	bne.n	8000676 <HAL_RCC_OscConfig+0x92>
 800066e:	681a      	ldr	r2, [r3, #0]
 8000670:	f422 2280 	bic.w	r2, r2, #262144	; 0x40000
 8000674:	e005      	b.n	8000682 <HAL_RCC_OscConfig+0x9e>
 8000676:	f5b2 2fa0 	cmp.w	r2, #327680	; 0x50000
 800067a:	d108      	bne.n	800068e <HAL_RCC_OscConfig+0xaa>
 800067c:	681a      	ldr	r2, [r3, #0]
 800067e:	f442 2280 	orr.w	r2, r2, #262144	; 0x40000
 8000682:	601a      	str	r2, [r3, #0]
 8000684:	681a      	ldr	r2, [r3, #0]
 8000686:	f442 3280 	orr.w	r2, r2, #65536	; 0x10000
 800068a:	601a      	str	r2, [r3, #0]
 800068c:	e008      	b.n	80006a0 <HAL_RCC_OscConfig+0xbc>
 800068e:	6819      	ldr	r1, [r3, #0]
 8000690:	f421 2180 	bic.w	r1, r1, #262144	; 0x40000
 8000694:	6019      	str	r1, [r3, #0]
 8000696:	6819      	ldr	r1, [r3, #0]
 8000698:	f421 3180 	bic.w	r1, r1, #65536	; 0x10000
 800069c:	6019      	str	r1, [r3, #0]
 800069e:	b172      	cbz	r2, 80006be <HAL_RCC_OscConfig+0xda>
 80006a0:	f7ff ff0a 	bl	80004b8 <HAL_GetTick>
 80006a4:	4605      	mov	r5, r0
 80006a6:	4b79      	ldr	r3, [pc, #484]	; (800088c <HAL_RCC_OscConfig+0x2a8>)
 80006a8:	681b      	ldr	r3, [r3, #0]
 80006aa:	039e      	lsls	r6, r3, #14
 80006ac:	d49f      	bmi.n	80005ee <HAL_RCC_OscConfig+0xa>
 80006ae:	f7ff ff03 	bl	80004b8 <HAL_GetTick>
 80006b2:	f241 3388 	movw	r3, #5000	; 0x1388
 80006b6:	1b40      	subs	r0, r0, r5
 80006b8:	4298      	cmp	r0, r3
 80006ba:	d9f4      	bls.n	80006a6 <HAL_RCC_OscConfig+0xc2>
 80006bc:	e7cd      	b.n	800065a <HAL_RCC_OscConfig+0x76>
 80006be:	f7ff fefb 	bl	80004b8 <HAL_GetTick>
 80006c2:	4605      	mov	r5, r0
 80006c4:	4b71      	ldr	r3, [pc, #452]	; (800088c <HAL_RCC_OscConfig+0x2a8>)
 80006c6:	681b      	ldr	r3, [r3, #0]
 80006c8:	0398      	lsls	r0, r3, #14
 80006ca:	d590      	bpl.n	80005ee <HAL_RCC_OscConfig+0xa>
 80006cc:	f7ff fef4 	bl	80004b8 <HAL_GetTick>
 80006d0:	f241 3388 	movw	r3, #5000	; 0x1388
 80006d4:	1b40      	subs	r0, r0, r5
 80006d6:	4298      	cmp	r0, r3
 80006d8:	d9f4      	bls.n	80006c4 <HAL_RCC_OscConfig+0xe0>
 80006da:	e7be      	b.n	800065a <HAL_RCC_OscConfig+0x76>
 80006dc:	4b6b      	ldr	r3, [pc, #428]	; (800088c <HAL_RCC_OscConfig+0x2a8>)
 80006de:	689a      	ldr	r2, [r3, #8]
 80006e0:	f012 0f0c 	tst.w	r2, #12
 80006e4:	d007      	beq.n	80006f6 <HAL_RCC_OscConfig+0x112>
 80006e6:	689a      	ldr	r2, [r3, #8]
 80006e8:	f002 020c 	and.w	r2, r2, #12
 80006ec:	2a08      	cmp	r2, #8
 80006ee:	d116      	bne.n	800071e <HAL_RCC_OscConfig+0x13a>
 80006f0:	685b      	ldr	r3, [r3, #4]
 80006f2:	0259      	lsls	r1, r3, #9
 80006f4:	d413      	bmi.n	800071e <HAL_RCC_OscConfig+0x13a>
 80006f6:	4b65      	ldr	r3, [pc, #404]	; (800088c <HAL_RCC_OscConfig+0x2a8>)
 80006f8:	681a      	ldr	r2, [r3, #0]
 80006fa:	0792      	lsls	r2, r2, #30
 80006fc:	d502      	bpl.n	8000704 <HAL_RCC_OscConfig+0x120>
 80006fe:	68e2      	ldr	r2, [r4, #12]
 8000700:	2a01      	cmp	r2, #1
 8000702:	d18d      	bne.n	8000620 <HAL_RCC_OscConfig+0x3c>
 8000704:	6819      	ldr	r1, [r3, #0]
 8000706:	20f8      	movs	r0, #248	; 0xf8
 8000708:	fa90 f0a0 	rbit	r0, r0
 800070c:	6922      	ldr	r2, [r4, #16]
 800070e:	fab0 f080 	clz	r0, r0
 8000712:	f021 01f8 	bic.w	r1, r1, #248	; 0xf8
 8000716:	4082      	lsls	r2, r0
 8000718:	430a      	orrs	r2, r1
 800071a:	601a      	str	r2, [r3, #0]
 800071c:	e031      	b.n	8000782 <HAL_RCC_OscConfig+0x19e>
 800071e:	68e2      	ldr	r2, [r4, #12]
 8000720:	4b5a      	ldr	r3, [pc, #360]	; (800088c <HAL_RCC_OscConfig+0x2a8>)
 8000722:	b1ea      	cbz	r2, 8000760 <HAL_RCC_OscConfig+0x17c>
 8000724:	681a      	ldr	r2, [r3, #0]
 8000726:	f042 0201 	orr.w	r2, r2, #1
 800072a:	601a      	str	r2, [r3, #0]
 800072c:	f7ff fec4 	bl	80004b8 <HAL_GetTick>
 8000730:	4605      	mov	r5, r0
 8000732:	4856      	ldr	r0, [pc, #344]	; (800088c <HAL_RCC_OscConfig+0x2a8>)
 8000734:	6803      	ldr	r3, [r0, #0]
 8000736:	079e      	lsls	r6, r3, #30
 8000738:	d405      	bmi.n	8000746 <HAL_RCC_OscConfig+0x162>
 800073a:	f7ff febd 	bl	80004b8 <HAL_GetTick>
 800073e:	1b40      	subs	r0, r0, r5
 8000740:	2864      	cmp	r0, #100	; 0x64
 8000742:	d9f6      	bls.n	8000732 <HAL_RCC_OscConfig+0x14e>
 8000744:	e789      	b.n	800065a <HAL_RCC_OscConfig+0x76>
 8000746:	6802      	ldr	r2, [r0, #0]
 8000748:	21f8      	movs	r1, #248	; 0xf8
 800074a:	fa91 f1a1 	rbit	r1, r1
 800074e:	6923      	ldr	r3, [r4, #16]
 8000750:	fab1 f181 	clz	r1, r1
 8000754:	f022 02f8 	bic.w	r2, r2, #248	; 0xf8
 8000758:	408b      	lsls	r3, r1
 800075a:	4313      	orrs	r3, r2
 800075c:	6003      	str	r3, [r0, #0]
 800075e:	e010      	b.n	8000782 <HAL_RCC_OscConfig+0x19e>
 8000760:	681a      	ldr	r2, [r3, #0]
 8000762:	f022 0201 	bic.w	r2, r2, #1
 8000766:	601a      	str	r2, [r3, #0]
 8000768:	f7ff fea6 	bl	80004b8 <HAL_GetTick>
 800076c:	4605      	mov	r5, r0
 800076e:	4b47      	ldr	r3, [pc, #284]	; (800088c <HAL_RCC_OscConfig+0x2a8>)
 8000770:	681b      	ldr	r3, [r3, #0]
 8000772:	0799      	lsls	r1, r3, #30
 8000774:	d505      	bpl.n	8000782 <HAL_RCC_OscConfig+0x19e>
 8000776:	f7ff fe9f 	bl	80004b8 <HAL_GetTick>
 800077a:	1b40      	subs	r0, r0, r5
 800077c:	2864      	cmp	r0, #100	; 0x64
 800077e:	d9f6      	bls.n	800076e <HAL_RCC_OscConfig+0x18a>
 8000780:	e76b      	b.n	800065a <HAL_RCC_OscConfig+0x76>
 8000782:	6823      	ldr	r3, [r4, #0]
 8000784:	071a      	lsls	r2, r3, #28
 8000786:	d403      	bmi.n	8000790 <HAL_RCC_OscConfig+0x1ac>
 8000788:	6823      	ldr	r3, [r4, #0]
 800078a:	075b      	lsls	r3, r3, #29
 800078c:	d565      	bpl.n	800085a <HAL_RCC_OscConfig+0x276>
 800078e:	e024      	b.n	80007da <HAL_RCC_OscConfig+0x1f6>
 8000790:	6962      	ldr	r2, [r4, #20]
 8000792:	4b3e      	ldr	r3, [pc, #248]	; (800088c <HAL_RCC_OscConfig+0x2a8>)
 8000794:	b182      	cbz	r2, 80007b8 <HAL_RCC_OscConfig+0x1d4>
 8000796:	6f5a      	ldr	r2, [r3, #116]	; 0x74
 8000798:	f042 0201 	orr.w	r2, r2, #1
 800079c:	675a      	str	r2, [r3, #116]	; 0x74
 800079e:	f7ff fe8b 	bl	80004b8 <HAL_GetTick>
 80007a2:	4605      	mov	r5, r0
 80007a4:	4b39      	ldr	r3, [pc, #228]	; (800088c <HAL_RCC_OscConfig+0x2a8>)
 80007a6:	6f5b      	ldr	r3, [r3, #116]	; 0x74
 80007a8:	079e      	lsls	r6, r3, #30
 80007aa:	d4ed      	bmi.n	8000788 <HAL_RCC_OscConfig+0x1a4>
 80007ac:	f7ff fe84 	bl	80004b8 <HAL_GetTick>
 80007b0:	1b40      	subs	r0, r0, r5
 80007b2:	2864      	cmp	r0, #100	; 0x64
 80007b4:	d9f6      	bls.n	80007a4 <HAL_RCC_OscConfig+0x1c0>
 80007b6:	e750      	b.n	800065a <HAL_RCC_OscConfig+0x76>
 80007b8:	6f5a      	ldr	r2, [r3, #116]	; 0x74
 80007ba:	f022 0201 	bic.w	r2, r2, #1
 80007be:	675a      	str	r2, [r3, #116]	; 0x74
 80007c0:	f7ff fe7a 	bl	80004b8 <HAL_GetTick>
 80007c4:	4605      	mov	r5, r0
 80007c6:	4b31      	ldr	r3, [pc, #196]	; (800088c <HAL_RCC_OscConfig+0x2a8>)
 80007c8:	6f5b      	ldr	r3, [r3, #116]	; 0x74
 80007ca:	0798      	lsls	r0, r3, #30
 80007cc:	d5dc      	bpl.n	8000788 <HAL_RCC_OscConfig+0x1a4>
 80007ce:	f7ff fe73 	bl	80004b8 <HAL_GetTick>
 80007d2:	1b40      	subs	r0, r0, r5
 80007d4:	2864      	cmp	r0, #100	; 0x64
 80007d6:	d9f6      	bls.n	80007c6 <HAL_RCC_OscConfig+0x1e2>
 80007d8:	e73f      	b.n	800065a <HAL_RCC_OscConfig+0x76>
 80007da:	4b2c      	ldr	r3, [pc, #176]	; (800088c <HAL_RCC_OscConfig+0x2a8>)
 80007dc:	6c1a      	ldr	r2, [r3, #64]	; 0x40
 80007de:	f042 5280 	orr.w	r2, r2, #268435456	; 0x10000000
 80007e2:	641a      	str	r2, [r3, #64]	; 0x40
 80007e4:	6c1b      	ldr	r3, [r3, #64]	; 0x40
 80007e6:	4a2a      	ldr	r2, [pc, #168]	; (8000890 <HAL_RCC_OscConfig+0x2ac>)
 80007e8:	f003 5380 	and.w	r3, r3, #268435456	; 0x10000000
 80007ec:	9301      	str	r3, [sp, #4]
 80007ee:	9b01      	ldr	r3, [sp, #4]
 80007f0:	6813      	ldr	r3, [r2, #0]
 80007f2:	f443 7380 	orr.w	r3, r3, #256	; 0x100
 80007f6:	6013      	str	r3, [r2, #0]
 80007f8:	f7ff fe5e 	bl	80004b8 <HAL_GetTick>
 80007fc:	4605      	mov	r5, r0
 80007fe:	4b24      	ldr	r3, [pc, #144]	; (8000890 <HAL_RCC_OscConfig+0x2ac>)
 8000800:	681b      	ldr	r3, [r3, #0]
 8000802:	05d9      	lsls	r1, r3, #23
 8000804:	d52d      	bpl.n	8000862 <HAL_RCC_OscConfig+0x27e>
 8000806:	4b21      	ldr	r3, [pc, #132]	; (800088c <HAL_RCC_OscConfig+0x2a8>)
 8000808:	6f1a      	ldr	r2, [r3, #112]	; 0x70
 800080a:	f022 0201 	bic.w	r2, r2, #1
 800080e:	671a      	str	r2, [r3, #112]	; 0x70
 8000810:	6f1a      	ldr	r2, [r3, #112]	; 0x70
 8000812:	f022 0204 	bic.w	r2, r2, #4
 8000816:	671a      	str	r2, [r3, #112]	; 0x70
 8000818:	6f1a      	ldr	r2, [r3, #112]	; 0x70
 800081a:	f022 0201 	bic.w	r2, r2, #1
 800081e:	671a      	str	r2, [r3, #112]	; 0x70
 8000820:	f7ff fe4a 	bl	80004b8 <HAL_GetTick>
 8000824:	4605      	mov	r5, r0
 8000826:	4b19      	ldr	r3, [pc, #100]	; (800088c <HAL_RCC_OscConfig+0x2a8>)
 8000828:	6f1a      	ldr	r2, [r3, #112]	; 0x70
 800082a:	0792      	lsls	r2, r2, #30
 800082c:	d41f      	bmi.n	800086e <HAL_RCC_OscConfig+0x28a>
 800082e:	6f1a      	ldr	r2, [r3, #112]	; 0x70
 8000830:	f022 0201 	bic.w	r2, r2, #1
 8000834:	671a      	str	r2, [r3, #112]	; 0x70
 8000836:	68a2      	ldr	r2, [r4, #8]
 8000838:	2a01      	cmp	r2, #1
 800083a:	d120      	bne.n	800087e <HAL_RCC_OscConfig+0x29a>
 800083c:	6f1a      	ldr	r2, [r3, #112]	; 0x70
 800083e:	f022 0204 	bic.w	r2, r2, #4
 8000842:	671a      	str	r2, [r3, #112]	; 0x70
 8000844:	6f1a      	ldr	r2, [r3, #112]	; 0x70
 8000846:	f042 0201 	orr.w	r2, r2, #1
 800084a:	671a      	str	r2, [r3, #112]	; 0x70
 800084c:	f7ff fe34 	bl	80004b8 <HAL_GetTick>
 8000850:	4605      	mov	r5, r0
 8000852:	4b0e      	ldr	r3, [pc, #56]	; (800088c <HAL_RCC_OscConfig+0x2a8>)
 8000854:	6f1b      	ldr	r3, [r3, #112]	; 0x70
 8000856:	079e      	lsls	r6, r3, #30
 8000858:	d526      	bpl.n	80008a8 <HAL_RCC_OscConfig+0x2c4>
 800085a:	69a1      	ldr	r1, [r4, #24]
 800085c:	2900      	cmp	r1, #0
 800085e:	d13a      	bne.n	80008d6 <HAL_RCC_OscConfig+0x2f2>
 8000860:	e07b      	b.n	800095a <HAL_RCC_OscConfig+0x376>
 8000862:	f7ff fe29 	bl	80004b8 <HAL_GetTick>
 8000866:	1b40      	subs	r0, r0, r5
 8000868:	2864      	cmp	r0, #100	; 0x64
 800086a:	d9c8      	bls.n	80007fe <HAL_RCC_OscConfig+0x21a>
 800086c:	e6f5      	b.n	800065a <HAL_RCC_OscConfig+0x76>
 800086e:	f7ff fe23 	bl	80004b8 <HAL_GetTick>
 8000872:	f241 3388 	movw	r3, #5000	; 0x1388
 8000876:	1b40      	subs	r0, r0, r5
 8000878:	4298      	cmp	r0, r3
 800087a:	d9d4      	bls.n	8000826 <HAL_RCC_OscConfig+0x242>
 800087c:	e6ed      	b.n	800065a <HAL_RCC_OscConfig+0x76>
 800087e:	2a05      	cmp	r2, #5
 8000880:	d108      	bne.n	8000894 <HAL_RCC_OscConfig+0x2b0>
 8000882:	6f1a      	ldr	r2, [r3, #112]	; 0x70
 8000884:	f042 0204 	orr.w	r2, r2, #4
 8000888:	e7db      	b.n	8000842 <HAL_RCC_OscConfig+0x25e>
 800088a:	bf00      	nop
 800088c:	40023800 	andmi	r3, r2, r0, lsl #16
 8000890:	40007000 	andmi	r7, r0, r0
 8000894:	6f19      	ldr	r1, [r3, #112]	; 0x70
 8000896:	f021 0104 	bic.w	r1, r1, #4
 800089a:	6719      	str	r1, [r3, #112]	; 0x70
 800089c:	6f19      	ldr	r1, [r3, #112]	; 0x70
 800089e:	f021 0101 	bic.w	r1, r1, #1
 80008a2:	6719      	str	r1, [r3, #112]	; 0x70
 80008a4:	b142      	cbz	r2, 80008b8 <HAL_RCC_OscConfig+0x2d4>
 80008a6:	e7d1      	b.n	800084c <HAL_RCC_OscConfig+0x268>
 80008a8:	f7ff fe06 	bl	80004b8 <HAL_GetTick>
 80008ac:	f241 3388 	movw	r3, #5000	; 0x1388
 80008b0:	1b40      	subs	r0, r0, r5
 80008b2:	4298      	cmp	r0, r3
 80008b4:	d9cd      	bls.n	8000852 <HAL_RCC_OscConfig+0x26e>
 80008b6:	e6d0      	b.n	800065a <HAL_RCC_OscConfig+0x76>
 80008b8:	f7ff fdfe 	bl	80004b8 <HAL_GetTick>
 80008bc:	4605      	mov	r5, r0
 80008be:	4b35      	ldr	r3, [pc, #212]	; (8000994 <HAL_RCC_OscConfig+0x3b0>)
 80008c0:	6f1b      	ldr	r3, [r3, #112]	; 0x70
 80008c2:	0798      	lsls	r0, r3, #30
 80008c4:	d5c9      	bpl.n	800085a <HAL_RCC_OscConfig+0x276>
 80008c6:	f7ff fdf7 	bl	80004b8 <HAL_GetTick>
 80008ca:	f241 3388 	movw	r3, #5000	; 0x1388
 80008ce:	1b40      	subs	r0, r0, r5
 80008d0:	4298      	cmp	r0, r3
 80008d2:	d9f4      	bls.n	80008be <HAL_RCC_OscConfig+0x2da>
 80008d4:	e6c1      	b.n	800065a <HAL_RCC_OscConfig+0x76>
 80008d6:	4b2f      	ldr	r3, [pc, #188]	; (8000994 <HAL_RCC_OscConfig+0x3b0>)
 80008d8:	689a      	ldr	r2, [r3, #8]
 80008da:	f002 020c 	and.w	r2, r2, #12
 80008de:	2a08      	cmp	r2, #8
 80008e0:	f43f ae9e 	beq.w	8000620 <HAL_RCC_OscConfig+0x3c>
 80008e4:	681a      	ldr	r2, [r3, #0]
 80008e6:	2902      	cmp	r1, #2
 80008e8:	f022 7280 	bic.w	r2, r2, #16777216	; 0x1000000
 80008ec:	601a      	str	r2, [r3, #0]
 80008ee:	d142      	bne.n	8000976 <HAL_RCC_OscConfig+0x392>
 80008f0:	f7ff fde2 	bl	80004b8 <HAL_GetTick>
 80008f4:	4605      	mov	r5, r0
 80008f6:	4827      	ldr	r0, [pc, #156]	; (8000994 <HAL_RCC_OscConfig+0x3b0>)
 80008f8:	6803      	ldr	r3, [r0, #0]
 80008fa:	0199      	lsls	r1, r3, #6
 80008fc:	d42f      	bmi.n	800095e <HAL_RCC_OscConfig+0x37a>
 80008fe:	f647 76c0 	movw	r6, #32704	; 0x7fc0
 8000902:	fa96 f6a6 	rbit	r6, r6
 8000906:	f44f 3540 	mov.w	r5, #196608	; 0x30000
 800090a:	fab6 f686 	clz	r6, r6
 800090e:	fa95 f5a5 	rbit	r5, r5
 8000912:	f04f 6170 	mov.w	r1, #251658240	; 0xf000000
 8000916:	fab5 f585 	clz	r5, r5
 800091a:	fa91 f1a1 	rbit	r1, r1
 800091e:	69e3      	ldr	r3, [r4, #28]
 8000920:	6a22      	ldr	r2, [r4, #32]
 8000922:	fab1 f181 	clz	r1, r1
 8000926:	431a      	orrs	r2, r3
 8000928:	6a63      	ldr	r3, [r4, #36]	; 0x24
 800092a:	f042 5200 	orr.w	r2, r2, #536870912	; 0x20000000
 800092e:	40b3      	lsls	r3, r6
 8000930:	431a      	orrs	r2, r3
 8000932:	6aa3      	ldr	r3, [r4, #40]	; 0x28
 8000934:	085b      	lsrs	r3, r3, #1
 8000936:	3b01      	subs	r3, #1
 8000938:	40ab      	lsls	r3, r5
 800093a:	4313      	orrs	r3, r2
 800093c:	6ae2      	ldr	r2, [r4, #44]	; 0x2c
 800093e:	408a      	lsls	r2, r1
 8000940:	4313      	orrs	r3, r2
 8000942:	6043      	str	r3, [r0, #4]
 8000944:	6803      	ldr	r3, [r0, #0]
 8000946:	f043 7380 	orr.w	r3, r3, #16777216	; 0x1000000
 800094a:	6003      	str	r3, [r0, #0]
 800094c:	f7ff fdb4 	bl	80004b8 <HAL_GetTick>
 8000950:	4604      	mov	r4, r0
 8000952:	4b10      	ldr	r3, [pc, #64]	; (8000994 <HAL_RCC_OscConfig+0x3b0>)
 8000954:	681b      	ldr	r3, [r3, #0]
 8000956:	019a      	lsls	r2, r3, #6
 8000958:	d507      	bpl.n	800096a <HAL_RCC_OscConfig+0x386>
 800095a:	2000      	movs	r0, #0
 800095c:	e018      	b.n	8000990 <HAL_RCC_OscConfig+0x3ac>
 800095e:	f7ff fdab 	bl	80004b8 <HAL_GetTick>
 8000962:	1b40      	subs	r0, r0, r5
 8000964:	2864      	cmp	r0, #100	; 0x64
 8000966:	d9c6      	bls.n	80008f6 <HAL_RCC_OscConfig+0x312>
 8000968:	e677      	b.n	800065a <HAL_RCC_OscConfig+0x76>
 800096a:	f7ff fda5 	bl	80004b8 <HAL_GetTick>
 800096e:	1b00      	subs	r0, r0, r4
 8000970:	2864      	cmp	r0, #100	; 0x64
 8000972:	d9ee      	bls.n	8000952 <HAL_RCC_OscConfig+0x36e>
 8000974:	e671      	b.n	800065a <HAL_RCC_OscConfig+0x76>
 8000976:	f7ff fd9f 	bl	80004b8 <HAL_GetTick>
 800097a:	4604      	mov	r4, r0
 800097c:	4b05      	ldr	r3, [pc, #20]	; (8000994 <HAL_RCC_OscConfig+0x3b0>)
 800097e:	681b      	ldr	r3, [r3, #0]
 8000980:	019b      	lsls	r3, r3, #6
 8000982:	d5ea      	bpl.n	800095a <HAL_RCC_OscConfig+0x376>
 8000984:	f7ff fd98 	bl	80004b8 <HAL_GetTick>
 8000988:	1b00      	subs	r0, r0, r4
 800098a:	2864      	cmp	r0, #100	; 0x64
 800098c:	d9f6      	bls.n	800097c <HAL_RCC_OscConfig+0x398>
 800098e:	e664      	b.n	800065a <HAL_RCC_OscConfig+0x76>
 8000990:	b002      	add	sp, #8
 8000992:	bd70      	pop	{r4, r5, r6, pc}
 8000994:	40023800 	andmi	r3, r2, r0, lsl #16

08000998 <HAL_RCC_ClockConfig>:
 8000998:	4a72      	ldr	r2, [pc, #456]	; (8000b64 <HAL_RCC_ClockConfig+0x1cc>)
 800099a:	6813      	ldr	r3, [r2, #0]
 800099c:	f003 030f 	and.w	r3, r3, #15
 80009a0:	4299      	cmp	r1, r3
 80009a2:	b570      	push	{r4, r5, r6, lr}
 80009a4:	4604      	mov	r4, r0
 80009a6:	460d      	mov	r5, r1
 80009a8:	d96b      	bls.n	8000a82 <HAL_RCC_ClockConfig+0xea>
 80009aa:	6813      	ldr	r3, [r2, #0]
 80009ac:	f023 030f 	bic.w	r3, r3, #15
 80009b0:	430b      	orrs	r3, r1
 80009b2:	6013      	str	r3, [r2, #0]
 80009b4:	6813      	ldr	r3, [r2, #0]
 80009b6:	f003 030f 	and.w	r3, r3, #15
 80009ba:	428b      	cmp	r3, r1
 80009bc:	d001      	beq.n	80009c2 <HAL_RCC_ClockConfig+0x2a>
 80009be:	2001      	movs	r0, #1
 80009c0:	bd70      	pop	{r4, r5, r6, pc}
 80009c2:	6801      	ldr	r1, [r0, #0]
 80009c4:	078b      	lsls	r3, r1, #30
 80009c6:	bf41      	itttt	mi
 80009c8:	4867      	ldrmi	r0, [pc, #412]	; (8000b68 <HAL_RCC_ClockConfig+0x1d0>)
 80009ca:	6883      	ldrmi	r3, [r0, #8]
 80009cc:	f023 02f0 	bicmi.w	r2, r3, #240	; 0xf0
 80009d0:	68a3      	ldrmi	r3, [r4, #8]
 80009d2:	bf44      	itt	mi
 80009d4:	4313      	orrmi	r3, r2
 80009d6:	6083      	strmi	r3, [r0, #8]
 80009d8:	07ce      	lsls	r6, r1, #31
 80009da:	d40b      	bmi.n	80009f4 <HAL_RCC_ClockConfig+0x5c>
 80009dc:	6821      	ldr	r1, [r4, #0]
 80009de:	074d      	lsls	r5, r1, #29
 80009e0:	f140 80af 	bpl.w	8000b42 <HAL_RCC_ClockConfig+0x1aa>
 80009e4:	4860      	ldr	r0, [pc, #384]	; (8000b68 <HAL_RCC_ClockConfig+0x1d0>)
 80009e6:	6883      	ldr	r3, [r0, #8]
 80009e8:	f423 52e0 	bic.w	r2, r3, #7168	; 0x1c00
 80009ec:	68e3      	ldr	r3, [r4, #12]
 80009ee:	4313      	orrs	r3, r2
 80009f0:	6083      	str	r3, [r0, #8]
 80009f2:	e0a6      	b.n	8000b42 <HAL_RCC_ClockConfig+0x1aa>
 80009f4:	6862      	ldr	r2, [r4, #4]
 80009f6:	4b5c      	ldr	r3, [pc, #368]	; (8000b68 <HAL_RCC_ClockConfig+0x1d0>)
 80009f8:	2a01      	cmp	r2, #1
 80009fa:	6819      	ldr	r1, [r3, #0]
 80009fc:	d102      	bne.n	8000a04 <HAL_RCC_ClockConfig+0x6c>
 80009fe:	f411 3f00 	tst.w	r1, #131072	; 0x20000
 8000a02:	e006      	b.n	8000a12 <HAL_RCC_ClockConfig+0x7a>
 8000a04:	2a02      	cmp	r2, #2
 8000a06:	d102      	bne.n	8000a0e <HAL_RCC_ClockConfig+0x76>
 8000a08:	f011 7f00 	tst.w	r1, #33554432	; 0x2000000
 8000a0c:	e001      	b.n	8000a12 <HAL_RCC_ClockConfig+0x7a>
 8000a0e:	f011 0f02 	tst.w	r1, #2
 8000a12:	d0d4      	beq.n	80009be <HAL_RCC_ClockConfig+0x26>
 8000a14:	6899      	ldr	r1, [r3, #8]
 8000a16:	f021 0103 	bic.w	r1, r1, #3
 8000a1a:	430a      	orrs	r2, r1
 8000a1c:	609a      	str	r2, [r3, #8]
 8000a1e:	f7ff fd4b 	bl	80004b8 <HAL_GetTick>
 8000a22:	6863      	ldr	r3, [r4, #4]
 8000a24:	2b01      	cmp	r3, #1
 8000a26:	4605      	mov	r5, r0
 8000a28:	d10e      	bne.n	8000a48 <HAL_RCC_ClockConfig+0xb0>
 8000a2a:	4b4f      	ldr	r3, [pc, #316]	; (8000b68 <HAL_RCC_ClockConfig+0x1d0>)
 8000a2c:	689b      	ldr	r3, [r3, #8]
 8000a2e:	f003 030c 	and.w	r3, r3, #12
 8000a32:	2b04      	cmp	r3, #4
 8000a34:	d0d2      	beq.n	80009dc <HAL_RCC_ClockConfig+0x44>
 8000a36:	f7ff fd3f 	bl	80004b8 <HAL_GetTick>
 8000a3a:	f241 3388 	movw	r3, #5000	; 0x1388
 8000a3e:	1b40      	subs	r0, r0, r5
 8000a40:	4298      	cmp	r0, r3
 8000a42:	d9f2      	bls.n	8000a2a <HAL_RCC_ClockConfig+0x92>
 8000a44:	2003      	movs	r0, #3
 8000a46:	bd70      	pop	{r4, r5, r6, pc}
 8000a48:	2b02      	cmp	r3, #2
 8000a4a:	d114      	bne.n	8000a76 <HAL_RCC_ClockConfig+0xde>
 8000a4c:	4b46      	ldr	r3, [pc, #280]	; (8000b68 <HAL_RCC_ClockConfig+0x1d0>)
 8000a4e:	689b      	ldr	r3, [r3, #8]
 8000a50:	f003 030c 	and.w	r3, r3, #12
 8000a54:	2b08      	cmp	r3, #8
 8000a56:	d0c1      	beq.n	80009dc <HAL_RCC_ClockConfig+0x44>
 8000a58:	f7ff fd2e 	bl	80004b8 <HAL_GetTick>
 8000a5c:	f241 3388 	movw	r3, #5000	; 0x1388
 8000a60:	1b40      	subs	r0, r0, r5
 8000a62:	4298      	cmp	r0, r3
 8000a64:	d9f2      	bls.n	8000a4c <HAL_RCC_ClockConfig+0xb4>
 8000a66:	e7ed      	b.n	8000a44 <HAL_RCC_ClockConfig+0xac>
 8000a68:	f7ff fd26 	bl	80004b8 <HAL_GetTick>
 8000a6c:	f241 3388 	movw	r3, #5000	; 0x1388
 8000a70:	1b40      	subs	r0, r0, r5
 8000a72:	4298      	cmp	r0, r3
 8000a74:	d8e6      	bhi.n	8000a44 <HAL_RCC_ClockConfig+0xac>
 8000a76:	4b3c      	ldr	r3, [pc, #240]	; (8000b68 <HAL_RCC_ClockConfig+0x1d0>)
 8000a78:	689b      	ldr	r3, [r3, #8]
 8000a7a:	f013 0f0c 	tst.w	r3, #12
 8000a7e:	d1f3      	bne.n	8000a68 <HAL_RCC_ClockConfig+0xd0>
 8000a80:	e7ac      	b.n	80009dc <HAL_RCC_ClockConfig+0x44>
 8000a82:	6801      	ldr	r1, [r0, #0]
 8000a84:	0788      	lsls	r0, r1, #30
 8000a86:	bf41      	itttt	mi
 8000a88:	4837      	ldrmi	r0, [pc, #220]	; (8000b68 <HAL_RCC_ClockConfig+0x1d0>)
 8000a8a:	6883      	ldrmi	r3, [r0, #8]
 8000a8c:	f023 02f0 	bicmi.w	r2, r3, #240	; 0xf0
 8000a90:	68a3      	ldrmi	r3, [r4, #8]
 8000a92:	bf44      	itt	mi
 8000a94:	4313      	orrmi	r3, r2
 8000a96:	6083      	strmi	r3, [r0, #8]
 8000a98:	07ca      	lsls	r2, r1, #31
 8000a9a:	d40b      	bmi.n	8000ab4 <HAL_RCC_ClockConfig+0x11c>
 8000a9c:	4a31      	ldr	r2, [pc, #196]	; (8000b64 <HAL_RCC_ClockConfig+0x1cc>)
 8000a9e:	6813      	ldr	r3, [r2, #0]
 8000aa0:	f023 030f 	bic.w	r3, r3, #15
 8000aa4:	432b      	orrs	r3, r5
 8000aa6:	6013      	str	r3, [r2, #0]
 8000aa8:	6813      	ldr	r3, [r2, #0]
 8000aaa:	f003 030f 	and.w	r3, r3, #15
 8000aae:	42ab      	cmp	r3, r5
 8000ab0:	d185      	bne.n	80009be <HAL_RCC_ClockConfig+0x26>
 8000ab2:	e793      	b.n	80009dc <HAL_RCC_ClockConfig+0x44>
 8000ab4:	6862      	ldr	r2, [r4, #4]
 8000ab6:	4b2c      	ldr	r3, [pc, #176]	; (8000b68 <HAL_RCC_ClockConfig+0x1d0>)
 8000ab8:	2a01      	cmp	r2, #1
 8000aba:	6819      	ldr	r1, [r3, #0]
 8000abc:	d102      	bne.n	8000ac4 <HAL_RCC_ClockConfig+0x12c>
 8000abe:	f411 3f00 	tst.w	r1, #131072	; 0x20000
 8000ac2:	e006      	b.n	8000ad2 <HAL_RCC_ClockConfig+0x13a>
 8000ac4:	2a02      	cmp	r2, #2
 8000ac6:	d102      	bne.n	8000ace <HAL_RCC_ClockConfig+0x136>
 8000ac8:	f011 7f00 	tst.w	r1, #33554432	; 0x2000000
 8000acc:	e001      	b.n	8000ad2 <HAL_RCC_ClockConfig+0x13a>
 8000ace:	f011 0f02 	tst.w	r1, #2
 8000ad2:	f43f af74 	beq.w	80009be <HAL_RCC_ClockConfig+0x26>
 8000ad6:	6899      	ldr	r1, [r3, #8]
 8000ad8:	f021 0103 	bic.w	r1, r1, #3
 8000adc:	430a      	orrs	r2, r1
 8000ade:	609a      	str	r2, [r3, #8]
 8000ae0:	f7ff fcea 	bl	80004b8 <HAL_GetTick>
 8000ae4:	6863      	ldr	r3, [r4, #4]
 8000ae6:	2b01      	cmp	r3, #1
 8000ae8:	4606      	mov	r6, r0
 8000aea:	d10d      	bne.n	8000b08 <HAL_RCC_ClockConfig+0x170>
 8000aec:	4b1e      	ldr	r3, [pc, #120]	; (8000b68 <HAL_RCC_ClockConfig+0x1d0>)
 8000aee:	689b      	ldr	r3, [r3, #8]
 8000af0:	f003 030c 	and.w	r3, r3, #12
 8000af4:	2b04      	cmp	r3, #4
 8000af6:	d0d1      	beq.n	8000a9c <HAL_RCC_ClockConfig+0x104>
 8000af8:	f7ff fcde 	bl	80004b8 <HAL_GetTick>
 8000afc:	f241 3388 	movw	r3, #5000	; 0x1388
 8000b00:	1b80      	subs	r0, r0, r6
 8000b02:	4298      	cmp	r0, r3
 8000b04:	d9f2      	bls.n	8000aec <HAL_RCC_ClockConfig+0x154>
 8000b06:	e79d      	b.n	8000a44 <HAL_RCC_ClockConfig+0xac>
 8000b08:	2b02      	cmp	r3, #2
 8000b0a:	d114      	bne.n	8000b36 <HAL_RCC_ClockConfig+0x19e>
 8000b0c:	4b16      	ldr	r3, [pc, #88]	; (8000b68 <HAL_RCC_ClockConfig+0x1d0>)
 8000b0e:	689b      	ldr	r3, [r3, #8]
 8000b10:	f003 030c 	and.w	r3, r3, #12
 8000b14:	2b08      	cmp	r3, #8
 8000b16:	d0c1      	beq.n	8000a9c <HAL_RCC_ClockConfig+0x104>
 8000b18:	f7ff fcce 	bl	80004b8 <HAL_GetTick>
 8000b1c:	f241 3388 	movw	r3, #5000	; 0x1388
 8000b20:	1b80      	subs	r0, r0, r6
 8000b22:	4298      	cmp	r0, r3
 8000b24:	d9f2      	bls.n	8000b0c <HAL_RCC_ClockConfig+0x174>
 8000b26:	e78d      	b.n	8000a44 <HAL_RCC_ClockConfig+0xac>
 8000b28:	f7ff fcc6 	bl	80004b8 <HAL_GetTick>
 8000b2c:	f241 3388 	movw	r3, #5000	; 0x1388
 8000b30:	1b80      	subs	r0, r0, r6
 8000b32:	4298      	cmp	r0, r3
 8000b34:	d886      	bhi.n	8000a44 <HAL_RCC_ClockConfig+0xac>
 8000b36:	4b0c      	ldr	r3, [pc, #48]	; (8000b68 <HAL_RCC_ClockConfig+0x1d0>)
 8000b38:	689b      	ldr	r3, [r3, #8]
 8000b3a:	f013 0f0c 	tst.w	r3, #12
 8000b3e:	d1f3      	bne.n	8000b28 <HAL_RCC_ClockConfig+0x190>
 8000b40:	e7ac      	b.n	8000a9c <HAL_RCC_ClockConfig+0x104>
 8000b42:	070b      	lsls	r3, r1, #28
 8000b44:	bf41      	itttt	mi
 8000b46:	4a08      	ldrmi	r2, [pc, #32]	; (8000b68 <HAL_RCC_ClockConfig+0x1d0>)
 8000b48:	6921      	ldrmi	r1, [r4, #16]
 8000b4a:	6893      	ldrmi	r3, [r2, #8]
 8000b4c:	f423 4360 	bicmi.w	r3, r3, #57344	; 0xe000
 8000b50:	bf44      	itt	mi
 8000b52:	ea43 03c1 	orrmi.w	r3, r3, r1, lsl #3
 8000b56:	6093      	strmi	r3, [r2, #8]
 8000b58:	200f      	movs	r0, #15
 8000b5a:	f7ff fc89 	bl	8000470 <HAL_InitTick>
 8000b5e:	2000      	movs	r0, #0
 8000b60:	bd70      	pop	{r4, r5, r6, pc}
 8000b62:	bf00      	nop
 8000b64:	40023c00 	andmi	r3, r2, r0, lsl #24
 8000b68:	40023800 	andmi	r3, r2, r0, lsl #16

08000b6c <HAL_RCC_GetSysClockFreq>:
 8000b6c:	b510      	push	{r4, lr}
 8000b6e:	4c1c      	ldr	r4, [pc, #112]	; (8000be0 <HAL_RCC_GetSysClockFreq+0x74>)
 8000b70:	68a3      	ldr	r3, [r4, #8]
 8000b72:	f003 030c 	and.w	r3, r3, #12
 8000b76:	2b04      	cmp	r3, #4
 8000b78:	d02e      	beq.n	8000bd8 <HAL_RCC_GetSysClockFreq+0x6c>
 8000b7a:	2b08      	cmp	r3, #8
 8000b7c:	d12e      	bne.n	8000bdc <HAL_RCC_GetSysClockFreq+0x70>
 8000b7e:	6862      	ldr	r2, [r4, #4]
 8000b80:	f002 033f 	and.w	r3, r2, #63	; 0x3f
 8000b84:	6862      	ldr	r2, [r4, #4]
 8000b86:	f647 71c0 	movw	r1, #32704	; 0x7fc0
 8000b8a:	f412 0f80 	tst.w	r2, #4194304	; 0x400000
 8000b8e:	6862      	ldr	r2, [r4, #4]
 8000b90:	fa91 f1a1 	rbit	r1, r1
 8000b94:	f647 70c0 	movw	r0, #32704	; 0x7fc0
 8000b98:	ea00 0002 	and.w	r0, r0, r2
 8000b9c:	bf08      	it	eq
 8000b9e:	4a11      	ldreq	r2, [pc, #68]	; (8000be4 <HAL_RCC_GetSysClockFreq+0x78>)
 8000ba0:	fab1 f181 	clz	r1, r1
 8000ba4:	fa20 f001 	lsr.w	r0, r0, r1
 8000ba8:	bf0e      	itee	eq
 8000baa:	fbb2 f2f3 	udiveq	r2, r2, r3
 8000bae:	490e      	ldrne	r1, [pc, #56]	; (8000be8 <HAL_RCC_GetSysClockFreq+0x7c>)
 8000bb0:	fbb1 f2f3 	udivne	r2, r1, r3
 8000bb4:	fb02 f300 	mul.w	r3, r2, r0
 8000bb8:	4a09      	ldr	r2, [pc, #36]	; (8000be0 <HAL_RCC_GetSysClockFreq+0x74>)
 8000bba:	6850      	ldr	r0, [r2, #4]
 8000bbc:	f44f 3240 	mov.w	r2, #196608	; 0x30000
 8000bc0:	fa92 f2a2 	rbit	r2, r2
 8000bc4:	f400 3040 	and.w	r0, r0, #196608	; 0x30000
 8000bc8:	fab2 f282 	clz	r2, r2
 8000bcc:	40d0      	lsrs	r0, r2
 8000bce:	3001      	adds	r0, #1
 8000bd0:	0040      	lsls	r0, r0, #1
 8000bd2:	fbb3 f0f0 	udiv	r0, r3, r0
 8000bd6:	bd10      	pop	{r4, pc}
 8000bd8:	4803      	ldr	r0, [pc, #12]	; (8000be8 <HAL_RCC_GetSysClockFreq+0x7c>)
 8000bda:	bd10      	pop	{r4, pc}
 8000bdc:	4801      	ldr	r0, [pc, #4]	; (8000be4 <HAL_RCC_GetSysClockFreq+0x78>)
 8000bde:	bd10      	pop	{r4, pc}
 8000be0:	40023800 	andmi	r3, r2, r0, lsl #16
 8000be4:	00f42400 	rscseq	r2, r4, r0, lsl #8
 8000be8:	017d7840 	cmneq	sp, r0, asr #16

08000bec <HAL_RCC_GetHCLKFreq>:
 8000bec:	b508      	push	{r3, lr}
 8000bee:	f7ff ffbd 	bl	8000b6c <HAL_RCC_GetSysClockFreq>
 8000bf2:	4b08      	ldr	r3, [pc, #32]	; (8000c14 <HAL_RCC_GetHCLKFreq+0x28>)
 8000bf4:	22f0      	movs	r2, #240	; 0xf0
 8000bf6:	689b      	ldr	r3, [r3, #8]
 8000bf8:	fa92 f2a2 	rbit	r2, r2
 8000bfc:	f003 03f0 	and.w	r3, r3, #240	; 0xf0
 8000c00:	fab2 f282 	clz	r2, r2
 8000c04:	40d3      	lsrs	r3, r2
 8000c06:	4a04      	ldr	r2, [pc, #16]	; (8000c18 <HAL_RCC_GetHCLKFreq+0x2c>)
 8000c08:	5cd3      	ldrb	r3, [r2, r3]
 8000c0a:	40d8      	lsrs	r0, r3
 8000c0c:	4b03      	ldr	r3, [pc, #12]	; (8000c1c <HAL_RCC_GetHCLKFreq+0x30>)
 8000c0e:	6018      	str	r0, [r3, #0]
 8000c10:	bd08      	pop	{r3, pc}
 8000c12:	bf00      	nop
 8000c14:	40023800 	andmi	r3, r2, r0, lsl #16
 8000c18:	08001164 	stmdaeq	r0, {r2, r5, r6, r8, ip}
 8000c1c:	20000000 	andcs	r0, r0, r0

08000c20 <HAL_GPIO_Init>:
 8000c20:	e92d 41f3 	stmdb	sp!, {r0, r1, r4, r5, r6, r7, r8, lr}
 8000c24:	680f      	ldr	r7, [r1, #0]
 8000c26:	2200      	movs	r2, #0
 8000c28:	2301      	movs	r3, #1
 8000c2a:	4093      	lsls	r3, r2
 8000c2c:	ea03 0507 	and.w	r5, r3, r7
 8000c30:	429d      	cmp	r5, r3
 8000c32:	f040 80d2 	bne.w	8000dda <HAL_GPIO_Init+0x1ba>
 8000c36:	684c      	ldr	r4, [r1, #4]
 8000c38:	f024 0c10 	bic.w	ip, r4, #16
 8000c3c:	f1bc 0f02 	cmp.w	ip, #2
 8000c40:	d114      	bne.n	8000c6c <HAL_GPIO_Init+0x4c>
 8000c42:	ea4f 0ed2 	mov.w	lr, r2, lsr #3
 8000c46:	eb00 0e8e 	add.w	lr, r0, lr, lsl #2
 8000c4a:	f002 0607 	and.w	r6, r2, #7
 8000c4e:	f8de 3020 	ldr.w	r3, [lr, #32]
 8000c52:	00b6      	lsls	r6, r6, #2
 8000c54:	f04f 080f 	mov.w	r8, #15
 8000c58:	fa08 f806 	lsl.w	r8, r8, r6
 8000c5c:	ea23 0808 	bic.w	r8, r3, r8
 8000c60:	690b      	ldr	r3, [r1, #16]
 8000c62:	40b3      	lsls	r3, r6
 8000c64:	ea48 0303 	orr.w	r3, r8, r3
 8000c68:	f8ce 3020 	str.w	r3, [lr, #32]
 8000c6c:	ea4f 0e42 	mov.w	lr, r2, lsl #1
 8000c70:	2303      	movs	r3, #3
 8000c72:	6806      	ldr	r6, [r0, #0]
 8000c74:	fa03 f30e 	lsl.w	r3, r3, lr
 8000c78:	43db      	mvns	r3, r3
 8000c7a:	ea03 0806 	and.w	r8, r3, r6
 8000c7e:	f004 0603 	and.w	r6, r4, #3
 8000c82:	fa06 f60e 	lsl.w	r6, r6, lr
 8000c86:	f10c 3cff 	add.w	ip, ip, #4294967295	; 0xffffffff
 8000c8a:	ea48 0606 	orr.w	r6, r8, r6
 8000c8e:	f1bc 0f01 	cmp.w	ip, #1
 8000c92:	6006      	str	r6, [r0, #0]
 8000c94:	d811      	bhi.n	8000cba <HAL_GPIO_Init+0x9a>
 8000c96:	6886      	ldr	r6, [r0, #8]
 8000c98:	ea03 0c06 	and.w	ip, r3, r6
 8000c9c:	68ce      	ldr	r6, [r1, #12]
 8000c9e:	fa06 f60e 	lsl.w	r6, r6, lr
 8000ca2:	ea4c 0606 	orr.w	r6, ip, r6
 8000ca6:	6086      	str	r6, [r0, #8]
 8000ca8:	6846      	ldr	r6, [r0, #4]
 8000caa:	ea26 0c05 	bic.w	ip, r6, r5
 8000cae:	f3c4 1600 	ubfx	r6, r4, #4, #1
 8000cb2:	4096      	lsls	r6, r2
 8000cb4:	ea4c 0606 	orr.w	r6, ip, r6
 8000cb8:	6046      	str	r6, [r0, #4]
 8000cba:	68c6      	ldr	r6, [r0, #12]
 8000cbc:	ea03 0c06 	and.w	ip, r3, r6
 8000cc0:	688b      	ldr	r3, [r1, #8]
 8000cc2:	fa03 f60e 	lsl.w	r6, r3, lr
 8000cc6:	ea4c 0306 	orr.w	r3, ip, r6
 8000cca:	60c3      	str	r3, [r0, #12]
 8000ccc:	00e3      	lsls	r3, r4, #3
 8000cce:	f140 8084 	bpl.w	8000dda <HAL_GPIO_Init+0x1ba>
 8000cd2:	4b45      	ldr	r3, [pc, #276]	; (8000de8 <HAL_GPIO_Init+0x1c8>)
 8000cd4:	6c5e      	ldr	r6, [r3, #68]	; 0x44
 8000cd6:	f446 4680 	orr.w	r6, r6, #16384	; 0x4000
 8000cda:	645e      	str	r6, [r3, #68]	; 0x44
 8000cdc:	6c5b      	ldr	r3, [r3, #68]	; 0x44
 8000cde:	f022 0603 	bic.w	r6, r2, #3
 8000ce2:	f106 4680 	add.w	r6, r6, #1073741824	; 0x40000000
 8000ce6:	f403 4380 	and.w	r3, r3, #16384	; 0x4000
 8000cea:	f506 369c 	add.w	r6, r6, #79872	; 0x13800
 8000cee:	9301      	str	r3, [sp, #4]
 8000cf0:	f002 0c03 	and.w	ip, r2, #3
 8000cf4:	9b01      	ldr	r3, [sp, #4]
 8000cf6:	f8d6 e008 	ldr.w	lr, [r6, #8]
 8000cfa:	ea4f 0c8c 	mov.w	ip, ip, lsl #2
 8000cfe:	230f      	movs	r3, #15
 8000d00:	fa03 f30c 	lsl.w	r3, r3, ip
 8000d04:	ea2e 0e03 	bic.w	lr, lr, r3
 8000d08:	4b38      	ldr	r3, [pc, #224]	; (8000dec <HAL_GPIO_Init+0x1cc>)
 8000d0a:	4298      	cmp	r0, r3
 8000d0c:	d026      	beq.n	8000d5c <HAL_GPIO_Init+0x13c>
 8000d0e:	f503 6380 	add.w	r3, r3, #1024	; 0x400
 8000d12:	4298      	cmp	r0, r3
 8000d14:	d024      	beq.n	8000d60 <HAL_GPIO_Init+0x140>
 8000d16:	f503 6380 	add.w	r3, r3, #1024	; 0x400
 8000d1a:	4298      	cmp	r0, r3
 8000d1c:	d022      	beq.n	8000d64 <HAL_GPIO_Init+0x144>
 8000d1e:	f503 6380 	add.w	r3, r3, #1024	; 0x400
 8000d22:	4298      	cmp	r0, r3
 8000d24:	d020      	beq.n	8000d68 <HAL_GPIO_Init+0x148>
 8000d26:	f503 6380 	add.w	r3, r3, #1024	; 0x400
 8000d2a:	4298      	cmp	r0, r3
 8000d2c:	d01e      	beq.n	8000d6c <HAL_GPIO_Init+0x14c>
 8000d2e:	f503 6380 	add.w	r3, r3, #1024	; 0x400
 8000d32:	4298      	cmp	r0, r3
 8000d34:	d01c      	beq.n	8000d70 <HAL_GPIO_Init+0x150>
 8000d36:	f503 6380 	add.w	r3, r3, #1024	; 0x400
 8000d3a:	4298      	cmp	r0, r3
 8000d3c:	d01a      	beq.n	8000d74 <HAL_GPIO_Init+0x154>
 8000d3e:	f503 6380 	add.w	r3, r3, #1024	; 0x400
 8000d42:	4298      	cmp	r0, r3
 8000d44:	d018      	beq.n	8000d78 <HAL_GPIO_Init+0x158>
 8000d46:	f503 6380 	add.w	r3, r3, #1024	; 0x400
 8000d4a:	4298      	cmp	r0, r3
 8000d4c:	d016      	beq.n	8000d7c <HAL_GPIO_Init+0x15c>
 8000d4e:	f503 6380 	add.w	r3, r3, #1024	; 0x400
 8000d52:	4298      	cmp	r0, r3
 8000d54:	bf0c      	ite	eq
 8000d56:	2309      	moveq	r3, #9
 8000d58:	230a      	movne	r3, #10
 8000d5a:	e010      	b.n	8000d7e <HAL_GPIO_Init+0x15e>
 8000d5c:	2300      	movs	r3, #0
 8000d5e:	e00e      	b.n	8000d7e <HAL_GPIO_Init+0x15e>
 8000d60:	2301      	movs	r3, #1
 8000d62:	e00c      	b.n	8000d7e <HAL_GPIO_Init+0x15e>
 8000d64:	2302      	movs	r3, #2
 8000d66:	e00a      	b.n	8000d7e <HAL_GPIO_Init+0x15e>
 8000d68:	2303      	movs	r3, #3
 8000d6a:	e008      	b.n	8000d7e <HAL_GPIO_Init+0x15e>
 8000d6c:	2304      	movs	r3, #4
 8000d6e:	e006      	b.n	8000d7e <HAL_GPIO_Init+0x15e>
 8000d70:	2305      	movs	r3, #5
 8000d72:	e004      	b.n	8000d7e <HAL_GPIO_Init+0x15e>
 8000d74:	2306      	movs	r3, #6
 8000d76:	e002      	b.n	8000d7e <HAL_GPIO_Init+0x15e>
 8000d78:	2307      	movs	r3, #7
 8000d7a:	e000      	b.n	8000d7e <HAL_GPIO_Init+0x15e>
 8000d7c:	2308      	movs	r3, #8
 8000d7e:	fa03 f30c 	lsl.w	r3, r3, ip
 8000d82:	ea43 030e 	orr.w	r3, r3, lr
 8000d86:	f8df e068 	ldr.w	lr, [pc, #104]	; 8000df0 <HAL_GPIO_Init+0x1d0>
 8000d8a:	60b3      	str	r3, [r6, #8]
 8000d8c:	f8de 3000 	ldr.w	r3, [lr]
 8000d90:	43ee      	mvns	r6, r5
 8000d92:	f414 3f80 	tst.w	r4, #65536	; 0x10000
 8000d96:	bf14      	ite	ne
 8000d98:	432b      	orrne	r3, r5
 8000d9a:	4033      	andeq	r3, r6
 8000d9c:	f8ce 3000 	str.w	r3, [lr]
 8000da0:	f8de 3004 	ldr.w	r3, [lr, #4]
 8000da4:	f8df e048 	ldr.w	lr, [pc, #72]	; 8000df0 <HAL_GPIO_Init+0x1d0>
 8000da8:	f414 3f00 	tst.w	r4, #131072	; 0x20000
 8000dac:	bf14      	ite	ne
 8000dae:	432b      	orrne	r3, r5
 8000db0:	4033      	andeq	r3, r6
 8000db2:	f8ce 3004 	str.w	r3, [lr, #4]
 8000db6:	f8de 3008 	ldr.w	r3, [lr, #8]
 8000dba:	f414 1f80 	tst.w	r4, #1048576	; 0x100000
 8000dbe:	bf14      	ite	ne
 8000dc0:	432b      	orrne	r3, r5
 8000dc2:	4033      	andeq	r3, r6
 8000dc4:	f8ce 3008 	str.w	r3, [lr, #8]
 8000dc8:	f8de 300c 	ldr.w	r3, [lr, #12]
 8000dcc:	02a4      	lsls	r4, r4, #10
 8000dce:	bf54      	ite	pl
 8000dd0:	ea06 0503 	andpl.w	r5, r6, r3
 8000dd4:	431d      	orrmi	r5, r3
 8000dd6:	4b06      	ldr	r3, [pc, #24]	; (8000df0 <HAL_GPIO_Init+0x1d0>)
 8000dd8:	60dd      	str	r5, [r3, #12]
 8000dda:	3201      	adds	r2, #1
 8000ddc:	2a10      	cmp	r2, #16
 8000dde:	f47f af23 	bne.w	8000c28 <HAL_GPIO_Init+0x8>
 8000de2:	b002      	add	sp, #8
 8000de4:	e8bd 81f0 	ldmia.w	sp!, {r4, r5, r6, r7, r8, pc}
 8000de8:	40023800 	andmi	r3, r2, r0, lsl #16
 8000dec:	40020000 	andmi	r0, r2, r0
 8000df0:	40013c00 	andmi	r3, r1, r0, lsl #24

08000df4 <HAL_GPIO_WritePin>:
 8000df4:	b902      	cbnz	r2, 8000df8 <HAL_GPIO_WritePin+0x4>
 8000df6:	0409      	lsls	r1, r1, #16
 8000df8:	6181      	str	r1, [r0, #24]
 8000dfa:	4770      	bx	lr

08000dfc <HAL_MspInit>:
 8000dfc:	4770      	bx	lr
 8000dfe:	0000      	movs	r0, r0

08000e00 <BSP_LED_Init>:
 8000e00:	b530      	push	{r4, r5, lr}
 8000e02:	4604      	mov	r4, r0
 8000e04:	b087      	sub	sp, #28
 8000e06:	b9c8      	cbnz	r0, 8000e3c <BSP_LED_Init+0x3c>
 8000e08:	4b0d      	ldr	r3, [pc, #52]	; (8000e40 <BSP_LED_Init+0x40>)
 8000e0a:	480e      	ldr	r0, [pc, #56]	; (8000e44 <BSP_LED_Init+0x44>)
 8000e0c:	6b19      	ldr	r1, [r3, #48]	; 0x30
 8000e0e:	f441 7180 	orr.w	r1, r1, #256	; 0x100
 8000e12:	6319      	str	r1, [r3, #48]	; 0x30
 8000e14:	6b1b      	ldr	r3, [r3, #48]	; 0x30
 8000e16:	f403 7380 	and.w	r3, r3, #256	; 0x100
 8000e1a:	9300      	str	r3, [sp, #0]
 8000e1c:	9b00      	ldr	r3, [sp, #0]
 8000e1e:	2301      	movs	r3, #1
 8000e20:	2502      	movs	r5, #2
 8000e22:	9302      	str	r3, [sp, #8]
 8000e24:	9303      	str	r3, [sp, #12]
 8000e26:	a901      	add	r1, sp, #4
 8000e28:	2303      	movs	r3, #3
 8000e2a:	9501      	str	r5, [sp, #4]
 8000e2c:	9304      	str	r3, [sp, #16]
 8000e2e:	f7ff fef7 	bl	8000c20 <HAL_GPIO_Init>
 8000e32:	4804      	ldr	r0, [pc, #16]	; (8000e44 <BSP_LED_Init+0x44>)
 8000e34:	4629      	mov	r1, r5
 8000e36:	4622      	mov	r2, r4
 8000e38:	f7ff ffdc 	bl	8000df4 <HAL_GPIO_WritePin>
 8000e3c:	b007      	add	sp, #28
 8000e3e:	bd30      	pop	{r4, r5, pc}
 8000e40:	40023800 	andmi	r3, r2, r0, lsl #16
 8000e44:	40022000 	andmi	r2, r2, r0

08000e48 <_Z11delay_loopsj>:
 8000e48:	f110 30ff 	adds.w	r0, r0, #4294967295	; 0xffffffff
 8000e4c:	d301      	bcc.n	8000e52 <_Z11delay_loopsj+0xa>
 8000e4e:	bf00      	nop
 8000e50:	e7fa      	b.n	8000e48 <_Z11delay_loopsj>
 8000e52:	4770      	bx	lr

08000e54 <main>:
 8000e54:	b508      	push	{r3, lr}
 8000e56:	f7ff fac7 	bl	80003e8 <CPU_CACHE_Enable>
 8000e5a:	f7ff fb1b 	bl	8000494 <HAL_Init>
 8000e5e:	f7ff fa93 	bl	8000388 <SystemClock_Config>
 8000e62:	2000      	movs	r0, #0
 8000e64:	f7ff ffcc 	bl	8000e00 <BSP_LED_Init>
 8000e68:	4c07      	ldr	r4, [pc, #28]	; (8000e88 <main+0x34>)
 8000e6a:	4808      	ldr	r0, [pc, #32]	; (8000e8c <main+0x38>)
 8000e6c:	6963      	ldr	r3, [r4, #20]
 8000e6e:	f023 0302 	bic.w	r3, r3, #2
 8000e72:	6163      	str	r3, [r4, #20]
 8000e74:	f7ff ffe8 	bl	8000e48 <_Z11delay_loopsj>
 8000e78:	6963      	ldr	r3, [r4, #20]
 8000e7a:	4804      	ldr	r0, [pc, #16]	; (8000e8c <main+0x38>)
 8000e7c:	f043 0302 	orr.w	r3, r3, #2
 8000e80:	6163      	str	r3, [r4, #20]
 8000e82:	f7ff ffe1 	bl	8000e48 <_Z11delay_loopsj>
 8000e86:	e7ef      	b.n	8000e68 <main+0x14>
 8000e88:	40022000 	andmi	r2, r2, r0
 8000e8c:	00989680 	addseq	r9, r8, r0, lsl #13

08000e90 <atexit>:
 8000e90:	4601      	mov	r1, r0
 8000e92:	2000      	movs	r0, #0
 8000e94:	4602      	mov	r2, r0
 8000e96:	4603      	mov	r3, r0
 8000e98:	f000 b89c 	b.w	8000fd4 <__register_exitproc>

08000e9c <exit>:
 8000e9c:	b508      	push	{r3, lr}
 8000e9e:	2100      	movs	r1, #0
 8000ea0:	4604      	mov	r4, r0
 8000ea2:	f000 f8f3 	bl	800108c <__call_exitprocs>
 8000ea6:	4b04      	ldr	r3, [pc, #16]	; (8000eb8 <exit+0x1c>)
 8000ea8:	6818      	ldr	r0, [r3, #0]
 8000eaa:	6bc3      	ldr	r3, [r0, #60]	; 0x3c
 8000eac:	b103      	cbz	r3, 8000eb0 <exit+0x14>
 8000eae:	4798      	blx	r3
 8000eb0:	4620      	mov	r0, r4
 8000eb2:	f000 f955 	bl	8001160 <_exit>
 8000eb6:	bf00      	nop
 8000eb8:	08001178 	stmdaeq	r0, {r3, r4, r5, r6, r8, ip}

08000ebc <__libc_fini_array>:
 8000ebc:	b538      	push	{r3, r4, r5, lr}
 8000ebe:	4b08      	ldr	r3, [pc, #32]	; (8000ee0 <__libc_fini_array+0x24>)
 8000ec0:	4d08      	ldr	r5, [pc, #32]	; (8000ee4 <__libc_fini_array+0x28>)
 8000ec2:	1aed      	subs	r5, r5, r3
 8000ec4:	10ac      	asrs	r4, r5, #2
 8000ec6:	bf18      	it	ne
 8000ec8:	18ed      	addne	r5, r5, r3
 8000eca:	d005      	beq.n	8000ed8 <__libc_fini_array+0x1c>
 8000ecc:	3c01      	subs	r4, #1
 8000ece:	f855 3d04 	ldr.w	r3, [r5, #-4]!
 8000ed2:	4798      	blx	r3
 8000ed4:	2c00      	cmp	r4, #0
 8000ed6:	d1f9      	bne.n	8000ecc <__libc_fini_array+0x10>
 8000ed8:	e8bd 4038 	ldmia.w	sp!, {r3, r4, r5, lr}
 8000edc:	f7ff b98e 	b.w	80001fc <_fini>
 8000ee0:	08000210 	stmdaeq	r0, {r4, r9}
 8000ee4:	08000214 	stmdaeq	r0, {r2, r4, r9}

08000ee8 <__libc_init_array>:
 8000ee8:	b570      	push	{r4, r5, r6, lr}
 8000eea:	4e0f      	ldr	r6, [pc, #60]	; (8000f28 <__libc_init_array+0x40>)
 8000eec:	4d0f      	ldr	r5, [pc, #60]	; (8000f2c <__libc_init_array+0x44>)
 8000eee:	1b76      	subs	r6, r6, r5
 8000ef0:	10b6      	asrs	r6, r6, #2
 8000ef2:	bf18      	it	ne
 8000ef4:	2400      	movne	r4, #0
 8000ef6:	d005      	beq.n	8000f04 <__libc_init_array+0x1c>
 8000ef8:	3401      	adds	r4, #1
 8000efa:	f855 3b04 	ldr.w	r3, [r5], #4
 8000efe:	4798      	blx	r3
 8000f00:	42a6      	cmp	r6, r4
 8000f02:	d1f9      	bne.n	8000ef8 <__libc_init_array+0x10>
 8000f04:	4e0a      	ldr	r6, [pc, #40]	; (8000f30 <__libc_init_array+0x48>)
 8000f06:	4d0b      	ldr	r5, [pc, #44]	; (8000f34 <__libc_init_array+0x4c>)
 8000f08:	1b76      	subs	r6, r6, r5
 8000f0a:	f7ff f971 	bl	80001f0 <_init>
 8000f0e:	10b6      	asrs	r6, r6, #2
 8000f10:	bf18      	it	ne
 8000f12:	2400      	movne	r4, #0
 8000f14:	d006      	beq.n	8000f24 <__libc_init_array+0x3c>
 8000f16:	3401      	adds	r4, #1
 8000f18:	f855 3b04 	ldr.w	r3, [r5], #4
 8000f1c:	4798      	blx	r3
 8000f1e:	42a6      	cmp	r6, r4
 8000f20:	d1f9      	bne.n	8000f16 <__libc_init_array+0x2e>
 8000f22:	bd70      	pop	{r4, r5, r6, pc}
 8000f24:	bd70      	pop	{r4, r5, r6, pc}
 8000f26:	bf00      	nop
 8000f28:	08000208 	stmdaeq	r0, {r3, r9}
 8000f2c:	08000208 	stmdaeq	r0, {r3, r9}
 8000f30:	08000210 	stmdaeq	r0, {r4, r9}
 8000f34:	08000208 	stmdaeq	r0, {r3, r9}

08000f38 <memset>:
 8000f38:	b470      	push	{r4, r5, r6}
 8000f3a:	0784      	lsls	r4, r0, #30
 8000f3c:	d046      	beq.n	8000fcc <memset+0x94>
 8000f3e:	1e54      	subs	r4, r2, #1
 8000f40:	2a00      	cmp	r2, #0
 8000f42:	d041      	beq.n	8000fc8 <memset+0x90>
 8000f44:	b2cd      	uxtb	r5, r1
 8000f46:	4603      	mov	r3, r0
 8000f48:	e002      	b.n	8000f50 <memset+0x18>
 8000f4a:	1e62      	subs	r2, r4, #1
 8000f4c:	b3e4      	cbz	r4, 8000fc8 <memset+0x90>
 8000f4e:	4614      	mov	r4, r2
 8000f50:	f803 5b01 	strb.w	r5, [r3], #1
 8000f54:	079a      	lsls	r2, r3, #30
 8000f56:	d1f8      	bne.n	8000f4a <memset+0x12>
 8000f58:	2c03      	cmp	r4, #3
 8000f5a:	d92e      	bls.n	8000fba <memset+0x82>
 8000f5c:	b2cd      	uxtb	r5, r1
 8000f5e:	ea45 2505 	orr.w	r5, r5, r5, lsl #8
 8000f62:	2c0f      	cmp	r4, #15
 8000f64:	ea45 4505 	orr.w	r5, r5, r5, lsl #16
 8000f68:	d919      	bls.n	8000f9e <memset+0x66>
 8000f6a:	f103 0210 	add.w	r2, r3, #16
 8000f6e:	4626      	mov	r6, r4
 8000f70:	3e10      	subs	r6, #16
 8000f72:	2e0f      	cmp	r6, #15
 8000f74:	f842 5c10 	str.w	r5, [r2, #-16]
 8000f78:	f842 5c0c 	str.w	r5, [r2, #-12]
 8000f7c:	f842 5c08 	str.w	r5, [r2, #-8]
 8000f80:	f842 5c04 	str.w	r5, [r2, #-4]
 8000f84:	f102 0210 	add.w	r2, r2, #16
 8000f88:	d8f2      	bhi.n	8000f70 <memset+0x38>
 8000f8a:	f1a4 0210 	sub.w	r2, r4, #16
 8000f8e:	f022 020f 	bic.w	r2, r2, #15
 8000f92:	f004 040f 	and.w	r4, r4, #15
 8000f96:	3210      	adds	r2, #16
 8000f98:	2c03      	cmp	r4, #3
 8000f9a:	4413      	add	r3, r2
 8000f9c:	d90d      	bls.n	8000fba <memset+0x82>
 8000f9e:	461e      	mov	r6, r3
 8000fa0:	4622      	mov	r2, r4
 8000fa2:	3a04      	subs	r2, #4
 8000fa4:	2a03      	cmp	r2, #3
 8000fa6:	f846 5b04 	str.w	r5, [r6], #4
 8000faa:	d8fa      	bhi.n	8000fa2 <memset+0x6a>
 8000fac:	1f22      	subs	r2, r4, #4
 8000fae:	f022 0203 	bic.w	r2, r2, #3
 8000fb2:	3204      	adds	r2, #4
 8000fb4:	4413      	add	r3, r2
 8000fb6:	f004 0403 	and.w	r4, r4, #3
 8000fba:	b12c      	cbz	r4, 8000fc8 <memset+0x90>
 8000fbc:	b2c9      	uxtb	r1, r1
 8000fbe:	441c      	add	r4, r3
 8000fc0:	f803 1b01 	strb.w	r1, [r3], #1
 8000fc4:	42a3      	cmp	r3, r4
 8000fc6:	d1fb      	bne.n	8000fc0 <memset+0x88>
 8000fc8:	bc70      	pop	{r4, r5, r6}
 8000fca:	4770      	bx	lr
 8000fcc:	4614      	mov	r4, r2
 8000fce:	4603      	mov	r3, r0
 8000fd0:	e7c2      	b.n	8000f58 <memset+0x20>
 8000fd2:	bf00      	nop

08000fd4 <__register_exitproc>:
 8000fd4:	e92d 47f0 	stmdb	sp!, {r4, r5, r6, r7, r8, r9, sl, lr}
 8000fd8:	4c25      	ldr	r4, [pc, #148]	; (8001070 <__register_exitproc+0x9c>)
 8000fda:	6825      	ldr	r5, [r4, #0]
 8000fdc:	f8d5 4148 	ldr.w	r4, [r5, #328]	; 0x148
 8000fe0:	4606      	mov	r6, r0
 8000fe2:	4688      	mov	r8, r1
 8000fe4:	4692      	mov	sl, r2
 8000fe6:	4699      	mov	r9, r3
 8000fe8:	b3cc      	cbz	r4, 800105e <__register_exitproc+0x8a>
 8000fea:	6860      	ldr	r0, [r4, #4]
 8000fec:	281f      	cmp	r0, #31
 8000fee:	dc18      	bgt.n	8001022 <__register_exitproc+0x4e>
 8000ff0:	1c43      	adds	r3, r0, #1
 8000ff2:	b17e      	cbz	r6, 8001014 <__register_exitproc+0x40>
 8000ff4:	eb04 0580 	add.w	r5, r4, r0, lsl #2
 8000ff8:	2101      	movs	r1, #1
 8000ffa:	f8c5 a088 	str.w	sl, [r5, #136]	; 0x88
 8000ffe:	f8d4 7188 	ldr.w	r7, [r4, #392]	; 0x188
 8001002:	fa01 f200 	lsl.w	r2, r1, r0
 8001006:	4317      	orrs	r7, r2
 8001008:	2e02      	cmp	r6, #2
 800100a:	f8c4 7188 	str.w	r7, [r4, #392]	; 0x188
 800100e:	f8c5 9108 	str.w	r9, [r5, #264]	; 0x108
 8001012:	d01e      	beq.n	8001052 <__register_exitproc+0x7e>
 8001014:	3002      	adds	r0, #2
 8001016:	6063      	str	r3, [r4, #4]
 8001018:	f844 8020 	str.w	r8, [r4, r0, lsl #2]
 800101c:	2000      	movs	r0, #0
 800101e:	e8bd 87f0 	ldmia.w	sp!, {r4, r5, r6, r7, r8, r9, sl, pc}
 8001022:	4b14      	ldr	r3, [pc, #80]	; (8001074 <__register_exitproc+0xa0>)
 8001024:	b303      	cbz	r3, 8001068 <__register_exitproc+0x94>
 8001026:	f44f 70c8 	mov.w	r0, #400	; 0x190
 800102a:	f3af 8000 	nop.w
 800102e:	4604      	mov	r4, r0
 8001030:	b1d0      	cbz	r0, 8001068 <__register_exitproc+0x94>
 8001032:	f8d5 3148 	ldr.w	r3, [r5, #328]	; 0x148
 8001036:	2700      	movs	r7, #0
 8001038:	e880 0088 	stmia.w	r0, {r3, r7}
 800103c:	f8c5 4148 	str.w	r4, [r5, #328]	; 0x148
 8001040:	4638      	mov	r0, r7
 8001042:	2301      	movs	r3, #1
 8001044:	f8c4 7188 	str.w	r7, [r4, #392]	; 0x188
 8001048:	f8c4 718c 	str.w	r7, [r4, #396]	; 0x18c
 800104c:	2e00      	cmp	r6, #0
 800104e:	d0e1      	beq.n	8001014 <__register_exitproc+0x40>
 8001050:	e7d0      	b.n	8000ff4 <__register_exitproc+0x20>
 8001052:	f8d4 118c 	ldr.w	r1, [r4, #396]	; 0x18c
 8001056:	430a      	orrs	r2, r1
 8001058:	f8c4 218c 	str.w	r2, [r4, #396]	; 0x18c
 800105c:	e7da      	b.n	8001014 <__register_exitproc+0x40>
 800105e:	f505 74a6 	add.w	r4, r5, #332	; 0x14c
 8001062:	f8c5 4148 	str.w	r4, [r5, #328]	; 0x148
 8001066:	e7c0      	b.n	8000fea <__register_exitproc+0x16>
 8001068:	f04f 30ff 	mov.w	r0, #4294967295	; 0xffffffff
 800106c:	e8bd 87f0 	ldmia.w	sp!, {r4, r5, r6, r7, r8, r9, sl, pc}
 8001070:	08001178 	stmdaeq	r0, {r3, r4, r5, r6, r8, ip}
 8001074:	00000000 	andeq	r0, r0, r0

08001078 <register_fini>:
 8001078:	4b02      	ldr	r3, [pc, #8]	; (8001084 <register_fini+0xc>)
 800107a:	b113      	cbz	r3, 8001082 <register_fini+0xa>
 800107c:	4802      	ldr	r0, [pc, #8]	; (8001088 <register_fini+0x10>)
 800107e:	f7ff bf07 	b.w	8000e90 <atexit>
 8001082:	4770      	bx	lr
 8001084:	00000000 	andeq	r0, r0, r0
 8001088:	08000ebd 	stmdaeq	r0, {r0, r2, r3, r4, r5, r7, r9, sl, fp}

0800108c <__call_exitprocs>:
 800108c:	e92d 4ff0 	stmdb	sp!, {r4, r5, r6, r7, r8, r9, sl, fp, lr}
 8001090:	4b31      	ldr	r3, [pc, #196]	; (8001158 <__call_exitprocs+0xcc>)
 8001092:	b083      	sub	sp, #12
 8001094:	681b      	ldr	r3, [r3, #0]
 8001096:	9300      	str	r3, [sp, #0]
 8001098:	f503 73a4 	add.w	r3, r3, #328	; 0x148
 800109c:	4681      	mov	r9, r0
 800109e:	460e      	mov	r6, r1
 80010a0:	9301      	str	r3, [sp, #4]
 80010a2:	9b00      	ldr	r3, [sp, #0]
 80010a4:	f8d3 7148 	ldr.w	r7, [r3, #328]	; 0x148
 80010a8:	b327      	cbz	r7, 80010f4 <__call_exitprocs+0x68>
 80010aa:	f8dd a004 	ldr.w	sl, [sp, #4]
 80010ae:	687c      	ldr	r4, [r7, #4]
 80010b0:	1e65      	subs	r5, r4, #1
 80010b2:	d40e      	bmi.n	80010d2 <__call_exitprocs+0x46>
 80010b4:	3401      	adds	r4, #1
 80010b6:	eb07 0484 	add.w	r4, r7, r4, lsl #2
 80010ba:	f04f 0800 	mov.w	r8, #0
 80010be:	b1e6      	cbz	r6, 80010fa <__call_exitprocs+0x6e>
 80010c0:	f8d4 3100 	ldr.w	r3, [r4, #256]	; 0x100
 80010c4:	42b3      	cmp	r3, r6
 80010c6:	d018      	beq.n	80010fa <__call_exitprocs+0x6e>
 80010c8:	3d01      	subs	r5, #1
 80010ca:	1c6b      	adds	r3, r5, #1
 80010cc:	f1a4 0404 	sub.w	r4, r4, #4
 80010d0:	d1f5      	bne.n	80010be <__call_exitprocs+0x32>
 80010d2:	4b22      	ldr	r3, [pc, #136]	; (800115c <__call_exitprocs+0xd0>)
 80010d4:	b173      	cbz	r3, 80010f4 <__call_exitprocs+0x68>
 80010d6:	687b      	ldr	r3, [r7, #4]
 80010d8:	2b00      	cmp	r3, #0
 80010da:	d136      	bne.n	800114a <__call_exitprocs+0xbe>
 80010dc:	683b      	ldr	r3, [r7, #0]
 80010de:	2b00      	cmp	r3, #0
 80010e0:	d034      	beq.n	800114c <__call_exitprocs+0xc0>
 80010e2:	4638      	mov	r0, r7
 80010e4:	f8ca 3000 	str.w	r3, [sl]
 80010e8:	f3af 8000 	nop.w
 80010ec:	f8da 7000 	ldr.w	r7, [sl]
 80010f0:	2f00      	cmp	r7, #0
 80010f2:	d1dc      	bne.n	80010ae <__call_exitprocs+0x22>
 80010f4:	b003      	add	sp, #12
 80010f6:	e8bd 8ff0 	ldmia.w	sp!, {r4, r5, r6, r7, r8, r9, sl, fp, pc}
 80010fa:	687b      	ldr	r3, [r7, #4]
 80010fc:	6822      	ldr	r2, [r4, #0]
 80010fe:	3b01      	subs	r3, #1
 8001100:	42ab      	cmp	r3, r5
 8001102:	bf0c      	ite	eq
 8001104:	607d      	streq	r5, [r7, #4]
 8001106:	f8c4 8000 	strne.w	r8, [r4]
 800110a:	2a00      	cmp	r2, #0
 800110c:	d0dc      	beq.n	80010c8 <__call_exitprocs+0x3c>
 800110e:	f8d7 3188 	ldr.w	r3, [r7, #392]	; 0x188
 8001112:	f8d7 b004 	ldr.w	fp, [r7, #4]
 8001116:	2101      	movs	r1, #1
 8001118:	40a9      	lsls	r1, r5
 800111a:	4219      	tst	r1, r3
 800111c:	d108      	bne.n	8001130 <__call_exitprocs+0xa4>
 800111e:	4790      	blx	r2
 8001120:	687b      	ldr	r3, [r7, #4]
 8001122:	455b      	cmp	r3, fp
 8001124:	d1bd      	bne.n	80010a2 <__call_exitprocs+0x16>
 8001126:	f8da 3000 	ldr.w	r3, [sl]
 800112a:	42bb      	cmp	r3, r7
 800112c:	d0cc      	beq.n	80010c8 <__call_exitprocs+0x3c>
 800112e:	e7b8      	b.n	80010a2 <__call_exitprocs+0x16>
 8001130:	f8d7 318c 	ldr.w	r3, [r7, #396]	; 0x18c
 8001134:	4219      	tst	r1, r3
 8001136:	d104      	bne.n	8001142 <__call_exitprocs+0xb6>
 8001138:	4648      	mov	r0, r9
 800113a:	f8d4 1080 	ldr.w	r1, [r4, #128]	; 0x80
 800113e:	4790      	blx	r2
 8001140:	e7ee      	b.n	8001120 <__call_exitprocs+0x94>
 8001142:	f8d4 0080 	ldr.w	r0, [r4, #128]	; 0x80
 8001146:	4790      	blx	r2
 8001148:	e7ea      	b.n	8001120 <__call_exitprocs+0x94>
 800114a:	683b      	ldr	r3, [r7, #0]
 800114c:	46ba      	mov	sl, r7
 800114e:	461f      	mov	r7, r3
 8001150:	2f00      	cmp	r7, #0
 8001152:	d1ac      	bne.n	80010ae <__call_exitprocs+0x22>
 8001154:	e7ce      	b.n	80010f4 <__call_exitprocs+0x68>
 8001156:	bf00      	nop
 8001158:	08001178 	stmdaeq	r0, {r3, r4, r5, r6, r8, ip}
 800115c:	00000000 	andeq	r0, r0, r0

08001160 <_exit>:
 8001160:	e7fe      	b.n	8001160 <_exit>
 8001162:	bf00      	nop

08001164 <APBAHBPrescTable>:
 8001164:	00000000 	andeq	r0, r0, r0
 8001168:	04030201 	streq	r0, [r3], #-513	; 0xfffffdff
 800116c:	04030201 	streq	r0, [r3], #-513	; 0xfffffdff
 8001170:	09080706 	stmdbeq	r8, {r1, r2, r8, r9, sl}
 8001174:	00000043 	andeq	r0, r0, r3, asr #32

08001178 <_global_impure_ptr>:
 8001178:	20000008 	andcs	r0, r0, r8

0800117c <__EH_FRAME_BEGIN__>:
 800117c:	00000000 	andeq	r0, r0, r0

Disassembly of section .ARM.exidx:

08001180 <__exidx_start>:
 8001180:	7ffff138 	svcvc	0x00fff138
 8001184:	00000001 	andeq	r0, r0, r1

Disassembly of section ._check_stack:

20000450 <._check_stack>:
20000450:	00000000 	andeq	r0, r0, r0
20000454:	00000000 	andeq	r0, r0, r0
20000458:	00000000 	andeq	r0, r0, r0
2000045c:	00000000 	andeq	r0, r0, r0
20000460:	00000000 	andeq	r0, r0, r0
20000464:	00000000 	andeq	r0, r0, r0
20000468:	00000000 	andeq	r0, r0, r0
2000046c:	00000000 	andeq	r0, r0, r0
20000470:	00000000 	andeq	r0, r0, r0
20000474:	00000000 	andeq	r0, r0, r0
20000478:	00000000 	andeq	r0, r0, r0
2000047c:	00000000 	andeq	r0, r0, r0
20000480:	00000000 	andeq	r0, r0, r0
20000484:	00000000 	andeq	r0, r0, r0
20000488:	00000000 	andeq	r0, r0, r0
2000048c:	00000000 	andeq	r0, r0, r0
20000490:	00000000 	andeq	r0, r0, r0
20000494:	00000000 	andeq	r0, r0, r0
20000498:	00000000 	andeq	r0, r0, r0
2000049c:	00000000 	andeq	r0, r0, r0
200004a0:	00000000 	andeq	r0, r0, r0
200004a4:	00000000 	andeq	r0, r0, r0
200004a8:	00000000 	andeq	r0, r0, r0
200004ac:	00000000 	andeq	r0, r0, r0
200004b0:	00000000 	andeq	r0, r0, r0
200004b4:	00000000 	andeq	r0, r0, r0
200004b8:	00000000 	andeq	r0, r0, r0
200004bc:	00000000 	andeq	r0, r0, r0
200004c0:	00000000 	andeq	r0, r0, r0
200004c4:	00000000 	andeq	r0, r0, r0
200004c8:	00000000 	andeq	r0, r0, r0
200004cc:	00000000 	andeq	r0, r0, r0
200004d0:	00000000 	andeq	r0, r0, r0
200004d4:	00000000 	andeq	r0, r0, r0
200004d8:	00000000 	andeq	r0, r0, r0
200004dc:	00000000 	andeq	r0, r0, r0
200004e0:	00000000 	andeq	r0, r0, r0
200004e4:	00000000 	andeq	r0, r0, r0
200004e8:	00000000 	andeq	r0, r0, r0
200004ec:	00000000 	andeq	r0, r0, r0
200004f0:	00000000 	andeq	r0, r0, r0
200004f4:	00000000 	andeq	r0, r0, r0
200004f8:	00000000 	andeq	r0, r0, r0
200004fc:	00000000 	andeq	r0, r0, r0
20000500:	00000000 	andeq	r0, r0, r0
20000504:	00000000 	andeq	r0, r0, r0
20000508:	00000000 	andeq	r0, r0, r0
2000050c:	00000000 	andeq	r0, r0, r0
20000510:	00000000 	andeq	r0, r0, r0
20000514:	00000000 	andeq	r0, r0, r0
20000518:	00000000 	andeq	r0, r0, r0
2000051c:	00000000 	andeq	r0, r0, r0
20000520:	00000000 	andeq	r0, r0, r0
20000524:	00000000 	andeq	r0, r0, r0
20000528:	00000000 	andeq	r0, r0, r0
2000052c:	00000000 	andeq	r0, r0, r0
20000530:	00000000 	andeq	r0, r0, r0
20000534:	00000000 	andeq	r0, r0, r0
20000538:	00000000 	andeq	r0, r0, r0
2000053c:	00000000 	andeq	r0, r0, r0
20000540:	00000000 	andeq	r0, r0, r0
20000544:	00000000 	andeq	r0, r0, r0
20000548:	00000000 	andeq	r0, r0, r0
2000054c:	00000000 	andeq	r0, r0, r0

Disassembly of section .comment:

00000000 <.comment>:
   0:	3a434347 	bcc	10d0d24 <__Main_Stack_Size+0x10d0924>
   4:	35312820 	ldrcc	r2, [r1, #-2080]!	; 0xfffff7e0
   8:	392e343a 	stmdbcc	lr!, {r1, r3, r4, r5, sl, ip, sp}
   c:	732b332e 			; <UNDEFINED> instruction: 0x732b332e
  10:	33326e76 	teqcc	r2, #1888	; 0x760
  14:	37373131 			; <UNDEFINED> instruction: 0x37373131
  18:	2029312d 	eorcs	r3, r9, sp, lsr #2
  1c:	2e392e34 	mrccs	14, 1, r2, cr9, cr4, {1}
  20:	30322033 	eorscc	r2, r2, r3, lsr r0
  24:	35303531 	ldrcc	r3, [r0, #-1329]!	; 0xfffffacf
  28:	28203932 	stmdacs	r0!, {r1, r4, r5, r8, fp, ip, sp}
  2c:	72657270 	rsbvc	r7, r5, #112, 4
  30:	61656c65 	cmnvs	r5, r5, ror #24
  34:	00296573 	eoreq	r6, r9, r3, ror r5
  38:	3a434347 	bcc	10d0d5c <__Main_Stack_Size+0x10d095c>
  3c:	35312820 	ldrcc	r2, [r1, #-2080]!	; 0xfffff7e0
  40:	392e343a 	stmdbcc	lr!, {r1, r3, r4, r5, sl, ip, sp}
  44:	732b332e 			; <UNDEFINED> instruction: 0x732b332e
  48:	32326e76 	eorscc	r6, r2, #1888	; 0x760
  4c:	37393237 			; <UNDEFINED> instruction: 0x37393237
  50:	2029312d 	eorcs	r3, r9, sp, lsr #2
  54:	2e392e34 	mrccs	14, 1, r2, cr9, cr4, {1}
  58:	30322033 	eorscc	r2, r2, r3, lsr r0
  5c:	35303531 	ldrcc	r3, [r0, #-1329]!	; 0xfffffacf
  60:	28203932 	stmdacs	r0!, {r1, r4, r5, r8, fp, ip, sp}
  64:	72657270 	rsbvc	r7, r5, #112, 4
  68:	61656c65 	cmnvs	r5, r5, ror #24
  6c:	00296573 	eoreq	r6, r9, r3, ror r5

Disassembly of section .ARM.attributes:

00000000 <.ARM.attributes>:
   0:	00002f41 	andeq	r2, r0, r1, asr #30
   4:	61656100 	cmnvs	r5, r0, lsl #2
   8:	01006962 	tsteq	r0, r2, ror #18
   c:	00000025 	andeq	r0, r0, r5, lsr #32
  10:	2d453705 	stclcs	7, cr3, [r5, #-20]	; 0xffffffec
  14:	0d06004d 	stceq	0, cr0, [r6, #-308]	; 0xfffffecc
  18:	02094d07 	andeq	r4, r9, #448	; 0x1c0
  1c:	0412060a 	ldreq	r0, [r2], #-1546	; 0xfffff9f6
  20:	01150114 	tsteq	r5, r4, lsl r1
  24:	01180317 	tsteq	r8, r7, lsl r3
  28:	011b011a 	tsteq	fp, sl, lsl r1
  2c:	0122011c 			; <UNDEFINED> instruction: 0x0122011c

Disassembly of section .debug_aranges:

00000000 <.debug_aranges>:
   0:	0000001c 	andeq	r0, r0, ip, lsl r0
   4:	00000002 	andeq	r0, r0, r2
   8:	00040000 	andeq	r0, r4, r0
   c:	00000000 	andeq	r0, r0, r0
  10:	080002b8 	stmdaeq	r0, {r3, r4, r5, r7, r9}
  14:	00000068 	andeq	r0, r0, r8, rrx
  18:	00000000 	andeq	r0, r0, r0
  1c:	00000000 	andeq	r0, r0, r0
  20:	0000001c 	andeq	r0, r0, ip, lsl r0
  24:	00b00002 	adcseq	r0, r0, r2
  28:	00040000 	andeq	r0, r4, r0
  2c:	00000000 	andeq	r0, r0, r0
  30:	08000e90 	stmdaeq	r0, {r4, r7, r9, sl, fp}
  34:	0000000c 	andeq	r0, r0, ip
  38:	00000000 	andeq	r0, r0, r0
  3c:	00000000 	andeq	r0, r0, r0
  40:	0000001c 	andeq	r0, r0, ip, lsl r0
  44:	01ba0002 			; <UNDEFINED> instruction: 0x01ba0002
  48:	00040000 	andeq	r0, r4, r0
  4c:	00000000 	andeq	r0, r0, r0
  50:	08000e9c 	stmdaeq	r0, {r2, r3, r4, r7, r9, sl, fp}
  54:	00000020 	andeq	r0, r0, r0, lsr #32
  58:	00000000 	andeq	r0, r0, r0
  5c:	00000000 	andeq	r0, r0, r0
  60:	0000001c 	andeq	r0, r0, ip, lsl r0
  64:	0a9e0002 	beq	fe780074 <_estack+0xde730074>
  68:	00040000 	andeq	r0, r4, r0
  6c:	00000000 	andeq	r0, r0, r0
  70:	08000ebc 	stmdaeq	r0, {r2, r3, r4, r5, r7, r9, sl, fp}
  74:	0000002c 	andeq	r0, r0, ip, lsr #32
  78:	00000000 	andeq	r0, r0, r0
  7c:	00000000 	andeq	r0, r0, r0
  80:	00000014 	andeq	r0, r0, r4, lsl r0
  84:	0b8d0002 	bleq	fe340094 <_estack+0xde2f0094>
  88:	00040000 	andeq	r0, r4, r0
  8c:	00000000 	andeq	r0, r0, r0
  90:	00000000 	andeq	r0, r0, r0
  94:	00000000 	andeq	r0, r0, r0
  98:	0000001c 	andeq	r0, r0, ip, lsl r0
  9c:	14210002 	strtne	r0, [r1], #-2
  a0:	00040000 	andeq	r0, r4, r0
  a4:	00000000 	andeq	r0, r0, r0
  a8:	08000ee8 	stmdaeq	r0, {r3, r5, r6, r7, r9, sl, fp}
  ac:	00000050 	andeq	r0, r0, r0, asr r0
  b0:	00000000 	andeq	r0, r0, r0
  b4:	00000000 	andeq	r0, r0, r0
  b8:	0000001c 	andeq	r0, r0, ip, lsl r0
  bc:	15260002 	strne	r0, [r6, #-2]!
  c0:	00040000 	andeq	r0, r4, r0
  c4:	00000000 	andeq	r0, r0, r0
  c8:	08000f38 	stmdaeq	r0, {r3, r4, r5, r8, r9, sl, fp}
  cc:	0000009a 	muleq	r0, sl, r0
  d0:	00000000 	andeq	r0, r0, r0
  d4:	00000000 	andeq	r0, r0, r0
  d8:	0000001c 	andeq	r0, r0, ip, lsl r0
  dc:	163d0002 	ldrtne	r0, [sp], -r2
  e0:	00040000 	andeq	r0, r4, r0
  e4:	00000000 	andeq	r0, r0, r0
  e8:	08000fd4 	stmdaeq	r0, {r2, r4, r6, r7, r8, r9, sl, fp}
  ec:	000000a4 	andeq	r0, r0, r4, lsr #1
  f0:	00000000 	andeq	r0, r0, r0
  f4:	00000000 	andeq	r0, r0, r0
  f8:	00000024 	andeq	r0, r0, r4, lsr #32
  fc:	1f710002 	svcne	0x00710002
 100:	00040000 	andeq	r0, r4, r0
 104:	00000000 	andeq	r0, r0, r0
 108:	08001078 	stmdaeq	r0, {r3, r4, r5, r6, ip}
 10c:	00000014 	andeq	r0, r0, r4, lsl r0
 110:	0800108c 	stmdaeq	r0, {r2, r3, r7, ip}
 114:	000000d4 	ldrdeq	r0, [r0], -r4
 118:	00000000 	andeq	r0, r0, r0
 11c:	00000000 	andeq	r0, r0, r0
 120:	0000001c 	andeq	r0, r0, ip, lsl r0
 124:	291a0002 	ldmdbcs	sl, {r1}
 128:	00040000 	andeq	r0, r4, r0
 12c:	00000000 	andeq	r0, r0, r0
 130:	08001160 	stmdaeq	r0, {r5, r6, r8, ip}
 134:	00000002 	andeq	r0, r0, r2
 138:	00000000 	andeq	r0, r0, r0
 13c:	00000000 	andeq	r0, r0, r0

Disassembly of section .debug_info:

00000000 <.debug_info>:
       0:	000000ac 	andeq	r0, r0, ip, lsr #1
       4:	00000002 	andeq	r0, r0, r2
       8:	01040000 	mrseq	r0, (UNDEF: 4)
       c:	00000000 	andeq	r0, r0, r0
      10:	080002b8 	stmdaeq	r0, {r3, r4, r5, r7, r9}
      14:	08000320 	stmdaeq	r0, {r5, r8, r9}
      18:	2e2f2e2e 	cdpcs	14, 2, cr2, cr15, cr14, {1}
      1c:	2e2e2f2e 	cdpcs	15, 2, cr2, cr14, cr14, {1}
      20:	2f2e2e2f 	svccs	0x002e2e2f
      24:	2e2f2e2e 	cdpcs	14, 2, cr2, cr15, cr14, {1}
      28:	696c2f2e 	stmdbvs	ip!, {r1, r2, r3, r5, r8, r9, sl, fp, sp}^
      2c:	6f6c6762 	svcvs	0x006c6762
      30:	612f7373 			; <UNDEFINED> instruction: 0x612f7373
      34:	632f6d72 			; <UNDEFINED> instruction: 0x632f6d72
      38:	2e307472 	mrccs	4, 1, r7, cr0, cr2, {3}
      3c:	622f0053 	eorvs	r0, pc, #83	; 0x53
      40:	646c6975 	strbtvs	r6, [ip], #-2421	; 0xfffff68b
      44:	77656e2f 	strbvc	r6, [r5, -pc, lsr #28]!
      48:	2d62696c 	stclcs	9, cr6, [r2, #-432]!	; 0xfffffe50
      4c:	70777a35 	rsbsvc	r7, r7, r5, lsr sl
      50:	6e2f4578 	mcrvs	5, 1, r4, cr15, cr8, {3}
      54:	696c7765 	stmdbvs	ip!, {r0, r2, r5, r6, r8, r9, sl, ip, sp, lr}^
      58:	2e322d62 	cdpcs	13, 3, cr2, cr2, cr2, {3}
      5c:	2b302e32 	blcs	c0b92c <__Main_Stack_Size+0xc0b52c>
      60:	32746967 	rsbscc	r6, r4, #1687552	; 0x19c000
      64:	30353130 	eorscc	r3, r5, r0, lsr r1
      68:	2e303338 	mrccs	3, 1, r3, cr0, cr8, {1}
      6c:	64336135 	ldrtvs	r6, [r3], #-309	; 0xfffffecb
      70:	2f363335 	svccs	0x00363335
      74:	6c697562 	cfstr64vs	mvdx7, [r9], #-392	; 0xfffffe78
      78:	72612f64 	rsbvc	r2, r1, #100, 30	; 0x190
      7c:	6f6e2d6d 	svcvs	0x006e2d6d
      80:	652d656e 	strvs	r6, [sp, #-1390]!	; 0xfffffa92
      84:	2f696261 	svccs	0x00696261
      88:	766d7261 	strbtvc	r7, [sp], -r1, ror #4
      8c:	6d2d6537 	cfstr32vs	mvfx6, [sp, #-220]!	; 0xffffff24
      90:	7570662f 	ldrbvc	r6, [r0, #-1583]!	; 0xfffff9d1
      94:	62696c2f 	rsbvs	r6, r9, #12032	; 0x2f00
      98:	736f6c67 	cmnvc	pc, #26368	; 0x6700
      9c:	72612f73 	rsbvc	r2, r1, #460	; 0x1cc
      a0:	4e47006d 	cdpmi	0, 4, cr0, cr7, cr13, {3}
      a4:	53412055 	movtpl	r2, #4181	; 0x1055
      a8:	322e3220 	eorcc	r3, lr, #32, 4
      ac:	80010035 	andhi	r0, r1, r5, lsr r0
      b0:	00000106 	andeq	r0, r0, r6, lsl #2
      b4:	00140004 	andseq	r0, r4, r4
      b8:	01040000 	mrseq	r0, (UNDEF: 4)
      bc:	0000012f 	andeq	r0, r0, pc, lsr #2
      c0:	00003001 	andeq	r3, r0, r1
      c4:	0000b200 	andeq	fp, r0, r0, lsl #4
      c8:	00000000 	andeq	r0, r0, r0
      cc:	00000000 	andeq	r0, r0, r0
      d0:	00007e00 	andeq	r7, r0, r0, lsl #28
      d4:	07040200 	streq	r0, [r4, -r0, lsl #4]
      d8:	0000006b 	andeq	r0, r0, fp, rrx
      dc:	69050403 	stmdbvs	r5, {r0, r1, sl}
      e0:	0200746e 	andeq	r7, r0, #1845493760	; 0x6e000000
      e4:	007a0601 	rsbseq	r0, sl, r1, lsl #12
      e8:	01020000 	mrseq	r0, (UNDEF: 2)
      ec:	00007808 	andeq	r7, r0, r8, lsl #16
      f0:	05020200 	streq	r0, [r2, #-512]	; 0xfffffe00
      f4:	00000125 	andeq	r0, r0, r5, lsr #2
      f8:	0e070202 	cdpeq	2, 0, cr0, cr7, cr2, {0}
      fc:	02000000 	andeq	r0, r0, #0
     100:	00050504 	andeq	r0, r5, r4, lsl #10
     104:	04020000 	streq	r0, [r2], #-0
     108:	00006607 	andeq	r6, r0, r7, lsl #12
     10c:	05080200 	streq	r0, [r8, #-512]	; 0xfffffe00
     110:	00000000 	andeq	r0, r0, r0
     114:	61070802 	tstvs	r7, r2, lsl #16
     118:	02000000 	andeq	r0, r0, #0
     11c:	01ff0704 	mvnseq	r0, r4, lsl #14
     120:	04040000 	streq	r0, [r4], #-0
     124:	007a0405 	rsbseq	r0, sl, r5, lsl #8
     128:	02060000 	andeq	r0, r6, #0
     12c:	00810801 	addeq	r0, r1, r1, lsl #16
     130:	21070000 	mrscs	r0, (UNDEF: 7)
     134:	01000000 	mrseq	r0, (UNDEF: 0)
     138:	00a10502 	adceq	r0, r1, r2, lsl #10
     13c:	86080000 	strhi	r0, [r8], -r0
     140:	00000000 	andeq	r0, r0, r0
     144:	0000a608 	andeq	sl, r0, r8, lsl #12
     148:	1c080100 	stfnes	f0, [r8], {-0}
     14c:	02000001 	andeq	r0, r0, #1
     150:	008b0900 	addeq	r0, fp, r0, lsl #18
     154:	45030000 	strmi	r0, [r3, #-0]
     158:	0000002c 	andeq	r0, r0, ip, lsr #32
     15c:	08000e90 	stmdaeq	r0, {r4, r7, r9, sl, fp}
     160:	0000000c 	andeq	r0, r0, ip
     164:	00e99c01 	rsceq	r9, r9, r1, lsl #24
     168:	660a0000 	strvs	r0, [sl], -r0
     16c:	3d01006e 	stccc	0, cr0, [r1, #-440]	; 0xfffffe48
     170:	00000074 	andeq	r0, r0, r4, ror r0
     174:	00000000 	andeq	r0, r0, r0
     178:	000e9c0b 	andeq	r9, lr, fp, lsl #24
     17c:	0000e908 	andeq	lr, r0, r8, lsl #18
     180:	53010c00 	movwpl	r0, #7168	; 0x1c00
     184:	010c3001 	tsteq	ip, r1
     188:	0c300152 	ldfeqs	f0, [r0], #-328	; 0xfffffeb8
     18c:	f3035101 	vrhadd.u8	d5, d3, d1
     190:	010c5001 	tsteq	ip, r1
     194:	00300150 	eorseq	r0, r0, r0, asr r1
     198:	00920d00 	addseq	r0, r2, r0, lsl #26
     19c:	0d020000 	stceq	0, cr0, [r2, #-0]
     1a0:	0000002c 	andeq	r0, r0, ip, lsr #32
     1a4:	00002c0e 	andeq	r2, r0, lr, lsl #24
     1a8:	00740e00 	rsbseq	r0, r4, r0, lsl #28
     1ac:	720e0000 	andvc	r0, lr, #0
     1b0:	0e000000 	cdpeq	0, 0, cr0, cr0, cr0, {0}
     1b4:	00000072 	andeq	r0, r0, r2, ror r0
     1b8:	08e00000 	stmiaeq	r0!, {}^	; <UNPREDICTABLE>
     1bc:	00040000 	andeq	r0, r4, r0
     1c0:	000000cc 	andeq	r0, r0, ip, asr #1
     1c4:	012f0104 			; <UNDEFINED> instruction: 0x012f0104
     1c8:	cd010000 	stcgt	0, cr0, [r1, #-0]
     1cc:	b2000003 	andlt	r0, r0, #3
     1d0:	10000000 	andne	r0, r0, r0
     1d4:	00000000 	andeq	r0, r0, r0
     1d8:	42000000 	andmi	r0, r0, #0
     1dc:	02000001 	andeq	r0, r0, #1
     1e0:	006b0704 	rsbeq	r0, fp, r4, lsl #14
     1e4:	04030000 	streq	r0, [r3], #-0
     1e8:	746e6905 	strbtvc	r6, [lr], #-2309	; 0xfffff6fb
     1ec:	06010200 	streq	r0, [r1], -r0, lsl #4
     1f0:	0000007a 	andeq	r0, r0, sl, ror r0
     1f4:	78080102 	stmdavc	r8, {r1, r8}
     1f8:	02000000 	andeq	r0, r0, #0
     1fc:	01250502 			; <UNDEFINED> instruction: 0x01250502
     200:	02020000 	andeq	r0, r2, #0
     204:	00000e07 	andeq	r0, r0, r7, lsl #28
     208:	05040200 	streq	r0, [r4, #-512]	; 0xfffffe00
     20c:	00000005 	andeq	r0, r0, r5
     210:	66070402 	strvs	r0, [r7], -r2, lsl #8
     214:	02000000 	andeq	r0, r0, #0
     218:	00000508 	andeq	r0, r0, r8, lsl #10
     21c:	08020000 	stmdaeq	r2, {}	; <UNPREDICTABLE>
     220:	00006107 	andeq	r6, r0, r7, lsl #2
     224:	04390400 	ldrteq	r0, [r9], #-1024	; 0xfffffc00
     228:	07020000 	streq	r0, [r2, -r0]
     22c:	0000002c 	andeq	r0, r0, ip, lsr #32
     230:	00041704 	andeq	r1, r4, r4, lsl #14
     234:	4f100300 	svcmi	0x00100300
     238:	04000000 	streq	r0, [r0], #-0
     23c:	000004fa 	strdeq	r0, [r0], -sl
     240:	004f2703 	subeq	r2, pc, r3, lsl #14
     244:	ad050000 	stcge	0, cr0, [r5, #-0]
     248:	04000003 	streq	r0, [r0], #-3
     24c:	00250161 	eoreq	r0, r5, r1, ror #2
     250:	04060000 	streq	r0, [r6], #-0
     254:	00b74a03 	adcseq	r4, r7, r3, lsl #20
     258:	a7070000 	strge	r0, [r7, -r0]
     25c:	03000003 	movweq	r0, #3
     260:	00008c4c 	andeq	r8, r0, ip, asr #24
     264:	03590700 	cmpeq	r9, #0, 14
     268:	4d030000 	stcmi	0, cr0, [r3, #-0]
     26c:	000000b7 	strheq	r0, [r0], -r7
     270:	003a0800 	eorseq	r0, sl, r0, lsl #16
     274:	00c70000 	sbceq	r0, r7, r0
     278:	c7090000 	strgt	r0, [r9, -r0]
     27c:	03000000 	movweq	r0, #0
     280:	07040200 	streq	r0, [r4, -r0, lsl #4]
     284:	000001ff 	strdeq	r0, [r0], -pc	; <UNPREDICTABLE>
     288:	4703080a 	strmi	r0, [r3, -sl, lsl #16]
     28c:	000000ef 	andeq	r0, r0, pc, ror #1
     290:	0004e40b 	andeq	lr, r4, fp, lsl #8
     294:	2c490300 	mcrrcs	3, 0, r0, r9, cr0
     298:	00000000 	andeq	r0, r0, r0
     29c:	0004ec0b 	andeq	lr, r4, fp, lsl #24
     2a0:	984e0300 	stmdals	lr, {r8, r9}^
     2a4:	04000000 	streq	r0, [r0], #-0
     2a8:	04770400 	ldrbteq	r0, [r7], #-1024	; 0xfffffc00
     2ac:	4f030000 	svcmi	0x00030000
     2b0:	000000ce 	andeq	r0, r0, lr, asr #1
     2b4:	00031c04 	andeq	r1, r3, r4, lsl #24
     2b8:	6b530300 	blvs	14c0ec0 <__Main_Stack_Size+0x14c0ac0>
     2bc:	0c000000 	stceq	0, cr0, [r0], {-0}
     2c0:	052c0404 	streq	r0, [ip, #-1028]!	; 0xfffffbfc
     2c4:	16050000 	strne	r0, [r5], -r0
     2c8:	00000056 	andeq	r0, r0, r6, asr r0
     2cc:	00032d0d 	andeq	r2, r3, sp, lsl #26
     2d0:	2d051800 	stccs	8, cr1, [r5, #-0]
     2d4:	00000165 	andeq	r0, r0, r5, ror #2
     2d8:	0004980b 	andeq	r9, r4, fp, lsl #16
     2dc:	652f0500 	strvs	r0, [pc, #-1280]!	; fffffde4 <_estack+0xdffafde4>
     2e0:	00000001 	andeq	r0, r0, r1
     2e4:	006b5f0e 	rsbeq	r5, fp, lr, lsl #30
     2e8:	002c3005 	eoreq	r3, ip, r5
     2ec:	0b040000 	bleq	1002f4 <__Main_Stack_Size+0xffef4>
     2f0:	000004cf 	andeq	r0, r0, pc, asr #9
     2f4:	002c3005 	eoreq	r3, ip, r5
     2f8:	0b080000 	bleq	200300 <__Main_Stack_Size+0x1fff00>
     2fc:	00000316 	andeq	r0, r0, r6, lsl r3
     300:	002c3005 	eoreq	r3, ip, r5
     304:	0b0c0000 	bleq	30030c <__Main_Stack_Size+0x2fff0c>
     308:	00000578 	andeq	r0, r0, r8, ror r5
     30c:	002c3005 	eoreq	r3, ip, r5
     310:	0e100000 	cdpeq	0, 1, cr0, cr0, cr0, {0}
     314:	0500785f 	streq	r7, [r0, #-2143]	; 0xfffff7a1
     318:	00016b31 	andeq	r6, r1, r1, lsr fp
     31c:	0f001400 	svceq	0x00001400
     320:	00011204 	andeq	r1, r1, r4, lsl #4
     324:	01070800 	tsteq	r7, r0, lsl #16
     328:	017b0000 	cmneq	fp, r0
     32c:	c7090000 	strgt	r0, [r9, -r0]
     330:	00000000 	andeq	r0, r0, r0
     334:	03540d00 	cmpeq	r4, #0, 26
     338:	05240000 	streq	r0, [r4, #-0]!
     33c:	0001f435 	andeq	pc, r1, r5, lsr r4	; <UNPREDICTABLE>
     340:	02730b00 	rsbseq	r0, r3, #0, 22
     344:	37050000 	strcc	r0, [r5, -r0]
     348:	0000002c 	andeq	r0, r0, ip, lsr #32
     34c:	05020b00 	streq	r0, [r2, #-2816]	; 0xfffff500
     350:	38050000 	stmdacc	r5, {}	; <UNPREDICTABLE>
     354:	0000002c 	andeq	r0, r0, ip, lsr #32
     358:	028e0b04 	addeq	r0, lr, #4, 22	; 0x1000
     35c:	39050000 	stmdbcc	r5, {}	; <UNPREDICTABLE>
     360:	0000002c 	andeq	r0, r0, ip, lsr #32
     364:	05f10b08 	ldrbeq	r0, [r1, #2824]!	; 0xb08
     368:	3a050000 	bcc	140370 <__Main_Stack_Size+0x13ff70>
     36c:	0000002c 	andeq	r0, r0, ip, lsr #32
     370:	04030b0c 	streq	r0, [r3], #-2828	; 0xfffff4f4
     374:	3b050000 	blcc	14037c <__Main_Stack_Size+0x13ff7c>
     378:	0000002c 	andeq	r0, r0, ip, lsr #32
     37c:	03c30b10 	biceq	r0, r3, #16, 22	; 0x4000
     380:	3c050000 	stccc	0, cr0, [r5], {-0}
     384:	0000002c 	andeq	r0, r0, ip, lsr #32
     388:	057d0b14 	ldrbeq	r0, [sp, #-2836]!	; 0xfffff4ec
     38c:	3d050000 	stccc	0, cr0, [r5, #-0]
     390:	0000002c 	andeq	r0, r0, ip, lsr #32
     394:	04590b18 	ldrbeq	r0, [r9], #-2840	; 0xfffff4e8
     398:	3e050000 	cdpcc	0, 0, cr0, cr5, cr0, {0}
     39c:	0000002c 	andeq	r0, r0, ip, lsr #32
     3a0:	05b80b1c 	ldreq	r0, [r8, #2844]!	; 0xb1c
     3a4:	3f050000 	svccc	0x00050000
     3a8:	0000002c 	andeq	r0, r0, ip, lsr #32
     3ac:	9d100020 	ldcls	0, cr0, [r0, #-128]	; 0xffffff80
     3b0:	08000002 	stmdaeq	r0, {r1}
     3b4:	34480501 	strbcc	r0, [r8], #-1281	; 0xfffffaff
     3b8:	0b000002 	bleq	3c8 <_Minimum_Stack_Size+0x2c8>
     3bc:	00000309 	andeq	r0, r0, r9, lsl #6
     3c0:	02344905 	eorseq	r4, r4, #81920	; 0x14000
     3c4:	0b000000 	bleq	3cc <_Minimum_Stack_Size+0x2cc>
     3c8:	00000208 	andeq	r0, r0, r8, lsl #4
     3cc:	02344a05 	eorseq	r4, r4, #20480	; 0x5000
     3d0:	11800000 	orrne	r0, r0, r0
     3d4:	0000051e 	andeq	r0, r0, lr, lsl r5
     3d8:	01074c05 	tsteq	r7, r5, lsl #24
     3dc:	01000000 	mrseq	r0, (UNDEF: 0)
     3e0:	0002c211 	andeq	ip, r2, r1, lsl r2
     3e4:	074f0500 	strbeq	r0, [pc, -r0, lsl #10]
     3e8:	04000001 	streq	r0, [r0], #-1
     3ec:	05080001 	streq	r0, [r8, #-1]
     3f0:	44000001 	strmi	r0, [r0], #-1
     3f4:	09000002 	stmdbeq	r0, {r1}
     3f8:	000000c7 	andeq	r0, r0, r7, asr #1
     3fc:	8a10001f 	bhi	400480 <__Main_Stack_Size+0x400080>
     400:	90000000 	andls	r0, r0, r0
     404:	825b0501 	subshi	r0, fp, #4194304	; 0x400000
     408:	0b000002 	bleq	418 <__Main_Stack_Size+0x18>
     40c:	00000498 	muleq	r0, r8, r4
     410:	02825c05 	addeq	r5, r2, #1280	; 0x500
     414:	0b000000 	bleq	41c <__Main_Stack_Size+0x1c>
     418:	000004b0 			; <UNDEFINED> instruction: 0x000004b0
     41c:	002c5d05 	eoreq	r5, ip, r5, lsl #26
     420:	0b040000 	bleq	100428 <__Main_Stack_Size+0x100028>
     424:	00000311 	andeq	r0, r0, r1, lsl r3
     428:	02885f05 	addeq	r5, r8, #5, 30
     42c:	0b080000 	bleq	200434 <__Main_Stack_Size+0x200034>
     430:	0000029d 	muleq	r0, sp, r2
     434:	01f46005 	mvnseq	r6, r5
     438:	00880000 	addeq	r0, r8, r0
     43c:	0244040f 	subeq	r0, r4, #251658240	; 0xf000000
     440:	98080000 	stmdals	r8, {}	; <UNPREDICTABLE>
     444:	98000002 	stmdals	r0, {r1}
     448:	09000002 	stmdbeq	r0, {r1}
     44c:	000000c7 	andeq	r0, r0, r7, asr #1
     450:	040f001f 	streq	r0, [pc], #-31	; 458 <__Main_Stack_Size+0x58>
     454:	0000029e 	muleq	r0, lr, r2
     458:	04630d12 	strbteq	r0, [r3], #-3346	; 0xfffff2ee
     45c:	05080000 	streq	r0, [r8, #-0]
     460:	0002c473 	andeq	ip, r2, r3, ror r4
     464:	02880b00 	addeq	r0, r8, #0, 22
     468:	74050000 	strvc	r0, [r5], #-0
     46c:	000002c4 	andeq	r0, r0, r4, asr #5
     470:	02140b00 	andseq	r0, r4, #0, 22
     474:	75050000 	strvc	r0, [r5, #-0]
     478:	0000002c 	andeq	r0, r0, ip, lsr #32
     47c:	040f0004 	streq	r0, [pc], #-4	; 484 <__Main_Stack_Size+0x84>
     480:	0000003a 	andeq	r0, r0, sl, lsr r0
     484:	0004820d 	andeq	r8, r4, sp, lsl #4
     488:	b3056800 	movwlt	r6, #22528	; 0x5800
     48c:	000003f4 	strdeq	r0, [r0], -r4
     490:	00705f0e 	rsbseq	r5, r0, lr, lsl #30
     494:	02c4b405 	sbceq	fp, r4, #83886080	; 0x5000000
     498:	0e000000 	cdpeq	0, 0, cr0, cr0, cr0, {0}
     49c:	0500725f 	streq	r7, [r0, #-607]	; 0xfffffda1
     4a0:	00002cb5 			; <UNDEFINED> instruction: 0x00002cb5
     4a4:	5f0e0400 	svcpl	0x000e0400
     4a8:	b6050077 			; <UNDEFINED> instruction: 0xb6050077
     4ac:	0000002c 	andeq	r0, r0, ip, lsr #32
     4b0:	02bb0b08 	adcseq	r0, fp, #8, 22	; 0x2000
     4b4:	b7050000 	strlt	r0, [r5, -r0]
     4b8:	00000041 	andeq	r0, r0, r1, asr #32
     4bc:	03700b0c 	cmneq	r0, #12, 22	; 0x3000
     4c0:	b8050000 	stmdalt	r5, {}	; <UNPREDICTABLE>
     4c4:	00000041 	andeq	r0, r0, r1, asr #32
     4c8:	625f0e0e 	subsvs	r0, pc, #14, 28	; 0xe0
     4cc:	b9050066 	stmdblt	r5, {r1, r2, r5, r6}
     4d0:	0000029f 	muleq	r0, pc, r2	; <UNPREDICTABLE>
     4d4:	024d0b10 	subeq	r0, sp, #16, 22	; 0x4000
     4d8:	ba050000 	blt	1404e0 <__Main_Stack_Size+0x1400e0>
     4dc:	0000002c 	andeq	r0, r0, ip, lsr #32
     4e0:	02ab0b18 	adceq	r0, fp, #24, 22	; 0x6000
     4e4:	c1050000 	mrsgt	r0, (UNDEF: 5)
     4e8:	00000105 	andeq	r0, r0, r5, lsl #2
     4ec:	03440b1c 	movteq	r0, #19228	; 0x4b1c
     4f0:	c3050000 	movwgt	r0, #20480	; 0x5000
     4f4:	00000557 	andeq	r0, r0, r7, asr r5
     4f8:	03bc0b20 			; <UNDEFINED> instruction: 0x03bc0b20
     4fc:	c5050000 	strgt	r0, [r5, #-0]
     500:	00000586 	andeq	r0, r0, r6, lsl #11
     504:	04f40b24 	ldrbteq	r0, [r4], #2852	; 0xb24
     508:	c8050000 	stmdagt	r5, {}	; <UNPREDICTABLE>
     50c:	000005aa 	andeq	r0, r0, sl, lsr #11
     510:	05d20b28 	ldrbeq	r0, [r2, #2856]	; 0xb28
     514:	c9050000 	stmdbgt	r5, {}	; <UNPREDICTABLE>
     518:	000005c4 	andeq	r0, r0, r4, asr #11
     51c:	755f0e2c 	ldrbvc	r0, [pc, #-3628]	; fffff6f8 <_estack+0xdffaf6f8>
     520:	cc050062 	stcgt	0, cr0, [r5], {98}	; 0x62
     524:	0000029f 	muleq	r0, pc, r2	; <UNPREDICTABLE>
     528:	755f0e30 	ldrbvc	r0, [pc, #-3632]	; fffff700 <_estack+0xdffaf700>
     52c:	cd050070 	stcgt	0, cr0, [r5, #-448]	; 0xfffffe40
     530:	000002c4 	andeq	r0, r0, r4, asr #5
     534:	755f0e38 	ldrbvc	r0, [pc, #-3640]	; fffff704 <_estack+0xdffaf704>
     538:	ce050072 	mcrgt	0, 0, r0, cr5, cr2, {3}
     53c:	0000002c 	andeq	r0, r0, ip, lsr #32
     540:	02820b3c 	addeq	r0, r2, #60, 22	; 0xf000
     544:	d1050000 	mrsle	r0, (UNDEF: 5)
     548:	000005ca 	andeq	r0, r0, sl, asr #11
     54c:	05aa0b40 	streq	r0, [sl, #2880]!	; 0xb40
     550:	d2050000 	andle	r0, r5, #0
     554:	000005da 	ldrdeq	r0, [r0], -sl
     558:	6c5f0e43 	mrrcvs	14, 4, r0, pc, cr3	; <UNPREDICTABLE>
     55c:	d5050062 	strle	r0, [r5, #-98]	; 0xffffff9e
     560:	0000029f 	muleq	r0, pc, r2	; <UNPREDICTABLE>
     564:	02d10b44 	sbcseq	r0, r1, #68, 22	; 0x11000
     568:	d8050000 	stmdale	r5, {}	; <UNPREDICTABLE>
     56c:	0000002c 	andeq	r0, r0, ip, lsr #32
     570:	02e20b4c 	rsceq	r0, r2, #76, 22	; 0x13000
     574:	d9050000 	stmdble	r5, {}	; <UNPREDICTABLE>
     578:	00000076 	andeq	r0, r0, r6, ror r0
     57c:	06d30b50 			; <UNDEFINED> instruction: 0x06d30b50
     580:	dc050000 	stcle	0, cr0, [r5], {-0}
     584:	00000412 	andeq	r0, r0, r2, lsl r4
     588:	095b0b54 	ldmdbeq	fp, {r2, r4, r6, r8, r9, fp}^
     58c:	e0050000 	and	r0, r5, r0
     590:	000000fa 	strdeq	r0, [r0], -sl
     594:	048a0b58 	streq	r0, [sl], #2904	; 0xb58
     598:	e2050000 	and	r0, r5, #0
     59c:	000000ef 	andeq	r0, r0, pc, ror #1
     5a0:	03b40b5c 			; <UNDEFINED> instruction: 0x03b40b5c
     5a4:	e3050000 	movw	r0, #20480	; 0x5000
     5a8:	0000002c 	andeq	r0, r0, ip, lsr #32
     5ac:	2c130064 	ldccs	0, cr0, [r3], {100}	; 0x64
     5b0:	12000000 	andne	r0, r0, #0
     5b4:	14000004 	strne	r0, [r0], #-4
     5b8:	00000412 	andeq	r0, r0, r2, lsl r4
     5bc:	00010514 	andeq	r0, r1, r4, lsl r5
     5c0:	054a1400 	strbeq	r1, [sl, #-1024]	; 0xfffffc00
     5c4:	2c140000 	ldccs	0, cr0, [r4], {-0}
     5c8:	00000000 	andeq	r0, r0, r0
     5cc:	0418040f 	ldreq	r0, [r8], #-1039	; 0xfffffbf1
     5d0:	d7150000 	ldrle	r0, [r5, -r0]
     5d4:	28000004 	stmdacs	r0, {r2}
     5d8:	02390504 	eorseq	r0, r9, #4, 10	; 0x1000000
     5dc:	0000054a 	andeq	r0, r0, sl, asr #10
     5e0:	00045216 	andeq	r5, r4, r6, lsl r2
     5e4:	023b0500 	eorseq	r0, fp, #0, 10
     5e8:	0000002c 	andeq	r0, r0, ip, lsr #32
     5ec:	02ca1600 	sbceq	r1, sl, #0, 12
     5f0:	40050000 	andmi	r0, r5, r0
     5f4:	00063102 	andeq	r3, r6, r2, lsl #2
     5f8:	60160400 	andsvs	r0, r6, r0, lsl #8
     5fc:	05000003 	streq	r0, [r0, #-3]
     600:	06310240 	ldrteq	r0, [r1], -r0, asr #4
     604:	16080000 	strne	r0, [r8], -r0
     608:	00000325 	andeq	r0, r0, r5, lsr #6
     60c:	31024005 	tstcc	r2, r5
     610:	0c000006 	stceq	0, cr0, [r0], {6}
     614:	0004ab16 	andeq	sl, r4, r6, lsl fp
     618:	02420500 	subeq	r0, r2, #0, 10
     61c:	0000002c 	andeq	r0, r0, ip, lsr #32
     620:	02221610 	eoreq	r1, r2, #16, 12	; 0x1000000
     624:	43050000 	movwmi	r0, #20480	; 0x5000
     628:	00081302 	andeq	r1, r8, r2, lsl #6
     62c:	54161400 	ldrpl	r1, [r6], #-1024	; 0xfffffc00
     630:	05000005 	streq	r0, [r0, #-5]
     634:	002c0245 	eoreq	r0, ip, r5, asr #4
     638:	16300000 	ldrtne	r0, [r0], -r0
     63c:	000004b5 			; <UNDEFINED> instruction: 0x000004b5
     640:	7b024605 	blvc	91e5c <__Main_Stack_Size+0x91a5c>
     644:	34000005 	strcc	r0, [r0], #-5
     648:	00040c16 	andeq	r0, r4, r6, lsl ip
     64c:	02480500 	subeq	r0, r8, #0, 10
     650:	0000002c 	andeq	r0, r0, ip, lsr #32
     654:	04c51638 	strbeq	r1, [r5], #1592	; 0x638
     658:	4a050000 	bmi	140660 <__Main_Stack_Size+0x140260>
     65c:	00082e02 	andeq	r2, r8, r2, lsl #28
     660:	9f163c00 	svcls	0x00163c00
     664:	05000003 	streq	r0, [r0, #-3]
     668:	0165024d 	cmneq	r5, sp, asr #4
     66c:	16400000 	strbne	r0, [r0], -r0
     670:	0000034a 	andeq	r0, r0, sl, asr #6
     674:	2c024e05 	stccs	14, cr4, [r2], {5}
     678:	44000000 	strmi	r0, [r0], #-0
     67c:	0005ec16 	andeq	lr, r5, r6, lsl ip
     680:	024f0500 	subeq	r0, pc, #0, 10
     684:	00000165 	andeq	r0, r0, r5, ror #2
     688:	042f1648 	strteq	r1, [pc], #-1608	; 690 <__Main_Stack_Size+0x290>
     68c:	50050000 	andpl	r0, r5, r0
     690:	00083402 	andeq	r3, r8, r2, lsl #8
     694:	68164c00 	ldmdavs	r6, {sl, fp, lr}
     698:	05000003 	streq	r0, [r0, #-3]
     69c:	002c0253 	eoreq	r0, ip, r3, asr r2
     6a0:	16500000 	ldrbne	r0, [r0], -r0
     6a4:	000002da 	ldrdeq	r0, [r0], -sl
     6a8:	4a025405 	bmi	956c4 <__Main_Stack_Size+0x952c4>
     6ac:	54000005 	strpl	r0, [r0], #-5
     6b0:	00044b16 	andeq	r4, r4, r6, lsl fp
     6b4:	02770500 	rsbseq	r0, r7, #0, 10
     6b8:	000007f1 	strdeq	r0, [r0], -r1
     6bc:	008a1758 	addeq	r1, sl, r8, asr r7
     6c0:	7b050000 	blvc	1406c8 <__Main_Stack_Size+0x1402c8>
     6c4:	00028202 	andeq	r8, r2, r2, lsl #4
     6c8:	17014800 	strne	r4, [r1, -r0, lsl #16]
     6cc:	0000037d 	andeq	r0, r0, sp, ror r3
     6d0:	44027c05 	strmi	r7, [r2], #-3077	; 0xfffff3fb
     6d4:	4c000002 	stcmi	0, cr0, [r0], {2}
     6d8:	05a01701 	streq	r1, [r0, #1793]!	; 0x701
     6dc:	80050000 	andhi	r0, r5, r0
     6e0:	00084502 	andeq	r4, r8, r2, lsl #10
     6e4:	1702dc00 	strne	sp, [r2, -r0, lsl #24]
     6e8:	000002b3 			; <UNDEFINED> instruction: 0x000002b3
     6ec:	f6028505 			; <UNDEFINED> instruction: 0xf6028505
     6f0:	e0000005 	and	r0, r0, r5
     6f4:	02981702 	addseq	r1, r8, #524288	; 0x80000
     6f8:	86050000 	strhi	r0, [r5], -r0
     6fc:	00085102 	andeq	r5, r8, r2, lsl #2
     700:	0002ec00 	andeq	lr, r2, r0, lsl #24
     704:	0550040f 	ldrbeq	r0, [r0, #-1039]	; 0xfffffbf1
     708:	01020000 	mrseq	r0, (UNDEF: 2)
     70c:	00008108 	andeq	r8, r0, r8, lsl #2
     710:	f4040f00 			; <UNDEFINED> instruction: 0xf4040f00
     714:	13000003 	movwne	r0, #3
     718:	0000002c 	andeq	r0, r0, ip, lsr #32
     71c:	0000057b 	andeq	r0, r0, fp, ror r5
     720:	00041214 	andeq	r1, r4, r4, lsl r2
     724:	01051400 	tsteq	r5, r0, lsl #8
     728:	7b140000 	blvc	500730 <__Main_Stack_Size+0x500330>
     72c:	14000005 	strne	r0, [r0], #-5
     730:	0000002c 	andeq	r0, r0, ip, lsr #32
     734:	81040f00 	tsthi	r4, r0, lsl #30
     738:	18000005 	stmdane	r0, {r0, r2}
     73c:	00000550 	andeq	r0, r0, r0, asr r5
     740:	055d040f 	ldrbeq	r0, [sp, #-1039]	; 0xfffffbf1
     744:	81130000 	tsthi	r3, r0
     748:	aa000000 	bge	750 <__Main_Stack_Size+0x350>
     74c:	14000005 	strne	r0, [r0], #-5
     750:	00000412 	andeq	r0, r0, r2, lsl r4
     754:	00010514 	andeq	r0, r1, r4, lsl r5
     758:	00811400 	addeq	r1, r1, r0, lsl #8
     75c:	2c140000 	ldccs	0, cr0, [r4], {-0}
     760:	00000000 	andeq	r0, r0, r0
     764:	058c040f 	streq	r0, [ip, #1039]	; 0x40f
     768:	2c130000 	ldccs	0, cr0, [r3], {-0}
     76c:	c4000000 	strgt	r0, [r0], #-0
     770:	14000005 	strne	r0, [r0], #-5
     774:	00000412 	andeq	r0, r0, r2, lsl r4
     778:	00010514 	andeq	r0, r1, r4, lsl r5
     77c:	040f0000 	streq	r0, [pc], #-0	; 784 <__Main_Stack_Size+0x384>
     780:	000005b0 			; <UNDEFINED> instruction: 0x000005b0
     784:	00003a08 	andeq	r3, r0, r8, lsl #20
     788:	0005da00 	andeq	sp, r5, r0, lsl #20
     78c:	00c70900 	sbceq	r0, r7, r0, lsl #18
     790:	00020000 	andeq	r0, r2, r0
     794:	00003a08 	andeq	r3, r0, r8, lsl #20
     798:	0005ea00 	andeq	lr, r5, r0, lsl #20
     79c:	00c70900 	sbceq	r0, r7, r0, lsl #18
     7a0:	00000000 	andeq	r0, r0, r0
     7a4:	00047005 	andeq	r7, r4, r5
     7a8:	011d0500 	tsteq	sp, r0, lsl #10
     7ac:	000002ca 	andeq	r0, r0, sl, asr #5
     7b0:	00058719 	andeq	r8, r5, r9, lsl r7
     7b4:	21050c00 	tstcs	r5, r0, lsl #24
     7b8:	00062b01 	andeq	r2, r6, r1, lsl #22
     7bc:	04981600 	ldreq	r1, [r8], #1536	; 0x600
     7c0:	23050000 	movwcs	r0, #20480	; 0x5000
     7c4:	00062b01 	andeq	r2, r6, r1, lsl #22
     7c8:	76160000 	ldrvc	r0, [r6], -r0
     7cc:	05000003 	streq	r0, [r0, #-3]
     7d0:	002c0124 	eoreq	r0, ip, r4, lsr #2
     7d4:	16040000 	strne	r0, [r4], -r0
     7d8:	0000046a 	andeq	r0, r0, sl, ror #8
     7dc:	31012505 	tstcc	r1, r5, lsl #10
     7e0:	08000006 	stmdaeq	r0, {r1, r2}
     7e4:	f6040f00 			; <UNDEFINED> instruction: 0xf6040f00
     7e8:	0f000005 	svceq	0x00000005
     7ec:	0005ea04 	andeq	lr, r5, r4, lsl #20
     7f0:	021a1900 	andseq	r1, sl, #0, 18
     7f4:	050e0000 	streq	r0, [lr, #-0]
     7f8:	066c013d 			; <UNDEFINED> instruction: 0x066c013d
     7fc:	de160000 	cdple	0, 1, cr0, cr6, cr0, {0}
     800:	05000004 	streq	r0, [r0, #-4]
     804:	066c013e 			; <UNDEFINED> instruction: 0x066c013e
     808:	16000000 	strne	r0, [r0], -r0
     80c:	0000050b 	andeq	r0, r0, fp, lsl #10
     810:	6c013f05 	stcvs	15, cr3, [r1], {5}
     814:	06000006 	streq	r0, [r0], -r6
     818:	00052716 	andeq	r2, r5, r6, lsl r7
     81c:	01400500 	cmpeq	r0, r0, lsl #10
     820:	00000048 	andeq	r0, r0, r8, asr #32
     824:	4808000c 	stmdami	r8, {r2, r3}
     828:	7c000000 	stcvc	0, cr0, [r0], {-0}
     82c:	09000006 	stmdbeq	r0, {r1, r2}
     830:	000000c7 	andeq	r0, r0, r7, asr #1
     834:	d01a0002 	andsle	r0, sl, r2
     838:	7d025805 	stcvc	8, cr5, [r2, #-20]	; 0xffffffec
     83c:	16000007 	strne	r0, [r0], -r7
     840:	0000056b 	andeq	r0, r0, fp, ror #10
     844:	25025a05 	strcs	r5, [r2, #-2565]	; 0xfffff5fb
     848:	00000000 	andeq	r0, r0, r0
     84c:	00051116 	andeq	r1, r5, r6, lsl r1
     850:	025b0500 	subseq	r0, fp, #0, 10
     854:	0000054a 	andeq	r0, r0, sl, asr #10
     858:	03921604 	orrseq	r1, r2, #4, 12	; 0x400000
     85c:	5c050000 	stcpl	0, cr0, [r5], {-0}
     860:	00077d02 	andeq	r7, r7, r2, lsl #26
     864:	c3160800 	tstgt	r6, #0, 16
     868:	05000005 	streq	r0, [r0, #-5]
     86c:	017b025d 	cmneq	fp, sp, asr r2
     870:	16240000 	strtne	r0, [r4], -r0
     874:	00000335 	andeq	r0, r0, r5, lsr r3
     878:	2c025e05 	stccs	14, cr5, [r2], {5}
     87c:	48000000 	stmdami	r0, {}	; <UNPREDICTABLE>
     880:	00049316 	andeq	r9, r4, r6, lsl r3
     884:	025f0500 	subseq	r0, pc, #0, 10
     888:	00000064 	andeq	r0, r0, r4, rrx
     88c:	05d91650 	ldrbeq	r1, [r9, #1616]	; 0x650
     890:	60050000 	andvs	r0, r5, r0
     894:	00063702 	andeq	r3, r6, r2, lsl #14
     898:	9e165800 	cdpls	8, 1, cr5, cr6, cr0, {0}
     89c:	05000004 	streq	r0, [r0, #-4]
     8a0:	00ef0261 	rsceq	r0, pc, r1, ror #4
     8a4:	16680000 	strbtne	r0, [r8], -r0
     8a8:	000005de 	ldrdeq	r0, [r0], -lr
     8ac:	ef026205 	svc	0x00026205
     8b0:	70000000 	andvc	r0, r0, r0
     8b4:	00026516 	andeq	r6, r2, r6, lsl r5
     8b8:	02630500 	rsbeq	r0, r3, #0, 10
     8bc:	000000ef 	andeq	r0, r0, pc, ror #1
     8c0:	05961678 	ldreq	r1, [r6, #1656]	; 0x678
     8c4:	64050000 	strvs	r0, [r5], #-0
     8c8:	00078d02 	andeq	r8, r7, r2, lsl #26
     8cc:	86168000 	ldrhi	r8, [r6], -r0
     8d0:	05000003 	streq	r0, [r0, #-3]
     8d4:	079d0265 	ldreq	r0, [sp, r5, ror #4]
     8d8:	16880000 	strne	r0, [r8], r0
     8dc:	00000534 	andeq	r0, r0, r4, lsr r5
     8e0:	2c026605 	stccs	6, cr6, [r2], {5}
     8e4:	a0000000 	andge	r0, r0, r0
     8e8:	0002fb16 	andeq	pc, r2, r6, lsl fp	; <UNPREDICTABLE>
     8ec:	02670500 	rsbeq	r0, r7, #0, 10
     8f0:	000000ef 	andeq	r0, r0, pc, ror #1
     8f4:	025616a4 	subseq	r1, r6, #164, 12	; 0xa400000
     8f8:	68050000 	stmdavs	r5, {}	; <UNPREDICTABLE>
     8fc:	0000ef02 	andeq	lr, r0, r2, lsl #30
     900:	ea16ac00 	b	5ab908 <__Main_Stack_Size+0x5ab508>
     904:	05000002 	streq	r0, [r0, #-2]
     908:	00ef0269 	rsceq	r0, pc, r9, ror #4
     90c:	16b40000 	ldrtne	r0, [r4], r0
     910:	0000022d 	andeq	r0, r0, sp, lsr #4
     914:	ef026a05 	svc	0x00026a05
     918:	bc000000 	stclt	0, cr0, [r0], {-0}
     91c:	00023c16 	andeq	r3, r2, r6, lsl ip
     920:	026b0500 	rsbeq	r0, fp, #0, 10
     924:	000000ef 	andeq	r0, r0, pc, ror #1
     928:	045016c4 	ldrbeq	r1, [r0], #-1732	; 0xfffff93c
     92c:	6c050000 	stcvs	0, cr0, [r5], {-0}
     930:	00002c02 	andeq	r2, r0, r2, lsl #24
     934:	0800cc00 	stmdaeq	r0, {sl, fp, lr, pc}
     938:	00000550 	andeq	r0, r0, r0, asr r5
     93c:	0000078d 	andeq	r0, r0, sp, lsl #15
     940:	0000c709 	andeq	ip, r0, r9, lsl #14
     944:	08001900 	stmdaeq	r0, {r8, fp, ip}
     948:	00000550 	andeq	r0, r0, r0, asr r5
     94c:	0000079d 	muleq	r0, sp, r7
     950:	0000c709 	andeq	ip, r0, r9, lsl #14
     954:	08000700 	stmdaeq	r0, {r8, r9, sl}
     958:	00000550 	andeq	r0, r0, r0, asr r5
     95c:	000007ad 	andeq	r0, r0, sp, lsr #15
     960:	0000c709 	andeq	ip, r0, r9, lsl #14
     964:	1a001700 	bne	656c <__Main_Stack_Size+0x616c>
     968:	027105f0 	rsbseq	r0, r1, #240, 10	; 0x3c000000
     96c:	000007d1 	ldrdeq	r0, [r0], -r1
     970:	0003fc16 	andeq	pc, r3, r6, lsl ip	; <UNPREDICTABLE>
     974:	02740500 	rsbseq	r0, r4, #0, 10
     978:	000007d1 	ldrdeq	r0, [r0], -r1
     97c:	058d1600 	streq	r1, [sp, #1536]	; 0x600
     980:	75050000 	strvc	r0, [r5, #-0]
     984:	0007e102 	andeq	lr, r7, r2, lsl #2
     988:	08007800 	stmdaeq	r0, {fp, ip, sp, lr}
     98c:	000002c4 	andeq	r0, r0, r4, asr #5
     990:	000007e1 	andeq	r0, r0, r1, ror #15
     994:	0000c709 	andeq	ip, r0, r9, lsl #14
     998:	08001d00 	stmdaeq	r0, {r8, sl, fp, ip}
     99c:	00000025 	andeq	r0, r0, r5, lsr #32
     9a0:	000007f1 	strdeq	r0, [r0], -r1
     9a4:	0000c709 	andeq	ip, r0, r9, lsl #14
     9a8:	1b001d00 	blne	7db0 <__Main_Stack_Size+0x79b0>
     9ac:	025605f0 	subseq	r0, r6, #240, 10	; 0x3c000000
     9b0:	00000813 	andeq	r0, r0, r3, lsl r8
     9b4:	0004d71c 	andeq	sp, r4, ip, lsl r7
     9b8:	026d0500 	rsbeq	r0, sp, #0, 10
     9bc:	0000067c 	andeq	r0, r0, ip, ror r6
     9c0:	0005b01c 	andeq	fp, r5, ip, lsl r0
     9c4:	02760500 	rsbseq	r0, r6, #0, 10
     9c8:	000007ad 	andeq	r0, r0, sp, lsr #15
     9cc:	05500800 	ldrbeq	r0, [r0, #-2048]	; 0xfffff800
     9d0:	08230000 	stmdaeq	r3!, {}	; <UNPREDICTABLE>
     9d4:	c7090000 	strgt	r0, [r9, -r0]
     9d8:	18000000 	stmdane	r0, {}	; <UNPREDICTABLE>
     9dc:	082e1d00 	stmdaeq	lr!, {r8, sl, fp, ip}
     9e0:	12140000 	andsne	r0, r4, #0
     9e4:	00000004 	andeq	r0, r0, r4
     9e8:	0823040f 	stmdaeq	r3!, {r0, r1, r2, r3, sl}
     9ec:	040f0000 	streq	r0, [pc], #-0	; 9f4 <__Main_Stack_Size+0x5f4>
     9f0:	00000165 	andeq	r0, r0, r5, ror #2
     9f4:	0008451d 	andeq	r4, r8, sp, lsl r5
     9f8:	002c1400 	eoreq	r1, ip, r0, lsl #8
     9fc:	0f000000 	svceq	0x00000000
     a00:	00084b04 	andeq	r4, r8, r4, lsl #22
     a04:	3a040f00 	bcc	10460c <__Main_Stack_Size+0x10420c>
     a08:	08000008 	stmdaeq	r0, {r3}
     a0c:	000005ea 	andeq	r0, r0, sl, ror #11
     a10:	00000861 	andeq	r0, r0, r1, ror #16
     a14:	0000c709 	andeq	ip, r0, r9, lsl #14
     a18:	1e000200 	cdpne	2, 0, cr0, cr0, cr0, {0}
     a1c:	0000027d 	andeq	r0, r0, sp, ror r2
     a20:	0e9c5506 	cdpeq	5, 9, cr5, cr12, cr6, {0}
     a24:	00200800 	eoreq	r0, r0, r0, lsl #16
     a28:	9c010000 	stcls	0, cr0, [r1], {-0}
     a2c:	000008af 	andeq	r0, r0, pc, lsr #17
     a30:	0005661f 	andeq	r6, r5, pc, lsl r6
     a34:	2c3a0100 	ldfcss	f0, [sl], #-0
     a38:	2c000000 	stccs	0, cr0, [r0], {-0}
     a3c:	20000000 	andcs	r0, r0, r0
     a40:	08000ea6 	stmdaeq	r0, {r1, r2, r5, r7, r9, sl, fp}
     a44:	000008c0 	andeq	r0, r0, r0, asr #17
     a48:	0000089e 	muleq	r0, lr, r8
     a4c:	01510121 	cmpeq	r1, r1, lsr #2
     a50:	50012130 	andpl	r2, r1, r0, lsr r1
     a54:	00007402 	andeq	r7, r0, r2, lsl #8
     a58:	000eb622 	andeq	fp, lr, r2, lsr #12
     a5c:	0008d608 	andeq	sp, r8, r8, lsl #12
     a60:	50012100 	andpl	r2, r1, r0, lsl #2
     a64:	00007402 	andeq	r7, r0, r2, lsl #8
     a68:	05412300 	strbeq	r2, [r1, #-768]	; 0xfffffd00
     a6c:	fb050000 	blx	140a76 <__Main_Stack_Size+0x140676>
     a70:	0008bb02 	andeq	fp, r8, r2, lsl #22
     a74:	04121800 	ldreq	r1, [r2], #-2048	; 0xfffff800
     a78:	1e240000 	cdpne	0, 2, cr0, cr4, cr0, {0}
     a7c:	07000004 	streq	r0, [r0, -r4]
     a80:	0008d60c 	andeq	sp, r8, ip, lsl #12
     a84:	002c1400 	eoreq	r1, ip, r0, lsl #8
     a88:	05140000 	ldreq	r0, [r4, #-0]
     a8c:	00000001 	andeq	r0, r0, r1
     a90:	00027c25 	andeq	r7, r2, r5, lsr #24
     a94:	14120800 	ldrne	r0, [r2], #-2048	; 0xfffff800
     a98:	0000002c 	andeq	r0, r0, ip, lsr #32
     a9c:	00eb0000 	rsceq	r0, fp, r0
     aa0:	00040000 	andeq	r0, r4, r0
     aa4:	000002b2 			; <UNDEFINED> instruction: 0x000002b2
     aa8:	012f0104 			; <UNDEFINED> instruction: 0x012f0104
     aac:	a0010000 	andge	r0, r1, r0
     ab0:	38000006 	stmdacc	r0, {r1, r2}
     ab4:	20000006 	andcs	r0, r0, r6
     ab8:	00000000 	andeq	r0, r0, r0
     abc:	ba000000 	blt	ac4 <__Main_Stack_Size+0x6c4>
     ac0:	02000002 	andeq	r0, r0, #2
     ac4:	007a0601 	rsbseq	r0, sl, r1, lsl #12
     ac8:	01020000 	mrseq	r0, (UNDEF: 2)
     acc:	00007808 	andeq	r7, r0, r8, lsl #16
     ad0:	05020200 	streq	r0, [r2, #-512]	; 0xfffffe00
     ad4:	00000125 	andeq	r0, r0, r5, lsr #2
     ad8:	0e070202 	cdpeq	2, 0, cr0, cr7, cr2, {0}
     adc:	02000000 	andeq	r0, r0, #0
     ae0:	00050504 	andeq	r0, r5, r4, lsl #10
     ae4:	04020000 	streq	r0, [r2], #-0
     ae8:	00006607 	andeq	r6, r0, r7, lsl #12
     aec:	05080200 	streq	r0, [r8, #-512]	; 0xfffffe00
     af0:	00000000 	andeq	r0, r0, r0
     af4:	61070802 	tstvs	r7, r2, lsl #16
     af8:	03000000 	movweq	r0, #0
     afc:	6e690504 	cdpvs	5, 6, cr0, cr9, cr4, {0}
     b00:	04020074 	streq	r0, [r2], #-116	; 0xffffff8c
     b04:	00006b07 	andeq	r6, r0, r7, lsl #22
     b08:	05fb0400 	ldrbeq	r0, [fp, #1024]!	; 0x400
     b0c:	d4020000 	strle	r0, [r2], #-0
     b10:	00000064 	andeq	r0, r0, r4, rrx
     b14:	ff070402 			; <UNDEFINED> instruction: 0xff070402
     b18:	02000001 	andeq	r0, r0, #1
     b1c:	00810801 	addeq	r0, r1, r1, lsl #16
     b20:	26050000 	strcs	r0, [r5], -r0
     b24:	01000006 	tsteq	r0, r6
     b28:	000ebc18 	andeq	fp, lr, r8, lsl ip
     b2c:	00002c08 	andeq	r2, r0, r8, lsl #24
     b30:	bf9c0100 	svclt	0x009c0100
     b34:	06000000 	streq	r0, [r0], -r0
     b38:	000004e6 	andeq	r0, r0, r6, ror #9
     b3c:	006b1a01 	rsbeq	r1, fp, r1, lsl #20
     b40:	004a0000 	subeq	r0, sl, r0
     b44:	69070000 	stmdbvs	r7, {}	; <UNPREDICTABLE>
     b48:	6b1b0100 	blvs	6c0f50 <__Main_Stack_Size+0x6c0b50>
     b4c:	6c000000 	stcvs	0, cr0, [r0], {-0}
     b50:	08000000 	stmdaeq	r0, {}	; <UNPREDICTABLE>
     b54:	08000ee0 	stmdaeq	r0, {r5, r6, r7, r9, sl, fp}
     b58:	000000e7 	andeq	r0, r0, r7, ror #1
     b5c:	00ca0900 	sbceq	r0, sl, r0, lsl #18
     b60:	00ca0000 	sbceq	r0, sl, r0
     b64:	000a0000 	andeq	r0, sl, r0
     b68:	00d0040b 	sbcseq	r0, r0, fp, lsl #8
     b6c:	0d0c0000 	stceq	0, cr0, [ip, #-0]
     b70:	00000602 	andeq	r0, r0, r2, lsl #12
     b74:	00bf1101 	adcseq	r1, pc, r1, lsl #2
     b78:	150d0000 	strne	r0, [sp, #-0]
     b7c:	01000006 	tsteq	r0, r6
     b80:	0000bf12 	andeq	fp, r0, r2, lsl pc
     b84:	094d0e00 	stmdbeq	sp, {r9, sl, fp}^
     b88:	14010000 	strne	r0, [r1], #-0
     b8c:	00089000 	andeq	r9, r8, r0
     b90:	6f000400 	svcvs	0x00000400
     b94:	04000003 	streq	r0, [r0], #-3
     b98:	00012f01 	andeq	r2, r1, r1, lsl #30
     b9c:	07420100 	strbeq	r0, [r2, -r0, lsl #2]
     ba0:	06d90000 	ldrbeq	r0, [r9], r0
     ba4:	03590000 	cmpeq	r9, #0
     ba8:	04020000 	streq	r0, [r2], #-0
     bac:	746e6905 	strbtvc	r6, [lr], #-2309	; 0xfffff6fb
     bb0:	07040300 	streq	r0, [r4, -r0, lsl #6]
     bb4:	0000006b 	andeq	r0, r0, fp, rrx
     bb8:	7a060103 	bvc	180fcc <__Main_Stack_Size+0x180bcc>
     bbc:	03000000 	movweq	r0, #0
     bc0:	00780801 	rsbseq	r0, r8, r1, lsl #16
     bc4:	02030000 	andeq	r0, r3, #0
     bc8:	00012505 	andeq	r2, r1, r5, lsl #10
     bcc:	07020300 	streq	r0, [r2, -r0, lsl #6]
     bd0:	0000000e 	andeq	r0, r0, lr
     bd4:	05050403 	streq	r0, [r5, #-1027]	; 0xfffffbfd
     bd8:	03000000 	movweq	r0, #0
     bdc:	00660704 	rsbeq	r0, r6, r4, lsl #14
     be0:	08030000 	stmdaeq	r3, {}	; <UNPREDICTABLE>
     be4:	00000005 	andeq	r0, r0, r5
     be8:	07080300 	streq	r0, [r8, -r0, lsl #6]
     bec:	00000061 	andeq	r0, r0, r1, rrx
     bf0:	00043904 	andeq	r3, r4, r4, lsl #18
     bf4:	1d070100 	stfnes	f0, [r7, #-0]
     bf8:	04000000 	streq	r0, [r0], #-0
     bfc:	00000417 	andeq	r0, r0, r7, lsl r4
     c00:	00471002 	subeq	r1, r7, r2
     c04:	fa040000 	blx	100c0c <__Main_Stack_Size+0x10080c>
     c08:	02000004 	andeq	r0, r0, #4
     c0c:	00004727 	andeq	r4, r0, r7, lsr #14
     c10:	03ad0500 			; <UNDEFINED> instruction: 0x03ad0500
     c14:	61030000 	mrsvs	r0, (UNDEF: 3)
     c18:	00002401 	andeq	r2, r0, r1, lsl #8
     c1c:	02040600 	andeq	r0, r4, #0, 12
     c20:	0000af4a 	andeq	sl, r0, sl, asr #30
     c24:	03a70700 			; <UNDEFINED> instruction: 0x03a70700
     c28:	4c020000 	stcmi	0, cr0, [r2], {-0}
     c2c:	00000084 	andeq	r0, r0, r4, lsl #1
     c30:	00035907 	andeq	r5, r3, r7, lsl #18
     c34:	af4d0200 	svcge	0x004d0200
     c38:	00000000 	andeq	r0, r0, r0
     c3c:	00003208 	andeq	r3, r0, r8, lsl #4
     c40:	0000bf00 	andeq	fp, r0, r0, lsl #30
     c44:	00bf0900 	adcseq	r0, pc, r0, lsl #18
     c48:	00030000 	andeq	r0, r3, r0
     c4c:	ff070403 			; <UNDEFINED> instruction: 0xff070403
     c50:	0a000001 	beq	c5c <__Main_Stack_Size+0x85c>
     c54:	e7470208 	strb	r0, [r7, -r8, lsl #4]
     c58:	0b000000 	bleq	c60 <__Main_Stack_Size+0x860>
     c5c:	000004e4 	andeq	r0, r0, r4, ror #9
     c60:	001d4902 	andseq	r4, sp, r2, lsl #18
     c64:	0b000000 	bleq	c6c <__Main_Stack_Size+0x86c>
     c68:	000004ec 	andeq	r0, r0, ip, ror #9
     c6c:	00904e02 	addseq	r4, r0, r2, lsl #28
     c70:	00040000 	andeq	r0, r4, r0
     c74:	00047704 	andeq	r7, r4, r4, lsl #14
     c78:	c64f0200 	strbgt	r0, [pc], -r0, lsl #4
     c7c:	04000000 	streq	r0, [r0], #-0
     c80:	0000031c 	andeq	r0, r0, ip, lsl r3
     c84:	00635302 	rsbeq	r5, r3, r2, lsl #6
     c88:	040c0000 	streq	r0, [ip], #-0
     c8c:	00052c04 	andeq	r2, r5, r4, lsl #24
     c90:	4e160400 	cfmulsmi	mvf0, mvf6, mvf0
     c94:	0d000000 	stceq	0, cr0, [r0, #-0]
     c98:	0000032d 	andeq	r0, r0, sp, lsr #6
     c9c:	5d2d0418 	cfstrspl	mvf0, [sp, #-96]!	; 0xffffffa0
     ca0:	0b000001 	bleq	cac <__Main_Stack_Size+0x8ac>
     ca4:	00000498 	muleq	r0, r8, r4
     ca8:	015d2f04 	cmpeq	sp, r4, lsl #30
     cac:	0e000000 	cdpeq	0, 0, cr0, cr0, cr0, {0}
     cb0:	04006b5f 	streq	r6, [r0], #-2911	; 0xfffff4a1
     cb4:	00001d30 	andeq	r1, r0, r0, lsr sp
     cb8:	cf0b0400 	svcgt	0x000b0400
     cbc:	04000004 	streq	r0, [r0], #-4
     cc0:	00001d30 	andeq	r1, r0, r0, lsr sp
     cc4:	160b0800 	strne	r0, [fp], -r0, lsl #16
     cc8:	04000003 	streq	r0, [r0], #-3
     ccc:	00001d30 	andeq	r1, r0, r0, lsr sp
     cd0:	780b0c00 	stmdavc	fp, {sl, fp}
     cd4:	04000005 	streq	r0, [r0], #-5
     cd8:	00001d30 	andeq	r1, r0, r0, lsr sp
     cdc:	5f0e1000 	svcpl	0x000e1000
     ce0:	31040078 	tstcc	r4, r8, ror r0
     ce4:	00000163 	andeq	r0, r0, r3, ror #2
     ce8:	040f0014 	streq	r0, [pc], #-20	; cf0 <__Main_Stack_Size+0x8f0>
     cec:	0000010a 	andeq	r0, r0, sl, lsl #2
     cf0:	0000ff08 	andeq	pc, r0, r8, lsl #30
     cf4:	00017300 	andeq	r7, r1, r0, lsl #6
     cf8:	00bf0900 	adcseq	r0, pc, r0, lsl #18
     cfc:	00000000 	andeq	r0, r0, r0
     d00:	0003540d 	andeq	r5, r3, sp, lsl #8
     d04:	35042400 	strcc	r2, [r4, #-1024]	; 0xfffffc00
     d08:	000001ec 	andeq	r0, r0, ip, ror #3
     d0c:	0002730b 	andeq	r7, r2, fp, lsl #6
     d10:	1d370400 	cfldrsne	mvf0, [r7, #-0]
     d14:	00000000 	andeq	r0, r0, r0
     d18:	0005020b 	andeq	r0, r5, fp, lsl #4
     d1c:	1d380400 	cfldrsne	mvf0, [r8, #-0]
     d20:	04000000 	streq	r0, [r0], #-0
     d24:	00028e0b 	andeq	r8, r2, fp, lsl #28
     d28:	1d390400 	cfldrsne	mvf0, [r9, #-0]
     d2c:	08000000 	stmdaeq	r0, {}	; <UNPREDICTABLE>
     d30:	0005f10b 	andeq	pc, r5, fp, lsl #2
     d34:	1d3a0400 	cfldrsne	mvf0, [sl, #-0]
     d38:	0c000000 	stceq	0, cr0, [r0], {-0}
     d3c:	0004030b 	andeq	r0, r4, fp, lsl #6
     d40:	1d3b0400 	cfldrsne	mvf0, [fp, #-0]
     d44:	10000000 	andne	r0, r0, r0
     d48:	0003c30b 	andeq	ip, r3, fp, lsl #6
     d4c:	1d3c0400 	cfldrsne	mvf0, [ip, #-0]
     d50:	14000000 	strne	r0, [r0], #-0
     d54:	00057d0b 	andeq	r7, r5, fp, lsl #26
     d58:	1d3d0400 	cfldrsne	mvf0, [sp, #-0]
     d5c:	18000000 	stmdane	r0, {}	; <UNPREDICTABLE>
     d60:	0004590b 	andeq	r5, r4, fp, lsl #18
     d64:	1d3e0400 	cfldrsne	mvf0, [lr, #-0]
     d68:	1c000000 	stcne	0, cr0, [r0], {-0}
     d6c:	0005b80b 	andeq	fp, r5, fp, lsl #16
     d70:	1d3f0400 	cfldrsne	mvf0, [pc, #-0]	; d78 <__Main_Stack_Size+0x978>
     d74:	20000000 	andcs	r0, r0, r0
     d78:	029d1000 	addseq	r1, sp, #0
     d7c:	01080000 	mrseq	r0, (UNDEF: 8)
     d80:	022c4804 	eoreq	r4, ip, #4, 16	; 0x40000
     d84:	090b0000 	stmdbeq	fp, {}	; <UNPREDICTABLE>
     d88:	04000003 	streq	r0, [r0], #-3
     d8c:	00022c49 	andeq	r2, r2, r9, asr #24
     d90:	080b0000 	stmdaeq	fp, {}	; <UNPREDICTABLE>
     d94:	04000002 	streq	r0, [r0], #-2
     d98:	00022c4a 	andeq	r2, r2, sl, asr #24
     d9c:	1e118000 	cdpne	0, 1, cr8, cr1, cr0, {0}
     da0:	04000005 	streq	r0, [r0], #-5
     da4:	0000ff4c 	andeq	pc, r0, ip, asr #30
     da8:	11010000 	mrsne	r0, (UNDEF: 1)
     dac:	000002c2 	andeq	r0, r0, r2, asr #5
     db0:	00ff4f04 	rscseq	r4, pc, r4, lsl #30
     db4:	01040000 	mrseq	r0, (UNDEF: 4)
     db8:	00fd0800 	rscseq	r0, sp, r0, lsl #16
     dbc:	023c0000 	eorseq	r0, ip, #0
     dc0:	bf090000 	svclt	0x00090000
     dc4:	1f000000 	svcne	0x00000000
     dc8:	008a1000 	addeq	r1, sl, r0
     dcc:	01900000 	orrseq	r0, r0, r0
     dd0:	027a5b04 	rsbseq	r5, sl, #4, 22	; 0x1000
     dd4:	980b0000 	stmdals	fp, {}	; <UNPREDICTABLE>
     dd8:	04000004 	streq	r0, [r0], #-4
     ddc:	00027a5c 	andeq	r7, r2, ip, asr sl
     de0:	b00b0000 	andlt	r0, fp, r0
     de4:	04000004 	streq	r0, [r0], #-4
     de8:	00001d5d 	andeq	r1, r0, sp, asr sp
     dec:	110b0400 	tstne	fp, r0, lsl #8
     df0:	04000003 	streq	r0, [r0], #-3
     df4:	0002805f 	andeq	r8, r2, pc, asr r0
     df8:	9d0b0800 	stcls	8, cr0, [fp, #-0]
     dfc:	04000002 	streq	r0, [r0], #-2
     e00:	0001ec60 	andeq	lr, r1, r0, ror #24
     e04:	0f008800 	svceq	0x00008800
     e08:	00023c04 	andeq	r3, r2, r4, lsl #24
     e0c:	02900800 	addseq	r0, r0, #0, 16
     e10:	02900000 	addseq	r0, r0, #0
     e14:	bf090000 	svclt	0x00090000
     e18:	1f000000 	svcne	0x00000000
     e1c:	96040f00 	strls	r0, [r4], -r0, lsl #30
     e20:	12000002 	andne	r0, r0, #2
     e24:	0004630d 	andeq	r6, r4, sp, lsl #6
     e28:	73040800 	movwvc	r0, #18432	; 0x4800
     e2c:	000002bc 			; <UNDEFINED> instruction: 0x000002bc
     e30:	0002880b 	andeq	r8, r2, fp, lsl #16
     e34:	bc740400 	cfldrdlt	mvd0, [r4], #-0
     e38:	00000002 	andeq	r0, r0, r2
     e3c:	0002140b 	andeq	r1, r2, fp, lsl #8
     e40:	1d750400 	cfldrdne	mvd0, [r5, #-0]
     e44:	04000000 	streq	r0, [r0], #-0
     e48:	32040f00 	andcc	r0, r4, #0, 30
     e4c:	0d000000 	stceq	0, cr0, [r0, #-0]
     e50:	00000482 	andeq	r0, r0, r2, lsl #9
     e54:	ecb30468 	cfldrs	mvf0, [r3], #416	; 0x1a0
     e58:	0e000003 	cdpeq	0, 0, cr0, cr0, cr3, {0}
     e5c:	0400705f 	streq	r7, [r0], #-95	; 0xffffffa1
     e60:	0002bcb4 			; <UNDEFINED> instruction: 0x0002bcb4
     e64:	5f0e0000 	svcpl	0x000e0000
     e68:	b5040072 	strlt	r0, [r4, #-114]	; 0xffffff8e
     e6c:	0000001d 	andeq	r0, r0, sp, lsl r0
     e70:	775f0e04 	ldrbvc	r0, [pc, -r4, lsl #28]
     e74:	1db60400 	cfldrsne	mvf0, [r6]
     e78:	08000000 	stmdaeq	r0, {}	; <UNPREDICTABLE>
     e7c:	0002bb0b 	andeq	fp, r2, fp, lsl #22
     e80:	39b70400 	ldmibcc	r7!, {sl}
     e84:	0c000000 	stceq	0, cr0, [r0], {-0}
     e88:	0003700b 	andeq	r7, r3, fp
     e8c:	39b80400 	ldmibcc	r8!, {sl}
     e90:	0e000000 	cdpeq	0, 0, cr0, cr0, cr0, {0}
     e94:	66625f0e 	strbtvs	r5, [r2], -lr, lsl #30
     e98:	97b90400 	ldrls	r0, [r9, r0, lsl #8]!
     e9c:	10000002 	andne	r0, r0, r2
     ea0:	00024d0b 	andeq	r4, r2, fp, lsl #26
     ea4:	1dba0400 	cfldrsne	mvf0, [sl]
     ea8:	18000000 	stmdane	r0, {}	; <UNPREDICTABLE>
     eac:	0002ab0b 	andeq	sl, r2, fp, lsl #22
     eb0:	fdc10400 	stc2l	4, cr0, [r1]
     eb4:	1c000000 	stcne	0, cr0, [r0], {-0}
     eb8:	0003440b 	andeq	r4, r3, fp, lsl #8
     ebc:	4fc30400 	svcmi	0x00c30400
     ec0:	20000005 	andcs	r0, r0, r5
     ec4:	0003bc0b 	andeq	fp, r3, fp, lsl #24
     ec8:	7ec50400 	cdpvc	4, 12, cr0, cr5, cr0, {0}
     ecc:	24000005 	strcs	r0, [r0], #-5
     ed0:	0004f40b 	andeq	pc, r4, fp, lsl #8
     ed4:	a2c80400 	sbcge	r0, r8, #0, 8
     ed8:	28000005 	stmdacs	r0, {r0, r2}
     edc:	0005d20b 	andeq	sp, r5, fp, lsl #4
     ee0:	bcc90400 	cfstrdlt	mvd0, [r9], {0}
     ee4:	2c000005 	stccs	0, cr0, [r0], {5}
     ee8:	62755f0e 	rsbsvs	r5, r5, #14, 30	; 0x38
     eec:	97cc0400 	strbls	r0, [ip, r0, lsl #8]
     ef0:	30000002 	andcc	r0, r0, r2
     ef4:	70755f0e 	rsbsvc	r5, r5, lr, lsl #30
     ef8:	bccd0400 	cfstrdlt	mvd0, [sp], {0}
     efc:	38000002 	stmdacc	r0, {r1}
     f00:	72755f0e 	rsbsvc	r5, r5, #14, 30	; 0x38
     f04:	1dce0400 	cfstrdne	mvd0, [lr]
     f08:	3c000000 	stccc	0, cr0, [r0], {-0}
     f0c:	0002820b 	andeq	r8, r2, fp, lsl #4
     f10:	c2d10400 	sbcsgt	r0, r1, #0, 8
     f14:	40000005 	andmi	r0, r0, r5
     f18:	0005aa0b 	andeq	sl, r5, fp, lsl #20
     f1c:	d2d20400 	sbcsle	r0, r2, #0, 8
     f20:	43000005 	movwmi	r0, #5
     f24:	626c5f0e 	rsbvs	r5, ip, #14, 30	; 0x38
     f28:	97d50400 	ldrbls	r0, [r5, r0, lsl #8]
     f2c:	44000002 	strmi	r0, [r0], #-2
     f30:	0002d10b 	andeq	sp, r2, fp, lsl #2
     f34:	1dd80400 	cfldrdne	mvd0, [r8]
     f38:	4c000000 	stcmi	0, cr0, [r0], {-0}
     f3c:	0002e20b 	andeq	lr, r2, fp, lsl #4
     f40:	6ed90400 	cdpvs	4, 13, cr0, cr9, cr0, {0}
     f44:	50000000 	andpl	r0, r0, r0
     f48:	0006d30b 	andeq	sp, r6, fp, lsl #6
     f4c:	0adc0400 	beq	ff701f54 <_estack+0xdf6b1f54>
     f50:	54000004 	strpl	r0, [r0], #-4
     f54:	00095b0b 	andeq	r5, r9, fp, lsl #22
     f58:	f2e00400 	vaddhn.i64	d16, q0, q0
     f5c:	58000000 	stmdapl	r0, {}	; <UNPREDICTABLE>
     f60:	00048a0b 	andeq	r8, r4, fp, lsl #20
     f64:	e7e20400 	strb	r0, [r2, r0, lsl #8]!
     f68:	5c000000 	stcpl	0, cr0, [r0], {-0}
     f6c:	0003b40b 	andeq	fp, r3, fp, lsl #8
     f70:	1de30400 	cfstrdne	mvd0, [r3]
     f74:	64000000 	strvs	r0, [r0], #-0
     f78:	001d1300 	andseq	r1, sp, r0, lsl #6
     f7c:	040a0000 	streq	r0, [sl], #-0
     f80:	0a140000 	beq	500f88 <__Main_Stack_Size+0x500b88>
     f84:	14000004 	strne	r0, [r0], #-4
     f88:	000000fd 	strdeq	r0, [r0], -sp
     f8c:	00054214 	andeq	r4, r5, r4, lsl r2
     f90:	001d1400 	andseq	r1, sp, r0, lsl #8
     f94:	0f000000 	svceq	0x00000000
     f98:	00041004 	andeq	r1, r4, r4
     f9c:	04d71500 	ldrbeq	r1, [r7], #1280	; 0x500
     fa0:	04280000 	strteq	r0, [r8], #-0
     fa4:	42023904 	andmi	r3, r2, #4, 18	; 0x10000
     fa8:	16000005 	strne	r0, [r0], -r5
     fac:	00000452 	andeq	r0, r0, r2, asr r4
     fb0:	1d023b04 	vstrne	d3, [r2, #-16]
     fb4:	00000000 	andeq	r0, r0, r0
     fb8:	0002ca16 	andeq	ip, r2, r6, lsl sl
     fbc:	02400400 	subeq	r0, r0, #0, 8
     fc0:	00000629 	andeq	r0, r0, r9, lsr #12
     fc4:	03601604 	cmneq	r0, #4, 12	; 0x400000
     fc8:	40040000 	andmi	r0, r4, r0
     fcc:	00062902 	andeq	r2, r6, r2, lsl #18
     fd0:	25160800 	ldrcs	r0, [r6, #-2048]	; 0xfffff800
     fd4:	04000003 	streq	r0, [r0], #-3
     fd8:	06290240 	strteq	r0, [r9], -r0, asr #4
     fdc:	160c0000 	strne	r0, [ip], -r0
     fe0:	000004ab 	andeq	r0, r0, fp, lsr #9
     fe4:	1d024204 	sfmne	f4, 4, [r2, #-16]
     fe8:	10000000 	andne	r0, r0, r0
     fec:	00022216 	andeq	r2, r2, r6, lsl r2
     ff0:	02430400 	subeq	r0, r3, #0, 8
     ff4:	0000080b 	andeq	r0, r0, fp, lsl #16
     ff8:	05541614 	ldrbeq	r1, [r4, #-1556]	; 0xfffff9ec
     ffc:	45040000 	strmi	r0, [r4, #-0]
    1000:	00001d02 	andeq	r1, r0, r2, lsl #26
    1004:	b5163000 	ldrlt	r3, [r6, #-0]
    1008:	04000004 	streq	r0, [r0], #-4
    100c:	05730246 	ldrbeq	r0, [r3, #-582]!	; 0xfffffdba
    1010:	16340000 	ldrtne	r0, [r4], -r0
    1014:	0000040c 	andeq	r0, r0, ip, lsl #8
    1018:	1d024804 	stcne	8, cr4, [r2, #-16]
    101c:	38000000 	stmdacc	r0, {}	; <UNPREDICTABLE>
    1020:	0004c516 	andeq	ip, r4, r6, lsl r5
    1024:	024a0400 	subeq	r0, sl, #0, 8
    1028:	00000826 	andeq	r0, r0, r6, lsr #16
    102c:	039f163c 	orrseq	r1, pc, #60, 12	; 0x3c00000
    1030:	4d040000 	stcmi	0, cr0, [r4, #-0]
    1034:	00015d02 	andeq	r5, r1, r2, lsl #26
    1038:	4a164000 	bmi	591040 <__Main_Stack_Size+0x590c40>
    103c:	04000003 	streq	r0, [r0], #-3
    1040:	001d024e 	andseq	r0, sp, lr, asr #4
    1044:	16440000 	strbne	r0, [r4], -r0
    1048:	000005ec 	andeq	r0, r0, ip, ror #11
    104c:	5d024f04 	stcpl	15, cr4, [r2, #-16]
    1050:	48000001 	stmdami	r0, {r0}
    1054:	00042f16 	andeq	r2, r4, r6, lsl pc
    1058:	02500400 	subseq	r0, r0, #0, 8
    105c:	0000082c 	andeq	r0, r0, ip, lsr #16
    1060:	0368164c 	cmneq	r8, #76, 12	; 0x4c00000
    1064:	53040000 	movwpl	r0, #16384	; 0x4000
    1068:	00001d02 	andeq	r1, r0, r2, lsl #26
    106c:	da165000 	ble	595074 <__Main_Stack_Size+0x594c74>
    1070:	04000002 	streq	r0, [r0], #-2
    1074:	05420254 	strbeq	r0, [r2, #-596]	; 0xfffffdac
    1078:	16540000 	ldrbne	r0, [r4], -r0
    107c:	0000044b 	andeq	r0, r0, fp, asr #8
    1080:	e9027704 	stmdb	r2, {r2, r8, r9, sl, ip, sp, lr}
    1084:	58000007 	stmdapl	r0, {r0, r1, r2}
    1088:	00008a17 	andeq	r8, r0, r7, lsl sl
    108c:	027b0400 	rsbseq	r0, fp, #0, 8
    1090:	0000027a 	andeq	r0, r0, sl, ror r2
    1094:	7d170148 	ldfvcs	f0, [r7, #-288]	; 0xfffffee0
    1098:	04000003 	streq	r0, [r0], #-3
    109c:	023c027c 	eorseq	r0, ip, #124, 4	; 0xc0000007
    10a0:	014c0000 	mrseq	r0, (UNDEF: 76)
    10a4:	0005a017 	andeq	sl, r5, r7, lsl r0
    10a8:	02800400 	addeq	r0, r0, #0, 8
    10ac:	0000083d 	andeq	r0, r0, sp, lsr r8
    10b0:	b31702dc 	tstlt	r7, #220, 4	; 0xc000000d
    10b4:	04000002 	streq	r0, [r0], #-2
    10b8:	05ee0285 	strbeq	r0, [lr, #645]!	; 0x285
    10bc:	02e00000 	rsceq	r0, r0, #0
    10c0:	00029817 	andeq	r9, r2, r7, lsl r8
    10c4:	02860400 	addeq	r0, r6, #0, 8
    10c8:	00000849 	andeq	r0, r0, r9, asr #16
    10cc:	0f0002ec 	svceq	0x000002ec
    10d0:	00054804 	andeq	r4, r5, r4, lsl #16
    10d4:	08010300 	stmdaeq	r1, {r8, r9}
    10d8:	00000081 	andeq	r0, r0, r1, lsl #1
    10dc:	03ec040f 	mvneq	r0, #251658240	; 0xf000000
    10e0:	1d130000 	ldcne	0, cr0, [r3, #-0]
    10e4:	73000000 	movwvc	r0, #0
    10e8:	14000005 	strne	r0, [r0], #-5
    10ec:	0000040a 	andeq	r0, r0, sl, lsl #8
    10f0:	0000fd14 	andeq	pc, r0, r4, lsl sp	; <UNPREDICTABLE>
    10f4:	05731400 	ldrbeq	r1, [r3, #-1024]!	; 0xfffffc00
    10f8:	1d140000 	ldcne	0, cr0, [r4, #-0]
    10fc:	00000000 	andeq	r0, r0, r0
    1100:	0579040f 	ldrbeq	r0, [r9, #-1039]!	; 0xfffffbf1
    1104:	48180000 	ldmdami	r8, {}	; <UNPREDICTABLE>
    1108:	0f000005 	svceq	0x00000005
    110c:	00055504 	andeq	r5, r5, r4, lsl #10
    1110:	00791300 	rsbseq	r1, r9, r0, lsl #6
    1114:	05a20000 	streq	r0, [r2, #0]!
    1118:	0a140000 	beq	501120 <__Main_Stack_Size+0x500d20>
    111c:	14000004 	strne	r0, [r0], #-4
    1120:	000000fd 	strdeq	r0, [r0], -sp
    1124:	00007914 	andeq	r7, r0, r4, lsl r9
    1128:	001d1400 	andseq	r1, sp, r0, lsl #8
    112c:	0f000000 	svceq	0x00000000
    1130:	00058404 	andeq	r8, r5, r4, lsl #8
    1134:	001d1300 	andseq	r1, sp, r0, lsl #6
    1138:	05bc0000 	ldreq	r0, [ip, #0]!
    113c:	0a140000 	beq	501144 <__Main_Stack_Size+0x500d44>
    1140:	14000004 	strne	r0, [r0], #-4
    1144:	000000fd 	strdeq	r0, [r0], -sp
    1148:	a8040f00 	stmdage	r4, {r8, r9, sl, fp}
    114c:	08000005 	stmdaeq	r0, {r0, r2}
    1150:	00000032 	andeq	r0, r0, r2, lsr r0
    1154:	000005d2 	ldrdeq	r0, [r0], -r2
    1158:	0000bf09 	andeq	fp, r0, r9, lsl #30
    115c:	08000200 	stmdaeq	r0, {r9}
    1160:	00000032 	andeq	r0, r0, r2, lsr r0
    1164:	000005e2 	andeq	r0, r0, r2, ror #11
    1168:	0000bf09 	andeq	fp, r0, r9, lsl #30
    116c:	05000000 	streq	r0, [r0, #-0]
    1170:	00000470 	andeq	r0, r0, r0, ror r4
    1174:	c2011d04 	andgt	r1, r1, #4, 26	; 0x100
    1178:	19000002 	stmdbne	r0, {r1}
    117c:	00000587 	andeq	r0, r0, r7, lsl #11
    1180:	0121040c 			; <UNDEFINED> instruction: 0x0121040c
    1184:	00000623 	andeq	r0, r0, r3, lsr #12
    1188:	00049816 	andeq	r9, r4, r6, lsl r8
    118c:	01230400 			; <UNDEFINED> instruction: 0x01230400
    1190:	00000623 	andeq	r0, r0, r3, lsr #12
    1194:	03761600 	cmneq	r6, #0, 12
    1198:	24040000 	strcs	r0, [r4], #-0
    119c:	00001d01 	andeq	r1, r0, r1, lsl #26
    11a0:	6a160400 	bvs	5821a8 <__Main_Stack_Size+0x581da8>
    11a4:	04000004 	streq	r0, [r0], #-4
    11a8:	06290125 	strteq	r0, [r9], -r5, lsr #2
    11ac:	00080000 	andeq	r0, r8, r0
    11b0:	05ee040f 	strbeq	r0, [lr, #1039]!	; 0x40f
    11b4:	040f0000 	streq	r0, [pc], #-0	; 11bc <__Main_Stack_Size+0xdbc>
    11b8:	000005e2 	andeq	r0, r0, r2, ror #11
    11bc:	00021a19 	andeq	r1, r2, r9, lsl sl
    11c0:	3d040e00 	stccc	14, cr0, [r4, #-0]
    11c4:	00066401 	andeq	r6, r6, r1, lsl #8
    11c8:	04de1600 	ldrbeq	r1, [lr], #1536	; 0x600
    11cc:	3e040000 	cdpcc	0, 0, cr0, cr4, cr0, {0}
    11d0:	00066401 	andeq	r6, r6, r1, lsl #8
    11d4:	0b160000 	bleq	5811dc <__Main_Stack_Size+0x580ddc>
    11d8:	04000005 	streq	r0, [r0], #-5
    11dc:	0664013f 			; <UNDEFINED> instruction: 0x0664013f
    11e0:	16060000 	strne	r0, [r6], -r0
    11e4:	00000527 	andeq	r0, r0, r7, lsr #10
    11e8:	40014004 	andmi	r4, r1, r4
    11ec:	0c000000 	stceq	0, cr0, [r0], {-0}
    11f0:	00400800 	subeq	r0, r0, r0, lsl #16
    11f4:	06740000 	ldrbteq	r0, [r4], -r0
    11f8:	bf090000 	svclt	0x00090000
    11fc:	02000000 	andeq	r0, r0, #0
    1200:	04d01a00 	ldrbeq	r1, [r0], #2560	; 0xa00
    1204:	07750258 			; <UNDEFINED> instruction: 0x07750258
    1208:	6b160000 	blvs	581210 <__Main_Stack_Size+0x580e10>
    120c:	04000005 	streq	r0, [r0], #-5
    1210:	0024025a 	eoreq	r0, r4, sl, asr r2
    1214:	16000000 	strne	r0, [r0], -r0
    1218:	00000511 	andeq	r0, r0, r1, lsl r5
    121c:	42025b04 	andmi	r5, r2, #4, 22	; 0x1000
    1220:	04000005 	streq	r0, [r0], #-5
    1224:	00039216 	andeq	r9, r3, r6, lsl r2
    1228:	025c0400 	subseq	r0, ip, #0, 8
    122c:	00000775 	andeq	r0, r0, r5, ror r7
    1230:	05c31608 	strbeq	r1, [r3, #1544]	; 0x608
    1234:	5d040000 	stcpl	0, cr0, [r4, #-0]
    1238:	00017302 	andeq	r7, r1, r2, lsl #6
    123c:	35162400 	ldrcc	r2, [r6, #-1024]	; 0xfffffc00
    1240:	04000003 	streq	r0, [r0], #-3
    1244:	001d025e 	andseq	r0, sp, lr, asr r2
    1248:	16480000 	strbne	r0, [r8], -r0
    124c:	00000493 	muleq	r0, r3, r4
    1250:	5c025f04 	stcpl	15, cr5, [r2], {4}
    1254:	50000000 	andpl	r0, r0, r0
    1258:	0005d916 	andeq	sp, r5, r6, lsl r9
    125c:	02600400 	rsbeq	r0, r0, #0, 8
    1260:	0000062f 	andeq	r0, r0, pc, lsr #12
    1264:	049e1658 	ldreq	r1, [lr], #1624	; 0x658
    1268:	61040000 	mrsvs	r0, (UNDEF: 4)
    126c:	0000e702 	andeq	lr, r0, r2, lsl #14
    1270:	de166800 	cdple	8, 1, cr6, cr6, cr0, {0}
    1274:	04000005 	streq	r0, [r0], #-5
    1278:	00e70262 	rsceq	r0, r7, r2, ror #4
    127c:	16700000 	ldrbtne	r0, [r0], -r0
    1280:	00000265 	andeq	r0, r0, r5, ror #4
    1284:	e7026304 	str	r6, [r2, -r4, lsl #6]
    1288:	78000000 	stmdavc	r0, {}	; <UNPREDICTABLE>
    128c:	00059616 	andeq	r9, r5, r6, lsl r6
    1290:	02640400 	rsbeq	r0, r4, #0, 8
    1294:	00000785 	andeq	r0, r0, r5, lsl #15
    1298:	03861680 	orreq	r1, r6, #128, 12	; 0x8000000
    129c:	65040000 	strvs	r0, [r4, #-0]
    12a0:	00079502 	andeq	r9, r7, r2, lsl #10
    12a4:	34168800 	ldrcc	r8, [r6], #-2048	; 0xfffff800
    12a8:	04000005 	streq	r0, [r0], #-5
    12ac:	001d0266 	andseq	r0, sp, r6, ror #4
    12b0:	16a00000 	strtne	r0, [r0], r0
    12b4:	000002fb 	strdeq	r0, [r0], -fp
    12b8:	e7026704 	str	r6, [r2, -r4, lsl #14]
    12bc:	a4000000 	strge	r0, [r0], #-0
    12c0:	00025616 	andeq	r5, r2, r6, lsl r6
    12c4:	02680400 	rsbeq	r0, r8, #0, 8
    12c8:	000000e7 	andeq	r0, r0, r7, ror #1
    12cc:	02ea16ac 	rsceq	r1, sl, #172, 12	; 0xac00000
    12d0:	69040000 	stmdbvs	r4, {}	; <UNPREDICTABLE>
    12d4:	0000e702 	andeq	lr, r0, r2, lsl #14
    12d8:	2d16b400 	cfldrscs	mvf11, [r6, #-0]
    12dc:	04000002 	streq	r0, [r0], #-2
    12e0:	00e7026a 	rsceq	r0, r7, sl, ror #4
    12e4:	16bc0000 	ldrtne	r0, [ip], r0
    12e8:	0000023c 	andeq	r0, r0, ip, lsr r2
    12ec:	e7026b04 	str	r6, [r2, -r4, lsl #22]
    12f0:	c4000000 	strgt	r0, [r0], #-0
    12f4:	00045016 	andeq	r5, r4, r6, lsl r0
    12f8:	026c0400 	rsbeq	r0, ip, #0, 8
    12fc:	0000001d 	andeq	r0, r0, sp, lsl r0
    1300:	480800cc 	stmdami	r8, {r2, r3, r6, r7}
    1304:	85000005 	strhi	r0, [r0, #-5]
    1308:	09000007 	stmdbeq	r0, {r0, r1, r2}
    130c:	000000bf 	strheq	r0, [r0], -pc	; <UNPREDICTABLE>
    1310:	48080019 	stmdami	r8, {r0, r3, r4}
    1314:	95000005 	strls	r0, [r0, #-5]
    1318:	09000007 	stmdbeq	r0, {r0, r1, r2}
    131c:	000000bf 	strheq	r0, [r0], -pc	; <UNPREDICTABLE>
    1320:	48080007 	stmdami	r8, {r0, r1, r2}
    1324:	a5000005 	strge	r0, [r0, #-5]
    1328:	09000007 	stmdbeq	r0, {r0, r1, r2}
    132c:	000000bf 	strheq	r0, [r0], -pc	; <UNPREDICTABLE>
    1330:	f01a0017 			; <UNDEFINED> instruction: 0xf01a0017
    1334:	c9027104 	stmdbgt	r2, {r2, r8, ip, sp, lr}
    1338:	16000007 	strne	r0, [r0], -r7
    133c:	000003fc 	strdeq	r0, [r0], -ip
    1340:	c9027404 	stmdbgt	r2, {r2, sl, ip, sp, lr}
    1344:	00000007 	andeq	r0, r0, r7
    1348:	00058d16 	andeq	r8, r5, r6, lsl sp
    134c:	02750400 	rsbseq	r0, r5, #0, 8
    1350:	000007d9 	ldrdeq	r0, [r0], -r9
    1354:	bc080078 	stclt	0, cr0, [r8], {120}	; 0x78
    1358:	d9000002 	stmdble	r0, {r1}
    135c:	09000007 	stmdbeq	r0, {r0, r1, r2}
    1360:	000000bf 	strheq	r0, [r0], -pc	; <UNPREDICTABLE>
    1364:	2408001d 	strcs	r0, [r8], #-29	; 0xffffffe3
    1368:	e9000000 	stmdb	r0, {}	; <UNPREDICTABLE>
    136c:	09000007 	stmdbeq	r0, {r0, r1, r2}
    1370:	000000bf 	strheq	r0, [r0], -pc	; <UNPREDICTABLE>
    1374:	f01b001d 			; <UNDEFINED> instruction: 0xf01b001d
    1378:	0b025604 	bleq	96b90 <__Main_Stack_Size+0x96790>
    137c:	1c000008 	stcne	0, cr0, [r0], {8}
    1380:	000004d7 	ldrdeq	r0, [r0], -r7
    1384:	74026d04 	strvc	r6, [r2], #-3332	; 0xfffff2fc
    1388:	1c000006 	stcne	0, cr0, [r0], {6}
    138c:	000005b0 			; <UNDEFINED> instruction: 0x000005b0
    1390:	a5027604 	strge	r7, [r2, #-1540]	; 0xfffff9fc
    1394:	00000007 	andeq	r0, r0, r7
    1398:	00054808 	andeq	r4, r5, r8, lsl #16
    139c:	00081b00 	andeq	r1, r8, r0, lsl #22
    13a0:	00bf0900 	adcseq	r0, pc, r0, lsl #18
    13a4:	00180000 	andseq	r0, r8, r0
    13a8:	0008261d 	andeq	r2, r8, sp, lsl r6
    13ac:	040a1400 	streq	r1, [sl], #-1024	; 0xfffffc00
    13b0:	0f000000 	svceq	0x00000000
    13b4:	00081b04 	andeq	r1, r8, r4, lsl #22
    13b8:	5d040f00 	stcpl	15, cr0, [r4, #-0]
    13bc:	1d000001 	stcne	0, cr0, [r0, #-4]
    13c0:	0000083d 	andeq	r0, r0, sp, lsr r8
    13c4:	00001d14 	andeq	r1, r0, r4, lsl sp
    13c8:	040f0000 	streq	r0, [pc], #-0	; 13d0 <__Main_Stack_Size+0xfd0>
    13cc:	00000843 	andeq	r0, r0, r3, asr #16
    13d0:	0832040f 	ldmdaeq	r2!, {r0, r1, r2, r3, sl}
    13d4:	e2080000 	and	r0, r8, #0
    13d8:	59000005 	stmdbpl	r0, {r0, r2}
    13dc:	09000008 	stmdbeq	r0, {r3}
    13e0:	000000bf 	strheq	r0, [r0], -pc	; <UNPREDICTABLE>
    13e4:	cd1e0002 	ldcgt	0, cr0, [lr, #-8]
    13e8:	05000006 	streq	r0, [r0, #-6]
    13ec:	00041017 	andeq	r1, r4, r7, lsl r0
    13f0:	08030500 	stmdaeq	r3, {r8, sl}
    13f4:	1f200000 	svcne	0x00200000
    13f8:	00000548 	andeq	r0, r0, r8, asr #10
    13fc:	0a02fa04 	beq	bfc14 <__Main_Stack_Size+0xbf814>
    1400:	05000004 	streq	r0, [r0, #-4]
    1404:	00000003 	andeq	r0, r0, r3
    1408:	05411f00 	strbeq	r1, [r1, #-3840]	; 0xfffff100
    140c:	fb040000 	blx	101416 <__Main_Stack_Size+0x101016>
    1410:	00088e02 	andeq	r8, r8, r2, lsl #28
    1414:	78030500 	stmdavc	r3, {r8, sl}
    1418:	18080011 	stmdane	r8, {r0, r4}
    141c:	0000040a 	andeq	r0, r0, sl, lsl #8
    1420:	00010100 	andeq	r0, r1, r0, lsl #2
    1424:	ef000400 	svc	0x00000400
    1428:	04000004 	streq	r0, [r0], #-4
    142c:	00012f01 	andeq	r2, r1, r1, lsl #30
    1430:	07ad0100 	streq	r0, [sp, r0, lsl #2]!
    1434:	06380000 	ldrteq	r0, [r8], -r0
    1438:	00300000 	eorseq	r0, r0, r0
    143c:	00000000 	andeq	r0, r0, r0
    1440:	044d0000 	strbeq	r0, [sp], #-0
    1444:	01020000 	mrseq	r0, (UNDEF: 2)
    1448:	00007a06 	andeq	r7, r0, r6, lsl #20
    144c:	08010200 	stmdaeq	r1, {r9}
    1450:	00000078 	andeq	r0, r0, r8, ror r0
    1454:	25050202 	strcs	r0, [r5, #-514]	; 0xfffffdfe
    1458:	02000001 	andeq	r0, r0, #1
    145c:	000e0702 	andeq	r0, lr, r2, lsl #14
    1460:	04020000 	streq	r0, [r2], #-0
    1464:	00000505 	andeq	r0, r0, r5, lsl #10
    1468:	07040200 	streq	r0, [r4, -r0, lsl #4]
    146c:	00000066 	andeq	r0, r0, r6, rrx
    1470:	00050802 	andeq	r0, r5, r2, lsl #16
    1474:	02000000 	andeq	r0, r0, #0
    1478:	00610708 	rsbeq	r0, r1, r8, lsl #14
    147c:	04030000 	streq	r0, [r3], #-0
    1480:	746e6905 	strbtvc	r6, [lr], #-2309	; 0xfffff6fb
    1484:	07040200 	streq	r0, [r4, -r0, lsl #4]
    1488:	0000006b 	andeq	r0, r0, fp, rrx
    148c:	0005fb04 	andeq	pc, r5, r4, lsl #22
    1490:	64d40200 	ldrbvs	r0, [r4], #512	; 0x200
    1494:	02000000 	andeq	r0, r0, #0
    1498:	01ff0704 	mvnseq	r0, r4, lsl #14
    149c:	01020000 	mrseq	r0, (UNDEF: 2)
    14a0:	00008108 	andeq	r8, r0, r8, lsl #2
    14a4:	07850500 	streq	r0, [r5, r0, lsl #10]
    14a8:	1c010000 	stcne	0, cr0, [r1], {-0}
    14ac:	08000ee8 	stmdaeq	r0, {r3, r5, r6, r7, r9, sl, fp}
    14b0:	00000050 	andeq	r0, r0, r0, asr r0
    14b4:	00bf9c01 	adcseq	r9, pc, r1, lsl #24
    14b8:	e6060000 	str	r0, [r6], -r0
    14bc:	01000004 	tsteq	r0, r4
    14c0:	00006b1e 	andeq	r6, r0, lr, lsl fp
    14c4:	0000a600 	andeq	sl, r0, r0, lsl #12
    14c8:	00690700 	rsbeq	r0, r9, r0, lsl #14
    14cc:	006b1f01 	rsbeq	r1, fp, r1, lsl #30
    14d0:	00e20000 	rsceq	r0, r2, r0
    14d4:	0e080000 	cdpeq	0, 0, cr0, cr8, cr0, {0}
    14d8:	fd08000f 	stc2	0, cr0, [r8, #-60]	; 0xffffffc4
    14dc:	00000000 	andeq	r0, r0, r0
    14e0:	0000ca09 	andeq	ip, r0, r9, lsl #20
    14e4:	0000ca00 	andeq	ip, r0, r0, lsl #20
    14e8:	0b000a00 	bleq	3cf0 <__Main_Stack_Size+0x38f0>
    14ec:	0000d004 	andeq	sp, r0, r4
    14f0:	970d0c00 	strls	r0, [sp, -r0, lsl #24]
    14f4:	01000007 	tsteq	r0, r7
    14f8:	0000bf13 	andeq	fp, r0, r3, lsl pc
    14fc:	07e00d00 	strbeq	r0, [r0, r0, lsl #26]!
    1500:	14010000 	strne	r0, [r1], #-0
    1504:	000000bf 	strheq	r0, [r0], -pc	; <UNPREDICTABLE>
    1508:	0007720d 	andeq	r7, r7, sp, lsl #4
    150c:	bf150100 	svclt	0x00150100
    1510:	0d000000 	stceq	0, cr0, [r0, #-0]
    1514:	000007f4 	strdeq	r0, [r0], -r4
    1518:	00bf1601 	adcseq	r1, pc, r1, lsl #12
    151c:	da0e0000 	ble	381524 <__Main_Stack_Size+0x381124>
    1520:	01000007 	tsteq	r0, r7
    1524:	01130018 	tsteq	r3, r8, lsl r0
    1528:	00040000 	andeq	r0, r4, r0
    152c:	000005a9 	andeq	r0, r0, r9, lsr #11
    1530:	012f0104 			; <UNDEFINED> instruction: 0x012f0104
    1534:	7c010000 	stcvc	0, cr0, [r1], {-0}
    1538:	05000008 	streq	r0, [r0, #-8]
    153c:	40000008 	andmi	r0, r0, r8
    1540:	00000000 	andeq	r0, r0, r0
    1544:	05000000 	streq	r0, [r0, #-0]
    1548:	02000005 	andeq	r0, r0, #5
    154c:	6e690504 	cdpvs	5, 6, cr0, cr9, cr4, {0}
    1550:	fb030074 	blx	c172a <__Main_Stack_Size+0xc132a>
    1554:	02000005 	andeq	r0, r0, #5
    1558:	000037d4 	ldrdeq	r3, [r0], -r4
    155c:	07040400 	streq	r0, [r4, -r0, lsl #8]
    1560:	0000006b 	andeq	r0, r0, fp, rrx
    1564:	7a060104 	bvc	18197c <__Main_Stack_Size+0x18157c>
    1568:	04000000 	streq	r0, [r0], #-0
    156c:	00780801 	rsbseq	r0, r8, r1, lsl #16
    1570:	02040000 	andeq	r0, r4, #0
    1574:	00012505 	andeq	r2, r1, r5, lsl #10
    1578:	07020400 	streq	r0, [r2, -r0, lsl #8]
    157c:	0000000e 	andeq	r0, r0, lr
    1580:	05050404 	streq	r0, [r5, #-1028]	; 0xfffffbfc
    1584:	04000000 	streq	r0, [r0], #-0
    1588:	00660704 	rsbeq	r0, r6, r4, lsl #14
    158c:	08040000 	stmdaeq	r4, {}	; <UNPREDICTABLE>
    1590:	00000005 	andeq	r0, r0, r5
    1594:	07080400 	streq	r0, [r8, -r0, lsl #8]
    1598:	00000061 	andeq	r0, r0, r1, rrx
    159c:	ff070404 			; <UNDEFINED> instruction: 0xff070404
    15a0:	05000001 	streq	r0, [r0, #-1]
    15a4:	85040604 	strhi	r0, [r4, #-1540]	; 0xfffff9fc
    15a8:	04000000 	streq	r0, [r0], #-0
    15ac:	00810801 	addeq	r0, r1, r1, lsl #16
    15b0:	ad070000 	stcge	0, cr0, [r7, #-0]
    15b4:	03000008 	movweq	r0, #8
    15b8:	00007d19 	andeq	r7, r0, r9, lsl sp
    15bc:	000f3800 	andeq	r3, pc, r0, lsl #16
    15c0:	00009a08 	andeq	r9, r0, r8, lsl #20
    15c4:	109c0100 	addsne	r0, ip, r0, lsl #2
    15c8:	08000001 	stmdaeq	r0, {r0}
    15cc:	2d01006d 	stccs	0, cr0, [r1, #-436]	; 0xfffffe4c
    15d0:	0000007d 	andeq	r0, r0, sp, ror r0
    15d4:	63095001 	movwvs	r5, #36865	; 0x9001
    15d8:	252d0100 	strcs	r0, [sp, #-256]!	; 0xffffff00
    15dc:	54000000 	strpl	r0, [r0], #-0
    15e0:	09000001 	stmdbeq	r0, {r0}
    15e4:	2d01006e 	stccs	0, cr0, [r1, #-440]	; 0xfffffe48
    15e8:	0000002c 	andeq	r0, r0, ip, lsr #32
    15ec:	00000180 	andeq	r0, r0, r0, lsl #3
    15f0:	0100730a 	tsteq	r0, sl, lsl #6
    15f4:	00007f32 	andeq	r7, r0, r2, lsr pc
    15f8:	00020500 	andeq	r0, r2, r0, lsl #10
    15fc:	00690a00 	rsbeq	r0, r9, r0, lsl #20
    1600:	00373501 	eorseq	r3, r7, r1, lsl #10
    1604:	02390000 	eorseq	r0, r9, #0
    1608:	b40b0000 	strlt	r0, [fp], #-0
    160c:	01000008 	tsteq	r0, r8
    1610:	00006136 	andeq	r6, r0, r6, lsr r1
    1614:	00024e00 	andeq	r4, r2, r0, lsl #28
    1618:	086f0b00 	stmdaeq	pc!, {r8, r9, fp}^	; <UNPREDICTABLE>
    161c:	37010000 	strcc	r0, [r1, -r0]
    1620:	00000110 	andeq	r0, r0, r0, lsl r1
    1624:	00000261 	andeq	r0, r0, r1, ror #4
    1628:	0100640a 	tsteq	r0, sl, lsl #8
    162c:	00003738 	andeq	r3, r0, r8, lsr r7
    1630:	0002c900 	andeq	ip, r2, r0, lsl #18
    1634:	04060000 	streq	r0, [r6], #-0
    1638:	00000061 	andeq	r0, r0, r1, rrx
    163c:	00093000 	andeq	r3, r9, r0
    1640:	48000400 	stmdami	r0, {sl}
    1644:	04000006 	streq	r0, [r0], #-6
    1648:	00012f01 	andeq	r2, r1, r1, lsl #30
    164c:	08bb0100 	ldmeq	fp!, {r8}
    1650:	00b20000 	adcseq	r0, r2, r0
    1654:	00500000 	subseq	r0, r0, r0
    1658:	00000000 	andeq	r0, r0, r0
    165c:	06210000 	strteq	r0, [r1], -r0
    1660:	04020000 	streq	r0, [r2], #-0
    1664:	746e6905 	strbtvc	r6, [lr], #-2309	; 0xfffff6fb
    1668:	05fb0300 	ldrbeq	r0, [fp, #768]!	; 0x300
    166c:	d4020000 	strle	r0, [r2], #-0
    1670:	00000037 	andeq	r0, r0, r7, lsr r0
    1674:	6b070404 	blvs	1c268c <__Main_Stack_Size+0x1c228c>
    1678:	04000000 	streq	r0, [r0], #-0
    167c:	007a0601 	rsbseq	r0, sl, r1, lsl #12
    1680:	01040000 	mrseq	r0, (UNDEF: 4)
    1684:	00007808 	andeq	r7, r0, r8, lsl #16
    1688:	05020400 	streq	r0, [r2, #-1024]	; 0xfffffc00
    168c:	00000125 	andeq	r0, r0, r5, lsr #2
    1690:	0e070204 	cdpeq	2, 0, cr0, cr7, cr4, {0}
    1694:	04000000 	streq	r0, [r0], #-0
    1698:	00050504 	andeq	r0, r5, r4, lsl #10
    169c:	04040000 	streq	r0, [r4], #-0
    16a0:	00006607 	andeq	r6, r0, r7, lsl #12
    16a4:	05080400 	streq	r0, [r8, #-1024]	; 0xfffffc00
    16a8:	00000000 	andeq	r0, r0, r0
    16ac:	61070804 	tstvs	r7, r4, lsl #16
    16b0:	03000000 	movweq	r0, #0
    16b4:	00000439 	andeq	r0, r0, r9, lsr r4
    16b8:	00250703 	eoreq	r0, r5, r3, lsl #14
    16bc:	17030000 	strne	r0, [r3, -r0]
    16c0:	04000004 	streq	r0, [r0], #-4
    16c4:	00005a10 	andeq	r5, r0, r0, lsl sl
    16c8:	04fa0300 	ldrbteq	r0, [sl], #768	; 0x300
    16cc:	27040000 	strcs	r0, [r4, -r0]
    16d0:	0000005a 	andeq	r0, r0, sl, asr r0
    16d4:	0003ad05 	andeq	sl, r3, r5, lsl #26
    16d8:	01610200 	cmneq	r1, r0, lsl #4
    16dc:	00000037 	andeq	r0, r0, r7, lsr r0
    16e0:	4a040406 	bmi	102700 <__Main_Stack_Size+0x102300>
    16e4:	000000c2 	andeq	r0, r0, r2, asr #1
    16e8:	0003a707 	andeq	sl, r3, r7, lsl #14
    16ec:	974c0400 	strbls	r0, [ip, -r0, lsl #8]
    16f0:	07000000 	streq	r0, [r0, -r0]
    16f4:	00000359 	andeq	r0, r0, r9, asr r3
    16f8:	00c24d04 	sbceq	r4, r2, r4, lsl #26
    16fc:	08000000 	stmdaeq	r0, {}	; <UNPREDICTABLE>
    1700:	00000045 	andeq	r0, r0, r5, asr #32
    1704:	000000d2 	ldrdeq	r0, [r0], -r2
    1708:	0000d209 	andeq	sp, r0, r9, lsl #4
    170c:	04000300 	streq	r0, [r0], #-768	; 0xfffffd00
    1710:	01ff0704 	mvnseq	r0, r4, lsl #14
    1714:	080a0000 	stmdaeq	sl, {}	; <UNPREDICTABLE>
    1718:	00fa4704 	rscseq	r4, sl, r4, lsl #14
    171c:	e40b0000 	str	r0, [fp], #-0
    1720:	04000004 	streq	r0, [r0], #-4
    1724:	00002549 	andeq	r2, r0, r9, asr #10
    1728:	ec0b0000 	stc	0, cr0, [fp], {-0}
    172c:	04000004 	streq	r0, [r0], #-4
    1730:	0000a34e 	andeq	sl, r0, lr, asr #6
    1734:	03000400 	movweq	r0, #1024	; 0x400
    1738:	00000477 	andeq	r0, r0, r7, ror r4
    173c:	00d94f04 	sbcseq	r4, r9, r4, lsl #30
    1740:	1c030000 	stcne	0, cr0, [r3], {-0}
    1744:	04000003 	streq	r0, [r0], #-3
    1748:	00007653 	andeq	r7, r0, r3, asr r6
    174c:	03040c00 	movweq	r0, #19456	; 0x4c00
    1750:	0000052c 	andeq	r0, r0, ip, lsr #10
    1754:	00611605 	rsbeq	r1, r1, r5, lsl #12
    1758:	2d0d0000 	stccs	0, cr0, [sp, #-0]
    175c:	18000003 	stmdane	r0, {r0, r1}
    1760:	01702d05 	cmneq	r0, r5, lsl #26
    1764:	980b0000 	stmdals	fp, {}	; <UNPREDICTABLE>
    1768:	05000004 	streq	r0, [r0, #-4]
    176c:	0001702f 	andeq	r7, r1, pc, lsr #32
    1770:	5f0e0000 	svcpl	0x000e0000
    1774:	3005006b 	andcc	r0, r5, fp, rrx
    1778:	00000025 	andeq	r0, r0, r5, lsr #32
    177c:	04cf0b04 	strbeq	r0, [pc], #2820	; 1784 <__Main_Stack_Size+0x1384>
    1780:	30050000 	andcc	r0, r5, r0
    1784:	00000025 	andeq	r0, r0, r5, lsr #32
    1788:	03160b08 	tsteq	r6, #8, 22	; 0x2000
    178c:	30050000 	andcc	r0, r5, r0
    1790:	00000025 	andeq	r0, r0, r5, lsr #32
    1794:	05780b0c 	ldrbeq	r0, [r8, #-2828]!	; 0xfffff4f4
    1798:	30050000 	andcc	r0, r5, r0
    179c:	00000025 	andeq	r0, r0, r5, lsr #32
    17a0:	785f0e10 	ldmdavc	pc, {r4, r9, sl, fp}^	; <UNPREDICTABLE>
    17a4:	76310500 	ldrtvc	r0, [r1], -r0, lsl #10
    17a8:	14000001 	strne	r0, [r0], #-1
    17ac:	1d040f00 	stcne	15, cr0, [r4, #-0]
    17b0:	08000001 	stmdaeq	r0, {r0}
    17b4:	00000112 	andeq	r0, r0, r2, lsl r1
    17b8:	00000186 	andeq	r0, r0, r6, lsl #3
    17bc:	0000d209 	andeq	sp, r0, r9, lsl #4
    17c0:	0d000000 	stceq	0, cr0, [r0, #-0]
    17c4:	00000354 	andeq	r0, r0, r4, asr r3
    17c8:	ff350524 			; <UNDEFINED> instruction: 0xff350524
    17cc:	0b000001 	bleq	17d8 <__Main_Stack_Size+0x13d8>
    17d0:	00000273 	andeq	r0, r0, r3, ror r2
    17d4:	00253705 	eoreq	r3, r5, r5, lsl #14
    17d8:	0b000000 	bleq	17e0 <__Main_Stack_Size+0x13e0>
    17dc:	00000502 	andeq	r0, r0, r2, lsl #10
    17e0:	00253805 	eoreq	r3, r5, r5, lsl #16
    17e4:	0b040000 	bleq	1017ec <__Main_Stack_Size+0x1013ec>
    17e8:	0000028e 	andeq	r0, r0, lr, lsl #5
    17ec:	00253905 	eoreq	r3, r5, r5, lsl #18
    17f0:	0b080000 	bleq	2017f8 <__Main_Stack_Size+0x2013f8>
    17f4:	000005f1 	strdeq	r0, [r0], -r1
    17f8:	00253a05 	eoreq	r3, r5, r5, lsl #20
    17fc:	0b0c0000 	bleq	301804 <__Main_Stack_Size+0x301404>
    1800:	00000403 	andeq	r0, r0, r3, lsl #8
    1804:	00253b05 	eoreq	r3, r5, r5, lsl #22
    1808:	0b100000 	bleq	401810 <__Main_Stack_Size+0x401410>
    180c:	000003c3 	andeq	r0, r0, r3, asr #7
    1810:	00253c05 	eoreq	r3, r5, r5, lsl #24
    1814:	0b140000 	bleq	50181c <__Main_Stack_Size+0x50141c>
    1818:	0000057d 	andeq	r0, r0, sp, ror r5
    181c:	00253d05 	eoreq	r3, r5, r5, lsl #26
    1820:	0b180000 	bleq	601828 <__Main_Stack_Size+0x601428>
    1824:	00000459 	andeq	r0, r0, r9, asr r4
    1828:	00253e05 	eoreq	r3, r5, r5, lsl #28
    182c:	0b1c0000 	bleq	701834 <__Main_Stack_Size+0x701434>
    1830:	000005b8 			; <UNDEFINED> instruction: 0x000005b8
    1834:	00253f05 	eoreq	r3, r5, r5, lsl #30
    1838:	00200000 	eoreq	r0, r0, r0
    183c:	00029d10 	andeq	r9, r2, r0, lsl sp
    1840:	05010800 	streq	r0, [r1, #-2048]	; 0xfffff800
    1844:	00023f48 	andeq	r3, r2, r8, asr #30
    1848:	03090b00 	movweq	r0, #39680	; 0x9b00
    184c:	49050000 	stmdbmi	r5, {}	; <UNPREDICTABLE>
    1850:	0000023f 	andeq	r0, r0, pc, lsr r2
    1854:	02080b00 	andeq	r0, r8, #0, 22
    1858:	4a050000 	bmi	141860 <__Main_Stack_Size+0x141460>
    185c:	0000023f 	andeq	r0, r0, pc, lsr r2
    1860:	051e1180 	ldreq	r1, [lr, #-384]	; 0xfffffe80
    1864:	4c050000 	stcmi	0, cr0, [r5], {-0}
    1868:	00000112 	andeq	r0, r0, r2, lsl r1
    186c:	c2110100 	andsgt	r0, r1, #0, 2
    1870:	05000002 	streq	r0, [r0, #-2]
    1874:	0001124f 	andeq	r1, r1, pc, asr #4
    1878:	00010400 	andeq	r0, r1, r0, lsl #8
    187c:	00011008 	andeq	r1, r1, r8
    1880:	00024f00 	andeq	r4, r2, r0, lsl #30
    1884:	00d20900 	sbcseq	r0, r2, r0, lsl #18
    1888:	001f0000 	andseq	r0, pc, r0
    188c:	00008a10 	andeq	r8, r0, r0, lsl sl
    1890:	05019000 	streq	r9, [r1, #-0]
    1894:	00028d5b 	andeq	r8, r2, fp, asr sp
    1898:	04980b00 	ldreq	r0, [r8], #2816	; 0xb00
    189c:	5c050000 	stcpl	0, cr0, [r5], {-0}
    18a0:	0000028d 	andeq	r0, r0, sp, lsl #5
    18a4:	04b00b00 	ldrteq	r0, [r0], #2816	; 0xb00
    18a8:	5d050000 	stcpl	0, cr0, [r5, #-0]
    18ac:	00000025 	andeq	r0, r0, r5, lsr #32
    18b0:	03110b04 	tsteq	r1, #4, 22	; 0x1000
    18b4:	5f050000 	svcpl	0x00050000
    18b8:	00000293 	muleq	r0, r3, r2
    18bc:	029d0b08 	addseq	r0, sp, #8, 22	; 0x2000
    18c0:	60050000 	andvs	r0, r5, r0
    18c4:	000001ff 	strdeq	r0, [r0], -pc	; <UNPREDICTABLE>
    18c8:	040f0088 	streq	r0, [pc], #-136	; 18d0 <__Main_Stack_Size+0x14d0>
    18cc:	0000024f 	andeq	r0, r0, pc, asr #4
    18d0:	0002a308 	andeq	sl, r2, r8, lsl #6
    18d4:	0002a300 	andeq	sl, r2, r0, lsl #6
    18d8:	00d20900 	sbcseq	r0, r2, r0, lsl #18
    18dc:	001f0000 	andseq	r0, pc, r0
    18e0:	02a9040f 	adceq	r0, r9, #251658240	; 0xf000000
    18e4:	0d120000 	ldceq	0, cr0, [r2, #-0]
    18e8:	00000463 	andeq	r0, r0, r3, ror #8
    18ec:	cf730508 	svcgt	0x00730508
    18f0:	0b000002 	bleq	1900 <__Main_Stack_Size+0x1500>
    18f4:	00000288 	andeq	r0, r0, r8, lsl #5
    18f8:	02cf7405 	sbceq	r7, pc, #83886080	; 0x5000000
    18fc:	0b000000 	bleq	1904 <__Main_Stack_Size+0x1504>
    1900:	00000214 	andeq	r0, r0, r4, lsl r2
    1904:	00257505 	eoreq	r7, r5, r5, lsl #10
    1908:	00040000 	andeq	r0, r4, r0
    190c:	0045040f 	subeq	r0, r5, pc, lsl #8
    1910:	820d0000 	andhi	r0, sp, #0
    1914:	68000004 	stmdavs	r0, {r2}
    1918:	03ffb305 	mvnseq	fp, #335544320	; 0x14000000
    191c:	5f0e0000 	svcpl	0x000e0000
    1920:	b4050070 	strlt	r0, [r5], #-112	; 0xffffff90
    1924:	000002cf 	andeq	r0, r0, pc, asr #5
    1928:	725f0e00 	subsvc	r0, pc, #0, 28
    192c:	25b50500 	ldrcs	r0, [r5, #1280]!	; 0x500
    1930:	04000000 	streq	r0, [r0], #-0
    1934:	00775f0e 	rsbseq	r5, r7, lr, lsl #30
    1938:	0025b605 	eoreq	fp, r5, r5, lsl #12
    193c:	0b080000 	bleq	201944 <__Main_Stack_Size+0x201544>
    1940:	000002bb 			; <UNDEFINED> instruction: 0x000002bb
    1944:	004cb705 	subeq	fp, ip, r5, lsl #14
    1948:	0b0c0000 	bleq	301950 <__Main_Stack_Size+0x301550>
    194c:	00000370 	andeq	r0, r0, r0, ror r3
    1950:	004cb805 	subeq	fp, ip, r5, lsl #16
    1954:	0e0e0000 	cdpeq	0, 0, cr0, cr14, cr0, {0}
    1958:	0066625f 	rsbeq	r6, r6, pc, asr r2
    195c:	02aab905 	adceq	fp, sl, #81920	; 0x14000
    1960:	0b100000 	bleq	401968 <__Main_Stack_Size+0x401568>
    1964:	0000024d 	andeq	r0, r0, sp, asr #4
    1968:	0025ba05 	eoreq	fp, r5, r5, lsl #20
    196c:	0b180000 	bleq	601974 <__Main_Stack_Size+0x601574>
    1970:	000002ab 	andeq	r0, r0, fp, lsr #5
    1974:	0110c105 	tsteq	r0, r5, lsl #2
    1978:	0b1c0000 	bleq	701980 <__Main_Stack_Size+0x701580>
    197c:	00000344 	andeq	r0, r0, r4, asr #6
    1980:	0562c305 	strbeq	ip, [r2, #-773]!	; 0xfffffcfb
    1984:	0b200000 	bleq	80198c <__Main_Stack_Size+0x80158c>
    1988:	000003bc 			; <UNDEFINED> instruction: 0x000003bc
    198c:	0591c505 	ldreq	ip, [r1, #1285]	; 0x505
    1990:	0b240000 	bleq	901998 <__Main_Stack_Size+0x901598>
    1994:	000004f4 	strdeq	r0, [r0], -r4
    1998:	05b5c805 	ldreq	ip, [r5, #2053]!	; 0x805
    199c:	0b280000 	bleq	a019a4 <__Main_Stack_Size+0xa015a4>
    19a0:	000005d2 	ldrdeq	r0, [r0], -r2
    19a4:	05cfc905 	strbeq	ip, [pc, #2309]	; 22b1 <__Main_Stack_Size+0x1eb1>
    19a8:	0e2c0000 	cdpeq	0, 2, cr0, cr12, cr0, {0}
    19ac:	0062755f 	rsbeq	r7, r2, pc, asr r5
    19b0:	02aacc05 	adceq	ip, sl, #1280	; 0x500
    19b4:	0e300000 	cdpeq	0, 3, cr0, cr0, cr0, {0}
    19b8:	0070755f 	rsbseq	r7, r0, pc, asr r5
    19bc:	02cfcd05 	sbceq	ip, pc, #320	; 0x140
    19c0:	0e380000 	cdpeq	0, 3, cr0, cr8, cr0, {0}
    19c4:	0072755f 	rsbseq	r7, r2, pc, asr r5
    19c8:	0025ce05 	eoreq	ip, r5, r5, lsl #28
    19cc:	0b3c0000 	bleq	f019d4 <__Main_Stack_Size+0xf015d4>
    19d0:	00000282 	andeq	r0, r0, r2, lsl #5
    19d4:	05d5d105 	ldrbeq	sp, [r5, #261]	; 0x105
    19d8:	0b400000 	bleq	10019e0 <__Main_Stack_Size+0x10015e0>
    19dc:	000005aa 	andeq	r0, r0, sl, lsr #11
    19e0:	05e5d205 	strbeq	sp, [r5, #517]!	; 0x205
    19e4:	0e430000 	cdpeq	0, 4, cr0, cr3, cr0, {0}
    19e8:	00626c5f 	rsbeq	r6, r2, pc, asr ip
    19ec:	02aad505 	adceq	sp, sl, #20971520	; 0x1400000
    19f0:	0b440000 	bleq	11019f8 <__Main_Stack_Size+0x11015f8>
    19f4:	000002d1 	ldrdeq	r0, [r0], -r1
    19f8:	0025d805 	eoreq	sp, r5, r5, lsl #16
    19fc:	0b4c0000 	bleq	1301a04 <__Main_Stack_Size+0x1301604>
    1a00:	000002e2 	andeq	r0, r0, r2, ror #5
    1a04:	0081d905 	addeq	sp, r1, r5, lsl #18
    1a08:	0b500000 	bleq	1401a10 <__Main_Stack_Size+0x1401610>
    1a0c:	000006d3 	ldrdeq	r0, [r0], -r3
    1a10:	041ddc05 	ldreq	sp, [sp], #-3077	; 0xfffff3fb
    1a14:	0b540000 	bleq	1501a1c <__Main_Stack_Size+0x150161c>
    1a18:	0000095b 	andeq	r0, r0, fp, asr r9
    1a1c:	0105e005 	tsteq	r5, r5
    1a20:	0b580000 	bleq	1601a28 <__Main_Stack_Size+0x1601628>
    1a24:	0000048a 	andeq	r0, r0, sl, lsl #9
    1a28:	00fae205 	rscseq	lr, sl, r5, lsl #4
    1a2c:	0b5c0000 	bleq	1701a34 <__Main_Stack_Size+0x1701634>
    1a30:	000003b4 			; <UNDEFINED> instruction: 0x000003b4
    1a34:	0025e305 	eoreq	lr, r5, r5, lsl #6
    1a38:	00640000 	rsbeq	r0, r4, r0
    1a3c:	00002513 	andeq	r2, r0, r3, lsl r5
    1a40:	00041d00 	andeq	r1, r4, r0, lsl #26
    1a44:	041d1400 	ldreq	r1, [sp], #-1024	; 0xfffffc00
    1a48:	10140000 	andsne	r0, r4, r0
    1a4c:	14000001 	strne	r0, [r0], #-1
    1a50:	00000555 	andeq	r0, r0, r5, asr r5
    1a54:	00002514 	andeq	r2, r0, r4, lsl r5
    1a58:	040f0000 	streq	r0, [pc], #-0	; 1a60 <__Main_Stack_Size+0x1660>
    1a5c:	00000423 	andeq	r0, r0, r3, lsr #8
    1a60:	0004d715 	andeq	sp, r4, r5, lsl r7
    1a64:	05042800 	streq	r2, [r4, #-2048]	; 0xfffff800
    1a68:	05550239 	ldrbeq	r0, [r5, #-569]	; 0xfffffdc7
    1a6c:	52160000 	andspl	r0, r6, #0
    1a70:	05000004 	streq	r0, [r0, #-4]
    1a74:	0025023b 	eoreq	r0, r5, fp, lsr r2
    1a78:	16000000 	strne	r0, [r0], -r0
    1a7c:	000002ca 	andeq	r0, r0, sl, asr #5
    1a80:	3c024005 	stccc	0, cr4, [r2], {5}
    1a84:	04000006 	streq	r0, [r0], #-6
    1a88:	00036016 	andeq	r6, r3, r6, lsl r0
    1a8c:	02400500 	subeq	r0, r0, #0, 10
    1a90:	0000063c 	andeq	r0, r0, ip, lsr r6
    1a94:	03251608 			; <UNDEFINED> instruction: 0x03251608
    1a98:	40050000 	andmi	r0, r5, r0
    1a9c:	00063c02 	andeq	r3, r6, r2, lsl #24
    1aa0:	ab160c00 	blge	584aa8 <__Main_Stack_Size+0x5846a8>
    1aa4:	05000004 	streq	r0, [r0, #-4]
    1aa8:	00250242 	eoreq	r0, r5, r2, asr #4
    1aac:	16100000 	ldrne	r0, [r0], -r0
    1ab0:	00000222 	andeq	r0, r0, r2, lsr #4
    1ab4:	1e024305 	cdpne	3, 0, cr4, cr2, cr5, {0}
    1ab8:	14000008 	strne	r0, [r0], #-8
    1abc:	00055416 	andeq	r5, r5, r6, lsl r4
    1ac0:	02450500 	subeq	r0, r5, #0, 10
    1ac4:	00000025 	andeq	r0, r0, r5, lsr #32
    1ac8:	04b51630 	ldrteq	r1, [r5], #1584	; 0x630
    1acc:	46050000 	strmi	r0, [r5], -r0
    1ad0:	00058602 	andeq	r8, r5, r2, lsl #12
    1ad4:	0c163400 	cfldrseq	mvf3, [r6], {-0}
    1ad8:	05000004 	streq	r0, [r0, #-4]
    1adc:	00250248 	eoreq	r0, r5, r8, asr #4
    1ae0:	16380000 	ldrtne	r0, [r8], -r0
    1ae4:	000004c5 	andeq	r0, r0, r5, asr #9
    1ae8:	39024a05 	stmdbcc	r2, {r0, r2, r9, fp, lr}
    1aec:	3c000008 	stccc	0, cr0, [r0], {8}
    1af0:	00039f16 	andeq	r9, r3, r6, lsl pc
    1af4:	024d0500 	subeq	r0, sp, #0, 10
    1af8:	00000170 	andeq	r0, r0, r0, ror r1
    1afc:	034a1640 	movteq	r1, #42560	; 0xa640
    1b00:	4e050000 	cdpmi	0, 0, cr0, cr5, cr0, {0}
    1b04:	00002502 	andeq	r2, r0, r2, lsl #10
    1b08:	ec164400 	cfldrs	mvf4, [r6], {-0}
    1b0c:	05000005 	streq	r0, [r0, #-5]
    1b10:	0170024f 	cmneq	r0, pc, asr #4
    1b14:	16480000 	strbne	r0, [r8], -r0
    1b18:	0000042f 	andeq	r0, r0, pc, lsr #8
    1b1c:	3f025005 	svccc	0x00025005
    1b20:	4c000008 	stcmi	0, cr0, [r0], {8}
    1b24:	00036816 	andeq	r6, r3, r6, lsl r8
    1b28:	02530500 	subseq	r0, r3, #0, 10
    1b2c:	00000025 	andeq	r0, r0, r5, lsr #32
    1b30:	02da1650 	sbcseq	r1, sl, #80, 12	; 0x5000000
    1b34:	54050000 	strpl	r0, [r5], #-0
    1b38:	00055502 	andeq	r5, r5, r2, lsl #10
    1b3c:	4b165400 	blmi	596b44 <__Main_Stack_Size+0x596744>
    1b40:	05000004 	streq	r0, [r0, #-4]
    1b44:	07fc0277 			; <UNDEFINED> instruction: 0x07fc0277
    1b48:	17580000 	ldrbne	r0, [r8, -r0]
    1b4c:	0000008a 	andeq	r0, r0, sl, lsl #1
    1b50:	8d027b05 	vstrhi	d7, [r2, #-20]	; 0xffffffec
    1b54:	48000002 	stmdami	r0, {r1}
    1b58:	037d1701 	cmneq	sp, #262144	; 0x40000
    1b5c:	7c050000 	stcvc	0, cr0, [r5], {-0}
    1b60:	00024f02 	andeq	r4, r2, r2, lsl #30
    1b64:	17014c00 	strne	r4, [r1, -r0, lsl #24]
    1b68:	000005a0 	andeq	r0, r0, r0, lsr #11
    1b6c:	50028005 	andpl	r8, r2, r5
    1b70:	dc000008 	stcle	0, cr0, [r0], {8}
    1b74:	02b31702 	adcseq	r1, r3, #524288	; 0x80000
    1b78:	85050000 	strhi	r0, [r5, #-0]
    1b7c:	00060102 	andeq	r0, r6, r2, lsl #2
    1b80:	1702e000 	strne	lr, [r2, -r0]
    1b84:	00000298 	muleq	r0, r8, r2
    1b88:	5c028605 	stcpl	6, cr8, [r2], {5}
    1b8c:	ec000008 	stc	0, cr0, [r0], {8}
    1b90:	040f0002 	streq	r0, [pc], #-2	; 1b98 <__Main_Stack_Size+0x1798>
    1b94:	0000055b 	andeq	r0, r0, fp, asr r5
    1b98:	81080104 	tsthi	r8, r4, lsl #2
    1b9c:	0f000000 	svceq	0x00000000
    1ba0:	0003ff04 	andeq	pc, r3, r4, lsl #30
    1ba4:	00251300 	eoreq	r1, r5, r0, lsl #6
    1ba8:	05860000 	streq	r0, [r6]
    1bac:	1d140000 	ldcne	0, cr0, [r4, #-0]
    1bb0:	14000004 	strne	r0, [r0], #-4
    1bb4:	00000110 	andeq	r0, r0, r0, lsl r1
    1bb8:	00058614 	andeq	r8, r5, r4, lsl r6
    1bbc:	00251400 	eoreq	r1, r5, r0, lsl #8
    1bc0:	0f000000 	svceq	0x00000000
    1bc4:	00058c04 	andeq	r8, r5, r4, lsl #24
    1bc8:	055b1800 	ldrbeq	r1, [fp, #-2048]	; 0xfffff800
    1bcc:	040f0000 	streq	r0, [pc], #-0	; 1bd4 <__Main_Stack_Size+0x17d4>
    1bd0:	00000568 	andeq	r0, r0, r8, ror #10
    1bd4:	00008c13 	andeq	r8, r0, r3, lsl ip
    1bd8:	0005b500 	andeq	fp, r5, r0, lsl #10
    1bdc:	041d1400 	ldreq	r1, [sp], #-1024	; 0xfffffc00
    1be0:	10140000 	andsne	r0, r4, r0
    1be4:	14000001 	strne	r0, [r0], #-1
    1be8:	0000008c 	andeq	r0, r0, ip, lsl #1
    1bec:	00002514 	andeq	r2, r0, r4, lsl r5
    1bf0:	040f0000 	streq	r0, [pc], #-0	; 1bf8 <__Main_Stack_Size+0x17f8>
    1bf4:	00000597 	muleq	r0, r7, r5
    1bf8:	00002513 	andeq	r2, r0, r3, lsl r5
    1bfc:	0005cf00 	andeq	ip, r5, r0, lsl #30
    1c00:	041d1400 	ldreq	r1, [sp], #-1024	; 0xfffffc00
    1c04:	10140000 	andsne	r0, r4, r0
    1c08:	00000001 	andeq	r0, r0, r1
    1c0c:	05bb040f 	ldreq	r0, [fp, #1039]!	; 0x40f
    1c10:	45080000 	strmi	r0, [r8, #-0]
    1c14:	e5000000 	str	r0, [r0, #-0]
    1c18:	09000005 	stmdbeq	r0, {r0, r2}
    1c1c:	000000d2 	ldrdeq	r0, [r0], -r2
    1c20:	45080002 	strmi	r0, [r8, #-2]
    1c24:	f5000000 			; <UNDEFINED> instruction: 0xf5000000
    1c28:	09000005 	stmdbeq	r0, {r0, r2}
    1c2c:	000000d2 	ldrdeq	r0, [r0], -r2
    1c30:	70050000 	andvc	r0, r5, r0
    1c34:	05000004 	streq	r0, [r0, #-4]
    1c38:	02d5011d 	sbcseq	r0, r5, #1073741831	; 0x40000007
    1c3c:	87190000 	ldrhi	r0, [r9, -r0]
    1c40:	0c000005 	stceq	0, cr0, [r0], {5}
    1c44:	36012105 	strcc	r2, [r1], -r5, lsl #2
    1c48:	16000006 	strne	r0, [r0], -r6
    1c4c:	00000498 	muleq	r0, r8, r4
    1c50:	36012305 	strcc	r2, [r1], -r5, lsl #6
    1c54:	00000006 	andeq	r0, r0, r6
    1c58:	00037616 	andeq	r7, r3, r6, lsl r6
    1c5c:	01240500 			; <UNDEFINED> instruction: 0x01240500
    1c60:	00000025 	andeq	r0, r0, r5, lsr #32
    1c64:	046a1604 	strbteq	r1, [sl], #-1540	; 0xfffff9fc
    1c68:	25050000 	strcs	r0, [r5, #-0]
    1c6c:	00063c01 	andeq	r3, r6, r1, lsl #24
    1c70:	0f000800 	svceq	0x00000800
    1c74:	00060104 	andeq	r0, r6, r4, lsl #2
    1c78:	f5040f00 			; <UNDEFINED> instruction: 0xf5040f00
    1c7c:	19000005 	stmdbne	r0, {r0, r2}
    1c80:	0000021a 	andeq	r0, r0, sl, lsl r2
    1c84:	013d050e 	teqeq	sp, lr, lsl #10
    1c88:	00000677 	andeq	r0, r0, r7, ror r6
    1c8c:	0004de16 	andeq	sp, r4, r6, lsl lr
    1c90:	013e0500 	teqeq	lr, r0, lsl #10
    1c94:	00000677 	andeq	r0, r0, r7, ror r6
    1c98:	050b1600 	streq	r1, [fp, #-1536]	; 0xfffffa00
    1c9c:	3f050000 	svccc	0x00050000
    1ca0:	00067701 	andeq	r7, r6, r1, lsl #14
    1ca4:	27160600 	ldrcs	r0, [r6, -r0, lsl #12]
    1ca8:	05000005 	streq	r0, [r0, #-5]
    1cac:	00530140 	subseq	r0, r3, r0, asr #2
    1cb0:	000c0000 	andeq	r0, ip, r0
    1cb4:	00005308 	andeq	r5, r0, r8, lsl #6
    1cb8:	00068700 	andeq	r8, r6, r0, lsl #14
    1cbc:	00d20900 	sbcseq	r0, r2, r0, lsl #18
    1cc0:	00020000 	andeq	r0, r2, r0
    1cc4:	5805d01a 	stmdapl	r5, {r1, r3, r4, ip, lr, pc}
    1cc8:	00078802 	andeq	r8, r7, r2, lsl #16
    1ccc:	056b1600 	strbeq	r1, [fp, #-1536]!	; 0xfffffa00
    1cd0:	5a050000 	bpl	141cd8 <__Main_Stack_Size+0x1418d8>
    1cd4:	00003702 	andeq	r3, r0, r2, lsl #14
    1cd8:	11160000 	tstne	r6, r0
    1cdc:	05000005 	streq	r0, [r0, #-5]
    1ce0:	0555025b 	ldrbeq	r0, [r5, #-603]	; 0xfffffda5
    1ce4:	16040000 	strne	r0, [r4], -r0
    1ce8:	00000392 	muleq	r0, r2, r3
    1cec:	88025c05 	stmdahi	r2, {r0, r2, sl, fp, ip, lr}
    1cf0:	08000007 	stmdaeq	r0, {r0, r1, r2}
    1cf4:	0005c316 	andeq	ip, r5, r6, lsl r3
    1cf8:	025d0500 	subseq	r0, sp, #0, 10
    1cfc:	00000186 	andeq	r0, r0, r6, lsl #3
    1d00:	03351624 	teqeq	r5, #36, 12	; 0x2400000
    1d04:	5e050000 	cdppl	0, 0, cr0, cr5, cr0, {0}
    1d08:	00002502 	andeq	r2, r0, r2, lsl #10
    1d0c:	93164800 	tstls	r6, #0, 16
    1d10:	05000004 	streq	r0, [r0, #-4]
    1d14:	006f025f 	rsbeq	r0, pc, pc, asr r2	; <UNPREDICTABLE>
    1d18:	16500000 	ldrbne	r0, [r0], -r0
    1d1c:	000005d9 	ldrdeq	r0, [r0], -r9
    1d20:	42026005 	andmi	r6, r2, #5
    1d24:	58000006 	stmdapl	r0, {r1, r2}
    1d28:	00049e16 	andeq	r9, r4, r6, lsl lr
    1d2c:	02610500 	rsbeq	r0, r1, #0, 10
    1d30:	000000fa 	strdeq	r0, [r0], -sl
    1d34:	05de1668 	ldrbeq	r1, [lr, #1640]	; 0x668
    1d38:	62050000 	andvs	r0, r5, #0
    1d3c:	0000fa02 	andeq	pc, r0, r2, lsl #20
    1d40:	65167000 	ldrvs	r7, [r6, #-0]
    1d44:	05000002 	streq	r0, [r0, #-2]
    1d48:	00fa0263 	rscseq	r0, sl, r3, ror #4
    1d4c:	16780000 	ldrbtne	r0, [r8], -r0
    1d50:	00000596 	muleq	r0, r6, r5
    1d54:	98026405 	stmdals	r2, {r0, r2, sl, sp, lr}
    1d58:	80000007 	andhi	r0, r0, r7
    1d5c:	00038616 	andeq	r8, r3, r6, lsl r6
    1d60:	02650500 	rsbeq	r0, r5, #0, 10
    1d64:	000007a8 	andeq	r0, r0, r8, lsr #15
    1d68:	05341688 	ldreq	r1, [r4, #-1672]!	; 0xfffff978
    1d6c:	66050000 	strvs	r0, [r5], -r0
    1d70:	00002502 	andeq	r2, r0, r2, lsl #10
    1d74:	fb16a000 	blx	5a9d7e <__Main_Stack_Size+0x5a997e>
    1d78:	05000002 	streq	r0, [r0, #-2]
    1d7c:	00fa0267 	rscseq	r0, sl, r7, ror #4
    1d80:	16a40000 	strtne	r0, [r4], r0
    1d84:	00000256 	andeq	r0, r0, r6, asr r2
    1d88:	fa026805 	blx	9bda4 <__Main_Stack_Size+0x9b9a4>
    1d8c:	ac000000 	stcge	0, cr0, [r0], {-0}
    1d90:	0002ea16 	andeq	lr, r2, r6, lsl sl
    1d94:	02690500 	rsbeq	r0, r9, #0, 10
    1d98:	000000fa 	strdeq	r0, [r0], -sl
    1d9c:	022d16b4 	eoreq	r1, sp, #180, 12	; 0xb400000
    1da0:	6a050000 	bvs	141da8 <__Main_Stack_Size+0x1419a8>
    1da4:	0000fa02 	andeq	pc, r0, r2, lsl #20
    1da8:	3c16bc00 	ldccc	12, cr11, [r6], {-0}
    1dac:	05000002 	streq	r0, [r0, #-2]
    1db0:	00fa026b 	rscseq	r0, sl, fp, ror #4
    1db4:	16c40000 	strbne	r0, [r4], r0
    1db8:	00000450 	andeq	r0, r0, r0, asr r4
    1dbc:	25026c05 	strcs	r6, [r2, #-3077]	; 0xfffff3fb
    1dc0:	cc000000 	stcgt	0, cr0, [r0], {-0}
    1dc4:	055b0800 	ldrbeq	r0, [fp, #-2048]	; 0xfffff800
    1dc8:	07980000 	ldreq	r0, [r8, r0]
    1dcc:	d2090000 	andle	r0, r9, #0
    1dd0:	19000000 	stmdbne	r0, {}	; <UNPREDICTABLE>
    1dd4:	055b0800 	ldrbeq	r0, [fp, #-2048]	; 0xfffff800
    1dd8:	07a80000 	streq	r0, [r8, r0]!
    1ddc:	d2090000 	andle	r0, r9, #0
    1de0:	07000000 	streq	r0, [r0, -r0]
    1de4:	055b0800 	ldrbeq	r0, [fp, #-2048]	; 0xfffff800
    1de8:	07b80000 	ldreq	r0, [r8, r0]!
    1dec:	d2090000 	andle	r0, r9, #0
    1df0:	17000000 	strne	r0, [r0, -r0]
    1df4:	05f01a00 	ldrbeq	r1, [r0, #2560]!	; 0xa00
    1df8:	07dc0271 			; <UNDEFINED> instruction: 0x07dc0271
    1dfc:	fc160000 	ldc2	0, cr0, [r6], {-0}
    1e00:	05000003 	streq	r0, [r0, #-3]
    1e04:	07dc0274 			; <UNDEFINED> instruction: 0x07dc0274
    1e08:	16000000 	strne	r0, [r0], -r0
    1e0c:	0000058d 	andeq	r0, r0, sp, lsl #11
    1e10:	ec027505 	cfstr32	mvfx7, [r2], {5}
    1e14:	78000007 	stmdavc	r0, {r0, r1, r2}
    1e18:	02cf0800 	sbceq	r0, pc, #0, 16
    1e1c:	07ec0000 	strbeq	r0, [ip, r0]!
    1e20:	d2090000 	andle	r0, r9, #0
    1e24:	1d000000 	stcne	0, cr0, [r0, #-0]
    1e28:	00370800 	eorseq	r0, r7, r0, lsl #16
    1e2c:	07fc0000 	ldrbeq	r0, [ip, r0]!
    1e30:	d2090000 	andle	r0, r9, #0
    1e34:	1d000000 	stcne	0, cr0, [r0, #-0]
    1e38:	05f01b00 	ldrbeq	r1, [r0, #2816]!	; 0xb00
    1e3c:	081e0256 	ldmdaeq	lr, {r1, r2, r4, r6, r9}
    1e40:	d71c0000 	ldrle	r0, [ip, -r0]
    1e44:	05000004 	streq	r0, [r0, #-4]
    1e48:	0687026d 	streq	r0, [r7], sp, ror #4
    1e4c:	b01c0000 	andslt	r0, ip, r0
    1e50:	05000005 	streq	r0, [r0, #-5]
    1e54:	07b80276 			; <UNDEFINED> instruction: 0x07b80276
    1e58:	08000000 	stmdaeq	r0, {}	; <UNPREDICTABLE>
    1e5c:	0000055b 	andeq	r0, r0, fp, asr r5
    1e60:	0000082e 	andeq	r0, r0, lr, lsr #16
    1e64:	0000d209 	andeq	sp, r0, r9, lsl #4
    1e68:	1d001800 	stcne	8, cr1, [r0, #-0]
    1e6c:	00000839 	andeq	r0, r0, r9, lsr r8
    1e70:	00041d14 	andeq	r1, r4, r4, lsl sp
    1e74:	040f0000 	streq	r0, [pc], #-0	; 1e7c <__Main_Stack_Size+0x1a7c>
    1e78:	0000082e 	andeq	r0, r0, lr, lsr #16
    1e7c:	0170040f 	cmneq	r0, pc, lsl #8
    1e80:	501d0000 	andspl	r0, sp, r0
    1e84:	14000008 	strne	r0, [r0], #-8
    1e88:	00000025 	andeq	r0, r0, r5, lsr #32
    1e8c:	56040f00 	strpl	r0, [r4], -r0, lsl #30
    1e90:	0f000008 	svceq	0x00000008
    1e94:	00084504 	andeq	r4, r8, r4, lsl #10
    1e98:	05f50800 	ldrbeq	r0, [r5, #2048]!	; 0x800
    1e9c:	086c0000 	stmdaeq	ip!, {}^	; <UNPREDICTABLE>
    1ea0:	d2090000 	andle	r0, r9, #0
    1ea4:	02000000 	andeq	r0, r0, #0
    1ea8:	00211e00 	eoreq	r1, r1, r0, lsl #28
    1eac:	06010000 	streq	r0, [r1], -r0
    1eb0:	00088b05 	andeq	r8, r8, r5, lsl #22
    1eb4:	00861f00 	addeq	r1, r6, r0, lsl #30
    1eb8:	1f000000 	svcne	0x00000000
    1ebc:	000000a6 	andeq	r0, r0, r6, lsr #1
    1ec0:	011c1f01 	tsteq	ip, r1, lsl #30
    1ec4:	00020000 	andeq	r0, r2, r0
    1ec8:	00009220 	andeq	r9, r0, r0, lsr #4
    1ecc:	25420100 	strbcs	r0, [r2, #-256]	; 0xffffff00
    1ed0:	d4000000 	strle	r0, [r0], #-0
    1ed4:	a408000f 	strge	r0, [r8], #-15
    1ed8:	01000000 	mrseq	r0, (UNDEF: 0)
    1edc:	00090b9c 	muleq	r9, ip, fp
    1ee0:	02032100 	andeq	r2, r3, #0, 2
    1ee4:	42010000 	andmi	r0, r1, #0
    1ee8:	00000025 	andeq	r0, r0, r5, lsr #32
    1eec:	00000302 	andeq	r0, r0, r2, lsl #6
    1ef0:	006e6622 	rsbeq	r6, lr, r2, lsr #12
    1ef4:	02a34201 	adceq	r4, r3, #268435456	; 0x10000000
    1ef8:	03440000 	movteq	r0, #16384	; 0x4000
    1efc:	61220000 			; <UNDEFINED> instruction: 0x61220000
    1f00:	01006772 	tsteq	r0, r2, ror r7
    1f04:	00011042 	andeq	r1, r1, r2, asr #32
    1f08:	00039c00 	andeq	r9, r3, r0, lsl #24
    1f0c:	00642200 	rsbeq	r2, r4, r0, lsl #4
    1f10:	01104201 	tsteq	r0, r1, lsl #4
    1f14:	03f40000 	mvnseq	r0, #0
    1f18:	a6230000 	strtge	r0, [r3], -r0
    1f1c:	01000002 	tsteq	r0, r2
    1f20:	00090b49 	andeq	r0, r9, r9, asr #22
    1f24:	00044c00 	andeq	r4, r4, r0, lsl #24
    1f28:	00702400 	rsbseq	r2, r0, r0, lsl #8
    1f2c:	028d4a01 	addeq	r4, sp, #4096	; 0x1000
    1f30:	04700000 	ldrbteq	r0, [r0], #-0
    1f34:	2e250000 	cdpcs	0, 2, cr0, cr5, cr0, {0}
    1f38:	22080010 	andcs	r0, r8, #16
    1f3c:	26000009 	strcs	r0, [r0], -r9
    1f40:	0a035001 	beq	d5f4c <__Main_Stack_Size+0xd5b4c>
    1f44:	00000190 	muleq	r0, r0, r1
    1f48:	01ff040f 	mvnseq	r0, pc, lsl #8
    1f4c:	41270000 			; <UNDEFINED> instruction: 0x41270000
    1f50:	05000005 	streq	r0, [r0, #-5]
    1f54:	091d02fb 	ldmdbeq	sp, {r0, r1, r3, r4, r5, r6, r7, r9}
    1f58:	1d180000 	ldcne	0, cr0, [r8, #-0]
    1f5c:	28000004 	stmdacs	r0, {r2}
    1f60:	0000058f 	andeq	r0, r0, pc, lsl #11
    1f64:	01106107 	tsteq	r0, r7, lsl #2
    1f68:	2c140000 	ldccs	0, cr0, [r4], {-0}
    1f6c:	00000000 	andeq	r0, r0, r0
    1f70:	0009a500 	andeq	sl, r9, r0, lsl #10
    1f74:	57000400 	strpl	r0, [r0, -r0, lsl #8]
    1f78:	04000008 	streq	r0, [r0], #-8
    1f7c:	00012f01 	andeq	r2, r1, r1, lsl #30
    1f80:	08f30100 	ldmeq	r3!, {r8}^
    1f84:	00b20000 	adcseq	r0, r2, r0
    1f88:	00780000 	rsbseq	r0, r8, r0
    1f8c:	00000000 	andeq	r0, r0, r0
    1f90:	07b70000 	ldreq	r0, [r7, r0]!
    1f94:	04020000 	streq	r0, [r2], #-0
    1f98:	00006b07 	andeq	r6, r0, r7, lsl #22
    1f9c:	05040300 	streq	r0, [r4, #-768]	; 0xfffffd00
    1fa0:	00746e69 	rsbseq	r6, r4, r9, ror #28
    1fa4:	7a060102 	bvc	1823b4 <__Main_Stack_Size+0x181fb4>
    1fa8:	02000000 	andeq	r0, r0, #0
    1fac:	00780801 	rsbseq	r0, r8, r1, lsl #16
    1fb0:	02020000 	andeq	r0, r2, #0
    1fb4:	00012505 	andeq	r2, r1, r5, lsl #10
    1fb8:	07020200 	streq	r0, [r2, -r0, lsl #4]
    1fbc:	0000000e 	andeq	r0, r0, lr
    1fc0:	05050402 	streq	r0, [r5, #-1026]	; 0xfffffbfe
    1fc4:	02000000 	andeq	r0, r0, #0
    1fc8:	00660704 	rsbeq	r0, r6, r4, lsl #14
    1fcc:	08020000 	stmdaeq	r2, {}	; <UNPREDICTABLE>
    1fd0:	00000005 	andeq	r0, r0, r5
    1fd4:	07080200 	streq	r0, [r8, -r0, lsl #4]
    1fd8:	00000061 	andeq	r0, r0, r1, rrx
    1fdc:	00043904 	andeq	r3, r4, r4, lsl #18
    1fe0:	2c070200 	sfmcs	f0, 4, [r7], {-0}
    1fe4:	04000000 	streq	r0, [r0], #-0
    1fe8:	00000417 	andeq	r0, r0, r7, lsl r4
    1fec:	004f1003 	subeq	r1, pc, r3
    1ff0:	fa040000 	blx	101ff8 <__Main_Stack_Size+0x101bf8>
    1ff4:	03000004 	movweq	r0, #4
    1ff8:	00004f27 	andeq	r4, r0, r7, lsr #30
    1ffc:	03ad0500 			; <UNDEFINED> instruction: 0x03ad0500
    2000:	61040000 	mrsvs	r0, (UNDEF: 4)
    2004:	00002501 	andeq	r2, r0, r1, lsl #10
    2008:	03040600 	movweq	r0, #17920	; 0x4600
    200c:	0000b74a 	andeq	fp, r0, sl, asr #14
    2010:	03a70700 			; <UNDEFINED> instruction: 0x03a70700
    2014:	4c030000 	stcmi	0, cr0, [r3], {-0}
    2018:	0000008c 	andeq	r0, r0, ip, lsl #1
    201c:	00035907 	andeq	r5, r3, r7, lsl #18
    2020:	b74d0300 	strblt	r0, [sp, -r0, lsl #6]
    2024:	00000000 	andeq	r0, r0, r0
    2028:	00003a08 	andeq	r3, r0, r8, lsl #20
    202c:	0000c700 	andeq	ip, r0, r0, lsl #14
    2030:	00c70900 	sbceq	r0, r7, r0, lsl #18
    2034:	00030000 	andeq	r0, r3, r0
    2038:	ff070402 			; <UNDEFINED> instruction: 0xff070402
    203c:	0a000001 	beq	2048 <__Main_Stack_Size+0x1c48>
    2040:	ef470308 	svc	0x00470308
    2044:	0b000000 	bleq	204c <__Main_Stack_Size+0x1c4c>
    2048:	000004e4 	andeq	r0, r0, r4, ror #9
    204c:	002c4903 	eoreq	r4, ip, r3, lsl #18
    2050:	0b000000 	bleq	2058 <__Main_Stack_Size+0x1c58>
    2054:	000004ec 	andeq	r0, r0, ip, ror #9
    2058:	00984e03 	addseq	r4, r8, r3, lsl #28
    205c:	00040000 	andeq	r0, r4, r0
    2060:	00047704 	andeq	r7, r4, r4, lsl #14
    2064:	ce4f0300 	cdpgt	3, 4, cr0, cr15, cr0, {0}
    2068:	04000000 	streq	r0, [r0], #-0
    206c:	0000031c 	andeq	r0, r0, ip, lsl r3
    2070:	006b5303 	rsbeq	r5, fp, r3, lsl #6
    2074:	040c0000 	streq	r0, [ip], #-0
    2078:	00052c04 	andeq	r2, r5, r4, lsl #24
    207c:	56160500 	ldrpl	r0, [r6], -r0, lsl #10
    2080:	0d000000 	stceq	0, cr0, [r0, #-0]
    2084:	0000032d 	andeq	r0, r0, sp, lsr #6
    2088:	652d0518 	strvs	r0, [sp, #-1304]!	; 0xfffffae8
    208c:	0b000001 	bleq	2098 <__Main_Stack_Size+0x1c98>
    2090:	00000498 	muleq	r0, r8, r4
    2094:	01652f05 	cmneq	r5, r5, lsl #30
    2098:	0e000000 	cdpeq	0, 0, cr0, cr0, cr0, {0}
    209c:	05006b5f 	streq	r6, [r0, #-2911]	; 0xfffff4a1
    20a0:	00002c30 	andeq	r2, r0, r0, lsr ip
    20a4:	cf0b0400 	svcgt	0x000b0400
    20a8:	05000004 	streq	r0, [r0, #-4]
    20ac:	00002c30 	andeq	r2, r0, r0, lsr ip
    20b0:	160b0800 	strne	r0, [fp], -r0, lsl #16
    20b4:	05000003 	streq	r0, [r0, #-3]
    20b8:	00002c30 	andeq	r2, r0, r0, lsr ip
    20bc:	780b0c00 	stmdavc	fp, {sl, fp}
    20c0:	05000005 	streq	r0, [r0, #-5]
    20c4:	00002c30 	andeq	r2, r0, r0, lsr ip
    20c8:	5f0e1000 	svcpl	0x000e1000
    20cc:	31050078 	tstcc	r5, r8, ror r0
    20d0:	0000016b 	andeq	r0, r0, fp, ror #2
    20d4:	040f0014 	streq	r0, [pc], #-20	; 20dc <__Main_Stack_Size+0x1cdc>
    20d8:	00000112 	andeq	r0, r0, r2, lsl r1
    20dc:	00010708 	andeq	r0, r1, r8, lsl #14
    20e0:	00017b00 	andeq	r7, r1, r0, lsl #22
    20e4:	00c70900 	sbceq	r0, r7, r0, lsl #18
    20e8:	00000000 	andeq	r0, r0, r0
    20ec:	0003540d 	andeq	r5, r3, sp, lsl #8
    20f0:	35052400 	strcc	r2, [r5, #-1024]	; 0xfffffc00
    20f4:	000001f4 	strdeq	r0, [r0], -r4
    20f8:	0002730b 	andeq	r7, r2, fp, lsl #6
    20fc:	2c370500 	cfldr32cs	mvfx0, [r7], #-0
    2100:	00000000 	andeq	r0, r0, r0
    2104:	0005020b 	andeq	r0, r5, fp, lsl #4
    2108:	2c380500 	cfldr32cs	mvfx0, [r8], #-0
    210c:	04000000 	streq	r0, [r0], #-0
    2110:	00028e0b 	andeq	r8, r2, fp, lsl #28
    2114:	2c390500 	cfldr32cs	mvfx0, [r9], #-0
    2118:	08000000 	stmdaeq	r0, {}	; <UNPREDICTABLE>
    211c:	0005f10b 	andeq	pc, r5, fp, lsl #2
    2120:	2c3a0500 	cfldr32cs	mvfx0, [sl], #-0
    2124:	0c000000 	stceq	0, cr0, [r0], {-0}
    2128:	0004030b 	andeq	r0, r4, fp, lsl #6
    212c:	2c3b0500 	cfldr32cs	mvfx0, [fp], #-0
    2130:	10000000 	andne	r0, r0, r0
    2134:	0003c30b 	andeq	ip, r3, fp, lsl #6
    2138:	2c3c0500 	cfldr32cs	mvfx0, [ip], #-0
    213c:	14000000 	strne	r0, [r0], #-0
    2140:	00057d0b 	andeq	r7, r5, fp, lsl #26
    2144:	2c3d0500 	cfldr32cs	mvfx0, [sp], #-0
    2148:	18000000 	stmdane	r0, {}	; <UNPREDICTABLE>
    214c:	0004590b 	andeq	r5, r4, fp, lsl #18
    2150:	2c3e0500 	cfldr32cs	mvfx0, [lr], #-0
    2154:	1c000000 	stcne	0, cr0, [r0], {-0}
    2158:	0005b80b 	andeq	fp, r5, fp, lsl #16
    215c:	2c3f0500 	cfldr32cs	mvfx0, [pc], #-0	; 2164 <__Main_Stack_Size+0x1d64>
    2160:	20000000 	andcs	r0, r0, r0
    2164:	029d1000 	addseq	r1, sp, #0
    2168:	01080000 	mrseq	r0, (UNDEF: 8)
    216c:	02344805 	eorseq	r4, r4, #327680	; 0x50000
    2170:	090b0000 	stmdbeq	fp, {}	; <UNPREDICTABLE>
    2174:	05000003 	streq	r0, [r0, #-3]
    2178:	00023449 	andeq	r3, r2, r9, asr #8
    217c:	080b0000 	stmdaeq	fp, {}	; <UNPREDICTABLE>
    2180:	05000002 	streq	r0, [r0, #-2]
    2184:	0002344a 	andeq	r3, r2, sl, asr #8
    2188:	1e118000 	cdpne	0, 1, cr8, cr1, cr0, {0}
    218c:	05000005 	streq	r0, [r0, #-5]
    2190:	0001074c 	andeq	r0, r1, ip, asr #14
    2194:	11010000 	mrsne	r0, (UNDEF: 1)
    2198:	000002c2 	andeq	r0, r0, r2, asr #5
    219c:	01074f05 	tsteq	r7, r5, lsl #30
    21a0:	01040000 	mrseq	r0, (UNDEF: 4)
    21a4:	01050800 	tsteq	r5, r0, lsl #16
    21a8:	02440000 	subeq	r0, r4, #0
    21ac:	c7090000 	strgt	r0, [r9, -r0]
    21b0:	1f000000 	svcne	0x00000000
    21b4:	008a1000 	addeq	r1, sl, r0
    21b8:	01900000 	orrseq	r0, r0, r0
    21bc:	02825b05 	addeq	r5, r2, #5120	; 0x1400
    21c0:	980b0000 	stmdals	fp, {}	; <UNPREDICTABLE>
    21c4:	05000004 	streq	r0, [r0, #-4]
    21c8:	0002825c 	andeq	r8, r2, ip, asr r2
    21cc:	b00b0000 	andlt	r0, fp, r0
    21d0:	05000004 	streq	r0, [r0, #-4]
    21d4:	00002c5d 	andeq	r2, r0, sp, asr ip
    21d8:	110b0400 	tstne	fp, r0, lsl #8
    21dc:	05000003 	streq	r0, [r0, #-3]
    21e0:	0002885f 	andeq	r8, r2, pc, asr r8
    21e4:	9d0b0800 	stcls	8, cr0, [fp, #-0]
    21e8:	05000002 	streq	r0, [r0, #-2]
    21ec:	0001f460 	andeq	pc, r1, r0, ror #8
    21f0:	0f008800 	svceq	0x00008800
    21f4:	00024404 	andeq	r4, r2, r4, lsl #8
    21f8:	02980800 	addseq	r0, r8, #0, 16
    21fc:	02980000 	addseq	r0, r8, #0
    2200:	c7090000 	strgt	r0, [r9, -r0]
    2204:	1f000000 	svcne	0x00000000
    2208:	9e040f00 	cdpls	15, 0, cr0, cr4, cr0, {0}
    220c:	12000002 	andne	r0, r0, #2
    2210:	0004630d 	andeq	r6, r4, sp, lsl #6
    2214:	73050800 	movwvc	r0, #22528	; 0x5800
    2218:	000002c4 	andeq	r0, r0, r4, asr #5
    221c:	0002880b 	andeq	r8, r2, fp, lsl #16
    2220:	c4740500 	ldrbtgt	r0, [r4], #-1280	; 0xfffffb00
    2224:	00000002 	andeq	r0, r0, r2
    2228:	0002140b 	andeq	r1, r2, fp, lsl #8
    222c:	2c750500 	cfldr64cs	mvdx0, [r5], #-0
    2230:	04000000 	streq	r0, [r0], #-0
    2234:	3a040f00 	bcc	105e3c <__Main_Stack_Size+0x105a3c>
    2238:	0d000000 	stceq	0, cr0, [r0, #-0]
    223c:	00000482 	andeq	r0, r0, r2, lsl #9
    2240:	f4b30568 			; <UNDEFINED> instruction: 0xf4b30568
    2244:	0e000003 	cdpeq	0, 0, cr0, cr0, cr3, {0}
    2248:	0500705f 	streq	r7, [r0, #-95]	; 0xffffffa1
    224c:	0002c4b4 			; <UNDEFINED> instruction: 0x0002c4b4
    2250:	5f0e0000 	svcpl	0x000e0000
    2254:	b5050072 	strlt	r0, [r5, #-114]	; 0xffffff8e
    2258:	0000002c 	andeq	r0, r0, ip, lsr #32
    225c:	775f0e04 	ldrbvc	r0, [pc, -r4, lsl #28]
    2260:	2cb60500 	cfldr32cs	mvfx0, [r6]
    2264:	08000000 	stmdaeq	r0, {}	; <UNPREDICTABLE>
    2268:	0002bb0b 	andeq	fp, r2, fp, lsl #22
    226c:	41b70500 			; <UNDEFINED> instruction: 0x41b70500
    2270:	0c000000 	stceq	0, cr0, [r0], {-0}
    2274:	0003700b 	andeq	r7, r3, fp
    2278:	41b80500 			; <UNDEFINED> instruction: 0x41b80500
    227c:	0e000000 	cdpeq	0, 0, cr0, cr0, cr0, {0}
    2280:	66625f0e 	strbtvs	r5, [r2], -lr, lsl #30
    2284:	9fb90500 	svcls	0x00b90500
    2288:	10000002 	andne	r0, r0, r2
    228c:	00024d0b 	andeq	r4, r2, fp, lsl #26
    2290:	2cba0500 	cfldr32cs	mvfx0, [sl]
    2294:	18000000 	stmdane	r0, {}	; <UNPREDICTABLE>
    2298:	0002ab0b 	andeq	sl, r2, fp, lsl #22
    229c:	05c10500 	strbeq	r0, [r1, #1280]	; 0x500
    22a0:	1c000001 	stcne	0, cr0, [r0], {1}
    22a4:	0003440b 	andeq	r4, r3, fp, lsl #8
    22a8:	57c30500 	strbpl	r0, [r3, r0, lsl #10]
    22ac:	20000005 	andcs	r0, r0, r5
    22b0:	0003bc0b 	andeq	fp, r3, fp, lsl #24
    22b4:	86c50500 	strbhi	r0, [r5], r0, lsl #10
    22b8:	24000005 	strcs	r0, [r0], #-5
    22bc:	0004f40b 	andeq	pc, r4, fp, lsl #8
    22c0:	aac80500 	bge	ff2036c8 <_estack+0xdf1b36c8>
    22c4:	28000005 	stmdacs	r0, {r0, r2}
    22c8:	0005d20b 	andeq	sp, r5, fp, lsl #4
    22cc:	c4c90500 	strbgt	r0, [r9], #1280	; 0x500
    22d0:	2c000005 	stccs	0, cr0, [r0], {5}
    22d4:	62755f0e 	rsbsvs	r5, r5, #14, 30	; 0x38
    22d8:	9fcc0500 	svcls	0x00cc0500
    22dc:	30000002 	andcc	r0, r0, r2
    22e0:	70755f0e 	rsbsvc	r5, r5, lr, lsl #30
    22e4:	c4cd0500 	strbgt	r0, [sp], #1280	; 0x500
    22e8:	38000002 	stmdacc	r0, {r1}
    22ec:	72755f0e 	rsbsvc	r5, r5, #14, 30	; 0x38
    22f0:	2cce0500 	cfstr64cs	mvdx0, [lr], {0}
    22f4:	3c000000 	stccc	0, cr0, [r0], {-0}
    22f8:	0002820b 	andeq	r8, r2, fp, lsl #4
    22fc:	cad10500 	bgt	ff443704 <_estack+0xdf3f3704>
    2300:	40000005 	andmi	r0, r0, r5
    2304:	0005aa0b 	andeq	sl, r5, fp, lsl #20
    2308:	dad20500 	ble	ff483710 <_estack+0xdf433710>
    230c:	43000005 	movwmi	r0, #5
    2310:	626c5f0e 	rsbvs	r5, ip, #14, 30	; 0x38
    2314:	9fd50500 	svcls	0x00d50500
    2318:	44000002 	strmi	r0, [r0], #-2
    231c:	0002d10b 	andeq	sp, r2, fp, lsl #2
    2320:	2cd80500 	cfldr64cs	mvdx0, [r8], {0}
    2324:	4c000000 	stcmi	0, cr0, [r0], {-0}
    2328:	0002e20b 	andeq	lr, r2, fp, lsl #4
    232c:	76d90500 	ldrbvc	r0, [r9], r0, lsl #10
    2330:	50000000 	andpl	r0, r0, r0
    2334:	0006d30b 	andeq	sp, r6, fp, lsl #6
    2338:	12dc0500 	sbcsne	r0, ip, #0, 10
    233c:	54000004 	strpl	r0, [r0], #-4
    2340:	00095b0b 	andeq	r5, r9, fp, lsl #22
    2344:	fae00500 	blx	ff80374c <_estack+0xdf7b374c>
    2348:	58000000 	stmdapl	r0, {}	; <UNPREDICTABLE>
    234c:	00048a0b 	andeq	r8, r4, fp, lsl #20
    2350:	efe20500 	svc	0x00e20500
    2354:	5c000000 	stcpl	0, cr0, [r0], {-0}
    2358:	0003b40b 	andeq	fp, r3, fp, lsl #8
    235c:	2ce30500 	cfstr64cs	mvdx0, [r3]
    2360:	64000000 	strvs	r0, [r0], #-0
    2364:	002c1300 	eoreq	r1, ip, r0, lsl #6
    2368:	04120000 	ldreq	r0, [r2], #-0
    236c:	12140000 	andsne	r0, r4, #0
    2370:	14000004 	strne	r0, [r0], #-4
    2374:	00000105 	andeq	r0, r0, r5, lsl #2
    2378:	00054a14 	andeq	r4, r5, r4, lsl sl
    237c:	002c1400 	eoreq	r1, ip, r0, lsl #8
    2380:	0f000000 	svceq	0x00000000
    2384:	00041804 	andeq	r1, r4, r4, lsl #16
    2388:	04d71500 	ldrbeq	r1, [r7], #1280	; 0x500
    238c:	04280000 	strteq	r0, [r8], #-0
    2390:	4a023905 	bmi	907ac <__Main_Stack_Size+0x903ac>
    2394:	16000005 	strne	r0, [r0], -r5
    2398:	00000452 	andeq	r0, r0, r2, asr r4
    239c:	2c023b05 	stccs	11, cr3, [r2], {5}
    23a0:	00000000 	andeq	r0, r0, r0
    23a4:	0002ca16 	andeq	ip, r2, r6, lsl sl
    23a8:	02400500 	subeq	r0, r0, #0, 10
    23ac:	00000631 	andeq	r0, r0, r1, lsr r6
    23b0:	03601604 	cmneq	r0, #4, 12	; 0x400000
    23b4:	40050000 	andmi	r0, r5, r0
    23b8:	00063102 	andeq	r3, r6, r2, lsl #2
    23bc:	25160800 	ldrcs	r0, [r6, #-2048]	; 0xfffff800
    23c0:	05000003 	streq	r0, [r0, #-3]
    23c4:	06310240 	ldrteq	r0, [r1], -r0, asr #4
    23c8:	160c0000 	strne	r0, [ip], -r0
    23cc:	000004ab 	andeq	r0, r0, fp, lsr #9
    23d0:	2c024205 	sfmcs	f4, 4, [r2], {5}
    23d4:	10000000 	andne	r0, r0, r0
    23d8:	00022216 	andeq	r2, r2, r6, lsl r2
    23dc:	02430500 	subeq	r0, r3, #0, 10
    23e0:	00000813 	andeq	r0, r0, r3, lsl r8
    23e4:	05541614 	ldrbeq	r1, [r4, #-1556]	; 0xfffff9ec
    23e8:	45050000 	strmi	r0, [r5, #-0]
    23ec:	00002c02 	andeq	r2, r0, r2, lsl #24
    23f0:	b5163000 	ldrlt	r3, [r6, #-0]
    23f4:	05000004 	streq	r0, [r0, #-4]
    23f8:	057b0246 	ldrbeq	r0, [fp, #-582]!	; 0xfffffdba
    23fc:	16340000 	ldrtne	r0, [r4], -r0
    2400:	0000040c 	andeq	r0, r0, ip, lsl #8
    2404:	2c024805 	stccs	8, cr4, [r2], {5}
    2408:	38000000 	stmdacc	r0, {}	; <UNPREDICTABLE>
    240c:	0004c516 	andeq	ip, r4, r6, lsl r5
    2410:	024a0500 	subeq	r0, sl, #0, 10
    2414:	0000082e 	andeq	r0, r0, lr, lsr #16
    2418:	039f163c 	orrseq	r1, pc, #60, 12	; 0x3c00000
    241c:	4d050000 	stcmi	0, cr0, [r5, #-0]
    2420:	00016502 	andeq	r6, r1, r2, lsl #10
    2424:	4a164000 	bmi	59242c <__Main_Stack_Size+0x59202c>
    2428:	05000003 	streq	r0, [r0, #-3]
    242c:	002c024e 	eoreq	r0, ip, lr, asr #4
    2430:	16440000 	strbne	r0, [r4], -r0
    2434:	000005ec 	andeq	r0, r0, ip, ror #11
    2438:	65024f05 	strvs	r4, [r2, #-3845]	; 0xfffff0fb
    243c:	48000001 	stmdami	r0, {r0}
    2440:	00042f16 	andeq	r2, r4, r6, lsl pc
    2444:	02500500 	subseq	r0, r0, #0, 10
    2448:	00000834 	andeq	r0, r0, r4, lsr r8
    244c:	0368164c 	cmneq	r8, #76, 12	; 0x4c00000
    2450:	53050000 	movwpl	r0, #20480	; 0x5000
    2454:	00002c02 	andeq	r2, r0, r2, lsl #24
    2458:	da165000 	ble	596460 <__Main_Stack_Size+0x596060>
    245c:	05000002 	streq	r0, [r0, #-2]
    2460:	054a0254 	strbeq	r0, [sl, #-596]	; 0xfffffdac
    2464:	16540000 	ldrbne	r0, [r4], -r0
    2468:	0000044b 	andeq	r0, r0, fp, asr #8
    246c:	f1027705 			; <UNDEFINED> instruction: 0xf1027705
    2470:	58000007 	stmdapl	r0, {r0, r1, r2}
    2474:	00008a17 	andeq	r8, r0, r7, lsl sl
    2478:	027b0500 	rsbseq	r0, fp, #0, 10
    247c:	00000282 	andeq	r0, r0, r2, lsl #5
    2480:	7d170148 	ldfvcs	f0, [r7, #-288]	; 0xfffffee0
    2484:	05000003 	streq	r0, [r0, #-3]
    2488:	0244027c 	subeq	r0, r4, #124, 4	; 0xc0000007
    248c:	014c0000 	mrseq	r0, (UNDEF: 76)
    2490:	0005a017 	andeq	sl, r5, r7, lsl r0
    2494:	02800500 	addeq	r0, r0, #0, 10
    2498:	00000845 	andeq	r0, r0, r5, asr #16
    249c:	b31702dc 	tstlt	r7, #220, 4	; 0xc000000d
    24a0:	05000002 	streq	r0, [r0, #-2]
    24a4:	05f60285 	ldrbeq	r0, [r6, #645]!	; 0x285
    24a8:	02e00000 	rsceq	r0, r0, #0
    24ac:	00029817 	andeq	r9, r2, r7, lsl r8
    24b0:	02860500 	addeq	r0, r6, #0, 10
    24b4:	00000851 	andeq	r0, r0, r1, asr r8
    24b8:	0f0002ec 	svceq	0x000002ec
    24bc:	00055004 	andeq	r5, r5, r4
    24c0:	08010200 	stmdaeq	r1, {r9}
    24c4:	00000081 	andeq	r0, r0, r1, lsl #1
    24c8:	03f4040f 	mvnseq	r0, #251658240	; 0xf000000
    24cc:	2c130000 	ldccs	0, cr0, [r3], {-0}
    24d0:	7b000000 	blvc	24d8 <__Main_Stack_Size+0x20d8>
    24d4:	14000005 	strne	r0, [r0], #-5
    24d8:	00000412 	andeq	r0, r0, r2, lsl r4
    24dc:	00010514 	andeq	r0, r1, r4, lsl r5
    24e0:	057b1400 	ldrbeq	r1, [fp, #-1024]!	; 0xfffffc00
    24e4:	2c140000 	ldccs	0, cr0, [r4], {-0}
    24e8:	00000000 	andeq	r0, r0, r0
    24ec:	0581040f 	streq	r0, [r1, #1039]	; 0x40f
    24f0:	50180000 	andspl	r0, r8, r0
    24f4:	0f000005 	svceq	0x00000005
    24f8:	00055d04 	andeq	r5, r5, r4, lsl #26
    24fc:	00811300 	addeq	r1, r1, r0, lsl #6
    2500:	05aa0000 	streq	r0, [sl, #0]!
    2504:	12140000 	andsne	r0, r4, #0
    2508:	14000004 	strne	r0, [r0], #-4
    250c:	00000105 	andeq	r0, r0, r5, lsl #2
    2510:	00008114 	andeq	r8, r0, r4, lsl r1
    2514:	002c1400 	eoreq	r1, ip, r0, lsl #8
    2518:	0f000000 	svceq	0x00000000
    251c:	00058c04 	andeq	r8, r5, r4, lsl #24
    2520:	002c1300 	eoreq	r1, ip, r0, lsl #6
    2524:	05c40000 	strbeq	r0, [r4]
    2528:	12140000 	andsne	r0, r4, #0
    252c:	14000004 	strne	r0, [r0], #-4
    2530:	00000105 	andeq	r0, r0, r5, lsl #2
    2534:	b0040f00 	andlt	r0, r4, r0, lsl #30
    2538:	08000005 	stmdaeq	r0, {r0, r2}
    253c:	0000003a 	andeq	r0, r0, sl, lsr r0
    2540:	000005da 	ldrdeq	r0, [r0], -sl
    2544:	0000c709 	andeq	ip, r0, r9, lsl #14
    2548:	08000200 	stmdaeq	r0, {r9}
    254c:	0000003a 	andeq	r0, r0, sl, lsr r0
    2550:	000005ea 	andeq	r0, r0, sl, ror #11
    2554:	0000c709 	andeq	ip, r0, r9, lsl #14
    2558:	05000000 	streq	r0, [r0, #-0]
    255c:	00000470 	andeq	r0, r0, r0, ror r4
    2560:	ca011d05 	bgt	4997c <__Main_Stack_Size+0x4957c>
    2564:	19000002 	stmdbne	r0, {r1}
    2568:	00000587 	andeq	r0, r0, r7, lsl #11
    256c:	0121050c 			; <UNDEFINED> instruction: 0x0121050c
    2570:	0000062b 	andeq	r0, r0, fp, lsr #12
    2574:	00049816 	andeq	r9, r4, r6, lsl r8
    2578:	01230500 			; <UNDEFINED> instruction: 0x01230500
    257c:	0000062b 	andeq	r0, r0, fp, lsr #12
    2580:	03761600 	cmneq	r6, #0, 12
    2584:	24050000 	strcs	r0, [r5], #-0
    2588:	00002c01 	andeq	r2, r0, r1, lsl #24
    258c:	6a160400 	bvs	583594 <__Main_Stack_Size+0x583194>
    2590:	05000004 	streq	r0, [r0, #-4]
    2594:	06310125 	ldrteq	r0, [r1], -r5, lsr #2
    2598:	00080000 	andeq	r0, r8, r0
    259c:	05f6040f 	ldrbeq	r0, [r6, #1039]!	; 0x40f
    25a0:	040f0000 	streq	r0, [pc], #-0	; 25a8 <__Main_Stack_Size+0x21a8>
    25a4:	000005ea 	andeq	r0, r0, sl, ror #11
    25a8:	00021a19 	andeq	r1, r2, r9, lsl sl
    25ac:	3d050e00 	stccc	14, cr0, [r5, #-0]
    25b0:	00066c01 	andeq	r6, r6, r1, lsl #24
    25b4:	04de1600 	ldrbeq	r1, [lr], #1536	; 0x600
    25b8:	3e050000 	cdpcc	0, 0, cr0, cr5, cr0, {0}
    25bc:	00066c01 	andeq	r6, r6, r1, lsl #24
    25c0:	0b160000 	bleq	5825c8 <__Main_Stack_Size+0x5821c8>
    25c4:	05000005 	streq	r0, [r0, #-5]
    25c8:	066c013f 			; <UNDEFINED> instruction: 0x066c013f
    25cc:	16060000 	strne	r0, [r6], -r0
    25d0:	00000527 	andeq	r0, r0, r7, lsr #10
    25d4:	48014005 	stmdami	r1, {r0, r2, lr}
    25d8:	0c000000 	stceq	0, cr0, [r0], {-0}
    25dc:	00480800 	subeq	r0, r8, r0, lsl #16
    25e0:	067c0000 	ldrbteq	r0, [ip], -r0
    25e4:	c7090000 	strgt	r0, [r9, -r0]
    25e8:	02000000 	andeq	r0, r0, #0
    25ec:	05d01a00 	ldrbeq	r1, [r0, #2560]	; 0xa00
    25f0:	077d0258 			; <UNDEFINED> instruction: 0x077d0258
    25f4:	6b160000 	blvs	5825fc <__Main_Stack_Size+0x5821fc>
    25f8:	05000005 	streq	r0, [r0, #-5]
    25fc:	0025025a 	eoreq	r0, r5, sl, asr r2
    2600:	16000000 	strne	r0, [r0], -r0
    2604:	00000511 	andeq	r0, r0, r1, lsl r5
    2608:	4a025b05 	bmi	99224 <__Main_Stack_Size+0x98e24>
    260c:	04000005 	streq	r0, [r0], #-5
    2610:	00039216 	andeq	r9, r3, r6, lsl r2
    2614:	025c0500 	subseq	r0, ip, #0, 10
    2618:	0000077d 	andeq	r0, r0, sp, ror r7
    261c:	05c31608 	strbeq	r1, [r3, #1544]	; 0x608
    2620:	5d050000 	stcpl	0, cr0, [r5, #-0]
    2624:	00017b02 	andeq	r7, r1, r2, lsl #22
    2628:	35162400 	ldrcc	r2, [r6, #-1024]	; 0xfffffc00
    262c:	05000003 	streq	r0, [r0, #-3]
    2630:	002c025e 	eoreq	r0, ip, lr, asr r2
    2634:	16480000 	strbne	r0, [r8], -r0
    2638:	00000493 	muleq	r0, r3, r4
    263c:	64025f05 	strvs	r5, [r2], #-3845	; 0xfffff0fb
    2640:	50000000 	andpl	r0, r0, r0
    2644:	0005d916 	andeq	sp, r5, r6, lsl r9
    2648:	02600500 	rsbeq	r0, r0, #0, 10
    264c:	00000637 	andeq	r0, r0, r7, lsr r6
    2650:	049e1658 	ldreq	r1, [lr], #1624	; 0x658
    2654:	61050000 	mrsvs	r0, (UNDEF: 5)
    2658:	0000ef02 	andeq	lr, r0, r2, lsl #30
    265c:	de166800 	cdple	8, 1, cr6, cr6, cr0, {0}
    2660:	05000005 	streq	r0, [r0, #-5]
    2664:	00ef0262 	rsceq	r0, pc, r2, ror #4
    2668:	16700000 	ldrbtne	r0, [r0], -r0
    266c:	00000265 	andeq	r0, r0, r5, ror #4
    2670:	ef026305 	svc	0x00026305
    2674:	78000000 	stmdavc	r0, {}	; <UNPREDICTABLE>
    2678:	00059616 	andeq	r9, r5, r6, lsl r6
    267c:	02640500 	rsbeq	r0, r4, #0, 10
    2680:	0000078d 	andeq	r0, r0, sp, lsl #15
    2684:	03861680 	orreq	r1, r6, #128, 12	; 0x8000000
    2688:	65050000 	strvs	r0, [r5, #-0]
    268c:	00079d02 	andeq	r9, r7, r2, lsl #26
    2690:	34168800 	ldrcc	r8, [r6], #-2048	; 0xfffff800
    2694:	05000005 	streq	r0, [r0, #-5]
    2698:	002c0266 	eoreq	r0, ip, r6, ror #4
    269c:	16a00000 	strtne	r0, [r0], r0
    26a0:	000002fb 	strdeq	r0, [r0], -fp
    26a4:	ef026705 	svc	0x00026705
    26a8:	a4000000 	strge	r0, [r0], #-0
    26ac:	00025616 	andeq	r5, r2, r6, lsl r6
    26b0:	02680500 	rsbeq	r0, r8, #0, 10
    26b4:	000000ef 	andeq	r0, r0, pc, ror #1
    26b8:	02ea16ac 	rsceq	r1, sl, #172, 12	; 0xac00000
    26bc:	69050000 	stmdbvs	r5, {}	; <UNPREDICTABLE>
    26c0:	0000ef02 	andeq	lr, r0, r2, lsl #30
    26c4:	2d16b400 	cfldrscs	mvf11, [r6, #-0]
    26c8:	05000002 	streq	r0, [r0, #-2]
    26cc:	00ef026a 	rsceq	r0, pc, sl, ror #4
    26d0:	16bc0000 	ldrtne	r0, [ip], r0
    26d4:	0000023c 	andeq	r0, r0, ip, lsr r2
    26d8:	ef026b05 	svc	0x00026b05
    26dc:	c4000000 	strgt	r0, [r0], #-0
    26e0:	00045016 	andeq	r5, r4, r6, lsl r0
    26e4:	026c0500 	rsbeq	r0, ip, #0, 10
    26e8:	0000002c 	andeq	r0, r0, ip, lsr #32
    26ec:	500800cc 	andpl	r0, r8, ip, asr #1
    26f0:	8d000005 	stchi	0, cr0, [r0, #-20]	; 0xffffffec
    26f4:	09000007 	stmdbeq	r0, {r0, r1, r2}
    26f8:	000000c7 	andeq	r0, r0, r7, asr #1
    26fc:	50080019 	andpl	r0, r8, r9, lsl r0
    2700:	9d000005 	stcls	0, cr0, [r0, #-20]	; 0xffffffec
    2704:	09000007 	stmdbeq	r0, {r0, r1, r2}
    2708:	000000c7 	andeq	r0, r0, r7, asr #1
    270c:	50080007 	andpl	r0, r8, r7
    2710:	ad000005 	stcge	0, cr0, [r0, #-20]	; 0xffffffec
    2714:	09000007 	stmdbeq	r0, {r0, r1, r2}
    2718:	000000c7 	andeq	r0, r0, r7, asr #1
    271c:	f01a0017 			; <UNDEFINED> instruction: 0xf01a0017
    2720:	d1027105 	tstle	r2, r5, lsl #2
    2724:	16000007 	strne	r0, [r0], -r7
    2728:	000003fc 	strdeq	r0, [r0], -ip
    272c:	d1027405 	tstle	r2, r5, lsl #8
    2730:	00000007 	andeq	r0, r0, r7
    2734:	00058d16 	andeq	r8, r5, r6, lsl sp
    2738:	02750500 	rsbseq	r0, r5, #0, 10
    273c:	000007e1 	andeq	r0, r0, r1, ror #15
    2740:	c4080078 	strgt	r0, [r8], #-120	; 0xffffff88
    2744:	e1000002 	tst	r0, r2
    2748:	09000007 	stmdbeq	r0, {r0, r1, r2}
    274c:	000000c7 	andeq	r0, r0, r7, asr #1
    2750:	2508001d 	strcs	r0, [r8, #-29]	; 0xffffffe3
    2754:	f1000000 	cps	#0
    2758:	09000007 	stmdbeq	r0, {r0, r1, r2}
    275c:	000000c7 	andeq	r0, r0, r7, asr #1
    2760:	f01b001d 			; <UNDEFINED> instruction: 0xf01b001d
    2764:	13025605 	movwne	r5, #9733	; 0x2605
    2768:	1c000008 	stcne	0, cr0, [r0], {8}
    276c:	000004d7 	ldrdeq	r0, [r0], -r7
    2770:	7c026d05 	stcvc	13, cr6, [r2], {5}
    2774:	1c000006 	stcne	0, cr0, [r0], {6}
    2778:	000005b0 			; <UNDEFINED> instruction: 0x000005b0
    277c:	ad027605 	stcge	6, cr7, [r2, #-20]	; 0xffffffec
    2780:	00000007 	andeq	r0, r0, r7
    2784:	00055008 	andeq	r5, r5, r8
    2788:	00082300 	andeq	r2, r8, r0, lsl #6
    278c:	00c70900 	sbceq	r0, r7, r0, lsl #18
    2790:	00180000 	andseq	r0, r8, r0
    2794:	00082e1d 	andeq	r2, r8, sp, lsl lr
    2798:	04121400 	ldreq	r1, [r2], #-1024	; 0xfffffc00
    279c:	0f000000 	svceq	0x00000000
    27a0:	00082304 	andeq	r2, r8, r4, lsl #6
    27a4:	65040f00 	strvs	r0, [r4, #-3840]	; 0xfffff100
    27a8:	1d000001 	stcne	0, cr0, [r0, #-4]
    27ac:	00000845 	andeq	r0, r0, r5, asr #16
    27b0:	00002c14 	andeq	r2, r0, r4, lsl ip
    27b4:	040f0000 	streq	r0, [pc], #-0	; 27bc <__Main_Stack_Size+0x23bc>
    27b8:	0000084b 	andeq	r0, r0, fp, asr #16
    27bc:	083a040f 	ldmdaeq	sl!, {r0, r1, r2, r3, sl}
    27c0:	ea080000 	b	2027c8 <__Main_Stack_Size+0x2023c8>
    27c4:	61000005 	tstvs	r0, r5
    27c8:	09000008 	stmdbeq	r0, {r3}
    27cc:	000000c7 	andeq	r0, r0, r7, asr #1
    27d0:	391e0002 	ldmdbcc	lr, {r1}
    27d4:	01000009 	tsteq	r0, r9
    27d8:	0010782d 	andseq	r7, r0, sp, lsr #16
    27dc:	00001408 	andeq	r1, r0, r8, lsl #8
    27e0:	919c0100 	orrsls	r0, ip, r0, lsl #2
    27e4:	1f000008 	svcne	0x00000008
    27e8:	0800107c 	stmdaeq	r0, {r2, r3, r4, r5, r6, ip}
    27ec:	00000010 	andeq	r0, r0, r0, lsl r0
    27f0:	00062620 	andeq	r2, r6, r0, lsr #12
    27f4:	21310100 	teqcs	r1, r0, lsl #2
    27f8:	08001082 	stmdaeq	r0, {r1, r7, ip}
    27fc:	00000986 	andeq	r0, r0, r6, lsl #19
    2800:	1e220000 	cdpne	0, 2, cr0, cr2, cr0, {0}
    2804:	01000004 	tsteq	r0, r4
    2808:	00108c42 	andseq	r8, r0, r2, asr #24
    280c:	0000d408 	andeq	sp, r0, r8, lsl #8
    2810:	529c0100 	addspl	r0, ip, #0, 2
    2814:	23000009 	movwcs	r0, #9
    2818:	00000566 	andeq	r0, r0, r6, ror #10
    281c:	002c4201 	eoreq	r4, ip, r1, lsl #4
    2820:	04990000 	ldreq	r0, [r9], #0
    2824:	64240000 	strtvs	r0, [r4], #-0
    2828:	05420100 	strbeq	r0, [r2, #-256]	; 0xffffff00
    282c:	b7000001 	strlt	r0, [r0, -r1]
    2830:	25000004 	strcs	r0, [r0, #-4]
    2834:	45010070 	strmi	r0, [r1, #-112]	; 0xffffff90
    2838:	00000282 	andeq	r0, r0, r2, lsl #5
    283c:	000004d5 	ldrdeq	r0, [r0], -r5
    2840:	00092b26 	andeq	r2, r9, r6, lsr #22
    2844:	52460100 	subpl	r0, r6, #0, 2
    2848:	f3000009 	vhadd.u8	d0, d0, d9
    284c:	26000004 	strcs	r0, [r0], -r4
    2850:	000002a6 	andeq	r0, r0, r6, lsr #5
    2854:	09584701 	ldmdbeq	r8, {r0, r8, r9, sl, lr}^
    2858:	05110000 	ldreq	r0, [r1, #-0]
    285c:	6e250000 	cdpvs	0, 2, cr0, cr5, cr0, {0}
    2860:	2c480100 	stfcse	f0, [r8], {-0}
    2864:	43000000 	movwmi	r0, #0
    2868:	25000005 	strcs	r0, [r0, #-5]
    286c:	49010069 	stmdbmi	r1, {r0, r3, r5, r6}
    2870:	0000002c 	andeq	r0, r0, ip, lsr #32
    2874:	0000056e 	andeq	r0, r0, lr, ror #10
    2878:	006e6625 	rsbeq	r6, lr, r5, lsr #12
    287c:	02984a01 	addseq	r4, r8, #4096	; 0x1000
    2880:	05a30000 	streq	r0, [r3, #0]!
    2884:	31270000 			; <UNDEFINED> instruction: 0x31270000
    2888:	01000009 	tsteq	r0, r9
    288c:	00602851 	rsbeq	r2, r0, r1, asr r8
    2890:	09410000 	stmdbeq	r1, {}^	; <UNPREDICTABLE>
    2894:	69250000 	stmdbvs	r5!, {}	; <UNPREDICTABLE>
    2898:	0100646e 	tsteq	r0, lr, ror #8
    289c:	00002c5e 	andeq	r2, r0, lr, asr ip
    28a0:	0005cc00 	andeq	ip, r5, r0, lsl #24
    28a4:	11402900 	cmpne	r0, r0, lsl #18
    28a8:	012a0800 			; <UNDEFINED> instruction: 0x012a0800
    28ac:	00790250 	rsbseq	r0, r9, r0, asr r2
    28b0:	ec2b0000 	stc	0, cr0, [fp], #-0
    28b4:	9b080010 	blls	2028fc <__Main_Stack_Size+0x2024fc>
    28b8:	2a000009 	bcs	28e4 <__Main_Stack_Size+0x24e4>
    28bc:	77025001 	strvc	r5, [r2, -r1]
    28c0:	0f000000 	svceq	0x00000000
    28c4:	00028204 	andeq	r8, r2, r4, lsl #4
    28c8:	f4040f00 			; <UNDEFINED> instruction: 0xf4040f00
    28cc:	2c000001 	stccs	0, cr0, [r0], {1}
    28d0:	00000953 	andeq	r0, r0, r3, asr r9
    28d4:	002c0e01 	eoreq	r0, ip, r1, lsl #28
    28d8:	2d000000 	stccs	0, cr0, [r0, #-0]
    28dc:	00000541 	andeq	r0, r0, r1, asr #10
    28e0:	7602fb05 	strvc	pc, [r2], -r5, lsl #22
    28e4:	18000009 	stmdane	r0, {r0, r3}
    28e8:	00000412 	andeq	r0, r0, r2, lsl r4
    28ec:	0009472e 	andeq	r4, r9, lr, lsr #14
    28f0:	50240100 	eorpl	r0, r4, r0, lsl #2
    28f4:	2f000005 	svccs	0x00000005
    28f8:	0000008b 	andeq	r0, r0, fp, lsl #1
    28fc:	002c4506 	eoreq	r4, ip, r6, lsl #10
    2900:	099b0000 	ldmibeq	fp, {}	; <UNPREDICTABLE>
    2904:	98140000 	ldmdals	r4, {}	; <UNPREDICTABLE>
    2908:	00000002 	andeq	r0, r0, r2
    290c:	0008ee30 	andeq	lr, r8, r0, lsr lr
    2910:	14560600 	ldrbne	r0, [r6], #-1536	; 0xfffffa00
    2914:	00000105 	andeq	r0, r0, r5, lsl #2
    2918:	00540000 	subseq	r0, r4, r0
    291c:	00040000 	andeq	r0, r4, r0
    2920:	00000adc 	ldrdeq	r0, [r0], -ip
    2924:	09f60104 	ldmibeq	r6!, {r2, r8}^
    2928:	ca010000 	bgt	42930 <__Main_Stack_Size+0x42530>
    292c:	61000009 	tstvs	r0, r9
    2930:	90000009 	andls	r0, r0, r9
    2934:	00000000 	andeq	r0, r0, r0
    2938:	7f000000 	svcvc	0x00000000
    293c:	02000009 	andeq	r0, r0, #9
    2940:	0000027c 	andeq	r0, r0, ip, ror r2
    2944:	11600901 	cmnne	r0, r1, lsl #18
    2948:	00020800 	andeq	r0, r2, r0, lsl #16
    294c:	9c010000 	stcls	0, cr0, [r1], {-0}
    2950:	00000050 	andeq	r0, r0, r0, asr r0
    2954:	00637203 	rsbeq	r7, r3, r3, lsl #4
    2958:	00500901 	subseq	r0, r0, r1, lsl #18
    295c:	50010000 	andpl	r0, r1, r0
    2960:	01007804 	tsteq	r0, r4, lsl #16
    2964:	0000500d 	andeq	r5, r0, sp
    2968:	04050000 	streq	r0, [r5], #-0
    296c:	746e6905 	strbtvc	r6, [lr], #-2309	; 0xfffff6fb
    2970:	Address 0x0000000000002970 is out of bounds.


Disassembly of section .debug_abbrev:

00000000 <.debug_abbrev>:
   0:	10001101 	andne	r1, r0, r1, lsl #2
   4:	12011106 	andne	r1, r1, #-2147483647	; 0x80000001
   8:	1b080301 	blne	200c14 <__Main_Stack_Size+0x200814>
   c:	13082508 	movwne	r2, #34056	; 0x8508
  10:	00000005 	andeq	r0, r0, r5
  14:	25011101 	strcs	r1, [r1, #-257]	; 0xfffffeff
  18:	030b130e 	movweq	r1, #45838	; 0xb30e
  1c:	550e1b0e 	strpl	r1, [lr, #-2830]	; 0xfffff4f2
  20:	10011117 	andne	r1, r1, r7, lsl r1
  24:	02000017 	andeq	r0, r0, #23
  28:	0b0b0024 	bleq	2c00c0 <__Main_Stack_Size+0x2bfcc0>
  2c:	0e030b3e 	vmoveq.16	d3[0], r0
  30:	24030000 	strcs	r0, [r3], #-0
  34:	3e0b0b00 	vmlacc.f64	d0, d11, d0
  38:	0008030b 	andeq	r0, r8, fp, lsl #6
  3c:	000f0400 	andeq	r0, pc, r0, lsl #8
  40:	00000b0b 	andeq	r0, r0, fp, lsl #22
  44:	0b000f05 	bleq	3c60 <__Main_Stack_Size+0x3860>
  48:	0013490b 	andseq	r4, r3, fp, lsl #18
  4c:	00150600 	andseq	r0, r5, r0, lsl #12
  50:	00001927 	andeq	r1, r0, r7, lsr #18
  54:	03010407 	movweq	r0, #5127	; 0x1407
  58:	3a0b0b0e 	bcc	2c2c98 <__Main_Stack_Size+0x2c2898>
  5c:	010b3b0b 	tsteq	fp, fp, lsl #22
  60:	08000013 	stmdaeq	r0, {r0, r1, r4}
  64:	0e030028 	cdpeq	0, 0, cr0, cr3, cr8, {1}
  68:	00000d1c 	andeq	r0, r0, ip, lsl sp
  6c:	3f012e09 	svccc	0x00012e09
  70:	3a0e0319 	bcc	380cdc <__Main_Stack_Size+0x3808dc>
  74:	270b3b0b 	strcs	r3, [fp, -fp, lsl #22]
  78:	11134919 	tstne	r3, r9, lsl r9
  7c:	40061201 	andmi	r1, r6, r1, lsl #4
  80:	19429718 	stmdbne	r2, {r3, r4, r8, r9, sl, ip, pc}^
  84:	00001301 	andeq	r1, r0, r1, lsl #6
  88:	0300050a 	movweq	r0, #1290	; 0x50a
  8c:	3b0b3a08 	blcc	2ce8b4 <__Main_Stack_Size+0x2ce4b4>
  90:	0213490b 	andseq	r4, r3, #180224	; 0x2c000
  94:	0b000017 	bleq	f8 <_Minimum_Stack_Size-0x8>
  98:	01018289 	smlabbeq	r1, r9, r2, r8
  9c:	42950111 	addsmi	r0, r5, #1073741828	; 0x40000004
  a0:	00133119 	andseq	r3, r3, r9, lsl r1
  a4:	828a0c00 	addhi	r0, sl, #0, 24
  a8:	18020001 	stmdane	r2, {r0}
  ac:	00184291 	mulseq	r8, r1, r2
  b0:	012e0d00 			; <UNDEFINED> instruction: 0x012e0d00
  b4:	0e03193f 	mcreq	9, 0, r1, cr3, cr15, {1}
  b8:	0b3b0b3a 	bleq	ec2da8 <__Main_Stack_Size+0xec29a8>
  bc:	13491927 	movtne	r1, #39207	; 0x9927
  c0:	0000193c 	andeq	r1, r0, ip, lsr r9
  c4:	4900050e 	stmdbmi	r0, {r1, r2, r3, r8, sl}
  c8:	00000013 	andeq	r0, r0, r3, lsl r0
  cc:	25011101 	strcs	r1, [r1, #-257]	; 0xfffffeff
  d0:	030b130e 	movweq	r1, #45838	; 0xb30e
  d4:	550e1b0e 	strpl	r1, [lr, #-2830]	; 0xfffff4f2
  d8:	10011117 	andne	r1, r1, r7, lsl r1
  dc:	02000017 	andeq	r0, r0, #23
  e0:	0b0b0024 	bleq	2c0178 <__Main_Stack_Size+0x2bfd78>
  e4:	0e030b3e 	vmoveq.16	d3[0], r0
  e8:	24030000 	strcs	r0, [r3], #-0
  ec:	3e0b0b00 	vmlacc.f64	d0, d11, d0
  f0:	0008030b 	andeq	r0, r8, fp, lsl #6
  f4:	00160400 	andseq	r0, r6, r0, lsl #8
  f8:	0b3a0e03 	bleq	e8390c <__Main_Stack_Size+0xe8350c>
  fc:	13490b3b 	movtne	r0, #39739	; 0x9b3b
 100:	16050000 	strne	r0, [r5], -r0
 104:	3a0e0300 	bcc	380d0c <__Main_Stack_Size+0x38090c>
 108:	49053b0b 	stmdbmi	r5, {r0, r1, r3, r8, r9, fp, ip, sp}
 10c:	06000013 			; <UNDEFINED> instruction: 0x06000013
 110:	0b0b0117 	bleq	2c0574 <__Main_Stack_Size+0x2c0174>
 114:	0b3b0b3a 	bleq	ec2e04 <__Main_Stack_Size+0xec2a04>
 118:	00001301 	andeq	r1, r0, r1, lsl #6
 11c:	03000d07 	movweq	r0, #3335	; 0xd07
 120:	3b0b3a0e 	blcc	2ce960 <__Main_Stack_Size+0x2ce560>
 124:	0013490b 	andseq	r4, r3, fp, lsl #18
 128:	01010800 	tsteq	r1, r0, lsl #16
 12c:	13011349 	movwne	r1, #4937	; 0x1349
 130:	21090000 	mrscs	r0, (UNDEF: 9)
 134:	2f134900 	svccs	0x00134900
 138:	0a00000b 	beq	16c <_Minimum_Stack_Size+0x6c>
 13c:	0b0b0113 	bleq	2c0590 <__Main_Stack_Size+0x2c0190>
 140:	0b3b0b3a 	bleq	ec2e30 <__Main_Stack_Size+0xec2a30>
 144:	00001301 	andeq	r1, r0, r1, lsl #6
 148:	03000d0b 	movweq	r0, #3339	; 0xd0b
 14c:	3b0b3a0e 	blcc	2ce98c <__Main_Stack_Size+0x2ce58c>
 150:	3813490b 	ldmdacc	r3, {r0, r1, r3, r8, fp, lr}
 154:	0c00000b 	stceq	0, cr0, [r0], {11}
 158:	0b0b000f 	bleq	2c019c <__Main_Stack_Size+0x2bfd9c>
 15c:	130d0000 	movwne	r0, #53248	; 0xd000
 160:	0b0e0301 	bleq	380d6c <__Main_Stack_Size+0x38096c>
 164:	3b0b3a0b 	blcc	2ce998 <__Main_Stack_Size+0x2ce598>
 168:	0013010b 	andseq	r0, r3, fp, lsl #2
 16c:	000d0e00 	andeq	r0, sp, r0, lsl #28
 170:	0b3a0803 	bleq	e82184 <__Main_Stack_Size+0xe81d84>
 174:	13490b3b 	movtne	r0, #39739	; 0x9b3b
 178:	00000b38 	andeq	r0, r0, r8, lsr fp
 17c:	0b000f0f 	bleq	3dc0 <__Main_Stack_Size+0x39c0>
 180:	0013490b 	andseq	r4, r3, fp, lsl #18
 184:	01131000 	tsteq	r3, r0
 188:	050b0e03 	streq	r0, [fp, #-3587]	; 0xfffff1fd
 18c:	0b3b0b3a 	bleq	ec2e7c <__Main_Stack_Size+0xec2a7c>
 190:	00001301 	andeq	r1, r0, r1, lsl #6
 194:	03000d11 	movweq	r0, #3345	; 0xd11
 198:	3b0b3a0e 	blcc	2ce9d8 <__Main_Stack_Size+0x2ce5d8>
 19c:	3813490b 	ldmdacc	r3, {r0, r1, r3, r8, fp, lr}
 1a0:	12000005 	andne	r0, r0, #5
 1a4:	19270015 	stmdbne	r7!, {r0, r2, r4}
 1a8:	15130000 	ldrne	r0, [r3, #-0]
 1ac:	49192701 	ldmdbmi	r9, {r0, r8, r9, sl, sp}
 1b0:	00130113 	andseq	r0, r3, r3, lsl r1
 1b4:	00051400 	andeq	r1, r5, r0, lsl #8
 1b8:	00001349 	andeq	r1, r0, r9, asr #6
 1bc:	03011315 	movweq	r1, #4885	; 0x1315
 1c0:	3a050b0e 	bcc	142e00 <__Main_Stack_Size+0x142a00>
 1c4:	01053b0b 	tsteq	r5, fp, lsl #22
 1c8:	16000013 			; <UNDEFINED> instruction: 0x16000013
 1cc:	0e03000d 	cdpeq	0, 0, cr0, cr3, cr13, {0}
 1d0:	053b0b3a 	ldreq	r0, [fp, #-2874]!	; 0xfffff4c6
 1d4:	0b381349 	bleq	e04f00 <__Main_Stack_Size+0xe04b00>
 1d8:	0d170000 	ldceq	0, cr0, [r7, #-0]
 1dc:	3a0e0300 	bcc	380de4 <__Main_Stack_Size+0x3809e4>
 1e0:	49053b0b 	stmdbmi	r5, {r0, r1, r3, r8, r9, fp, ip, sp}
 1e4:	00053813 	andeq	r3, r5, r3, lsl r8
 1e8:	00261800 	eoreq	r1, r6, r0, lsl #16
 1ec:	00001349 	andeq	r1, r0, r9, asr #6
 1f0:	03011319 	movweq	r1, #4889	; 0x1319
 1f4:	3a0b0b0e 	bcc	2c2e34 <__Main_Stack_Size+0x2c2a34>
 1f8:	01053b0b 	tsteq	r5, fp, lsl #22
 1fc:	1a000013 	bne	250 <_Minimum_Stack_Size+0x150>
 200:	0b0b0113 	bleq	2c0654 <__Main_Stack_Size+0x2c0254>
 204:	053b0b3a 	ldreq	r0, [fp, #-2874]!	; 0xfffff4c6
 208:	00001301 	andeq	r1, r0, r1, lsl #6
 20c:	0b01171b 	bleq	45e80 <__Main_Stack_Size+0x45a80>
 210:	3b0b3a0b 	blcc	2cea44 <__Main_Stack_Size+0x2ce644>
 214:	00130105 	andseq	r0, r3, r5, lsl #2
 218:	000d1c00 	andeq	r1, sp, r0, lsl #24
 21c:	0b3a0e03 	bleq	e83a30 <__Main_Stack_Size+0xe83630>
 220:	1349053b 	movtne	r0, #38203	; 0x953b
 224:	151d0000 	ldrne	r0, [sp, #-0]
 228:	01192701 	tsteq	r9, r1, lsl #14
 22c:	1e000013 	mcrne	0, 0, r0, cr0, cr3, {0}
 230:	193f012e 	ldmdbne	pc!, {r1, r2, r3, r5, r8}	; <UNPREDICTABLE>
 234:	0b3a0e03 	bleq	e83a48 <__Main_Stack_Size+0xe83648>
 238:	19270b3b 	stmdbne	r7!, {r0, r1, r3, r4, r5, r8, r9, fp}
 23c:	06120111 			; <UNDEFINED> instruction: 0x06120111
 240:	42961840 	addsmi	r1, r6, #64, 16	; 0x400000
 244:	00130119 	andseq	r0, r3, r9, lsl r1
 248:	00051f00 	andeq	r1, r5, r0, lsl #30
 24c:	0b3a0e03 	bleq	e83a60 <__Main_Stack_Size+0xe83660>
 250:	13490b3b 	movtne	r0, #39739	; 0x9b3b
 254:	00001702 	andeq	r1, r0, r2, lsl #14
 258:	01828920 	orreq	r8, r2, r0, lsr #18
 25c:	31011101 	tstcc	r1, r1, lsl #2
 260:	00130113 	andseq	r0, r3, r3, lsl r1
 264:	828a2100 	addhi	r2, sl, #0, 2
 268:	18020001 	stmdane	r2, {r0}
 26c:	00184291 	mulseq	r8, r1, r2
 270:	82892200 	addhi	r2, r9, #0, 4
 274:	01110101 	tsteq	r1, r1, lsl #2
 278:	00001331 	andeq	r1, r0, r1, lsr r3
 27c:	03003423 	movweq	r3, #1059	; 0x423
 280:	3b0b3a0e 	blcc	2ceac0 <__Main_Stack_Size+0x2ce6c0>
 284:	3f134905 	svccc	0x00134905
 288:	00193c19 	andseq	r3, r9, r9, lsl ip
 28c:	012e2400 			; <UNDEFINED> instruction: 0x012e2400
 290:	0e03193f 	mcreq	9, 0, r1, cr3, cr15, {1}
 294:	0b3b0b3a 	bleq	ec2f84 <__Main_Stack_Size+0xec2b84>
 298:	193c1927 	ldmdbne	ip!, {r0, r1, r2, r5, r8, fp, ip}
 29c:	00001301 	andeq	r1, r0, r1, lsl #6
 2a0:	3f012e25 	svccc	0x00012e25
 2a4:	3a0e0319 	bcc	380f10 <__Main_Stack_Size+0x380b10>
 2a8:	270b3b0b 	strcs	r3, [fp, -fp, lsl #22]
 2ac:	00193c19 	andseq	r3, r9, r9, lsl ip
 2b0:	11010000 	mrsne	r0, (UNDEF: 1)
 2b4:	130e2501 	movwne	r2, #58625	; 0xe501
 2b8:	1b0e030b 	blne	380eec <__Main_Stack_Size+0x380aec>
 2bc:	1117550e 	tstne	r7, lr, lsl #10
 2c0:	00171001 	andseq	r1, r7, r1
 2c4:	00240200 	eoreq	r0, r4, r0, lsl #4
 2c8:	0b3e0b0b 	bleq	f82efc <__Main_Stack_Size+0xf82afc>
 2cc:	00000e03 	andeq	r0, r0, r3, lsl #28
 2d0:	0b002403 	bleq	92e4 <__Main_Stack_Size+0x8ee4>
 2d4:	030b3e0b 	movweq	r3, #48651	; 0xbe0b
 2d8:	04000008 	streq	r0, [r0], #-8
 2dc:	0e030016 	mcreq	0, 0, r0, cr3, cr6, {0}
 2e0:	0b3b0b3a 	bleq	ec2fd0 <__Main_Stack_Size+0xec2bd0>
 2e4:	00001349 	andeq	r1, r0, r9, asr #6
 2e8:	3f012e05 	svccc	0x00012e05
 2ec:	3a0e0319 	bcc	380f58 <__Main_Stack_Size+0x380b58>
 2f0:	270b3b0b 	strcs	r3, [fp, -fp, lsl #22]
 2f4:	12011119 	andne	r1, r1, #1073741830	; 0x40000006
 2f8:	96184006 	ldrls	r4, [r8], -r6
 2fc:	13011942 	movwne	r1, #6466	; 0x1942
 300:	34060000 	strcc	r0, [r6], #-0
 304:	3a0e0300 	bcc	380f0c <__Main_Stack_Size+0x380b0c>
 308:	490b3b0b 	stmdbmi	fp, {r0, r1, r3, r8, r9, fp, ip, sp}
 30c:	00170213 	andseq	r0, r7, r3, lsl r2
 310:	00340700 	eorseq	r0, r4, r0, lsl #14
 314:	0b3a0803 	bleq	e82328 <__Main_Stack_Size+0xe81f28>
 318:	13490b3b 	movtne	r0, #39739	; 0x9b3b
 31c:	00001702 	andeq	r1, r0, r2, lsl #14
 320:	01828908 	orreq	r8, r2, r8, lsl #18
 324:	95011100 	strls	r1, [r1, #-256]	; 0xffffff00
 328:	13311942 	teqne	r1, #1081344	; 0x108000
 32c:	01090000 	mrseq	r0, (UNDEF: 9)
 330:	01134901 	tsteq	r3, r1, lsl #18
 334:	0a000013 	beq	388 <_Minimum_Stack_Size+0x288>
 338:	00000021 	andeq	r0, r0, r1, lsr #32
 33c:	0b000f0b 	bleq	3f70 <__Main_Stack_Size+0x3b70>
 340:	0013490b 	andseq	r4, r3, fp, lsl #18
 344:	00150c00 	andseq	r0, r5, r0, lsl #24
 348:	00001927 	andeq	r1, r0, r7, lsr #18
 34c:	0300340d 	movweq	r3, #1037	; 0x40d
 350:	3b0b3a0e 	blcc	2ceb90 <__Main_Stack_Size+0x2ce790>
 354:	3f13490b 	svccc	0x0013490b
 358:	00193c19 	andseq	r3, r9, r9, lsl ip
 35c:	002e0e00 	eoreq	r0, lr, r0, lsl #28
 360:	0e03193f 	mcreq	9, 0, r1, cr3, cr15, {1}
 364:	0b3b0b3a 	bleq	ec3054 <__Main_Stack_Size+0xec2c54>
 368:	193c1927 	ldmdbne	ip!, {r0, r1, r2, r5, r8, fp, ip}
 36c:	01000000 	mrseq	r0, (UNDEF: 0)
 370:	0e250111 	mcreq	1, 1, r0, cr5, cr1, {0}
 374:	0e030b13 	vmoveq.32	d3[0], r0
 378:	17100e1b 			; <UNDEFINED> instruction: 0x17100e1b
 37c:	24020000 	strcs	r0, [r2], #-0
 380:	3e0b0b00 	vmlacc.f64	d0, d11, d0
 384:	0008030b 	andeq	r0, r8, fp, lsl #6
 388:	00240300 	eoreq	r0, r4, r0, lsl #6
 38c:	0b3e0b0b 	bleq	f82fc0 <__Main_Stack_Size+0xf82bc0>
 390:	00000e03 	andeq	r0, r0, r3, lsl #28
 394:	03001604 	movweq	r1, #1540	; 0x604
 398:	3b0b3a0e 	blcc	2cebd8 <__Main_Stack_Size+0x2ce7d8>
 39c:	0013490b 	andseq	r4, r3, fp, lsl #18
 3a0:	00160500 	andseq	r0, r6, r0, lsl #10
 3a4:	0b3a0e03 	bleq	e83bb8 <__Main_Stack_Size+0xe837b8>
 3a8:	1349053b 	movtne	r0, #38203	; 0x953b
 3ac:	17060000 	strne	r0, [r6, -r0]
 3b0:	3a0b0b01 	bcc	2c2fbc <__Main_Stack_Size+0x2c2bbc>
 3b4:	010b3b0b 	tsteq	fp, fp, lsl #22
 3b8:	07000013 	smladeq	r0, r3, r0, r0
 3bc:	0e03000d 	cdpeq	0, 0, cr0, cr3, cr13, {0}
 3c0:	0b3b0b3a 	bleq	ec30b0 <__Main_Stack_Size+0xec2cb0>
 3c4:	00001349 	andeq	r1, r0, r9, asr #6
 3c8:	49010108 	stmdbmi	r1, {r3, r8}
 3cc:	00130113 	andseq	r0, r3, r3, lsl r1
 3d0:	00210900 	eoreq	r0, r1, r0, lsl #18
 3d4:	0b2f1349 	bleq	bc5100 <__Main_Stack_Size+0xbc4d00>
 3d8:	130a0000 	movwne	r0, #40960	; 0xa000
 3dc:	3a0b0b01 	bcc	2c2fe8 <__Main_Stack_Size+0x2c2be8>
 3e0:	010b3b0b 	tsteq	fp, fp, lsl #22
 3e4:	0b000013 	bleq	438 <__Main_Stack_Size+0x38>
 3e8:	0e03000d 	cdpeq	0, 0, cr0, cr3, cr13, {0}
 3ec:	0b3b0b3a 	bleq	ec30dc <__Main_Stack_Size+0xec2cdc>
 3f0:	0b381349 	bleq	e0511c <__Main_Stack_Size+0xe04d1c>
 3f4:	0f0c0000 	svceq	0x000c0000
 3f8:	000b0b00 	andeq	r0, fp, r0, lsl #22
 3fc:	01130d00 	tsteq	r3, r0, lsl #26
 400:	0b0b0e03 	bleq	2c3c14 <__Main_Stack_Size+0x2c3814>
 404:	0b3b0b3a 	bleq	ec30f4 <__Main_Stack_Size+0xec2cf4>
 408:	00001301 	andeq	r1, r0, r1, lsl #6
 40c:	03000d0e 	movweq	r0, #3342	; 0xd0e
 410:	3b0b3a08 	blcc	2cec38 <__Main_Stack_Size+0x2ce838>
 414:	3813490b 	ldmdacc	r3, {r0, r1, r3, r8, fp, lr}
 418:	0f00000b 	svceq	0x0000000b
 41c:	0b0b000f 	bleq	2c0460 <__Main_Stack_Size+0x2c0060>
 420:	00001349 	andeq	r1, r0, r9, asr #6
 424:	03011310 	movweq	r1, #4880	; 0x1310
 428:	3a050b0e 	bcc	143068 <__Main_Stack_Size+0x142c68>
 42c:	010b3b0b 	tsteq	fp, fp, lsl #22
 430:	11000013 	tstne	r0, r3, lsl r0
 434:	0e03000d 	cdpeq	0, 0, cr0, cr3, cr13, {0}
 438:	0b3b0b3a 	bleq	ec3128 <__Main_Stack_Size+0xec2d28>
 43c:	05381349 	ldreq	r1, [r8, #-841]!	; 0xfffffcb7
 440:	15120000 	ldrne	r0, [r2, #-0]
 444:	00192700 	andseq	r2, r9, r0, lsl #14
 448:	01151300 	tsteq	r5, r0, lsl #6
 44c:	13491927 	movtne	r1, #39207	; 0x9927
 450:	00001301 	andeq	r1, r0, r1, lsl #6
 454:	49000514 	stmdbmi	r0, {r2, r4, r8, sl}
 458:	15000013 	strne	r0, [r0, #-19]	; 0xffffffed
 45c:	0e030113 	mcreq	1, 0, r0, cr3, cr3, {0}
 460:	0b3a050b 	bleq	e81894 <__Main_Stack_Size+0xe81494>
 464:	1301053b 	movwne	r0, #5435	; 0x153b
 468:	0d160000 	ldceq	0, cr0, [r6, #-0]
 46c:	3a0e0300 	bcc	381074 <__Main_Stack_Size+0x380c74>
 470:	49053b0b 	stmdbmi	r5, {r0, r1, r3, r8, r9, fp, ip, sp}
 474:	000b3813 	andeq	r3, fp, r3, lsl r8
 478:	000d1700 	andeq	r1, sp, r0, lsl #14
 47c:	0b3a0e03 	bleq	e83c90 <__Main_Stack_Size+0xe83890>
 480:	1349053b 	movtne	r0, #38203	; 0x953b
 484:	00000538 	andeq	r0, r0, r8, lsr r5
 488:	49002618 	stmdbmi	r0, {r3, r4, r9, sl, sp}
 48c:	19000013 	stmdbne	r0, {r0, r1, r4}
 490:	0e030113 	mcreq	1, 0, r0, cr3, cr3, {0}
 494:	0b3a0b0b 	bleq	e830c8 <__Main_Stack_Size+0xe82cc8>
 498:	1301053b 	movwne	r0, #5435	; 0x153b
 49c:	131a0000 	tstne	sl, #0
 4a0:	3a0b0b01 	bcc	2c30ac <__Main_Stack_Size+0x2c2cac>
 4a4:	01053b0b 	tsteq	r5, fp, lsl #22
 4a8:	1b000013 	blne	4fc <__Main_Stack_Size+0xfc>
 4ac:	0b0b0117 	bleq	2c0910 <__Main_Stack_Size+0x2c0510>
 4b0:	053b0b3a 	ldreq	r0, [fp, #-2874]!	; 0xfffff4c6
 4b4:	00001301 	andeq	r1, r0, r1, lsl #6
 4b8:	03000d1c 	movweq	r0, #3356	; 0xd1c
 4bc:	3b0b3a0e 	blcc	2cecfc <__Main_Stack_Size+0x2ce8fc>
 4c0:	00134905 	andseq	r4, r3, r5, lsl #18
 4c4:	01151d00 	tsteq	r5, r0, lsl #26
 4c8:	13011927 	movwne	r1, #6439	; 0x1927
 4cc:	341e0000 	ldrcc	r0, [lr], #-0
 4d0:	3a0e0300 	bcc	3810d8 <__Main_Stack_Size+0x380cd8>
 4d4:	490b3b0b 	stmdbmi	fp, {r0, r1, r3, r8, r9, fp, ip, sp}
 4d8:	00180213 	andseq	r0, r8, r3, lsl r2
 4dc:	00341f00 	eorseq	r1, r4, r0, lsl #30
 4e0:	0b3a0e03 	bleq	e83cf4 <__Main_Stack_Size+0xe838f4>
 4e4:	1349053b 	movtne	r0, #38203	; 0x953b
 4e8:	1802193f 	stmdane	r2, {r0, r1, r2, r3, r4, r5, r8, fp, ip}
 4ec:	01000000 	mrseq	r0, (UNDEF: 0)
 4f0:	0e250111 	mcreq	1, 1, r0, cr5, cr1, {0}
 4f4:	0e030b13 	vmoveq.32	d3[0], r0
 4f8:	17550e1b 	smmlane	r5, fp, lr, r0
 4fc:	17100111 			; <UNDEFINED> instruction: 0x17100111
 500:	24020000 	strcs	r0, [r2], #-0
 504:	3e0b0b00 	vmlacc.f64	d0, d11, d0
 508:	000e030b 	andeq	r0, lr, fp, lsl #6
 50c:	00240300 	eoreq	r0, r4, r0, lsl #6
 510:	0b3e0b0b 	bleq	f83144 <__Main_Stack_Size+0xf82d44>
 514:	00000803 	andeq	r0, r0, r3, lsl #16
 518:	03001604 	movweq	r1, #1540	; 0x604
 51c:	3b0b3a0e 	blcc	2ced5c <__Main_Stack_Size+0x2ce95c>
 520:	0013490b 	andseq	r4, r3, fp, lsl #18
 524:	012e0500 			; <UNDEFINED> instruction: 0x012e0500
 528:	0e03193f 	mcreq	9, 0, r1, cr3, cr15, {1}
 52c:	0b3b0b3a 	bleq	ec321c <__Main_Stack_Size+0xec2e1c>
 530:	01111927 	tsteq	r1, r7, lsr #18
 534:	18400612 	stmdane	r0, {r1, r4, r9, sl}^
 538:	01194296 			; <UNDEFINED> instruction: 0x01194296
 53c:	06000013 			; <UNDEFINED> instruction: 0x06000013
 540:	0e030034 	mcreq	0, 0, r0, cr3, cr4, {1}
 544:	0b3b0b3a 	bleq	ec3234 <__Main_Stack_Size+0xec2e34>
 548:	17021349 	strne	r1, [r2, -r9, asr #6]
 54c:	34070000 	strcc	r0, [r7], #-0
 550:	3a080300 	bcc	201158 <__Main_Stack_Size+0x200d58>
 554:	490b3b0b 	stmdbmi	fp, {r0, r1, r3, r8, r9, fp, ip, sp}
 558:	00170213 	andseq	r0, r7, r3, lsl r2
 55c:	82890800 	addhi	r0, r9, #0, 16
 560:	01110001 	tsteq	r1, r1
 564:	00001331 	andeq	r1, r0, r1, lsr r3
 568:	49010109 	stmdbmi	r1, {r0, r3, r8}
 56c:	00130113 	andseq	r0, r3, r3, lsl r1
 570:	00210a00 	eoreq	r0, r1, r0, lsl #20
 574:	0f0b0000 	svceq	0x000b0000
 578:	490b0b00 	stmdbmi	fp, {r8, r9, fp}
 57c:	0c000013 	stceq	0, cr0, [r0], {19}
 580:	19270015 	stmdbne	r7!, {r0, r2, r4}
 584:	340d0000 	strcc	r0, [sp], #-0
 588:	3a0e0300 	bcc	381190 <__Main_Stack_Size+0x380d90>
 58c:	490b3b0b 	stmdbmi	fp, {r0, r1, r3, r8, r9, fp, ip, sp}
 590:	3c193f13 	ldccc	15, cr3, [r9], {19}
 594:	0e000019 	mcreq	0, 0, r0, cr0, cr9, {0}
 598:	193f002e 	ldmdbne	pc!, {r1, r2, r3, r5}	; <UNPREDICTABLE>
 59c:	0b3a0e03 	bleq	e83db0 <__Main_Stack_Size+0xe839b0>
 5a0:	19270b3b 	stmdbne	r7!, {r0, r1, r3, r4, r5, r8, r9, fp}
 5a4:	0000193c 	andeq	r1, r0, ip, lsr r9
 5a8:	01110100 	tsteq	r1, r0, lsl #2
 5ac:	0b130e25 	bleq	4c3e48 <__Main_Stack_Size+0x4c3a48>
 5b0:	0e1b0e03 	cdpeq	14, 1, cr0, cr11, cr3, {0}
 5b4:	01111755 	tsteq	r1, r5, asr r7
 5b8:	00001710 	andeq	r1, r0, r0, lsl r7
 5bc:	0b002402 	bleq	95cc <__Main_Stack_Size+0x91cc>
 5c0:	030b3e0b 	movweq	r3, #48651	; 0xbe0b
 5c4:	03000008 	movweq	r0, #8
 5c8:	0e030016 	mcreq	0, 0, r0, cr3, cr6, {0}
 5cc:	0b3b0b3a 	bleq	ec32bc <__Main_Stack_Size+0xec2ebc>
 5d0:	00001349 	andeq	r1, r0, r9, asr #6
 5d4:	0b002404 	bleq	95ec <__Main_Stack_Size+0x91ec>
 5d8:	030b3e0b 	movweq	r3, #48651	; 0xbe0b
 5dc:	0500000e 	streq	r0, [r0, #-14]
 5e0:	0b0b000f 	bleq	2c0624 <__Main_Stack_Size+0x2c0224>
 5e4:	0f060000 	svceq	0x00060000
 5e8:	490b0b00 	stmdbmi	fp, {r8, r9, fp}
 5ec:	07000013 	smladeq	r0, r3, r0, r0
 5f0:	193f012e 	ldmdbne	pc!, {r1, r2, r3, r5, r8}	; <UNPREDICTABLE>
 5f4:	0b3a0e03 	bleq	e83e08 <__Main_Stack_Size+0xe83a08>
 5f8:	19270b3b 	stmdbne	r7!, {r0, r1, r3, r4, r5, r8, r9, fp}
 5fc:	01111349 	tsteq	r1, r9, asr #6
 600:	18400612 	stmdane	r0, {r1, r4, r9, sl}^
 604:	01194297 			; <UNDEFINED> instruction: 0x01194297
 608:	08000013 	stmdaeq	r0, {r0, r1, r4}
 60c:	08030005 	stmdaeq	r3, {r0, r2}
 610:	0b3b0b3a 	bleq	ec3300 <__Main_Stack_Size+0xec2f00>
 614:	18021349 	stmdane	r2, {r0, r3, r6, r8, r9, ip}
 618:	05090000 	streq	r0, [r9, #-0]
 61c:	3a080300 	bcc	201224 <__Main_Stack_Size+0x200e24>
 620:	490b3b0b 	stmdbmi	fp, {r0, r1, r3, r8, r9, fp, ip, sp}
 624:	00170213 	andseq	r0, r7, r3, lsl r2
 628:	00340a00 	eorseq	r0, r4, r0, lsl #20
 62c:	0b3a0803 	bleq	e82640 <__Main_Stack_Size+0xe82240>
 630:	13490b3b 	movtne	r0, #39739	; 0x9b3b
 634:	00001702 	andeq	r1, r0, r2, lsl #14
 638:	0300340b 	movweq	r3, #1035	; 0x40b
 63c:	3b0b3a0e 	blcc	2cee7c <__Main_Stack_Size+0x2cea7c>
 640:	0213490b 	andseq	r4, r3, #180224	; 0x2c000
 644:	00000017 	andeq	r0, r0, r7, lsl r0
 648:	25011101 	strcs	r1, [r1, #-257]	; 0xfffffeff
 64c:	030b130e 	movweq	r1, #45838	; 0xb30e
 650:	550e1b0e 	strpl	r1, [lr, #-2830]	; 0xfffff4f2
 654:	10011117 	andne	r1, r1, r7, lsl r1
 658:	02000017 	andeq	r0, r0, #23
 65c:	0b0b0024 	bleq	2c06f4 <__Main_Stack_Size+0x2c02f4>
 660:	08030b3e 	stmdaeq	r3, {r1, r2, r3, r4, r5, r8, r9, fp}
 664:	16030000 	strne	r0, [r3], -r0
 668:	3a0e0300 	bcc	381270 <__Main_Stack_Size+0x380e70>
 66c:	490b3b0b 	stmdbmi	fp, {r0, r1, r3, r8, r9, fp, ip, sp}
 670:	04000013 	streq	r0, [r0], #-19	; 0xffffffed
 674:	0b0b0024 	bleq	2c070c <__Main_Stack_Size+0x2c030c>
 678:	0e030b3e 	vmoveq.16	d3[0], r0
 67c:	16050000 	strne	r0, [r5], -r0
 680:	3a0e0300 	bcc	381288 <__Main_Stack_Size+0x380e88>
 684:	49053b0b 	stmdbmi	r5, {r0, r1, r3, r8, r9, fp, ip, sp}
 688:	06000013 			; <UNDEFINED> instruction: 0x06000013
 68c:	0b0b0117 	bleq	2c0af0 <__Main_Stack_Size+0x2c06f0>
 690:	0b3b0b3a 	bleq	ec3380 <__Main_Stack_Size+0xec2f80>
 694:	00001301 	andeq	r1, r0, r1, lsl #6
 698:	03000d07 	movweq	r0, #3335	; 0xd07
 69c:	3b0b3a0e 	blcc	2ceedc <__Main_Stack_Size+0x2ceadc>
 6a0:	0013490b 	andseq	r4, r3, fp, lsl #18
 6a4:	01010800 	tsteq	r1, r0, lsl #16
 6a8:	13011349 	movwne	r1, #4937	; 0x1349
 6ac:	21090000 	mrscs	r0, (UNDEF: 9)
 6b0:	2f134900 	svccs	0x00134900
 6b4:	0a00000b 	beq	6e8 <__Main_Stack_Size+0x2e8>
 6b8:	0b0b0113 	bleq	2c0b0c <__Main_Stack_Size+0x2c070c>
 6bc:	0b3b0b3a 	bleq	ec33ac <__Main_Stack_Size+0xec2fac>
 6c0:	00001301 	andeq	r1, r0, r1, lsl #6
 6c4:	03000d0b 	movweq	r0, #3339	; 0xd0b
 6c8:	3b0b3a0e 	blcc	2cef08 <__Main_Stack_Size+0x2ceb08>
 6cc:	3813490b 	ldmdacc	r3, {r0, r1, r3, r8, fp, lr}
 6d0:	0c00000b 	stceq	0, cr0, [r0], {11}
 6d4:	0b0b000f 	bleq	2c0718 <__Main_Stack_Size+0x2c0318>
 6d8:	130d0000 	movwne	r0, #53248	; 0xd000
 6dc:	0b0e0301 	bleq	3812e8 <__Main_Stack_Size+0x380ee8>
 6e0:	3b0b3a0b 	blcc	2cef14 <__Main_Stack_Size+0x2ceb14>
 6e4:	0013010b 	andseq	r0, r3, fp, lsl #2
 6e8:	000d0e00 	andeq	r0, sp, r0, lsl #28
 6ec:	0b3a0803 	bleq	e82700 <__Main_Stack_Size+0xe82300>
 6f0:	13490b3b 	movtne	r0, #39739	; 0x9b3b
 6f4:	00000b38 	andeq	r0, r0, r8, lsr fp
 6f8:	0b000f0f 	bleq	433c <__Main_Stack_Size+0x3f3c>
 6fc:	0013490b 	andseq	r4, r3, fp, lsl #18
 700:	01131000 	tsteq	r3, r0
 704:	050b0e03 	streq	r0, [fp, #-3587]	; 0xfffff1fd
 708:	0b3b0b3a 	bleq	ec33f8 <__Main_Stack_Size+0xec2ff8>
 70c:	00001301 	andeq	r1, r0, r1, lsl #6
 710:	03000d11 	movweq	r0, #3345	; 0xd11
 714:	3b0b3a0e 	blcc	2cef54 <__Main_Stack_Size+0x2ceb54>
 718:	3813490b 	ldmdacc	r3, {r0, r1, r3, r8, fp, lr}
 71c:	12000005 	andne	r0, r0, #5
 720:	19270015 	stmdbne	r7!, {r0, r2, r4}
 724:	15130000 	ldrne	r0, [r3, #-0]
 728:	49192701 	ldmdbmi	r9, {r0, r8, r9, sl, sp}
 72c:	00130113 	andseq	r0, r3, r3, lsl r1
 730:	00051400 	andeq	r1, r5, r0, lsl #8
 734:	00001349 	andeq	r1, r0, r9, asr #6
 738:	03011315 	movweq	r1, #4885	; 0x1315
 73c:	3a050b0e 	bcc	14337c <__Main_Stack_Size+0x142f7c>
 740:	01053b0b 	tsteq	r5, fp, lsl #22
 744:	16000013 			; <UNDEFINED> instruction: 0x16000013
 748:	0e03000d 	cdpeq	0, 0, cr0, cr3, cr13, {0}
 74c:	053b0b3a 	ldreq	r0, [fp, #-2874]!	; 0xfffff4c6
 750:	0b381349 	bleq	e0547c <__Main_Stack_Size+0xe0507c>
 754:	0d170000 	ldceq	0, cr0, [r7, #-0]
 758:	3a0e0300 	bcc	381360 <__Main_Stack_Size+0x380f60>
 75c:	49053b0b 	stmdbmi	r5, {r0, r1, r3, r8, r9, fp, ip, sp}
 760:	00053813 	andeq	r3, r5, r3, lsl r8
 764:	00261800 	eoreq	r1, r6, r0, lsl #16
 768:	00001349 	andeq	r1, r0, r9, asr #6
 76c:	03011319 	movweq	r1, #4889	; 0x1319
 770:	3a0b0b0e 	bcc	2c33b0 <__Main_Stack_Size+0x2c2fb0>
 774:	01053b0b 	tsteq	r5, fp, lsl #22
 778:	1a000013 	bne	7cc <__Main_Stack_Size+0x3cc>
 77c:	0b0b0113 	bleq	2c0bd0 <__Main_Stack_Size+0x2c07d0>
 780:	053b0b3a 	ldreq	r0, [fp, #-2874]!	; 0xfffff4c6
 784:	00001301 	andeq	r1, r0, r1, lsl #6
 788:	0b01171b 	bleq	463fc <__Main_Stack_Size+0x45ffc>
 78c:	3b0b3a0b 	blcc	2cefc0 <__Main_Stack_Size+0x2cebc0>
 790:	00130105 	andseq	r0, r3, r5, lsl #2
 794:	000d1c00 	andeq	r1, sp, r0, lsl #24
 798:	0b3a0e03 	bleq	e83fac <__Main_Stack_Size+0xe83bac>
 79c:	1349053b 	movtne	r0, #38203	; 0x953b
 7a0:	151d0000 	ldrne	r0, [sp, #-0]
 7a4:	01192701 	tsteq	r9, r1, lsl #14
 7a8:	1e000013 	mcrne	0, 0, r0, cr0, cr3, {0}
 7ac:	0e030104 	adfeqs	f0, f3, f4
 7b0:	0b3a0b0b 	bleq	e833e4 <__Main_Stack_Size+0xe82fe4>
 7b4:	13010b3b 	movwne	r0, #6971	; 0x1b3b
 7b8:	281f0000 	ldmdacs	pc, {}	; <UNPREDICTABLE>
 7bc:	1c0e0300 	stcne	3, cr0, [lr], {-0}
 7c0:	2000000d 	andcs	r0, r0, sp
 7c4:	193f012e 	ldmdbne	pc!, {r1, r2, r3, r5, r8}	; <UNPREDICTABLE>
 7c8:	0b3a0e03 	bleq	e83fdc <__Main_Stack_Size+0xe83bdc>
 7cc:	19270b3b 	stmdbne	r7!, {r0, r1, r3, r4, r5, r8, r9, fp}
 7d0:	01111349 	tsteq	r1, r9, asr #6
 7d4:	18400612 	stmdane	r0, {r1, r4, r9, sl}^
 7d8:	01194297 			; <UNDEFINED> instruction: 0x01194297
 7dc:	21000013 	tstcs	r0, r3, lsl r0
 7e0:	0e030005 	cdpeq	0, 0, cr0, cr3, cr5, {0}
 7e4:	0b3b0b3a 	bleq	ec34d4 <__Main_Stack_Size+0xec30d4>
 7e8:	17021349 	strne	r1, [r2, -r9, asr #6]
 7ec:	05220000 	streq	r0, [r2, #-0]!
 7f0:	3a080300 	bcc	2013f8 <__Main_Stack_Size+0x200ff8>
 7f4:	490b3b0b 	stmdbmi	fp, {r0, r1, r3, r8, r9, fp, ip, sp}
 7f8:	00170213 	andseq	r0, r7, r3, lsl r2
 7fc:	00342300 	eorseq	r2, r4, r0, lsl #6
 800:	0b3a0e03 	bleq	e84014 <__Main_Stack_Size+0xe83c14>
 804:	13490b3b 	movtne	r0, #39739	; 0x9b3b
 808:	00001702 	andeq	r1, r0, r2, lsl #14
 80c:	03003424 	movweq	r3, #1060	; 0x424
 810:	3b0b3a08 	blcc	2cf038 <__Main_Stack_Size+0x2cec38>
 814:	0213490b 	andseq	r4, r3, #180224	; 0x2c000
 818:	25000017 	strcs	r0, [r0, #-23]	; 0xffffffe9
 81c:	01018289 	smlabbeq	r1, r9, r2, r8
 820:	13310111 	teqne	r1, #1073741828	; 0x40000004
 824:	8a260000 	bhi	98082c <__Main_Stack_Size+0x98042c>
 828:	02000182 	andeq	r0, r0, #-2147483616	; 0x80000020
 82c:	18429118 	stmdane	r2, {r3, r4, r8, ip, pc}^
 830:	34270000 	strtcc	r0, [r7], #-0
 834:	3a0e0300 	bcc	38143c <__Main_Stack_Size+0x38103c>
 838:	49053b0b 	stmdbmi	r5, {r0, r1, r3, r8, r9, fp, ip, sp}
 83c:	3c193f13 	ldccc	15, cr3, [r9], {19}
 840:	28000019 	stmdacs	r0, {r0, r3, r4}
 844:	193f012e 	ldmdbne	pc!, {r1, r2, r3, r5, r8}	; <UNPREDICTABLE>
 848:	0b3a0e03 	bleq	e8405c <__Main_Stack_Size+0xe83c5c>
 84c:	19270b3b 	stmdbne	r7!, {r0, r1, r3, r4, r5, r8, r9, fp}
 850:	193c1349 	ldmdbne	ip!, {r0, r3, r6, r8, r9, ip}
 854:	01000000 	mrseq	r0, (UNDEF: 0)
 858:	0e250111 	mcreq	1, 1, r0, cr5, cr1, {0}
 85c:	0e030b13 	vmoveq.32	d3[0], r0
 860:	17550e1b 	smmlane	r5, fp, lr, r0
 864:	17100111 			; <UNDEFINED> instruction: 0x17100111
 868:	24020000 	strcs	r0, [r2], #-0
 86c:	3e0b0b00 	vmlacc.f64	d0, d11, d0
 870:	000e030b 	andeq	r0, lr, fp, lsl #6
 874:	00240300 	eoreq	r0, r4, r0, lsl #6
 878:	0b3e0b0b 	bleq	f834ac <__Main_Stack_Size+0xf830ac>
 87c:	00000803 	andeq	r0, r0, r3, lsl #16
 880:	03001604 	movweq	r1, #1540	; 0x604
 884:	3b0b3a0e 	blcc	2cf0c4 <__Main_Stack_Size+0x2cecc4>
 888:	0013490b 	andseq	r4, r3, fp, lsl #18
 88c:	00160500 	andseq	r0, r6, r0, lsl #10
 890:	0b3a0e03 	bleq	e840a4 <__Main_Stack_Size+0xe83ca4>
 894:	1349053b 	movtne	r0, #38203	; 0x953b
 898:	17060000 	strne	r0, [r6, -r0]
 89c:	3a0b0b01 	bcc	2c34a8 <__Main_Stack_Size+0x2c30a8>
 8a0:	010b3b0b 	tsteq	fp, fp, lsl #22
 8a4:	07000013 	smladeq	r0, r3, r0, r0
 8a8:	0e03000d 	cdpeq	0, 0, cr0, cr3, cr13, {0}
 8ac:	0b3b0b3a 	bleq	ec359c <__Main_Stack_Size+0xec319c>
 8b0:	00001349 	andeq	r1, r0, r9, asr #6
 8b4:	49010108 	stmdbmi	r1, {r3, r8}
 8b8:	00130113 	andseq	r0, r3, r3, lsl r1
 8bc:	00210900 	eoreq	r0, r1, r0, lsl #18
 8c0:	0b2f1349 	bleq	bc55ec <__Main_Stack_Size+0xbc51ec>
 8c4:	130a0000 	movwne	r0, #40960	; 0xa000
 8c8:	3a0b0b01 	bcc	2c34d4 <__Main_Stack_Size+0x2c30d4>
 8cc:	010b3b0b 	tsteq	fp, fp, lsl #22
 8d0:	0b000013 	bleq	924 <__Main_Stack_Size+0x524>
 8d4:	0e03000d 	cdpeq	0, 0, cr0, cr3, cr13, {0}
 8d8:	0b3b0b3a 	bleq	ec35c8 <__Main_Stack_Size+0xec31c8>
 8dc:	0b381349 	bleq	e05608 <__Main_Stack_Size+0xe05208>
 8e0:	0f0c0000 	svceq	0x000c0000
 8e4:	000b0b00 	andeq	r0, fp, r0, lsl #22
 8e8:	01130d00 	tsteq	r3, r0, lsl #26
 8ec:	0b0b0e03 	bleq	2c4100 <__Main_Stack_Size+0x2c3d00>
 8f0:	0b3b0b3a 	bleq	ec35e0 <__Main_Stack_Size+0xec31e0>
 8f4:	00001301 	andeq	r1, r0, r1, lsl #6
 8f8:	03000d0e 	movweq	r0, #3342	; 0xd0e
 8fc:	3b0b3a08 	blcc	2cf124 <__Main_Stack_Size+0x2ced24>
 900:	3813490b 	ldmdacc	r3, {r0, r1, r3, r8, fp, lr}
 904:	0f00000b 	svceq	0x0000000b
 908:	0b0b000f 	bleq	2c094c <__Main_Stack_Size+0x2c054c>
 90c:	00001349 	andeq	r1, r0, r9, asr #6
 910:	03011310 	movweq	r1, #4880	; 0x1310
 914:	3a050b0e 	bcc	143554 <__Main_Stack_Size+0x143154>
 918:	010b3b0b 	tsteq	fp, fp, lsl #22
 91c:	11000013 	tstne	r0, r3, lsl r0
 920:	0e03000d 	cdpeq	0, 0, cr0, cr3, cr13, {0}
 924:	0b3b0b3a 	bleq	ec3614 <__Main_Stack_Size+0xec3214>
 928:	05381349 	ldreq	r1, [r8, #-841]!	; 0xfffffcb7
 92c:	15120000 	ldrne	r0, [r2, #-0]
 930:	00192700 	andseq	r2, r9, r0, lsl #14
 934:	01151300 	tsteq	r5, r0, lsl #6
 938:	13491927 	movtne	r1, #39207	; 0x9927
 93c:	00001301 	andeq	r1, r0, r1, lsl #6
 940:	49000514 	stmdbmi	r0, {r2, r4, r8, sl}
 944:	15000013 	strne	r0, [r0, #-19]	; 0xffffffed
 948:	0e030113 	mcreq	1, 0, r0, cr3, cr3, {0}
 94c:	0b3a050b 	bleq	e81d80 <__Main_Stack_Size+0xe81980>
 950:	1301053b 	movwne	r0, #5435	; 0x153b
 954:	0d160000 	ldceq	0, cr0, [r6, #-0]
 958:	3a0e0300 	bcc	381560 <__Main_Stack_Size+0x381160>
 95c:	49053b0b 	stmdbmi	r5, {r0, r1, r3, r8, r9, fp, ip, sp}
 960:	000b3813 	andeq	r3, fp, r3, lsl r8
 964:	000d1700 	andeq	r1, sp, r0, lsl #14
 968:	0b3a0e03 	bleq	e8417c <__Main_Stack_Size+0xe83d7c>
 96c:	1349053b 	movtne	r0, #38203	; 0x953b
 970:	00000538 	andeq	r0, r0, r8, lsr r5
 974:	49002618 	stmdbmi	r0, {r3, r4, r9, sl, sp}
 978:	19000013 	stmdbne	r0, {r0, r1, r4}
 97c:	0e030113 	mcreq	1, 0, r0, cr3, cr3, {0}
 980:	0b3a0b0b 	bleq	e835b4 <__Main_Stack_Size+0xe831b4>
 984:	1301053b 	movwne	r0, #5435	; 0x153b
 988:	131a0000 	tstne	sl, #0
 98c:	3a0b0b01 	bcc	2c3598 <__Main_Stack_Size+0x2c3198>
 990:	01053b0b 	tsteq	r5, fp, lsl #22
 994:	1b000013 	blne	9e8 <__Main_Stack_Size+0x5e8>
 998:	0b0b0117 	bleq	2c0dfc <__Main_Stack_Size+0x2c09fc>
 99c:	053b0b3a 	ldreq	r0, [fp, #-2874]!	; 0xfffff4c6
 9a0:	00001301 	andeq	r1, r0, r1, lsl #6
 9a4:	03000d1c 	movweq	r0, #3356	; 0xd1c
 9a8:	3b0b3a0e 	blcc	2cf1e8 <__Main_Stack_Size+0x2cede8>
 9ac:	00134905 	andseq	r4, r3, r5, lsl #18
 9b0:	01151d00 	tsteq	r5, r0, lsl #26
 9b4:	13011927 	movwne	r1, #6439	; 0x1927
 9b8:	2e1e0000 	cdpcs	0, 1, cr0, cr14, cr0, {0}
 9bc:	3a0e0301 	bcc	3815c8 <__Main_Stack_Size+0x3811c8>
 9c0:	270b3b0b 	strcs	r3, [fp, -fp, lsl #22]
 9c4:	12011119 	andne	r1, r1, #1073741830	; 0x40000006
 9c8:	97184006 	ldrls	r4, [r8, -r6]
 9cc:	13011942 	movwne	r1, #6466	; 0x1942
 9d0:	0b1f0000 	bleq	7c09d8 <__Main_Stack_Size+0x7c05d8>
 9d4:	12011101 	andne	r1, r1, #1073741824	; 0x40000000
 9d8:	20000006 	andcs	r0, r0, r6
 9dc:	193f002e 	ldmdbne	pc!, {r1, r2, r3, r5}	; <UNPREDICTABLE>
 9e0:	0b3a0e03 	bleq	e841f4 <__Main_Stack_Size+0xe83df4>
 9e4:	19270b3b 	stmdbne	r7!, {r0, r1, r3, r4, r5, r8, r9, fp}
 9e8:	0000193c 	andeq	r1, r0, ip, lsr r9
 9ec:	01828921 	orreq	r8, r2, r1, lsr #18
 9f0:	95011100 	strls	r1, [r1, #-256]	; 0xffffff00
 9f4:	13311942 	teqne	r1, #1081344	; 0x108000
 9f8:	2e220000 	cdpcs	0, 2, cr0, cr2, cr0, {0}
 9fc:	03193f01 	tsteq	r9, #1, 30
 a00:	3b0b3a0e 	blcc	2cf240 <__Main_Stack_Size+0x2cee40>
 a04:	1119270b 	tstne	r9, fp, lsl #14
 a08:	40061201 	andmi	r1, r6, r1, lsl #4
 a0c:	19429618 	stmdbne	r2, {r3, r4, r9, sl, ip, pc}^
 a10:	00001301 	andeq	r1, r0, r1, lsl #6
 a14:	03000523 	movweq	r0, #1315	; 0x523
 a18:	3b0b3a0e 	blcc	2cf258 <__Main_Stack_Size+0x2cee58>
 a1c:	0213490b 	andseq	r4, r3, #180224	; 0x2c000
 a20:	24000017 	strcs	r0, [r0], #-23	; 0xffffffe9
 a24:	08030005 	stmdaeq	r3, {r0, r2}
 a28:	0b3b0b3a 	bleq	ec3718 <__Main_Stack_Size+0xec3318>
 a2c:	17021349 	strne	r1, [r2, -r9, asr #6]
 a30:	34250000 	strtcc	r0, [r5], #-0
 a34:	3a080300 	bcc	20163c <__Main_Stack_Size+0x20123c>
 a38:	490b3b0b 	stmdbmi	fp, {r0, r1, r3, r8, r9, fp, ip, sp}
 a3c:	00170213 	andseq	r0, r7, r3, lsl r2
 a40:	00342600 	eorseq	r2, r4, r0, lsl #12
 a44:	0b3a0e03 	bleq	e84258 <__Main_Stack_Size+0xe83e58>
 a48:	13490b3b 	movtne	r0, #39739	; 0x9b3b
 a4c:	00001702 	andeq	r1, r0, r2, lsl #14
 a50:	03000a27 	movweq	r0, #2599	; 0xa27
 a54:	3b0b3a0e 	blcc	2cf294 <__Main_Stack_Size+0x2cee94>
 a58:	2800000b 	stmdacs	r0, {r0, r1, r3}
 a5c:	1755010b 	ldrbne	r0, [r5, -fp, lsl #2]
 a60:	00001301 	andeq	r1, r0, r1, lsl #6
 a64:	01828929 	orreq	r8, r2, r9, lsr #18
 a68:	00011101 	andeq	r1, r1, r1, lsl #2
 a6c:	828a2a00 	addhi	r2, sl, #0, 20
 a70:	18020001 	stmdane	r2, {r0}
 a74:	00184291 	mulseq	r8, r1, r2
 a78:	82892b00 	addhi	r2, r9, #0, 22
 a7c:	01110101 	tsteq	r1, r1, lsl #2
 a80:	00001331 	andeq	r1, r0, r1, lsr r3
 a84:	0300342c 	movweq	r3, #1068	; 0x42c
 a88:	3b0b3a0e 	blcc	2cf2c8 <__Main_Stack_Size+0x2ceec8>
 a8c:	1c13490b 	ldcne	9, cr4, [r3], {11}
 a90:	2d00000b 	stccs	0, cr0, [r0, #-44]	; 0xffffffd4
 a94:	0e030034 	mcreq	0, 0, r0, cr3, cr4, {1}
 a98:	053b0b3a 	ldreq	r0, [fp, #-2874]!	; 0xfffff4c6
 a9c:	193f1349 	ldmdbne	pc!, {r0, r3, r6, r8, r9, ip}	; <UNPREDICTABLE>
 aa0:	0000193c 	andeq	r1, r0, ip, lsr r9
 aa4:	0300342e 	movweq	r3, #1070	; 0x42e
 aa8:	3b0b3a0e 	blcc	2cf2e8 <__Main_Stack_Size+0x2ceee8>
 aac:	3f13490b 	svccc	0x0013490b
 ab0:	00193c19 	andseq	r3, r9, r9, lsl ip
 ab4:	012e2f00 			; <UNDEFINED> instruction: 0x012e2f00
 ab8:	0e03193f 	mcreq	9, 0, r1, cr3, cr15, {1}
 abc:	0b3b0b3a 	bleq	ec37ac <__Main_Stack_Size+0xec33ac>
 ac0:	13491927 	movtne	r1, #39207	; 0x9927
 ac4:	1301193c 	movwne	r1, #6460	; 0x193c
 ac8:	2e300000 	cdpcs	0, 3, cr0, cr0, cr0, {0}
 acc:	03193f01 	tsteq	r9, #1, 30
 ad0:	3b0b3a0e 	blcc	2cf310 <__Main_Stack_Size+0x2cef10>
 ad4:	3c19270b 	ldccc	7, cr2, [r9], {11}
 ad8:	00000019 	andeq	r0, r0, r9, lsl r0
 adc:	25011101 	strcs	r1, [r1, #-257]	; 0xfffffeff
 ae0:	030b130e 	movweq	r1, #45838	; 0xb30e
 ae4:	550e1b0e 	strpl	r1, [lr, #-2830]	; 0xfffff4f2
 ae8:	10011117 	andne	r1, r1, r7, lsl r1
 aec:	02000017 	andeq	r0, r0, #23
 af0:	193f012e 	ldmdbne	pc!, {r1, r2, r3, r5, r8}	; <UNPREDICTABLE>
 af4:	0b3a0e03 	bleq	e84308 <__Main_Stack_Size+0xe83f08>
 af8:	19270b3b 	stmdbne	r7!, {r0, r1, r3, r4, r5, r8, r9, fp}
 afc:	06120111 			; <UNDEFINED> instruction: 0x06120111
 b00:	42971840 	addsmi	r1, r7, #64, 16	; 0x400000
 b04:	00130119 	andseq	r0, r3, r9, lsl r1
 b08:	00050300 	andeq	r0, r5, r0, lsl #6
 b0c:	0b3a0803 	bleq	e82b20 <__Main_Stack_Size+0xe82720>
 b10:	13490b3b 	movtne	r0, #39739	; 0x9b3b
 b14:	00001802 	andeq	r1, r0, r2, lsl #16
 b18:	03003404 	movweq	r3, #1028	; 0x404
 b1c:	3b0b3a08 	blcc	2cf344 <__Main_Stack_Size+0x2cef44>
 b20:	0013490b 	andseq	r4, r3, fp, lsl #18
 b24:	00240500 	eoreq	r0, r4, r0, lsl #10
 b28:	0b3e0b0b 	bleq	f8375c <__Main_Stack_Size+0xf8335c>
 b2c:	00000803 	andeq	r0, r0, r3, lsl #16
 b30:	Address 0x0000000000000b30 is out of bounds.


Disassembly of section .debug_line:

00000000 <.debug_line>:
   0:	0000007a 	andeq	r0, r0, sl, ror r0
   4:	003c0002 	eorseq	r0, ip, r2
   8:	01020000 	mrseq	r0, (UNDEF: 2)
   c:	000d0efb 	strdeq	r0, [sp], -fp
  10:	01010101 	tsteq	r1, r1, lsl #2
  14:	01000000 	mrseq	r0, (UNDEF: 0)
  18:	2e010000 	cdpcs	0, 0, cr0, cr1, cr0, {0}
  1c:	2e2e2f2e 	cdpcs	15, 2, cr2, cr14, cr14, {1}
  20:	2f2e2e2f 	svccs	0x002e2e2f
  24:	2e2f2e2e 	cdpcs	14, 2, cr2, cr15, cr14, {1}
  28:	2e2e2f2e 	cdpcs	15, 2, cr2, cr14, cr14, {1}
  2c:	62696c2f 	rsbvs	r6, r9, #12032	; 0x2f00
  30:	736f6c67 	cmnvc	pc, #26368	; 0x6700
  34:	72612f73 	rsbvc	r2, r1, #460	; 0x1cc
  38:	6300006d 	movwvs	r0, #109	; 0x6d
  3c:	2e307472 	mrccs	4, 1, r7, cr0, cr2, {3}
  40:	00010053 	andeq	r0, r1, r3, asr r0
  44:	05000000 	streq	r0, [r0, #-0]
  48:	0002b802 	andeq	fp, r2, r2, lsl #16
  4c:	01b10308 			; <UNDEFINED> instruction: 0x01b10308
  50:	27222101 	strcs	r2, [r2, -r1, lsl #2]!
  54:	20320326 	eorscs	r0, r2, r6, lsr #6
  58:	22212133 	eorcs	r2, r1, #-1073741812	; 0xc000000c
  5c:	0e032121 	adfeqsp	f2, f3, f1
  60:	21213420 			; <UNDEFINED> instruction: 0x21213420
  64:	21212221 			; <UNDEFINED> instruction: 0x21212221
  68:	03212321 			; <UNDEFINED> instruction: 0x03212321
  6c:	212000f9 	strdcs	r0, [r0, -r9]!
  70:	21200903 			; <UNDEFINED> instruction: 0x21200903
  74:	22212f30 	eorcs	r2, r1, #48, 30	; 0xc0
  78:	00100230 	andseq	r0, r0, r0, lsr r2
  7c:	00c00101 	sbceq	r0, r0, r1, lsl #2
  80:	00020000 	andeq	r0, r2, r0
  84:	000000a9 	andeq	r0, r0, r9, lsr #1
  88:	0efb0102 	cdpeq	1, 15, cr0, cr11, cr2, {0}
  8c:	0101000d 	tsteq	r1, sp
  90:	00000101 	andeq	r0, r0, r1, lsl #2
  94:	00000100 	andeq	r0, r0, r0, lsl #2
  98:	2f2e2e01 	svccs	0x002e2e01
  9c:	2e2f2e2e 	cdpcs	14, 2, cr2, cr15, cr14, {1}
  a0:	2e2e2f2e 	cdpcs	15, 2, cr2, cr14, cr14, {1}
  a4:	2f2e2e2f 	svccs	0x002e2e2f
  a8:	2e2f2e2e 	cdpcs	14, 2, cr2, cr15, cr14, {1}
  ac:	656e2f2e 	strbvs	r2, [lr, #-3886]!	; 0xfffff0d2
  b0:	62696c77 	rsbvs	r6, r9, #30464	; 0x7700
  b4:	62696c2f 	rsbvs	r6, r9, #12032	; 0x2f00
  b8:	74732f63 	ldrbtvc	r2, [r3], #-3939	; 0xfffff09d
  bc:	62696c64 	rsbvs	r6, r9, #100, 24	; 0x6400
  c0:	75622f00 	strbvc	r2, [r2, #-3840]!	; 0xfffff100
  c4:	2f646c69 	svccs	0x00646c69
  c8:	6c77656e 	cfldr64vs	mvdx6, [r7], #-440	; 0xfffffe48
  cc:	352d6269 	strcc	r6, [sp, #-617]!	; 0xfffffd97
  d0:	7870777a 	ldmdavc	r0!, {r1, r3, r4, r5, r6, r8, r9, sl, ip, sp, lr}^
  d4:	656e2f45 	strbvs	r2, [lr, #-3909]!	; 0xfffff0bb
  d8:	62696c77 	rsbvs	r6, r9, #30464	; 0x7700
  dc:	322e322d 	eorcc	r3, lr, #-805306366	; 0xd0000002
  e0:	672b302e 	strvs	r3, [fp, -lr, lsr #32]!
  e4:	30327469 	eorscc	r7, r2, r9, ror #8
  e8:	38303531 	ldmdacc	r0!, {r0, r4, r5, r8, sl, ip, sp}
  ec:	352e3033 	strcc	r3, [lr, #-51]!	; 0xffffffcd
  f0:	35643361 	strbcc	r3, [r4, #-865]!	; 0xfffffc9f
  f4:	6e2f3633 	mcrvs	6, 1, r3, cr15, cr3, {1}
  f8:	696c7765 	stmdbvs	ip!, {r0, r2, r5, r6, r8, r9, sl, ip, sp, lr}^
  fc:	696c2f62 	stmdbvs	ip!, {r1, r5, r6, r8, r9, sl, fp, sp}^
 100:	692f6362 	stmdbvs	pc!, {r1, r5, r6, r8, r9, sp, lr}	; <UNPREDICTABLE>
 104:	756c636e 	strbvc	r6, [ip, #-878]!	; 0xfffffc92
 108:	00006564 	andeq	r6, r0, r4, ror #10
 10c:	78657461 	stmdavc	r5!, {r0, r5, r6, sl, ip, sp, lr}^
 110:	632e7469 			; <UNDEFINED> instruction: 0x632e7469
 114:	00000100 	andeq	r0, r0, r0, lsl #2
 118:	78657461 	stmdavc	r5!, {r0, r5, r6, sl, ip, sp, lr}^
 11c:	682e7469 	stmdavs	lr!, {r0, r3, r5, r6, sl, ip, sp, lr}
 120:	00000100 	andeq	r0, r0, r0, lsl #2
 124:	6c647473 	cfstrdvs	mvd7, [r4], #-460	; 0xfffffe34
 128:	682e6269 	stmdavs	lr!, {r0, r3, r5, r6, r9, sp, lr}
 12c:	00000200 	andeq	r0, r0, r0, lsl #4
 130:	02050000 	andeq	r0, r5, #0
 134:	08000e90 	stmdaeq	r0, {r4, r7, r9, sl, fp}
 138:	01013f03 	tsteq	r1, r3, lsl #30
 13c:	00050221 	andeq	r0, r5, r1, lsr #4
 140:	01740101 	cmneq	r4, r1, lsl #2
 144:	00020000 	andeq	r0, r2, r0
 148:	00000157 	andeq	r0, r0, r7, asr r1
 14c:	0efb0102 	cdpeq	1, 15, cr0, cr11, cr2, {0}
 150:	0101000d 	tsteq	r1, sp
 154:	00000101 	andeq	r0, r0, r1, lsl #2
 158:	00000100 	andeq	r0, r0, r0, lsl #2
 15c:	2f2e2e01 	svccs	0x002e2e01
 160:	2e2f2e2e 	cdpcs	14, 2, cr2, cr15, cr14, {1}
 164:	2e2e2f2e 	cdpcs	15, 2, cr2, cr14, cr14, {1}
 168:	2f2e2e2f 	svccs	0x002e2e2f
 16c:	2e2f2e2e 	cdpcs	14, 2, cr2, cr15, cr14, {1}
 170:	656e2f2e 	strbvs	r2, [lr, #-3886]!	; 0xfffff0d2
 174:	62696c77 	rsbvs	r6, r9, #30464	; 0x7700
 178:	62696c2f 	rsbvs	r6, r9, #12032	; 0x2f00
 17c:	74732f63 	ldrbtvc	r2, [r3], #-3939	; 0xfffff09d
 180:	62696c64 	rsbvs	r6, r9, #100, 24	; 0x6400
 184:	75622f00 	strbvc	r2, [r2, #-3840]!	; 0xfffff100
 188:	2f646c69 	svccs	0x00646c69
 18c:	6c77656e 	cfldr64vs	mvdx6, [r7], #-440	; 0xfffffe48
 190:	352d6269 	strcc	r6, [sp, #-617]!	; 0xfffffd97
 194:	7870777a 	ldmdavc	r0!, {r1, r3, r4, r5, r6, r8, r9, sl, ip, sp, lr}^
 198:	656e2f45 	strbvs	r2, [lr, #-3909]!	; 0xfffff0bb
 19c:	62696c77 	rsbvs	r6, r9, #30464	; 0x7700
 1a0:	322e322d 	eorcc	r3, lr, #-805306366	; 0xd0000002
 1a4:	672b302e 	strvs	r3, [fp, -lr, lsr #32]!
 1a8:	30327469 	eorscc	r7, r2, r9, ror #8
 1ac:	38303531 	ldmdacc	r0!, {r0, r4, r5, r8, sl, ip, sp}
 1b0:	352e3033 	strcc	r3, [lr, #-51]!	; 0xffffffcd
 1b4:	35643361 	strbcc	r3, [r4, #-865]!	; 0xfffffc9f
 1b8:	6e2f3633 	mcrvs	6, 1, r3, cr15, cr3, {1}
 1bc:	696c7765 	stmdbvs	ip!, {r0, r2, r5, r6, r8, r9, sl, ip, sp, lr}^
 1c0:	696c2f62 	stmdbvs	ip!, {r1, r5, r6, r8, r9, sl, fp, sp}^
 1c4:	692f6362 	stmdbvs	pc!, {r1, r5, r6, r8, r9, sp, lr}	; <UNPREDICTABLE>
 1c8:	756c636e 	strbvc	r6, [ip, #-878]!	; 0xfffffc92
 1cc:	732f6564 			; <UNDEFINED> instruction: 0x732f6564
 1d0:	2f007379 	svccs	0x00007379
 1d4:	2f727375 	svccs	0x00727375
 1d8:	2f62696c 	svccs	0x0062696c
 1dc:	2f636367 	svccs	0x00636367
 1e0:	2d6d7261 	sfmcs	f7, 2, [sp, #-388]!	; 0xfffffe7c
 1e4:	656e6f6e 	strbvs	r6, [lr, #-3950]!	; 0xfffff092
 1e8:	6261652d 	rsbvs	r6, r1, #188743680	; 0xb400000
 1ec:	2e342f69 	cdpcs	15, 3, cr2, cr4, cr9, {3}
 1f0:	2f332e39 	svccs	0x00332e39
 1f4:	6c636e69 	stclvs	14, cr6, [r3], #-420	; 0xfffffe5c
 1f8:	00656475 	rsbeq	r6, r5, r5, ror r4
 1fc:	6975622f 	ldmdbvs	r5!, {r0, r1, r2, r3, r5, r9, sp, lr}^
 200:	6e2f646c 	cdpvs	4, 2, cr6, cr15, cr12, {3}
 204:	696c7765 	stmdbvs	ip!, {r0, r2, r5, r6, r8, r9, sl, ip, sp, lr}^
 208:	7a352d62 	bvc	d4b798 <__Main_Stack_Size+0xd4b398>
 20c:	45787077 	ldrbmi	r7, [r8, #-119]!	; 0xffffff89
 210:	77656e2f 	strbvc	r6, [r5, -pc, lsr #28]!
 214:	2d62696c 	stclcs	9, cr6, [r2, #-432]!	; 0xfffffe50
 218:	2e322e32 	mrccs	14, 1, r2, cr2, cr2, {1}
 21c:	69672b30 	stmdbvs	r7!, {r4, r5, r8, r9, fp, sp}^
 220:	31303274 	teqcc	r0, r4, ror r2
 224:	33383035 	teqcc	r8, #53	; 0x35
 228:	61352e30 	teqvs	r5, r0, lsr lr
 22c:	33356433 	teqcc	r5, #855638016	; 0x33000000
 230:	656e2f36 	strbvs	r2, [lr, #-3894]!	; 0xfffff0ca
 234:	62696c77 	rsbvs	r6, r9, #30464	; 0x7700
 238:	62696c2f 	rsbvs	r6, r9, #12032	; 0x2f00
 23c:	6e692f63 	cdpvs	15, 6, cr2, cr9, cr3, {3}
 240:	64756c63 	ldrbtvs	r6, [r5], #-3171	; 0xfffff39d
 244:	65000065 	strvs	r0, [r0, #-101]	; 0xffffff9b
 248:	2e746978 	mrccs	9, 3, r6, cr4, cr8, {3}
 24c:	00010063 	andeq	r0, r1, r3, rrx
 250:	636f6c00 	cmnvs	pc, #0, 24
 254:	00682e6b 	rsbeq	r2, r8, fp, ror #28
 258:	5f000002 	svcpl	0x00000002
 25c:	65707974 	ldrbvs	r7, [r0, #-2420]!	; 0xfffff68c
 260:	00682e73 	rsbeq	r2, r8, r3, ror lr
 264:	73000002 	movwvc	r0, #2
 268:	65646474 	strbvs	r6, [r4, #-1140]!	; 0xfffffb8c
 26c:	00682e66 	rsbeq	r2, r8, r6, ror #28
 270:	72000003 	andvc	r0, r0, #3
 274:	746e6565 	strbtvc	r6, [lr], #-1381	; 0xfffffa9b
 278:	0200682e 	andeq	r6, r0, #3014656	; 0x2e0000
 27c:	74730000 	ldrbtvc	r0, [r3], #-0
 280:	62696c64 	rsbvs	r6, r9, #100, 24	; 0x6400
 284:	0400682e 	streq	r6, [r0], #-2094	; 0xfffff7d2
 288:	74610000 	strbtvc	r0, [r1], #-0
 28c:	74697865 	strbtvc	r7, [r9], #-2149	; 0xfffff79b
 290:	0100682e 	tsteq	r0, lr, lsr #16
 294:	6e750000 	cdpvs	0, 7, cr0, cr5, cr0, {0}
 298:	64747369 	ldrbtvs	r7, [r4], #-873	; 0xfffffc97
 29c:	0200682e 	andeq	r6, r0, #3014656	; 0x2e0000
 2a0:	00000000 	andeq	r0, r0, r0
 2a4:	0e9c0205 	cdpeq	2, 9, cr0, cr12, cr5, {0}
 2a8:	3b030800 	blcc	c22b0 <__Main_Stack_Size+0xc1eb0>
 2ac:	7a032601 	bvc	c9ab8 <__Main_Stack_Size+0xc96b8>
 2b0:	4b302620 	blmi	c09b38 <__Main_Stack_Size+0xc09738>
 2b4:	00060221 	andeq	r0, r6, r1, lsr #4
 2b8:	009b0101 	addseq	r0, fp, r1, lsl #2
 2bc:	00020000 	andeq	r0, r2, r0
 2c0:	00000078 	andeq	r0, r0, r8, ror r0
 2c4:	0efb0102 	cdpeq	1, 15, cr0, cr11, cr2, {0}
 2c8:	0101000d 	tsteq	r1, sp
 2cc:	00000101 	andeq	r0, r0, r1, lsl #2
 2d0:	00000100 	andeq	r0, r0, r0, lsl #2
 2d4:	2f2e2e01 	svccs	0x002e2e01
 2d8:	2e2f2e2e 	cdpcs	14, 2, cr2, cr15, cr14, {1}
 2dc:	2e2e2f2e 	cdpcs	15, 2, cr2, cr14, cr14, {1}
 2e0:	2f2e2e2f 	svccs	0x002e2e2f
 2e4:	2e2f2e2e 	cdpcs	14, 2, cr2, cr15, cr14, {1}
 2e8:	656e2f2e 	strbvs	r2, [lr, #-3886]!	; 0xfffff0d2
 2ec:	62696c77 	rsbvs	r6, r9, #30464	; 0x7700
 2f0:	62696c2f 	rsbvs	r6, r9, #12032	; 0x2f00
 2f4:	696d2f63 	stmdbvs	sp!, {r0, r1, r5, r6, r8, r9, sl, fp, sp}^
 2f8:	2f006373 	svccs	0x00006373
 2fc:	2f727375 	svccs	0x00727375
 300:	2f62696c 	svccs	0x0062696c
 304:	2f636367 	svccs	0x00636367
 308:	2d6d7261 	sfmcs	f7, 2, [sp, #-388]!	; 0xfffffe7c
 30c:	656e6f6e 	strbvs	r6, [lr, #-3950]!	; 0xfffff092
 310:	6261652d 	rsbvs	r6, r1, #188743680	; 0xb400000
 314:	2e342f69 	cdpcs	15, 3, cr2, cr4, cr9, {3}
 318:	2f332e39 	svccs	0x00332e39
 31c:	6c636e69 	stclvs	14, cr6, [r3], #-420	; 0xfffffe5c
 320:	00656475 	rsbeq	r6, r5, r5, ror r4
 324:	6e696600 	cdpvs	6, 6, cr6, cr9, cr0, {0}
 328:	00632e69 	rsbeq	r2, r3, r9, ror #28
 32c:	73000001 	movwvc	r0, #1
 330:	65646474 	strbvs	r6, [r4, #-1140]!	; 0xfffffb8c
 334:	00682e66 	rsbeq	r2, r8, r6, ror #28
 338:	00000002 	andeq	r0, r0, r2
 33c:	bc020500 	cfstr32lt	mvfx0, [r2], {-0}
 340:	0308000e 	movweq	r0, #32782	; 0x800e
 344:	3d240118 	stfccs	f0, [r4, #-96]!	; 0xffffffa0
 348:	03040200 	movweq	r0, #16896	; 0x4200
 34c:	0402004b 	streq	r0, [r2], #-75	; 0xffffffb5
 350:	2d324903 	ldccs	9, cr4, [r2, #-12]!
 354:	01000602 	tsteq	r0, r2, lsl #12
 358:	0000f001 	andeq	pc, r0, r1
 35c:	ea000200 	b	b64 <__Main_Stack_Size+0x764>
 360:	02000000 	andeq	r0, r0, #0
 364:	0d0efb01 	vstreq	d15, [lr, #-4]
 368:	01010100 	mrseq	r0, (UNDEF: 17)
 36c:	00000001 	andeq	r0, r0, r1
 370:	01000001 	tsteq	r0, r1
 374:	6975622f 	ldmdbvs	r5!, {r0, r1, r2, r3, r5, r9, sp, lr}^
 378:	6e2f646c 	cdpvs	4, 2, cr6, cr15, cr12, {3}
 37c:	696c7765 	stmdbvs	ip!, {r0, r2, r5, r6, r8, r9, sl, ip, sp, lr}^
 380:	7a352d62 	bvc	d4b910 <__Main_Stack_Size+0xd4b510>
 384:	45787077 	ldrbmi	r7, [r8, #-119]!	; 0xffffff89
 388:	77656e2f 	strbvc	r6, [r5, -pc, lsr #28]!
 38c:	2d62696c 	stclcs	9, cr6, [r2, #-432]!	; 0xfffffe50
 390:	2e322e32 	mrccs	14, 1, r2, cr2, cr2, {1}
 394:	69672b30 	stmdbvs	r7!, {r4, r5, r8, r9, fp, sp}^
 398:	31303274 	teqcc	r0, r4, ror r2
 39c:	33383035 	teqcc	r8, #53	; 0x35
 3a0:	61352e30 	teqvs	r5, r0, lsr lr
 3a4:	33356433 	teqcc	r5, #855638016	; 0x33000000
 3a8:	656e2f36 	strbvs	r2, [lr, #-3894]!	; 0xfffff0ca
 3ac:	62696c77 	rsbvs	r6, r9, #30464	; 0x7700
 3b0:	62696c2f 	rsbvs	r6, r9, #12032	; 0x2f00
 3b4:	6e692f63 	cdpvs	15, 6, cr2, cr9, cr3, {3}
 3b8:	64756c63 	ldrbtvs	r6, [r5], #-3171	; 0xfffff39d
 3bc:	79732f65 	ldmdbvc	r3!, {r0, r2, r5, r6, r8, r9, sl, fp, sp}^
 3c0:	752f0073 	strvc	r0, [pc, #-115]!	; 355 <_Minimum_Stack_Size+0x255>
 3c4:	6c2f7273 	sfmvs	f7, 4, [pc], #-460	; 200 <_Minimum_Stack_Size+0x100>
 3c8:	672f6269 	strvs	r6, [pc, -r9, ror #4]!
 3cc:	612f6363 			; <UNDEFINED> instruction: 0x612f6363
 3d0:	6e2d6d72 	mcrvs	13, 1, r6, cr13, cr2, {3}
 3d4:	2d656e6f 	stclcs	14, cr6, [r5, #-444]!	; 0xfffffe44
 3d8:	69626165 	stmdbvs	r2!, {r0, r2, r5, r6, r8, sp, lr}^
 3dc:	392e342f 	stmdbcc	lr!, {r0, r1, r2, r3, r5, sl, ip, sp}
 3e0:	692f332e 	stmdbvs	pc!, {r1, r2, r3, r5, r8, r9, ip, sp}	; <UNPREDICTABLE>
 3e4:	756c636e 	strbvc	r6, [ip, #-878]!	; 0xfffffc92
 3e8:	2e006564 	cfsh32cs	mvfx6, mvfx0, #52
 3ec:	2e2e2f2e 	cdpcs	15, 2, cr2, cr14, cr14, {1}
 3f0:	2f2e2e2f 	svccs	0x002e2e2f
 3f4:	2e2f2e2e 	cdpcs	14, 2, cr2, cr15, cr14, {1}
 3f8:	2e2e2f2e 	cdpcs	15, 2, cr2, cr14, cr14, {1}
 3fc:	2f2e2e2f 	svccs	0x002e2e2f
 400:	6c77656e 	cfldr64vs	mvdx6, [r7], #-440	; 0xfffffe48
 404:	6c2f6269 	sfmvs	f6, 4, [pc], #-420	; 268 <_Minimum_Stack_Size+0x168>
 408:	2f636269 	svccs	0x00636269
 40c:	6e656572 	mcrvs	5, 3, r6, cr5, cr2, {3}
 410:	6c000074 	stcvs	0, cr0, [r0], {116}	; 0x74
 414:	2e6b636f 	cdpcs	3, 6, cr6, cr11, cr15, {3}
 418:	00010068 	andeq	r0, r1, r8, rrx
 41c:	79745f00 	ldmdbvc	r4!, {r8, r9, sl, fp, ip, lr}^
 420:	2e736570 	mrccs	5, 3, r6, cr3, cr0, {3}
 424:	00010068 	andeq	r0, r1, r8, rrx
 428:	64747300 	ldrbtvs	r7, [r4], #-768	; 0xfffffd00
 42c:	2e666564 	cdpcs	5, 6, cr6, cr6, cr4, {3}
 430:	00020068 	andeq	r0, r2, r8, rrx
 434:	65657200 	strbvs	r7, [r5, #-512]!	; 0xfffffe00
 438:	682e746e 	stmdavs	lr!, {r1, r2, r3, r5, r6, sl, ip, sp, lr}
 43c:	00000100 	andeq	r0, r0, r0, lsl #2
 440:	75706d69 	ldrbvc	r6, [r0, #-3433]!	; 0xfffff297
 444:	632e6572 			; <UNDEFINED> instruction: 0x632e6572
 448:	00000300 	andeq	r0, r0, r0, lsl #6
 44c:	0000b400 	andeq	fp, r0, r0, lsl #8
 450:	78000200 	stmdavc	r0, {r9}
 454:	02000000 	andeq	r0, r0, #0
 458:	0d0efb01 	vstreq	d15, [lr, #-4]
 45c:	01010100 	mrseq	r0, (UNDEF: 17)
 460:	00000001 	andeq	r0, r0, r1
 464:	01000001 	tsteq	r0, r1
 468:	2e2f2e2e 	cdpcs	14, 2, cr2, cr15, cr14, {1}
 46c:	2e2e2f2e 	cdpcs	15, 2, cr2, cr14, cr14, {1}
 470:	2f2e2e2f 	svccs	0x002e2e2f
 474:	2e2f2e2e 	cdpcs	14, 2, cr2, cr15, cr14, {1}
 478:	2e2e2f2e 	cdpcs	15, 2, cr2, cr14, cr14, {1}
 47c:	77656e2f 	strbvc	r6, [r5, -pc, lsr #28]!
 480:	2f62696c 	svccs	0x0062696c
 484:	6362696c 	cmnvs	r2, #108, 18	; 0x1b0000
 488:	73696d2f 	cmnvc	r9, #3008	; 0xbc0
 48c:	752f0063 	strvc	r0, [pc, #-99]!	; 431 <__Main_Stack_Size+0x31>
 490:	6c2f7273 	sfmvs	f7, 4, [pc], #-460	; 2cc <_Minimum_Stack_Size+0x1cc>
 494:	672f6269 	strvs	r6, [pc, -r9, ror #4]!
 498:	612f6363 			; <UNDEFINED> instruction: 0x612f6363
 49c:	6e2d6d72 	mcrvs	13, 1, r6, cr13, cr2, {3}
 4a0:	2d656e6f 	stclcs	14, cr6, [r5, #-444]!	; 0xfffffe44
 4a4:	69626165 	stmdbvs	r2!, {r0, r2, r5, r6, r8, sp, lr}^
 4a8:	392e342f 	stmdbcc	lr!, {r0, r1, r2, r3, r5, sl, ip, sp}
 4ac:	692f332e 	stmdbvs	pc!, {r1, r2, r3, r5, r8, r9, ip, sp}	; <UNPREDICTABLE>
 4b0:	756c636e 	strbvc	r6, [ip, #-878]!	; 0xfffffc92
 4b4:	00006564 	andeq	r6, r0, r4, ror #10
 4b8:	74696e69 	strbtvc	r6, [r9], #-3689	; 0xfffff197
 4bc:	0100632e 	tsteq	r0, lr, lsr #6
 4c0:	74730000 	ldrbtvc	r0, [r3], #-0
 4c4:	66656464 	strbtvs	r6, [r5], -r4, ror #8
 4c8:	0200682e 	andeq	r6, r0, #3014656	; 0x2e0000
 4cc:	00000000 	andeq	r0, r0, r0
 4d0:	0ee80205 	cdpeq	2, 14, cr0, cr8, cr5, {0}
 4d4:	1c030800 	stcne	8, cr0, [r3], {-0}
 4d8:	003d2401 	eorseq	r2, sp, r1, lsl #8
 4dc:	06030402 	streq	r0, [r3], -r2, lsl #8
 4e0:	0402004a 	streq	r0, [r2], #-74	; 0xffffffb6
 4e4:	00210603 	eoreq	r0, r1, r3, lsl #12
 4e8:	3b030402 	blcc	c14f8 <__Main_Stack_Size+0xc10f8>
 4ec:	00313a33 	eorseq	r3, r1, r3, lsr sl
 4f0:	06030402 	streq	r0, [r3], -r2, lsl #8
 4f4:	0402004a 	streq	r0, [r2], #-74	; 0xffffffb6
 4f8:	00210603 	eoreq	r0, r1, r3, lsl #12
 4fc:	3b030402 	blcc	c150c <__Main_Stack_Size+0xc110c>
 500:	01000d02 	tsteq	r0, r2, lsl #26
 504:	00011801 	andeq	r1, r1, r1, lsl #16
 508:	d2000200 	andle	r0, r0, #0, 4
 50c:	02000000 	andeq	r0, r0, #0
 510:	0d0efb01 	vstreq	d15, [lr, #-4]
 514:	01010100 	mrseq	r0, (UNDEF: 17)
 518:	00000001 	andeq	r0, r0, r1
 51c:	01000001 	tsteq	r0, r1
 520:	2e2f2e2e 	cdpcs	14, 2, cr2, cr15, cr14, {1}
 524:	2e2e2f2e 	cdpcs	15, 2, cr2, cr14, cr14, {1}
 528:	2f2e2e2f 	svccs	0x002e2e2f
 52c:	2e2f2e2e 	cdpcs	14, 2, cr2, cr15, cr14, {1}
 530:	2e2e2f2e 	cdpcs	15, 2, cr2, cr14, cr14, {1}
 534:	77656e2f 	strbvc	r6, [r5, -pc, lsr #28]!
 538:	2f62696c 	svccs	0x0062696c
 53c:	6362696c 	cmnvs	r2, #108, 18	; 0x1b0000
 540:	7274732f 	rsbsvc	r7, r4, #-1140850688	; 0xbc000000
 544:	00676e69 	rsbeq	r6, r7, r9, ror #28
 548:	7273752f 	rsbsvc	r7, r3, #197132288	; 0xbc00000
 54c:	62696c2f 	rsbvs	r6, r9, #12032	; 0x2f00
 550:	6363672f 	cmnvs	r3, #12320768	; 0xbc0000
 554:	6d72612f 	ldfvse	f6, [r2, #-188]!	; 0xffffff44
 558:	6e6f6e2d 	cdpvs	14, 6, cr6, cr15, cr13, {1}
 55c:	61652d65 	cmnvs	r5, r5, ror #26
 560:	342f6962 	strtcc	r6, [pc], #-2402	; 568 <__Main_Stack_Size+0x168>
 564:	332e392e 			; <UNDEFINED> instruction: 0x332e392e
 568:	636e692f 	cmnvs	lr, #770048	; 0xbc000
 56c:	6564756c 	strbvs	r7, [r4, #-1388]!	; 0xfffffa94
 570:	75622f00 	strbvc	r2, [r2, #-3840]!	; 0xfffff100
 574:	2f646c69 	svccs	0x00646c69
 578:	6c77656e 	cfldr64vs	mvdx6, [r7], #-440	; 0xfffffe48
 57c:	352d6269 	strcc	r6, [sp, #-617]!	; 0xfffffd97
 580:	7870777a 	ldmdavc	r0!, {r1, r3, r4, r5, r6, r8, r9, sl, ip, sp, lr}^
 584:	656e2f45 	strbvs	r2, [lr, #-3909]!	; 0xfffff0bb
 588:	62696c77 	rsbvs	r6, r9, #30464	; 0x7700
 58c:	322e322d 	eorcc	r3, lr, #-805306366	; 0xd0000002
 590:	672b302e 	strvs	r3, [fp, -lr, lsr #32]!
 594:	30327469 	eorscc	r7, r2, r9, ror #8
 598:	38303531 	ldmdacc	r0!, {r0, r4, r5, r8, sl, ip, sp}
 59c:	352e3033 	strcc	r3, [lr, #-51]!	; 0xffffffcd
 5a0:	35643361 	strbcc	r3, [r4, #-865]!	; 0xfffffc9f
 5a4:	6e2f3633 	mcrvs	6, 1, r3, cr15, cr3, {1}
 5a8:	696c7765 	stmdbvs	ip!, {r0, r2, r5, r6, r8, r9, sl, ip, sp, lr}^
 5ac:	696c2f62 	stmdbvs	ip!, {r1, r5, r6, r8, r9, sl, fp, sp}^
 5b0:	692f6362 	stmdbvs	pc!, {r1, r5, r6, r8, r9, sp, lr}	; <UNPREDICTABLE>
 5b4:	756c636e 	strbvc	r6, [ip, #-878]!	; 0xfffffc92
 5b8:	00006564 	andeq	r6, r0, r4, ror #10
 5bc:	736d656d 	cmnvc	sp, #457179136	; 0x1b400000
 5c0:	632e7465 			; <UNDEFINED> instruction: 0x632e7465
 5c4:	00000100 	andeq	r0, r0, r0, lsl #2
 5c8:	64647473 	strbtvs	r7, [r4], #-1139	; 0xfffffb8d
 5cc:	682e6665 	stmdavs	lr!, {r0, r2, r5, r6, r9, sl, sp, lr}
 5d0:	00000200 	andeq	r0, r0, r0, lsl #4
 5d4:	69727473 	ldmdbvs	r2!, {r0, r1, r4, r5, r6, sl, ip, sp, lr}^
 5d8:	682e676e 	stmdavs	lr!, {r1, r2, r3, r5, r6, r8, r9, sl, sp, lr}
 5dc:	00000300 	andeq	r0, r0, r0, lsl #6
 5e0:	02050000 	andeq	r0, r5, #0
 5e4:	08000f38 	stmdaeq	r0, {r3, r4, r5, r8, r9, sl, fp}
 5e8:	03013003 	movweq	r3, #4099	; 0x1003
 5ec:	9130200a 	teqls	r0, sl
 5f0:	7503362b 	strvc	r3, [r3, #-1579]	; 0xfffff9d5
 5f4:	2012032e 	andscs	r0, r2, lr, lsr #6
 5f8:	50331b34 	eorspl	r1, r3, r4, lsr fp
 5fc:	22207a03 	eorcs	r7, r0, #12288	; 0x3000
 600:	452f2f2f 	strmi	r2, [pc, #-3887]!	; fffff6d9 <_estack+0xdffaf6d9>
 604:	03820903 	orreq	r0, r2, #49152	; 0xc000
 608:	0c033c77 	stceq	12, cr3, [r3], {119}	; 0x77
 60c:	2c221d2e 	stccs	13, cr1, [r2], #-184	; 0xffffff48
 610:	3d820b03 	vstrcc	d0, [r2, #12]
 614:	5303322d 	movwpl	r3, #12845	; 0x322d
 618:	2077032e 	rsbscs	r0, r7, lr, lsr #6
 61c:	01000202 	tsteq	r0, r2, lsl #4
 620:	00019201 	andeq	r9, r1, r1, lsl #4
 624:	4f000200 	svcmi	0x00000200
 628:	02000001 	andeq	r0, r0, #1
 62c:	0d0efb01 	vstreq	d15, [lr, #-4]
 630:	01010100 	mrseq	r0, (UNDEF: 17)
 634:	00000001 	andeq	r0, r0, r1
 638:	01000001 	tsteq	r0, r1
 63c:	2e2f2e2e 	cdpcs	14, 2, cr2, cr15, cr14, {1}
 640:	2e2e2f2e 	cdpcs	15, 2, cr2, cr14, cr14, {1}
 644:	2f2e2e2f 	svccs	0x002e2e2f
 648:	2e2f2e2e 	cdpcs	14, 2, cr2, cr15, cr14, {1}
 64c:	2e2e2f2e 	cdpcs	15, 2, cr2, cr14, cr14, {1}
 650:	77656e2f 	strbvc	r6, [r5, -pc, lsr #28]!
 654:	2f62696c 	svccs	0x0062696c
 658:	6362696c 	cmnvs	r2, #108, 18	; 0x1b0000
 65c:	6474732f 	ldrbtvs	r7, [r4], #-815	; 0xfffffcd1
 660:	0062696c 	rsbeq	r6, r2, ip, ror #18
 664:	7273752f 	rsbsvc	r7, r3, #197132288	; 0xbc00000
 668:	62696c2f 	rsbvs	r6, r9, #12032	; 0x2f00
 66c:	6363672f 	cmnvs	r3, #12320768	; 0xbc0000
 670:	6d72612f 	ldfvse	f6, [r2, #-188]!	; 0xffffff44
 674:	6e6f6e2d 	cdpvs	14, 6, cr6, cr15, cr13, {1}
 678:	61652d65 	cmnvs	r5, r5, ror #26
 67c:	342f6962 	strtcc	r6, [pc], #-2402	; 684 <__Main_Stack_Size+0x284>
 680:	332e392e 			; <UNDEFINED> instruction: 0x332e392e
 684:	636e692f 	cmnvs	lr, #770048	; 0xbc000
 688:	6564756c 	strbvs	r7, [r4, #-1388]!	; 0xfffffa94
 68c:	75622f00 	strbvc	r2, [r2, #-3840]!	; 0xfffff100
 690:	2f646c69 	svccs	0x00646c69
 694:	6c77656e 	cfldr64vs	mvdx6, [r7], #-440	; 0xfffffe48
 698:	352d6269 	strcc	r6, [sp, #-617]!	; 0xfffffd97
 69c:	7870777a 	ldmdavc	r0!, {r1, r3, r4, r5, r6, r8, r9, sl, ip, sp, lr}^
 6a0:	656e2f45 	strbvs	r2, [lr, #-3909]!	; 0xfffff0bb
 6a4:	62696c77 	rsbvs	r6, r9, #30464	; 0x7700
 6a8:	322e322d 	eorcc	r3, lr, #-805306366	; 0xd0000002
 6ac:	672b302e 	strvs	r3, [fp, -lr, lsr #32]!
 6b0:	30327469 	eorscc	r7, r2, r9, ror #8
 6b4:	38303531 	ldmdacc	r0!, {r0, r4, r5, r8, sl, ip, sp}
 6b8:	352e3033 	strcc	r3, [lr, #-51]!	; 0xffffffcd
 6bc:	35643361 	strbcc	r3, [r4, #-865]!	; 0xfffffc9f
 6c0:	6e2f3633 	mcrvs	6, 1, r3, cr15, cr3, {1}
 6c4:	696c7765 	stmdbvs	ip!, {r0, r2, r5, r6, r8, r9, sl, ip, sp, lr}^
 6c8:	696c2f62 	stmdbvs	ip!, {r1, r5, r6, r8, r9, sl, fp, sp}^
 6cc:	692f6362 	stmdbvs	pc!, {r1, r5, r6, r8, r9, sp, lr}	; <UNPREDICTABLE>
 6d0:	756c636e 	strbvc	r6, [ip, #-878]!	; 0xfffffc92
 6d4:	732f6564 			; <UNDEFINED> instruction: 0x732f6564
 6d8:	2f007379 	svccs	0x00007379
 6dc:	6c697562 	cfstr64vs	mvdx7, [r9], #-392	; 0xfffffe78
 6e0:	656e2f64 	strbvs	r2, [lr, #-3940]!	; 0xfffff09c
 6e4:	62696c77 	rsbvs	r6, r9, #30464	; 0x7700
 6e8:	777a352d 	ldrbvc	r3, [sl, -sp, lsr #10]!
 6ec:	2f457870 	svccs	0x00457870
 6f0:	6c77656e 	cfldr64vs	mvdx6, [r7], #-440	; 0xfffffe48
 6f4:	322d6269 	eorcc	r6, sp, #-1879048186	; 0x90000006
 6f8:	302e322e 	eorcc	r3, lr, lr, lsr #4
 6fc:	7469672b 	strbtvc	r6, [r9], #-1835	; 0xfffff8d5
 700:	35313032 	ldrcc	r3, [r1, #-50]!	; 0xffffffce
 704:	30333830 	eorscc	r3, r3, r0, lsr r8
 708:	3361352e 	cmncc	r1, #192937984	; 0xb800000
 70c:	36333564 	ldrtcc	r3, [r3], -r4, ror #10
 710:	77656e2f 	strbvc	r6, [r5, -pc, lsr #28]!
 714:	2f62696c 	svccs	0x0062696c
 718:	6362696c 	cmnvs	r2, #108, 18	; 0x1b0000
 71c:	636e692f 	cmnvs	lr, #770048	; 0xbc000
 720:	6564756c 	strbvs	r7, [r4, #-1388]!	; 0xfffffa94
 724:	5f5f0000 	svcpl	0x005f0000
 728:	78657461 	stmdavc	r5!, {r0, r5, r6, sl, ip, sp, lr}^
 72c:	632e7469 			; <UNDEFINED> instruction: 0x632e7469
 730:	00000100 	andeq	r0, r0, r0, lsl #2
 734:	64647473 	strbtvs	r7, [r4], #-1139	; 0xfffffb8d
 738:	682e6665 	stmdavs	lr!, {r0, r2, r5, r6, r9, sl, sp, lr}
 73c:	00000200 	andeq	r0, r0, r0, lsl #4
 740:	6b636f6c 	blvs	18dc4f8 <__Main_Stack_Size+0x18dc0f8>
 744:	0300682e 	movweq	r6, #2094	; 0x82e
 748:	745f0000 	ldrbvc	r0, [pc], #-0	; 750 <__Main_Stack_Size+0x350>
 74c:	73657079 	cmnvc	r5, #121	; 0x79
 750:	0300682e 	movweq	r6, #2094	; 0x82e
 754:	65720000 	ldrbvs	r0, [r2, #-0]!
 758:	2e746e65 	cdpcs	14, 7, cr6, cr4, cr5, {3}
 75c:	00030068 	andeq	r0, r3, r8, rrx
 760:	65746100 	ldrbvs	r6, [r4, #-256]!	; 0xffffff00
 764:	2e746978 	mrccs	9, 3, r6, cr4, cr8, {3}
 768:	00010068 	andeq	r0, r1, r8, rrx
 76c:	64747300 	ldrbtvs	r7, [r4], #-768	; 0xfffffd00
 770:	2e62696c 	cdpcs	9, 6, cr6, cr2, cr12, {3}
 774:	00040068 	andeq	r0, r4, r8, rrx
 778:	05000000 	streq	r0, [r0, #-0]
 77c:	000fd402 	andeq	sp, pc, r2, lsl #8
 780:	00c70308 	sbceq	r0, r7, r8, lsl #6
 784:	78033601 	stmdavc	r3, {r0, r9, sl, ip, sp}
 788:	4a09034a 	bmi	2414b8 <__Main_Stack_Size+0x2410b8>
 78c:	4a1e0322 	bmi	78141c <__Main_Stack_Size+0x78101c>
 790:	1f3c1803 	svcne	0x003c1803
 794:	2f1e5a2f 	svccs	0x001e5a2f
 798:	214e232f 	cmpcs	lr, pc, lsr #6
 79c:	312e4703 			; <UNDEFINED> instruction: 0x312e4703
 7a0:	212d364b 			; <UNDEFINED> instruction: 0x212d364b
 7a4:	2f2d312f 	svccs	0x002d312f
 7a8:	3c1b0335 	ldccc	3, cr0, [fp], {53}	; 0x35
 7ac:	03664603 	cmneq	r6, #3145728	; 0x300000
 7b0:	08025809 	stmdaeq	r2, {r0, r3, fp, ip, lr}
 7b4:	c4010100 	strgt	r0, [r1], #-256	; 0xffffff00
 7b8:	02000001 	andeq	r0, r0, #1
 7bc:	00014800 	andeq	r4, r1, r0, lsl #16
 7c0:	fb010200 	blx	40fca <__Main_Stack_Size+0x40bca>
 7c4:	01000d0e 	tsteq	r0, lr, lsl #26
 7c8:	00010101 	andeq	r0, r1, r1, lsl #2
 7cc:	00010000 	andeq	r0, r1, r0
 7d0:	2e2e0100 	sufcse	f0, f6, f0
 7d4:	2f2e2e2f 	svccs	0x002e2e2f
 7d8:	2e2f2e2e 	cdpcs	14, 2, cr2, cr15, cr14, {1}
 7dc:	2e2e2f2e 	cdpcs	15, 2, cr2, cr14, cr14, {1}
 7e0:	2f2e2e2f 	svccs	0x002e2e2f
 7e4:	6e2f2e2e 	cdpvs	14, 2, cr2, cr15, cr14, {1}
 7e8:	696c7765 	stmdbvs	ip!, {r0, r2, r5, r6, r8, r9, sl, ip, sp, lr}^
 7ec:	696c2f62 	stmdbvs	ip!, {r1, r5, r6, r8, r9, sl, fp, sp}^
 7f0:	732f6362 			; <UNDEFINED> instruction: 0x732f6362
 7f4:	696c6474 	stmdbvs	ip!, {r2, r4, r5, r6, sl, sp, lr}^
 7f8:	622f0062 	eorvs	r0, pc, #98	; 0x62
 7fc:	646c6975 	strbtvs	r6, [ip], #-2421	; 0xfffff68b
 800:	77656e2f 	strbvc	r6, [r5, -pc, lsr #28]!
 804:	2d62696c 	stclcs	9, cr6, [r2, #-432]!	; 0xfffffe50
 808:	70777a35 	rsbsvc	r7, r7, r5, lsr sl
 80c:	6e2f4578 	mcrvs	5, 1, r4, cr15, cr8, {3}
 810:	696c7765 	stmdbvs	ip!, {r0, r2, r5, r6, r8, r9, sl, ip, sp, lr}^
 814:	2e322d62 	cdpcs	13, 3, cr2, cr2, cr2, {3}
 818:	2b302e32 	blcs	c0c0e8 <__Main_Stack_Size+0xc0bce8>
 81c:	32746967 	rsbscc	r6, r4, #1687552	; 0x19c000
 820:	30353130 	eorscc	r3, r5, r0, lsr r1
 824:	2e303338 	mrccs	3, 1, r3, cr0, cr8, {1}
 828:	64336135 	ldrtvs	r6, [r3], #-309	; 0xfffffecb
 82c:	2f363335 	svccs	0x00363335
 830:	6c77656e 	cfldr64vs	mvdx6, [r7], #-440	; 0xfffffe48
 834:	6c2f6269 	sfmvs	f6, 4, [pc], #-420	; 698 <__Main_Stack_Size+0x298>
 838:	2f636269 	svccs	0x00636269
 83c:	6c636e69 	stclvs	14, cr6, [r3], #-420	; 0xfffffe5c
 840:	2f656475 	svccs	0x00656475
 844:	00737973 	rsbseq	r7, r3, r3, ror r9
 848:	7273752f 	rsbsvc	r7, r3, #197132288	; 0xbc00000
 84c:	62696c2f 	rsbvs	r6, r9, #12032	; 0x2f00
 850:	6363672f 	cmnvs	r3, #12320768	; 0xbc0000
 854:	6d72612f 	ldfvse	f6, [r2, #-188]!	; 0xffffff44
 858:	6e6f6e2d 	cdpvs	14, 6, cr6, cr15, cr13, {1}
 85c:	61652d65 	cmnvs	r5, r5, ror #26
 860:	342f6962 	strtcc	r6, [pc], #-2402	; 868 <__Main_Stack_Size+0x468>
 864:	332e392e 			; <UNDEFINED> instruction: 0x332e392e
 868:	636e692f 	cmnvs	lr, #770048	; 0xbc000
 86c:	6564756c 	strbvs	r7, [r4, #-1388]!	; 0xfffffa94
 870:	75622f00 	strbvc	r2, [r2, #-3840]!	; 0xfffff100
 874:	2f646c69 	svccs	0x00646c69
 878:	6c77656e 	cfldr64vs	mvdx6, [r7], #-440	; 0xfffffe48
 87c:	352d6269 	strcc	r6, [sp, #-617]!	; 0xfffffd97
 880:	7870777a 	ldmdavc	r0!, {r1, r3, r4, r5, r6, r8, r9, sl, ip, sp, lr}^
 884:	656e2f45 	strbvs	r2, [lr, #-3909]!	; 0xfffff0bb
 888:	62696c77 	rsbvs	r6, r9, #30464	; 0x7700
 88c:	322e322d 	eorcc	r3, lr, #-805306366	; 0xd0000002
 890:	672b302e 	strvs	r3, [fp, -lr, lsr #32]!
 894:	30327469 	eorscc	r7, r2, r9, ror #8
 898:	38303531 	ldmdacc	r0!, {r0, r4, r5, r8, sl, ip, sp}
 89c:	352e3033 	strcc	r3, [lr, #-51]!	; 0xffffffcd
 8a0:	35643361 	strbcc	r3, [r4, #-865]!	; 0xfffffc9f
 8a4:	6e2f3633 	mcrvs	6, 1, r3, cr15, cr3, {1}
 8a8:	696c7765 	stmdbvs	ip!, {r0, r2, r5, r6, r8, r9, sl, ip, sp, lr}^
 8ac:	696c2f62 	stmdbvs	ip!, {r1, r5, r6, r8, r9, sl, fp, sp}^
 8b0:	692f6362 	stmdbvs	pc!, {r1, r5, r6, r8, r9, sp, lr}	; <UNPREDICTABLE>
 8b4:	756c636e 	strbvc	r6, [ip, #-878]!	; 0xfffffc92
 8b8:	00006564 	andeq	r6, r0, r4, ror #10
 8bc:	61635f5f 	cmnvs	r3, pc, asr pc
 8c0:	615f6c6c 	cmpvs	pc, ip, ror #24
 8c4:	69786574 	ldmdbvs	r8!, {r2, r4, r5, r6, r8, sl, sp, lr}^
 8c8:	00632e74 	rsbeq	r2, r3, r4, ror lr
 8cc:	6c000001 	stcvs	0, cr0, [r0], {1}
 8d0:	2e6b636f 	cdpcs	3, 6, cr6, cr11, cr15, {3}
 8d4:	00020068 	andeq	r0, r2, r8, rrx
 8d8:	79745f00 	ldmdbvc	r4!, {r8, r9, sl, fp, ip, lr}^
 8dc:	2e736570 	mrccs	5, 3, r6, cr3, cr0, {3}
 8e0:	00020068 	andeq	r0, r2, r8, rrx
 8e4:	64747300 	ldrbtvs	r7, [r4], #-768	; 0xfffffd00
 8e8:	2e666564 	cdpcs	5, 6, cr6, cr6, cr4, {3}
 8ec:	00030068 	andeq	r0, r3, r8, rrx
 8f0:	65657200 	strbvs	r7, [r5, #-512]!	; 0xfffffe00
 8f4:	682e746e 	stmdavs	lr!, {r1, r2, r3, r5, r6, sl, ip, sp, lr}
 8f8:	00000200 	andeq	r0, r0, r0, lsl #4
 8fc:	6c647473 	cfstrdvs	mvd7, [r4], #-460	; 0xfffffe34
 900:	682e6269 	stmdavs	lr!, {r0, r3, r5, r6, r9, sp, lr}
 904:	00000400 	andeq	r0, r0, r0, lsl #8
 908:	02050000 	andeq	r0, r5, #0
 90c:	08001078 	stmdaeq	r0, {r3, r4, r5, r6, ip}
 910:	13012d03 	movwne	r2, #7427	; 0x1d03
 914:	00080231 	andeq	r0, r8, r1, lsr r2
 918:	05000101 	streq	r0, [r0, #-257]	; 0xfffffeff
 91c:	00108c02 	andseq	r8, r0, r2, lsl #24
 920:	00c30308 	sbceq	r0, r3, r8, lsl #6
 924:	0f038201 	svceq	0x00038201
 928:	03433e3c 	movteq	r3, #15932	; 0x3e3c
 92c:	77036610 	smladvc	r3, r0, r6, r6
 930:	0402002e 	streq	r0, [r2], #-46	; 0xffffffd2
 934:	06200602 	strteq	r0, [r0], -r2, lsl #12
 938:	034a7903 	movteq	r7, #43267	; 0xa903
 93c:	0033582c 	eorseq	r5, r3, ip, lsr #16
 940:	06010402 	streq	r0, [r1], -r2, lsl #8
 944:	1b44063c 	blne	110223c <__Main_Stack_Size+0x1101e3c>
 948:	bf032f33 	svclt	0x00032f33
 94c:	ce032e7f 	mcrgt	14, 0, r2, cr3, cr15, {3}
 950:	46032e00 	strmi	r2, [r3], -r0, lsl #28
 954:	2f211f3c 	svccs	0x00211f3c
 958:	2b343130 	blcs	d0ce20 <__Main_Stack_Size+0xd0ca20>
 95c:	032e6e03 			; <UNDEFINED> instruction: 0x032e6e03
 960:	032f2e15 			; <UNDEFINED> instruction: 0x032f2e15
 964:	02002009 	andeq	r2, r0, #9
 968:	3c060104 	stfccs	f0, [r6], {4}
 96c:	58780306 	ldmdapl	r8!, {r1, r2, r8, r9}^
 970:	20035a4b 	andcs	r5, r3, fp, asr #20
 974:	ba032158 	blt	c8edc <__Main_Stack_Size+0xc8adc>
 978:	0802207f 	stmdaeq	r2, {r0, r1, r2, r3, r4, r5, r6, sp}
 97c:	5c010100 	stfpls	f0, [r1], {-0}
 980:	02000000 	andeq	r0, r0, #0
 984:	00004200 	andeq	r4, r0, r0, lsl #4
 988:	fb010200 	blx	41192 <__Main_Stack_Size+0x40d92>
 98c:	01000d0e 	tsteq	r0, lr, lsl #26
 990:	00010101 	andeq	r0, r1, r1, lsl #2
 994:	00010000 	andeq	r0, r1, r0
 998:	2e2e0100 	sufcse	f0, f6, f0
 99c:	2f2e2e2f 	svccs	0x002e2e2f
 9a0:	2e2f2e2e 	cdpcs	14, 2, cr2, cr15, cr14, {1}
 9a4:	2e2e2f2e 	cdpcs	15, 2, cr2, cr14, cr14, {1}
 9a8:	2f2e2e2f 	svccs	0x002e2e2f
 9ac:	6762696c 	strbvs	r6, [r2, -ip, ror #18]!
 9b0:	73736f6c 	cmnvc	r3, #108, 30	; 0x1b0
 9b4:	62696c2f 	rsbvs	r6, r9, #12032	; 0x2f00
 9b8:	79736f6e 	ldmdbvc	r3!, {r1, r2, r3, r5, r6, r8, r9, sl, fp, sp, lr}^
 9bc:	5f000073 	svcpl	0x00000073
 9c0:	74697865 	strbtvc	r7, [r9], #-2149	; 0xfffff79b
 9c4:	0100632e 	tsteq	r0, lr, lsr #6
 9c8:	00000000 	andeq	r0, r0, r0
 9cc:	11600205 	cmnne	r0, r5, lsl #4
 9d0:	0a030800 	beq	c29d8 <__Main_Stack_Size+0xc25d8>
 9d4:	04020001 	streq	r0, [r2], #-1
 9d8:	01021901 	tsteq	r2, r1, lsl #18
 9dc:	Address 0x00000000000009dc is out of bounds.


Disassembly of section .debug_frame:

00000000 <.debug_frame>:
   0:	0000000c 	andeq	r0, r0, ip
   4:	ffffffff 			; <UNDEFINED> instruction: 0xffffffff
   8:	7c020001 	stcvc	0, cr0, [r2], {1}
   c:	000d0c0e 	andeq	r0, sp, lr, lsl #24
  10:	0000000c 	andeq	r0, r0, ip
  14:	00000000 	andeq	r0, r0, r0
  18:	08000e90 	stmdaeq	r0, {r4, r7, r9, sl, fp}
  1c:	0000000c 	andeq	r0, r0, ip
  20:	0000000c 	andeq	r0, r0, ip
  24:	ffffffff 			; <UNDEFINED> instruction: 0xffffffff
  28:	7c020001 	stcvc	0, cr0, [r2], {1}
  2c:	000d0c0e 	andeq	r0, sp, lr, lsl #24
  30:	00000014 	andeq	r0, r0, r4, lsl r0
  34:	00000020 	andeq	r0, r0, r0, lsr #32
  38:	08000e9c 	stmdaeq	r0, {r2, r3, r4, r7, r9, sl, fp}
  3c:	00000020 	andeq	r0, r0, r0, lsr #32
  40:	83080e41 	movwhi	r0, #36417	; 0x8e41
  44:	00018e02 	andeq	r8, r1, r2, lsl #28
  48:	0000000c 	andeq	r0, r0, ip
  4c:	ffffffff 			; <UNDEFINED> instruction: 0xffffffff
  50:	7c020001 	stcvc	0, cr0, [r2], {1}
  54:	000d0c0e 	andeq	r0, sp, lr, lsl #24
  58:	00000020 	andeq	r0, r0, r0, lsr #32
  5c:	00000048 	andeq	r0, r0, r8, asr #32
  60:	08000ebc 	stmdaeq	r0, {r2, r3, r4, r5, r7, r9, sl, fp}
  64:	0000002c 	andeq	r0, r0, ip, lsr #32
  68:	83100e41 	tsthi	r0, #1040	; 0x410
  6c:	85038404 	strhi	r8, [r3, #-1028]	; 0xfffffbfc
  70:	4f018e02 	svcmi	0x00018e02
  74:	c3c4c5ce 	bicgt	ip, r4, #864026624	; 0x33800000
  78:	0000000e 	andeq	r0, r0, lr
  7c:	0000000c 	andeq	r0, r0, ip
  80:	ffffffff 			; <UNDEFINED> instruction: 0xffffffff
  84:	7c020001 	stcvc	0, cr0, [r2], {1}
  88:	000d0c0e 	andeq	r0, sp, lr, lsl #24
  8c:	00000018 	andeq	r0, r0, r8, lsl r0
  90:	0000007c 	andeq	r0, r0, ip, ror r0
  94:	08000ee8 	stmdaeq	r0, {r3, r5, r6, r7, r9, sl, fp}
  98:	00000050 	andeq	r0, r0, r0, asr r0
  9c:	84100e41 	ldrhi	r0, [r0], #-3649	; 0xfffff1bf
  a0:	86038504 	strhi	r8, [r3], -r4, lsl #10
  a4:	00018e02 	andeq	r8, r1, r2, lsl #28
  a8:	0000000c 	andeq	r0, r0, ip
  ac:	ffffffff 			; <UNDEFINED> instruction: 0xffffffff
  b0:	7c020001 	stcvc	0, cr0, [r2], {1}
  b4:	000d0c0e 	andeq	r0, sp, lr, lsl #24
  b8:	00000020 	andeq	r0, r0, r0, lsr #32
  bc:	000000a8 	andeq	r0, r0, r8, lsr #1
  c0:	08000f38 	stmdaeq	r0, {r3, r4, r5, r8, r9, sl, fp}
  c4:	0000009a 	muleq	r0, sl, r0
  c8:	840c0e41 	strhi	r0, [ip], #-3649	; 0xfffff1bf
  cc:	86028503 	strhi	r8, [r2], -r3, lsl #10
  d0:	0a480201 	beq	12008dc <__Main_Stack_Size+0x12004dc>
  d4:	0ec4c5c6 	cdpeq	5, 12, cr12, cr4, cr6, {6}
  d8:	000b4100 	andeq	r4, fp, r0, lsl #2
  dc:	0000000c 	andeq	r0, r0, ip
  e0:	ffffffff 			; <UNDEFINED> instruction: 0xffffffff
  e4:	7c020001 	stcvc	0, cr0, [r2], {1}
  e8:	000d0c0e 	andeq	r0, sp, lr, lsl #24
  ec:	00000020 	andeq	r0, r0, r0, lsr #32
  f0:	000000dc 	ldrdeq	r0, [r0], -ip
  f4:	08000fd4 	stmdaeq	r0, {r2, r4, r6, r7, r8, r9, sl, fp}
  f8:	000000a4 	andeq	r0, r0, r4, lsr #1
  fc:	84200e42 	strthi	r0, [r0], #-3650	; 0xfffff1be
 100:	86078508 	strhi	r8, [r7], -r8, lsl #10
 104:	88058706 	stmdahi	r5, {r1, r2, r8, r9, sl, pc}
 108:	8a038904 	bhi	e2520 <__Main_Stack_Size+0xe2120>
 10c:	00018e02 	andeq	r8, r1, r2, lsl #28
 110:	0000000c 	andeq	r0, r0, ip
 114:	ffffffff 			; <UNDEFINED> instruction: 0xffffffff
 118:	7c020001 	stcvc	0, cr0, [r2], {1}
 11c:	000d0c0e 	andeq	r0, sp, lr, lsl #24
 120:	0000000c 	andeq	r0, r0, ip
 124:	00000110 	andeq	r0, r0, r0, lsl r1
 128:	08001078 	stmdaeq	r0, {r3, r4, r5, r6, ip}
 12c:	00000014 	andeq	r0, r0, r4, lsl r0
 130:	0000002c 	andeq	r0, r0, ip, lsr #32
 134:	00000110 	andeq	r0, r0, r0, lsl r1
 138:	0800108c 	stmdaeq	r0, {r2, r3, r7, ip}
 13c:	000000d4 	ldrdeq	r0, [r0], -r4
 140:	84240e42 	strthi	r0, [r4], #-3650	; 0xfffff1be
 144:	86088509 	strhi	r8, [r8], -r9, lsl #10
 148:	88068707 	stmdahi	r6, {r0, r1, r2, r8, r9, sl, pc}
 14c:	8a048905 	bhi	122568 <__Main_Stack_Size+0x122168>
 150:	8e028b03 	vmlahi.f64	d8, d2, d3
 154:	300e4201 	andcc	r4, lr, r1, lsl #4
 158:	240e0a71 	strcs	r0, [lr], #-2673	; 0xfffff58f
 15c:	00000b42 	andeq	r0, r0, r2, asr #22
 160:	0000000c 	andeq	r0, r0, ip
 164:	ffffffff 			; <UNDEFINED> instruction: 0xffffffff
 168:	7c020001 	stcvc	0, cr0, [r2], {1}
 16c:	000d0c0e 	andeq	r0, sp, lr, lsl #24
 170:	0000000c 	andeq	r0, r0, ip
 174:	00000160 	andeq	r0, r0, r0, ror #2
 178:	08001160 	stmdaeq	r0, {r5, r6, r8, ip}
 17c:	00000002 	andeq	r0, r0, r2

Disassembly of section .debug_str:

00000000 <.debug_str>:
   0:	676e6f6c 	strbvs	r6, [lr, -ip, ror #30]!
   4:	6e6f6c20 	cdpvs	12, 6, cr6, cr15, cr0, {1}
   8:	6e692067 	cdpvs	0, 6, cr2, cr9, cr7, {3}
   c:	68730074 	ldmdavs	r3!, {r2, r4, r5, r6}^
  10:	2074726f 	rsbscs	r7, r4, pc, ror #4
  14:	69736e75 	ldmdbvs	r3!, {r0, r2, r4, r5, r6, r9, sl, fp, sp, lr}^
  18:	64656e67 	strbtvs	r6, [r5], #-3687	; 0xfffff199
  1c:	746e6920 	strbtvc	r6, [lr], #-2336	; 0xfffff6e0
  20:	615f5f00 	cmpvs	pc, r0, lsl #30
  24:	69786574 	ldmdbvs	r8!, {r2, r4, r5, r6, r8, sl, sp, lr}^
  28:	79745f74 	ldmdbvc	r4!, {r2, r4, r5, r6, r8, r9, sl, fp, ip, lr}^
  2c:	00736570 	rsbseq	r6, r3, r0, ror r5
  30:	2e2f2e2e 	cdpcs	14, 2, cr2, cr15, cr14, {1}
  34:	2e2e2f2e 	cdpcs	15, 2, cr2, cr14, cr14, {1}
  38:	2f2e2e2f 	svccs	0x002e2e2f
  3c:	2e2f2e2e 	cdpcs	14, 2, cr2, cr15, cr14, {1}
  40:	2e2e2f2e 	cdpcs	15, 2, cr2, cr14, cr14, {1}
  44:	77656e2f 	strbvc	r6, [r5, -pc, lsr #28]!
  48:	2f62696c 	svccs	0x0062696c
  4c:	6362696c 	cmnvs	r2, #108, 18	; 0x1b0000
  50:	6474732f 	ldrbtvs	r7, [r4], #-815	; 0xfffffcd1
  54:	2f62696c 	svccs	0x0062696c
  58:	78657461 	stmdavc	r5!, {r0, r5, r6, sl, ip, sp, lr}^
  5c:	632e7469 			; <UNDEFINED> instruction: 0x632e7469
  60:	6e6f6c00 	cdpvs	12, 6, cr6, cr15, cr0, {0}
  64:	6f6c2067 	svcvs	0x006c2067
  68:	7520676e 	strvc	r6, [r0, #-1902]!	; 0xfffff892
  6c:	6769736e 	strbvs	r7, [r9, -lr, ror #6]!
  70:	2064656e 	rsbcs	r6, r4, lr, ror #10
  74:	00746e69 	rsbseq	r6, r4, r9, ror #28
  78:	69736e75 	ldmdbvs	r3!, {r0, r2, r4, r5, r6, r9, sl, fp, sp, lr}^
  7c:	64656e67 	strbtvs	r6, [r5], #-3687	; 0xfffff199
  80:	61686320 	cmnvs	r8, r0, lsr #6
  84:	5f5f0072 	svcpl	0x005f0072
  88:	615f7465 	cmpvs	pc, r5, ror #8
  8c:	69786574 	ldmdbvs	r8!, {r2, r4, r5, r6, r8, sl, sp, lr}^
  90:	5f5f0074 	svcpl	0x005f0074
  94:	69676572 	stmdbvs	r7!, {r1, r4, r5, r6, r8, sl, sp, lr}^
  98:	72657473 	rsbvc	r7, r5, #1929379840	; 0x73000000
  9c:	6978655f 	ldmdbvs	r8!, {r0, r1, r2, r3, r4, r6, r8, sl, sp, lr}^
  a0:	6f727074 	svcvs	0x00727074
  a4:	5f5f0063 	svcpl	0x005f0063
  a8:	6f5f7465 	svcvs	0x005f7465
  ac:	6978656e 	ldmdbvs	r8!, {r1, r2, r3, r5, r6, r8, sl, sp, lr}^
  b0:	622f0074 	eorvs	r0, pc, #116	; 0x74
  b4:	646c6975 	strbtvs	r6, [ip], #-2421	; 0xfffff68b
  b8:	77656e2f 	strbvc	r6, [r5, -pc, lsr #28]!
  bc:	2d62696c 	stclcs	9, cr6, [r2, #-432]!	; 0xfffffe50
  c0:	70777a35 	rsbsvc	r7, r7, r5, lsr sl
  c4:	6e2f4578 	mcrvs	5, 1, r4, cr15, cr8, {3}
  c8:	696c7765 	stmdbvs	ip!, {r0, r2, r5, r6, r8, r9, sl, ip, sp, lr}^
  cc:	2e322d62 	cdpcs	13, 3, cr2, cr2, cr2, {3}
  d0:	2b302e32 	blcs	c0b9a0 <__Main_Stack_Size+0xc0b5a0>
  d4:	32746967 	rsbscc	r6, r4, #1687552	; 0x19c000
  d8:	30353130 	eorscc	r3, r5, r0, lsr r1
  dc:	2e303338 	mrccs	3, 1, r3, cr0, cr8, {1}
  e0:	64336135 	ldrtvs	r6, [r3], #-309	; 0xfffffecb
  e4:	2f363335 	svccs	0x00363335
  e8:	6c697562 	cfstr64vs	mvdx7, [r9], #-392	; 0xfffffe78
  ec:	72612f64 	rsbvc	r2, r1, #100, 30	; 0x190
  f0:	6f6e2d6d 	svcvs	0x006e2d6d
  f4:	652d656e 	strvs	r6, [sp, #-1390]!	; 0xfffffa92
  f8:	2f696261 	svccs	0x00696261
  fc:	766d7261 	strbtvc	r7, [sp], -r1, ror #4
 100:	6d2d6537 	cfstr32vs	mvfx6, [sp, #-220]!	; 0xffffff24
 104:	7570662f 	ldrbvc	r6, [r0, #-1583]!	; 0xfffff9d1
 108:	77656e2f 	strbvc	r6, [r5, -pc, lsr #28]!
 10c:	2f62696c 	svccs	0x0062696c
 110:	6362696c 	cmnvs	r2, #108, 18	; 0x1b0000
 114:	6474732f 	ldrbtvs	r7, [r4], #-815	; 0xfffffcd1
 118:	0062696c 	rsbeq	r6, r2, ip, ror #18
 11c:	74655f5f 	strbtvc	r5, [r5], #-3935	; 0xfffff0a1
 120:	6178635f 	cmnvs	r8, pc, asr r3
 124:	6f687300 	svcvs	0x00687300
 128:	69207472 	stmdbvs	r0!, {r1, r4, r5, r6, sl, ip, sp, lr}
 12c:	4700746e 	strmi	r7, [r0, -lr, ror #8]
 130:	4320554e 			; <UNDEFINED> instruction: 0x4320554e
 134:	392e3420 	stmdbcc	lr!, {r5, sl, ip, sp}
 138:	3220332e 	eorcc	r3, r0, #-1207959552	; 0xb8000000
 13c:	30353130 	eorscc	r3, r5, r0, lsr r1
 140:	20393235 	eorscs	r3, r9, r5, lsr r2
 144:	65727028 	ldrbvs	r7, [r2, #-40]!	; 0xffffffd8
 148:	656c6572 	strbvs	r6, [ip, #-1394]!	; 0xfffffa8e
 14c:	29657361 	stmdbcs	r5!, {r0, r5, r6, r8, r9, ip, sp, lr}^
 150:	746d2d20 	strbtvc	r2, [sp], #-3360	; 0xfffff2e0
 154:	626d7568 	rsbvs	r7, sp, #104, 10	; 0x1a000000
 158:	616d2d20 	cmnvs	sp, r0, lsr #26
 15c:	3d686372 	stclcc	3, cr6, [r8, #-456]!	; 0xfffffe38
 160:	766d7261 	strbtvc	r7, [sp], -r1, ror #4
 164:	6d2d6537 	cfstr32vs	mvfx6, [sp, #-220]!	; 0xffffff24
 168:	666d2d20 	strbtvs	r2, [sp], -r0, lsr #26
 16c:	74616f6c 	strbtvc	r6, [r1], #-3948	; 0xfffff094
 170:	6962612d 	stmdbvs	r2!, {r0, r2, r3, r5, r8, sp, lr}^
 174:	7261683d 	rsbvc	r6, r1, #3997696	; 0x3d0000
 178:	6d2d2064 	stcvs	0, cr2, [sp, #-400]!	; 0xfffffe70
 17c:	3d757066 	ldclcc	0, cr7, [r5, #-408]!	; 0xfffffe68
 180:	34767066 	ldrbtcc	r7, [r6], #-102	; 0xffffff9a
 184:	2d70732d 	ldclcs	3, cr7, [r0, #-180]!	; 0xffffff4c
 188:	20363164 	eorscs	r3, r6, r4, ror #2
 18c:	68746d2d 	ldmdavs	r4!, {r0, r2, r3, r5, r8, sl, fp, sp, lr}^
 190:	20626d75 	rsbcs	r6, r2, r5, ror sp
 194:	72616d2d 	rsbvc	r6, r1, #2880	; 0xb40
 198:	613d6863 	teqvs	sp, r3, ror #16
 19c:	37766d72 			; <UNDEFINED> instruction: 0x37766d72
 1a0:	206d2d65 	rsbcs	r2, sp, r5, ror #26
 1a4:	6c666d2d 	stclvs	13, cr6, [r6], #-180	; 0xffffff4c
 1a8:	2d74616f 	ldfcse	f6, [r4, #-444]!	; 0xfffffe44
 1ac:	3d696261 	sfmcc	f6, 2, [r9, #-388]!	; 0xfffffe7c
 1b0:	64726168 	ldrbtvs	r6, [r2], #-360	; 0xfffffe98
 1b4:	666d2d20 	strbtvs	r2, [sp], -r0, lsr #26
 1b8:	663d7570 			; <UNDEFINED> instruction: 0x663d7570
 1bc:	2d347670 	ldccs	6, cr7, [r4, #-448]!	; 0xfffffe40
 1c0:	642d7073 	strtvs	r7, [sp], #-115	; 0xffffff8d
 1c4:	2d203631 	stccs	6, cr3, [r0, #-196]!	; 0xffffff3c
 1c8:	4f2d2067 	svcmi	0x002d2067
 1cc:	662d2032 			; <UNDEFINED> instruction: 0x662d2032
 1d0:	622d6f6e 	eorvs	r6, sp, #440	; 0x1b8
 1d4:	746c6975 	strbtvc	r6, [ip], #-2421	; 0xfffff68b
 1d8:	2d206e69 	stccs	14, cr6, [r0, #-420]!	; 0xfffffe5c
 1dc:	6e756666 	cdpvs	6, 7, cr6, cr5, cr6, {3}
 1e0:	6f697463 	svcvs	0x00697463
 1e4:	65732d6e 	ldrbvs	r2, [r3, #-3438]!	; 0xfffff292
 1e8:	6f697463 	svcvs	0x00697463
 1ec:	2d20736e 	stccs	3, cr7, [r0, #-440]!	; 0xfffffe48
 1f0:	74616466 	strbtvc	r6, [r1], #-1126	; 0xfffffb9a
 1f4:	65732d61 	ldrbvs	r2, [r3, #-3425]!	; 0xfffff29f
 1f8:	6f697463 	svcvs	0x00697463
 1fc:	7300736e 	movwvc	r7, #878	; 0x36e
 200:	74657a69 	strbtvc	r7, [r5], #-2665	; 0xfffff597
 204:	00657079 	rsbeq	r7, r5, r9, ror r0
 208:	6f73645f 	svcvs	0x0073645f
 20c:	6e61685f 	mcrvs	8, 3, r6, cr1, cr15, {2}
 210:	00656c64 	rsbeq	r6, r5, r4, ror #24
 214:	7a69735f 	bvc	1a5cf98 <__Main_Stack_Size+0x1a5cb98>
 218:	725f0065 	subsvc	r0, pc, #101	; 0x65
 21c:	34646e61 	strbtcc	r6, [r4], #-3681	; 0xfffff19f
 220:	655f0038 	ldrbvs	r0, [pc, #-56]	; 1f0 <_Minimum_Stack_Size+0xf0>
 224:	6772656d 	ldrbvs	r6, [r2, -sp, ror #10]!
 228:	79636e65 	stmdbvc	r3!, {r0, r2, r5, r6, r9, sl, fp, sp, lr}^
 22c:	63775f00 	cmnvs	r7, #0, 30
 230:	6d6f7472 	cfstrdvs	mvd7, [pc, #-456]!	; 70 <_Minimum_Stack_Size-0x90>
 234:	74735f62 	ldrbtvc	r5, [r3], #-3938	; 0xfffff09e
 238:	00657461 	rsbeq	r7, r5, r1, ror #8
 23c:	7363775f 	cmnvc	r3, #24903680	; 0x17c0000
 240:	6d6f7472 	cfstrdvs	mvd7, [pc, #-456]!	; 80 <_Minimum_Stack_Size-0x80>
 244:	735f7362 	cmpvc	pc, #-2013265919	; 0x88000001
 248:	65746174 	ldrbvs	r6, [r4, #-372]!	; 0xfffffe8c
 24c:	626c5f00 	rsbvs	r5, ip, #0, 30
 250:	7a697366 	bvc	1a5cff0 <__Main_Stack_Size+0x1a5cbf0>
 254:	6d5f0065 	ldclvs	0, cr0, [pc, #-404]	; c8 <_Minimum_Stack_Size-0x38>
 258:	6f747262 	svcvs	0x00747262
 25c:	735f6377 	cmpvc	pc, #-603979775	; 0xdc000001
 260:	65746174 	ldrbvs	r6, [r4, #-372]!	; 0xfffffe8c
 264:	63775f00 	cmnvs	r7, #0, 30
 268:	626d6f74 	rsbvs	r6, sp, #116, 30	; 0x1d0
 26c:	6174735f 	cmnvs	r4, pc, asr r3
 270:	5f006574 	svcpl	0x00006574
 274:	5f6d745f 	svcpl	0x006d745f
 278:	00636573 	rsbeq	r6, r3, r3, ror r5
 27c:	6978655f 	ldmdbvs	r8!, {r0, r1, r2, r3, r4, r6, r8, sl, sp, lr}^
 280:	755f0074 	ldrbvc	r0, [pc, #-116]	; 214 <_Minimum_Stack_Size+0x114>
 284:	00667562 	rsbeq	r7, r6, r2, ror #10
 288:	7361625f 	cmnvc	r1, #-268435451	; 0xf0000005
 28c:	5f5f0065 	svcpl	0x005f0065
 290:	685f6d74 	ldmdavs	pc, {r2, r4, r5, r6, r8, sl, fp, sp, lr}^	; <UNPREDICTABLE>
 294:	0072756f 	rsbseq	r7, r2, pc, ror #10
 298:	66735f5f 	uhsaxvs	r5, r3, pc	; <UNPREDICTABLE>
 29c:	6e6f5f00 	cdpvs	15, 6, cr5, cr15, cr0, {0}
 2a0:	6978655f 	ldmdbvs	r8!, {r0, r1, r2, r3, r4, r6, r8, sl, sp, lr}^
 2a4:	72615f74 	rsbvc	r5, r1, #116, 30	; 0x1d0
 2a8:	5f007367 	svcpl	0x00007367
 2ac:	6b6f6f63 	blvs	1bdc040 <__Main_Stack_Size+0x1bdbc40>
 2b0:	5f006569 	svcpl	0x00006569
 2b4:	6c67735f 	stclvs	3, cr7, [r7], #-380	; 0xfffffe84
 2b8:	5f006575 	svcpl	0x00006575
 2bc:	67616c66 	strbvs	r6, [r1, -r6, ror #24]!
 2c0:	695f0073 	ldmdbvs	pc, {r0, r1, r4, r5, r6}^	; <UNPREDICTABLE>
 2c4:	78635f73 	stmdavc	r3!, {r0, r1, r4, r5, r6, r8, r9, sl, fp, ip, lr}^
 2c8:	735f0061 	cmpvc	pc, #97	; 0x61
 2cc:	6e696474 	mcrvs	4, 3, r6, cr9, cr4, {3}
 2d0:	6c625f00 	stclvs	15, cr5, [r2], #-0
 2d4:	7a69736b 	bvc	1a5d088 <__Main_Stack_Size+0x1a5cc88>
 2d8:	635f0065 	cmpvs	pc, #101	; 0x65
 2dc:	75627476 	strbvc	r7, [r2, #-1142]!	; 0xfffffb8a
 2e0:	6f5f0066 	svcvs	0x005f0066
 2e4:	65736666 	ldrbvs	r6, [r3, #-1638]!	; 0xfffff99a
 2e8:	6d5f0074 	ldclvs	0, cr0, [pc, #-464]	; 120 <_Minimum_Stack_Size+0x20>
 2ec:	74727362 	ldrbtvc	r7, [r2], #-866	; 0xfffffc9e
 2f0:	7363776f 	cmnvc	r3, #29097984	; 0x1bc0000
 2f4:	6174735f 	cmnvs	r4, pc, asr r3
 2f8:	5f006574 	svcpl	0x00006574
 2fc:	6c72626d 	lfmvs	f6, 2, [r2], #-436	; 0xfffffe4c
 300:	735f6e65 	cmpvc	pc, #1616	; 0x650
 304:	65746174 	ldrbvs	r6, [r4, #-372]!	; 0xfffffe8c
 308:	6e665f00 	cdpvs	15, 6, cr5, cr6, cr0, {0}
 30c:	73677261 	cmnvc	r7, #268435462	; 0x10000006
 310:	6e665f00 	cdpvs	15, 6, cr5, cr6, cr0, {0}
 314:	735f0073 	cmpvc	pc, #115	; 0x73
 318:	006e6769 	rsbeq	r6, lr, r9, ror #14
 31c:	6f6c665f 	svcvs	0x006c665f
 320:	745f6b63 	ldrbvc	r6, [pc], #-2915	; 328 <_Minimum_Stack_Size+0x228>
 324:	74735f00 	ldrbtvc	r5, [r3], #-3840	; 0xfffff100
 328:	72726564 	rsbsvc	r6, r2, #100, 10	; 0x19000000
 32c:	69425f00 	stmdbvs	r2, {r8, r9, sl, fp, ip, lr}^
 330:	746e6967 	strbtvc	r6, [lr], #-2407	; 0xfffff699
 334:	61675f00 	cmnvs	r7, r0, lsl #30
 338:	5f616d6d 	svcpl	0x00616d6d
 33c:	6e676973 	mcrvs	9, 3, r6, cr7, cr3, {3}
 340:	006d6167 	rsbeq	r6, sp, r7, ror #2
 344:	6165725f 	cmnvs	r5, pc, asr r2
 348:	725f0064 	subsvc	r0, pc, #100	; 0x64
 34c:	6c757365 	ldclvs	3, cr7, [r5], #-404	; 0xfffffe6c
 350:	006b5f74 	rsbeq	r5, fp, r4, ror pc
 354:	6d745f5f 	ldclvs	15, cr5, [r4, #-380]!	; 0xfffffe84
 358:	775f5f00 	ldrbvc	r5, [pc, -r0, lsl #30]
 35c:	00626863 	rsbeq	r6, r2, r3, ror #16
 360:	6474735f 	ldrbtvs	r7, [r4], #-863	; 0xfffffca1
 364:	0074756f 	rsbseq	r7, r4, pc, ror #10
 368:	7476635f 	ldrbtvc	r6, [r6], #-863	; 0xfffffca1
 36c:	006e656c 	rsbeq	r6, lr, ip, ror #10
 370:	6c69665f 	stclvs	6, cr6, [r9], #-380	; 0xfffffe84
 374:	6e5f0065 	cdpvs	0, 5, cr0, cr15, cr5, {3}
 378:	73626f69 	cmnvc	r2, #420	; 0x1a4
 37c:	74615f00 	strbtvc	r5, [r1], #-3840	; 0xfffff100
 380:	74697865 	strbtvc	r7, [r9], #-2149	; 0xfffff79b
 384:	735f0030 	cmpvc	pc, #48	; 0x30
 388:	616e6769 	cmnvs	lr, r9, ror #14
 38c:	75625f6c 	strbvc	r5, [r2, #-3948]!	; 0xfffff094
 390:	615f0066 	cmpvs	pc, r6, rrx
 394:	69746373 	ldmdbvs	r4!, {r0, r1, r4, r5, r6, r8, r9, sp, lr}^
 398:	625f656d 	subsvs	r6, pc, #457179136	; 0x1b400000
 39c:	5f006675 	svcpl	0x00006675
 3a0:	75736572 	ldrbvc	r6, [r3, #-1394]!	; 0xfffffa8e
 3a4:	5f00746c 	svcpl	0x0000746c
 3a8:	6863775f 	stmdavs	r3!, {r0, r1, r2, r3, r4, r6, r8, r9, sl, ip, sp, lr}^
 3ac:	6e697700 	cdpvs	7, 6, cr7, cr9, cr0, {0}
 3b0:	00745f74 	rsbseq	r5, r4, r4, ror pc
 3b4:	616c665f 	cmnvs	ip, pc, asr r6
 3b8:	00327367 	eorseq	r7, r2, r7, ror #6
 3bc:	6972775f 	ldmdbvs	r2!, {r0, r1, r2, r3, r4, r6, r8, r9, sl, ip, sp, lr}^
 3c0:	5f006574 	svcpl	0x00006574
 3c4:	5f6d745f 	svcpl	0x006d745f
 3c8:	72616579 	rsbvc	r6, r1, #507510784	; 0x1e400000
 3cc:	2f2e2e00 	svccs	0x002e2e00
 3d0:	2e2f2e2e 	cdpcs	14, 2, cr2, cr15, cr14, {1}
 3d4:	2e2e2f2e 	cdpcs	15, 2, cr2, cr14, cr14, {1}
 3d8:	2f2e2e2f 	svccs	0x002e2e2f
 3dc:	2e2f2e2e 	cdpcs	14, 2, cr2, cr15, cr14, {1}
 3e0:	656e2f2e 	strbvs	r2, [lr, #-3886]!	; 0xfffff0d2
 3e4:	62696c77 	rsbvs	r6, r9, #30464	; 0x7700
 3e8:	62696c2f 	rsbvs	r6, r9, #12032	; 0x2f00
 3ec:	74732f63 	ldrbtvc	r2, [r3], #-3939	; 0xfffff09d
 3f0:	62696c64 	rsbvs	r6, r9, #100, 24	; 0x6400
 3f4:	6978652f 	ldmdbvs	r8!, {r0, r1, r2, r3, r5, r8, sl, sp, lr}^
 3f8:	00632e74 	rsbeq	r2, r3, r4, ror lr
 3fc:	78656e5f 	stmdavc	r5!, {r0, r1, r2, r3, r4, r6, r9, sl, fp, sp, lr}^
 400:	5f006674 	svcpl	0x00006674
 404:	5f6d745f 	svcpl	0x006d745f
 408:	006e6f6d 	rsbeq	r6, lr, sp, ror #30
 40c:	64735f5f 	ldrbtvs	r5, [r3], #-3935	; 0xfffff0a1
 410:	6e696469 	cdpvs	4, 6, cr6, cr9, cr9, {3}
 414:	5f007469 	svcpl	0x00007469
 418:	5f66666f 	svcpl	0x0066666f
 41c:	5f5f0074 	svcpl	0x005f0074
 420:	6c6c6163 	stfvse	f6, [ip], #-396	; 0xfffffe74
 424:	6978655f 	ldmdbvs	r8!, {r0, r1, r2, r3, r4, r6, r8, sl, sp, lr}^
 428:	6f727074 	svcvs	0x00727074
 42c:	5f007363 	svcpl	0x00007363
 430:	65657266 	strbvs	r7, [r5, #-614]!	; 0xfffffd9a
 434:	7473696c 	ldrbtvc	r6, [r3], #-2412	; 0xfffff694
 438:	4f4c5f00 	svcmi	0x004c5f00
 43c:	525f4b43 	subspl	r4, pc, #68608	; 0x10c00
 440:	52554345 	subspl	r4, r5, #335544321	; 0x14000001
 444:	45564953 	ldrbmi	r4, [r6, #-2387]	; 0xfffff6ad
 448:	5f00545f 	svcpl	0x0000545f
 44c:	0077656e 	rsbseq	r6, r7, lr, ror #10
 450:	655f685f 	ldrbvs	r6, [pc, #-2143]	; fffffbf9 <_estack+0xdffafbf9>
 454:	6f6e7272 	svcvs	0x006e7272
 458:	745f5f00 	ldrbvc	r5, [pc], #-3840	; 460 <__Main_Stack_Size+0x60>
 45c:	64795f6d 	ldrbtvs	r5, [r9], #-3949	; 0xfffff093
 460:	5f007961 	svcpl	0x00007961
 464:	7562735f 	strbvc	r7, [r2, #-863]!	; 0xfffffca1
 468:	695f0066 	ldmdbvs	pc, {r1, r2, r5, r6}^	; <UNPREDICTABLE>
 46c:	0073626f 	rsbseq	r6, r3, pc, ror #4
 470:	49465f5f 	stmdbmi	r6, {r0, r1, r2, r3, r4, r6, r8, r9, sl, fp, ip, lr}^
 474:	5f00454c 	svcpl	0x0000454c
 478:	7473626d 	ldrbtvc	r6, [r3], #-621	; 0xfffffd93
 47c:	5f657461 	svcpl	0x00657461
 480:	5f5f0074 	svcpl	0x005f0074
 484:	4c494673 	mcrrmi	6, 7, r4, r9, cr3
 488:	6d5f0045 	ldclvs	0, cr0, [pc, #-276]	; 37c <_Minimum_Stack_Size+0x27c>
 48c:	61747362 	cmnvs	r4, r2, ror #6
 490:	5f006574 	svcpl	0x00006574
 494:	646e6172 	strbtvs	r6, [lr], #-370	; 0xfffffe8e
 498:	78656e5f 	stmdavc	r5!, {r0, r1, r2, r3, r4, r6, r9, sl, fp, sp, lr}^
 49c:	6d5f0074 	ldclvs	0, cr0, [pc, #-464]	; 2d4 <_Minimum_Stack_Size+0x1d4>
 4a0:	6e656c62 	cdpvs	12, 6, cr6, cr5, cr2, {3}
 4a4:	6174735f 	cmnvs	r4, pc, asr r3
 4a8:	5f006574 	svcpl	0x00006574
 4ac:	00636e69 	rsbeq	r6, r3, r9, ror #28
 4b0:	646e695f 	strbtvs	r6, [lr], #-2399	; 0xfffff6a1
 4b4:	75635f00 	strbvc	r5, [r3, #-3840]!	; 0xfffff100
 4b8:	6e657272 	mcrvs	2, 3, r7, cr5, cr2, {3}
 4bc:	6f6c5f74 	svcvs	0x006c5f74
 4c0:	656c6163 	strbvs	r6, [ip, #-355]!	; 0xfffffe9d
 4c4:	635f5f00 	cmpvs	pc, #0, 30
 4c8:	6e61656c 	cdpvs	5, 6, cr6, cr1, cr12, {3}
 4cc:	5f007075 	svcpl	0x00007075
 4d0:	7778616d 	ldrbvc	r6, [r8, -sp, ror #2]!
 4d4:	5f007364 	svcpl	0x00007364
 4d8:	6e656572 	mcrvs	5, 3, r6, cr5, cr2, {3}
 4dc:	735f0074 	cmpvc	pc, #116	; 0x74
 4e0:	00646565 	rsbeq	r6, r4, r5, ror #10
 4e4:	6f635f5f 	svcvs	0x00635f5f
 4e8:	00746e75 	rsbseq	r6, r4, r5, ror lr
 4ec:	61765f5f 	cmnvs	r6, pc, asr pc
 4f0:	0065756c 	rsbeq	r7, r5, ip, ror #10
 4f4:	6565735f 	strbvs	r7, [r5, #-863]!	; 0xfffffca1
 4f8:	665f006b 	ldrbvs	r0, [pc], -fp, rrx
 4fc:	5f736f70 	svcpl	0x00736f70
 500:	5f5f0074 	svcpl	0x005f0074
 504:	6d5f6d74 	ldclvs	13, cr6, [pc, #-464]	; 33c <_Minimum_Stack_Size+0x23c>
 508:	5f006e69 	svcpl	0x00006e69
 50c:	746c756d 	strbtvc	r7, [ip], #-1389	; 0xfffffa93
 510:	74735f00 	ldrbtvc	r5, [r3], #-3840	; 0xfffff100
 514:	6b6f7472 	blvs	1bdd6e4 <__Main_Stack_Size+0x1bdd2e4>
 518:	73616c5f 	cmnvc	r1, #24320	; 0x5f00
 51c:	665f0074 			; <UNDEFINED> instruction: 0x665f0074
 520:	7079746e 	rsbsvc	r7, r9, lr, ror #8
 524:	5f007365 	svcpl	0x00007365
 528:	00646461 	rsbeq	r6, r4, r1, ror #8
 52c:	4c555f5f 	mrrcmi	15, 5, r5, r5, cr15	; <UNPREDICTABLE>
 530:	00676e6f 	rsbeq	r6, r7, pc, ror #28
 534:	7465675f 	strbtvc	r6, [r5], #-1887	; 0xfffff8a1
 538:	65746164 	ldrbvs	r6, [r4, #-356]!	; 0xfffffe9c
 53c:	7272655f 	rsbsvc	r6, r2, #398458880	; 0x17c00000
 540:	6c675f00 	stclvs	15, cr5, [r7], #-0
 544:	6c61626f 	sfmvs	f6, 2, [r1], #-444	; 0xfffffe44
 548:	706d695f 	rsbvc	r6, sp, pc, asr r9
 54c:	5f657275 	svcpl	0x00657275
 550:	00727470 	rsbseq	r7, r2, r0, ror r4
 554:	7275635f 	rsbsvc	r6, r5, #2080374785	; 0x7c000001
 558:	746e6572 	strbtvc	r6, [lr], #-1394	; 0xfffffa8e
 55c:	7461635f 	strbtvc	r6, [r1], #-863	; 0xfffffca1
 560:	726f6765 	rsbvc	r6, pc, #26476544	; 0x1940000
 564:	6f630079 	svcvs	0x00630079
 568:	5f006564 	svcpl	0x00006564
 56c:	73756e75 	cmnvc	r5, #1872	; 0x750
 570:	725f6465 	subsvc	r6, pc, #1694498816	; 0x65000000
 574:	00646e61 	rsbeq	r6, r4, r1, ror #28
 578:	7364775f 	cmnvc	r4, #24903680	; 0x17c0000
 57c:	745f5f00 	ldrbvc	r5, [pc], #-3840	; 584 <__Main_Stack_Size+0x184>
 580:	64775f6d 	ldrbtvs	r5, [r7], #-3949	; 0xfffff093
 584:	5f007961 	svcpl	0x00007961
 588:	65756c67 	ldrbvs	r6, [r5, #-3175]!	; 0xfffff399
 58c:	6d6e5f00 	stclvs	15, cr5, [lr, #-0]
 590:	6f6c6c61 	svcvs	0x006c6c61
 594:	6c5f0063 	mrrcvs	0, 6, r0, pc, cr3	; <UNPREDICTABLE>
 598:	5f613436 	svcpl	0x00613436
 59c:	00667562 	rsbeq	r7, r6, r2, ror #10
 5a0:	6769735f 			; <UNDEFINED> instruction: 0x6769735f
 5a4:	6e75665f 	mrcvs	6, 3, r6, cr5, cr15, {2}
 5a8:	6e5f0063 	cdpvs	0, 5, cr0, cr15, cr3, {3}
 5ac:	00667562 	rsbeq	r7, r6, r2, ror #10
 5b0:	756e755f 	strbvc	r7, [lr, #-1375]!	; 0xfffffaa1
 5b4:	00646573 	rsbeq	r6, r4, r3, ror r5
 5b8:	6d745f5f 	ldclvs	15, cr5, [r4, #-380]!	; 0xfffffe84
 5bc:	6473695f 	ldrbtvs	r6, [r3], #-2399	; 0xfffff6a1
 5c0:	5f007473 	svcpl	0x00007473
 5c4:	61636f6c 	cmnvs	r3, ip, ror #30
 5c8:	6d69746c 	cfstrdvs	mvd7, [r9, #-432]!	; 0xfffffe50
 5cc:	75625f65 	strbvc	r5, [r2, #-3941]!	; 0xfffff09b
 5d0:	635f0066 	cmpvs	pc, #102	; 0x66
 5d4:	65736f6c 	ldrbvs	r6, [r3, #-3948]!	; 0xfffff094
 5d8:	34725f00 	ldrbtcc	r5, [r2], #-3840	; 0xfffff100
 5dc:	6d5f0038 	ldclvs	0, cr0, [pc, #-224]	; 504 <__Main_Stack_Size+0x104>
 5e0:	776f7462 	strbvc	r7, [pc, -r2, ror #8]!
 5e4:	74735f63 	ldrbtvc	r5, [r3], #-3939	; 0xfffff09d
 5e8:	00657461 	rsbeq	r7, r5, r1, ror #8
 5ec:	7335705f 	teqvc	r5, #95	; 0x5f
 5f0:	745f5f00 	ldrbvc	r5, [pc], #-3840	; 5f8 <__Main_Stack_Size+0x1f8>
 5f4:	646d5f6d 	strbtvs	r5, [sp], #-3949	; 0xfffff093
 5f8:	73007961 	movwvc	r7, #2401	; 0x961
 5fc:	5f657a69 	svcpl	0x00657a69
 600:	5f5f0074 	svcpl	0x005f0074
 604:	696e6966 	stmdbvs	lr!, {r1, r2, r5, r6, r8, fp, sp, lr}^
 608:	7272615f 	rsbsvc	r6, r2, #-1073741801	; 0xc0000017
 60c:	735f7961 	cmpvc	pc, #1589248	; 0x184000
 610:	74726174 	ldrbtvc	r6, [r2], #-372	; 0xfffffe8c
 614:	665f5f00 	ldrbvs	r5, [pc], -r0, lsl #30
 618:	5f696e69 	svcpl	0x00696e69
 61c:	61727261 	cmnvs	r2, r1, ror #4
 620:	6e655f79 	mcrvs	15, 3, r5, cr5, cr9, {3}
 624:	5f5f0064 	svcpl	0x005f0064
 628:	6362696c 	cmnvs	r2, #108, 18	; 0x1b0000
 62c:	6e69665f 	mcrvs	6, 3, r6, cr9, cr15, {2}
 630:	72615f69 	rsbvc	r5, r1, #420	; 0x1a4
 634:	00796172 	rsbseq	r6, r9, r2, ror r1
 638:	6975622f 	ldmdbvs	r5!, {r0, r1, r2, r3, r5, r9, sp, lr}^
 63c:	6e2f646c 	cdpvs	4, 2, cr6, cr15, cr12, {3}
 640:	696c7765 	stmdbvs	ip!, {r0, r2, r5, r6, r8, r9, sl, ip, sp, lr}^
 644:	7a352d62 	bvc	d4bbd4 <__Main_Stack_Size+0xd4b7d4>
 648:	45787077 	ldrbmi	r7, [r8, #-119]!	; 0xffffff89
 64c:	77656e2f 	strbvc	r6, [r5, -pc, lsr #28]!
 650:	2d62696c 	stclcs	9, cr6, [r2, #-432]!	; 0xfffffe50
 654:	2e322e32 	mrccs	14, 1, r2, cr2, cr2, {1}
 658:	69672b30 	stmdbvs	r7!, {r4, r5, r8, r9, fp, sp}^
 65c:	31303274 	teqcc	r0, r4, ror r2
 660:	33383035 	teqcc	r8, #53	; 0x35
 664:	61352e30 	teqvs	r5, r0, lsr lr
 668:	33356433 	teqcc	r5, #855638016	; 0x33000000
 66c:	75622f36 	strbvc	r2, [r2, #-3894]!	; 0xfffff0ca
 670:	2f646c69 	svccs	0x00646c69
 674:	2d6d7261 	sfmcs	f7, 2, [sp, #-388]!	; 0xfffffe7c
 678:	656e6f6e 	strbvs	r6, [lr, #-3950]!	; 0xfffff092
 67c:	6261652d 	rsbvs	r6, r1, #188743680	; 0xb400000
 680:	72612f69 	rsbvc	r2, r1, #420	; 0x1a4
 684:	6537766d 	ldrvs	r7, [r7, #-1645]!	; 0xfffff993
 688:	662f6d2d 	strtvs	r6, [pc], -sp, lsr #26
 68c:	6e2f7570 	mcrvs	5, 1, r7, cr15, cr0, {3}
 690:	696c7765 	stmdbvs	ip!, {r0, r2, r5, r6, r8, r9, sl, ip, sp, lr}^
 694:	696c2f62 	stmdbvs	ip!, {r1, r5, r6, r8, r9, sl, fp, sp}^
 698:	6d2f6362 	stcvs	3, cr6, [pc, #-392]!	; 518 <__Main_Stack_Size+0x118>
 69c:	00637369 	rsbeq	r7, r3, r9, ror #6
 6a0:	2e2f2e2e 	cdpcs	14, 2, cr2, cr15, cr14, {1}
 6a4:	2e2e2f2e 	cdpcs	15, 2, cr2, cr14, cr14, {1}
 6a8:	2f2e2e2f 	svccs	0x002e2e2f
 6ac:	2e2f2e2e 	cdpcs	14, 2, cr2, cr15, cr14, {1}
 6b0:	2e2e2f2e 	cdpcs	15, 2, cr2, cr14, cr14, {1}
 6b4:	77656e2f 	strbvc	r6, [r5, -pc, lsr #28]!
 6b8:	2f62696c 	svccs	0x0062696c
 6bc:	6362696c 	cmnvs	r2, #108, 18	; 0x1b0000
 6c0:	73696d2f 	cmnvc	r9, #3008	; 0xbc0
 6c4:	69662f63 	stmdbvs	r6!, {r0, r1, r5, r6, r8, r9, sl, fp, sp}^
 6c8:	632e696e 			; <UNDEFINED> instruction: 0x632e696e
 6cc:	706d6900 	rsbvc	r6, sp, r0, lsl #18
 6d0:	5f657275 	svcpl	0x00657275
 6d4:	61746164 	cmnvs	r4, r4, ror #2
 6d8:	75622f00 	strbvc	r2, [r2, #-3840]!	; 0xfffff100
 6dc:	2f646c69 	svccs	0x00646c69
 6e0:	6c77656e 	cfldr64vs	mvdx6, [r7], #-440	; 0xfffffe48
 6e4:	352d6269 	strcc	r6, [sp, #-617]!	; 0xfffffd97
 6e8:	7870777a 	ldmdavc	r0!, {r1, r3, r4, r5, r6, r8, r9, sl, ip, sp, lr}^
 6ec:	656e2f45 	strbvs	r2, [lr, #-3909]!	; 0xfffff0bb
 6f0:	62696c77 	rsbvs	r6, r9, #30464	; 0x7700
 6f4:	322e322d 	eorcc	r3, lr, #-805306366	; 0xd0000002
 6f8:	672b302e 	strvs	r3, [fp, -lr, lsr #32]!
 6fc:	30327469 	eorscc	r7, r2, r9, ror #8
 700:	38303531 	ldmdacc	r0!, {r0, r4, r5, r8, sl, ip, sp}
 704:	352e3033 	strcc	r3, [lr, #-51]!	; 0xffffffcd
 708:	35643361 	strbcc	r3, [r4, #-865]!	; 0xfffffc9f
 70c:	622f3633 	eorvs	r3, pc, #53477376	; 0x3300000
 710:	646c6975 	strbtvs	r6, [ip], #-2421	; 0xfffff68b
 714:	6d72612f 	ldfvse	f6, [r2, #-188]!	; 0xffffff44
 718:	6e6f6e2d 	cdpvs	14, 6, cr6, cr15, cr13, {1}
 71c:	61652d65 	cmnvs	r5, r5, ror #26
 720:	612f6962 			; <UNDEFINED> instruction: 0x612f6962
 724:	37766d72 			; <UNDEFINED> instruction: 0x37766d72
 728:	2f6d2d65 	svccs	0x006d2d65
 72c:	2f757066 	svccs	0x00757066
 730:	6c77656e 	cfldr64vs	mvdx6, [r7], #-440	; 0xfffffe48
 734:	6c2f6269 	sfmvs	f6, 4, [pc], #-420	; 598 <__Main_Stack_Size+0x198>
 738:	2f636269 	svccs	0x00636269
 73c:	6e656572 	mcrvs	5, 3, r6, cr5, cr2, {3}
 740:	2e2e0074 	mcrcs	0, 1, r0, cr14, cr4, {3}
 744:	2f2e2e2f 	svccs	0x002e2e2f
 748:	2e2f2e2e 	cdpcs	14, 2, cr2, cr15, cr14, {1}
 74c:	2e2e2f2e 	cdpcs	15, 2, cr2, cr14, cr14, {1}
 750:	2f2e2e2f 	svccs	0x002e2e2f
 754:	6e2f2e2e 	cdpvs	14, 2, cr2, cr15, cr14, {1}
 758:	696c7765 	stmdbvs	ip!, {r0, r2, r5, r6, r8, r9, sl, ip, sp, lr}^
 75c:	696c2f62 	stmdbvs	ip!, {r1, r5, r6, r8, r9, sl, fp, sp}^
 760:	722f6362 	eorvc	r6, pc, #-2013265919	; 0x88000001
 764:	746e6565 	strbtvc	r6, [lr], #-1381	; 0xfffffa9b
 768:	706d692f 	rsbvc	r6, sp, pc, lsr #18
 76c:	2e657275 	mcrcs	2, 3, r7, cr5, cr5, {3}
 770:	5f5f0063 	svcpl	0x005f0063
 774:	74696e69 	strbtvc	r6, [r9], #-3689	; 0xfffff197
 778:	7272615f 	rsbsvc	r6, r2, #-1073741801	; 0xc0000017
 77c:	735f7961 	cmpvc	pc, #1589248	; 0x184000
 780:	74726174 	ldrbtvc	r6, [r2], #-372	; 0xfffffe8c
 784:	6c5f5f00 	mrrcvs	15, 0, r5, pc, cr0	; <UNPREDICTABLE>
 788:	5f636269 	svcpl	0x00636269
 78c:	74696e69 	strbtvc	r6, [r9], #-3689	; 0xfffff197
 790:	7272615f 	rsbsvc	r6, r2, #-1073741801	; 0xc0000017
 794:	5f007961 	svcpl	0x00007961
 798:	6572705f 	ldrbvs	r7, [r2, #-95]!	; 0xffffffa1
 79c:	74696e69 	strbtvc	r6, [r9], #-3689	; 0xfffff197
 7a0:	7272615f 	rsbsvc	r6, r2, #-1073741801	; 0xc0000017
 7a4:	735f7961 	cmpvc	pc, #1589248	; 0x184000
 7a8:	74726174 	ldrbtvc	r6, [r2], #-372	; 0xfffffe8c
 7ac:	2f2e2e00 	svccs	0x002e2e00
 7b0:	2e2f2e2e 	cdpcs	14, 2, cr2, cr15, cr14, {1}
 7b4:	2e2e2f2e 	cdpcs	15, 2, cr2, cr14, cr14, {1}
 7b8:	2f2e2e2f 	svccs	0x002e2e2f
 7bc:	2e2f2e2e 	cdpcs	14, 2, cr2, cr15, cr14, {1}
 7c0:	656e2f2e 	strbvs	r2, [lr, #-3886]!	; 0xfffff0d2
 7c4:	62696c77 	rsbvs	r6, r9, #30464	; 0x7700
 7c8:	62696c2f 	rsbvs	r6, r9, #12032	; 0x2f00
 7cc:	696d2f63 	stmdbvs	sp!, {r0, r1, r5, r6, r8, r9, sl, fp, sp}^
 7d0:	692f6373 	stmdbvs	pc!, {r0, r1, r4, r5, r6, r8, r9, sp, lr}	; <UNPREDICTABLE>
 7d4:	2e74696e 	cdpcs	9, 7, cr6, cr4, cr14, {3}
 7d8:	695f0063 	ldmdbvs	pc, {r0, r1, r5, r6}^	; <UNPREDICTABLE>
 7dc:	0074696e 	rsbseq	r6, r4, lr, ror #18
 7e0:	72705f5f 	rsbsvc	r5, r0, #380	; 0x17c
 7e4:	696e6965 	stmdbvs	lr!, {r0, r2, r5, r6, r8, fp, sp, lr}^
 7e8:	72615f74 	rsbvc	r5, r1, #116, 30	; 0x1d0
 7ec:	5f796172 	svcpl	0x00796172
 7f0:	00646e65 	rsbeq	r6, r4, r5, ror #28
 7f4:	6e695f5f 	mcrvs	15, 3, r5, cr9, cr15, {2}
 7f8:	615f7469 	cmpvs	pc, r9, ror #8
 7fc:	79617272 	stmdbvc	r1!, {r1, r4, r5, r6, r9, ip, sp, lr}^
 800:	646e655f 	strbtvs	r6, [lr], #-1375	; 0xfffffaa1
 804:	75622f00 	strbvc	r2, [r2, #-3840]!	; 0xfffff100
 808:	2f646c69 	svccs	0x00646c69
 80c:	6c77656e 	cfldr64vs	mvdx6, [r7], #-440	; 0xfffffe48
 810:	352d6269 	strcc	r6, [sp, #-617]!	; 0xfffffd97
 814:	7870777a 	ldmdavc	r0!, {r1, r3, r4, r5, r6, r8, r9, sl, ip, sp, lr}^
 818:	656e2f45 	strbvs	r2, [lr, #-3909]!	; 0xfffff0bb
 81c:	62696c77 	rsbvs	r6, r9, #30464	; 0x7700
 820:	322e322d 	eorcc	r3, lr, #-805306366	; 0xd0000002
 824:	672b302e 	strvs	r3, [fp, -lr, lsr #32]!
 828:	30327469 	eorscc	r7, r2, r9, ror #8
 82c:	38303531 	ldmdacc	r0!, {r0, r4, r5, r8, sl, ip, sp}
 830:	352e3033 	strcc	r3, [lr, #-51]!	; 0xffffffcd
 834:	35643361 	strbcc	r3, [r4, #-865]!	; 0xfffffc9f
 838:	622f3633 	eorvs	r3, pc, #53477376	; 0x3300000
 83c:	646c6975 	strbtvs	r6, [ip], #-2421	; 0xfffff68b
 840:	6d72612f 	ldfvse	f6, [r2, #-188]!	; 0xffffff44
 844:	6e6f6e2d 	cdpvs	14, 6, cr6, cr15, cr13, {1}
 848:	61652d65 	cmnvs	r5, r5, ror #26
 84c:	612f6962 			; <UNDEFINED> instruction: 0x612f6962
 850:	37766d72 			; <UNDEFINED> instruction: 0x37766d72
 854:	2f6d2d65 	svccs	0x006d2d65
 858:	2f757066 	svccs	0x00757066
 85c:	6c77656e 	cfldr64vs	mvdx6, [r7], #-440	; 0xfffffe48
 860:	6c2f6269 	sfmvs	f6, 4, [pc], #-420	; 6c4 <__Main_Stack_Size+0x2c4>
 864:	2f636269 	svccs	0x00636269
 868:	69727473 	ldmdbvs	r2!, {r0, r1, r4, r5, r6, sl, ip, sp, lr}^
 86c:	6100676e 	tstvs	r0, lr, ror #14
 870:	6e67696c 	cdpvs	9, 6, cr6, cr7, cr12, {3}
 874:	615f6465 	cmpvs	pc, r5, ror #8
 878:	00726464 	rsbseq	r6, r2, r4, ror #8
 87c:	2e2f2e2e 	cdpcs	14, 2, cr2, cr15, cr14, {1}
 880:	2e2e2f2e 	cdpcs	15, 2, cr2, cr14, cr14, {1}
 884:	2f2e2e2f 	svccs	0x002e2e2f
 888:	2e2f2e2e 	cdpcs	14, 2, cr2, cr15, cr14, {1}
 88c:	2e2e2f2e 	cdpcs	15, 2, cr2, cr14, cr14, {1}
 890:	77656e2f 	strbvc	r6, [r5, -pc, lsr #28]!
 894:	2f62696c 	svccs	0x0062696c
 898:	6362696c 	cmnvs	r2, #108, 18	; 0x1b0000
 89c:	7274732f 	rsbsvc	r7, r4, #-1140850688	; 0xbc000000
 8a0:	2f676e69 	svccs	0x00676e69
 8a4:	736d656d 	cmnvc	sp, #457179136	; 0x1b400000
 8a8:	632e7465 			; <UNDEFINED> instruction: 0x632e7465
 8ac:	6d656d00 	stclvs	13, cr6, [r5, #-0]
 8b0:	00746573 	rsbseq	r6, r4, r3, ror r5
 8b4:	66667562 	strbtvs	r7, [r6], -r2, ror #10
 8b8:	2e007265 	cdpcs	2, 0, cr7, cr0, cr5, {3}
 8bc:	2e2e2f2e 	cdpcs	15, 2, cr2, cr14, cr14, {1}
 8c0:	2f2e2e2f 	svccs	0x002e2e2f
 8c4:	2e2f2e2e 	cdpcs	14, 2, cr2, cr15, cr14, {1}
 8c8:	2e2e2f2e 	cdpcs	15, 2, cr2, cr14, cr14, {1}
 8cc:	2f2e2e2f 	svccs	0x002e2e2f
 8d0:	6c77656e 	cfldr64vs	mvdx6, [r7], #-440	; 0xfffffe48
 8d4:	6c2f6269 	sfmvs	f6, 4, [pc], #-420	; 738 <__Main_Stack_Size+0x338>
 8d8:	2f636269 	svccs	0x00636269
 8dc:	6c647473 	cfstrdvs	mvd7, [r4], #-460	; 0xfffffe34
 8e0:	5f2f6269 	svcpl	0x002f6269
 8e4:	6574615f 	ldrbvs	r6, [r4, #-351]!	; 0xfffffea1
 8e8:	2e746978 	mrccs	9, 3, r6, cr4, cr8, {3}
 8ec:	72660063 	rsbvc	r0, r6, #99	; 0x63
 8f0:	2e006565 	cfsh32cs	mvfx6, mvfx0, #53
 8f4:	2e2e2f2e 	cdpcs	15, 2, cr2, cr14, cr14, {1}
 8f8:	2f2e2e2f 	svccs	0x002e2e2f
 8fc:	2e2f2e2e 	cdpcs	14, 2, cr2, cr15, cr14, {1}
 900:	2e2e2f2e 	cdpcs	15, 2, cr2, cr14, cr14, {1}
 904:	2f2e2e2f 	svccs	0x002e2e2f
 908:	6c77656e 	cfldr64vs	mvdx6, [r7], #-440	; 0xfffffe48
 90c:	6c2f6269 	sfmvs	f6, 4, [pc], #-420	; 770 <__Main_Stack_Size+0x370>
 910:	2f636269 	svccs	0x00636269
 914:	6c647473 	cfstrdvs	mvd7, [r4], #-460	; 0xfffffe34
 918:	5f2f6269 	svcpl	0x002f6269
 91c:	6c61635f 	stclvs	3, cr6, [r1], #-380	; 0xfffffe84
 920:	74615f6c 	strbtvc	r5, [r1], #-3948	; 0xfffff094
 924:	74697865 	strbtvc	r7, [r9], #-2149	; 0xfffff79b
 928:	6c00632e 	stcvs	3, cr6, [r0], {46}	; 0x2e
 92c:	70747361 	rsbsvc	r7, r4, r1, ror #6
 930:	73657200 	cmnvc	r5, #0, 4
 934:	74726174 	ldrbtvc	r6, [r2], #-372	; 0xfffffe8c
 938:	67657200 	strbvs	r7, [r5, -r0, lsl #4]!
 93c:	65747369 	ldrbvs	r7, [r4, #-873]!	; 0xfffffc97
 940:	69665f72 	stmdbvs	r6!, {r1, r4, r5, r6, r8, r9, sl, fp, ip, lr}^
 944:	5f00696e 	svcpl	0x0000696e
 948:	62696c5f 	rsbvs	r6, r9, #24320	; 0x5f00
 94c:	69665f63 	stmdbvs	r6!, {r0, r1, r5, r6, r8, r9, sl, fp, ip, lr}^
 950:	5f00696e 	svcpl	0x0000696e
 954:	6574615f 	ldrbvs	r6, [r4, #-351]!	; 0xfffffea1
 958:	5f746978 	svcpl	0x00746978
 95c:	6b636f6c 	blvs	18dc714 <__Main_Stack_Size+0x18dc314>
 960:	75622f00 	strbvc	r2, [r2, #-3840]!	; 0xfffff100
 964:	2f646c69 	svccs	0x00646c69
 968:	6c77656e 	cfldr64vs	mvdx6, [r7], #-440	; 0xfffffe48
 96c:	352d6269 	strcc	r6, [sp, #-617]!	; 0xfffffd97
 970:	7870777a 	ldmdavc	r0!, {r1, r3, r4, r5, r6, r8, r9, sl, ip, sp, lr}^
 974:	656e2f45 	strbvs	r2, [lr, #-3909]!	; 0xfffff0bb
 978:	62696c77 	rsbvs	r6, r9, #30464	; 0x7700
 97c:	322e322d 	eorcc	r3, lr, #-805306366	; 0xd0000002
 980:	672b302e 	strvs	r3, [fp, -lr, lsr #32]!
 984:	30327469 	eorscc	r7, r2, r9, ror #8
 988:	38303531 	ldmdacc	r0!, {r0, r4, r5, r8, sl, ip, sp}
 98c:	352e3033 	strcc	r3, [lr, #-51]!	; 0xffffffcd
 990:	35643361 	strbcc	r3, [r4, #-865]!	; 0xfffffc9f
 994:	622f3633 	eorvs	r3, pc, #53477376	; 0x3300000
 998:	646c6975 	strbtvs	r6, [ip], #-2421	; 0xfffff68b
 99c:	6d72612f 	ldfvse	f6, [r2, #-188]!	; 0xffffff44
 9a0:	6e6f6e2d 	cdpvs	14, 6, cr6, cr15, cr13, {1}
 9a4:	61652d65 	cmnvs	r5, r5, ror #26
 9a8:	612f6962 			; <UNDEFINED> instruction: 0x612f6962
 9ac:	37766d72 			; <UNDEFINED> instruction: 0x37766d72
 9b0:	2f6d2d65 	svccs	0x006d2d65
 9b4:	2f757066 	svccs	0x00757066
 9b8:	6762696c 	strbvs	r6, [r2, -ip, ror #18]!
 9bc:	73736f6c 	cmnvc	r3, #108, 30	; 0x1b0
 9c0:	62696c2f 	rsbvs	r6, r9, #12032	; 0x2f00
 9c4:	79736f6e 	ldmdbvc	r3!, {r1, r2, r3, r5, r6, r8, r9, sl, fp, sp, lr}^
 9c8:	2e2e0073 	mcrcs	0, 1, r0, cr14, cr3, {3}
 9cc:	2f2e2e2f 	svccs	0x002e2e2f
 9d0:	2e2f2e2e 	cdpcs	14, 2, cr2, cr15, cr14, {1}
 9d4:	2e2e2f2e 	cdpcs	15, 2, cr2, cr14, cr14, {1}
 9d8:	2f2e2e2f 	svccs	0x002e2e2f
 9dc:	6762696c 	strbvs	r6, [r2, -ip, ror #18]!
 9e0:	73736f6c 	cmnvc	r3, #108, 30	; 0x1b0
 9e4:	62696c2f 	rsbvs	r6, r9, #12032	; 0x2f00
 9e8:	79736f6e 	ldmdbvc	r3!, {r1, r2, r3, r5, r6, r8, r9, sl, fp, sp, lr}^
 9ec:	655f2f73 	ldrbvs	r2, [pc, #-3955]	; fffffa81 <_estack+0xdffafa81>
 9f0:	2e746978 	mrccs	9, 3, r6, cr4, cr8, {3}
 9f4:	4e470063 	cdpmi	0, 4, cr0, cr7, cr3, {3}
 9f8:	20432055 	subcs	r2, r3, r5, asr r0
 9fc:	2e392e34 	mrccs	14, 1, r2, cr9, cr4, {1}
 a00:	30322033 	eorscc	r2, r2, r3, lsr r0
 a04:	35303531 	ldrcc	r3, [r0, #-1329]!	; 0xfffffacf
 a08:	28203932 	stmdacs	r0!, {r1, r4, r5, r8, fp, ip, sp}
 a0c:	72657270 	rsbvc	r7, r5, #112, 4
 a10:	61656c65 	cmnvs	r5, r5, ror #24
 a14:	20296573 	eorcs	r6, r9, r3, ror r5
 a18:	68746d2d 	ldmdavs	r4!, {r0, r2, r3, r5, r8, sl, fp, sp, lr}^
 a1c:	20626d75 	rsbcs	r6, r2, r5, ror sp
 a20:	72616d2d 	rsbvc	r6, r1, #2880	; 0xb40
 a24:	613d6863 	teqvs	sp, r3, ror #16
 a28:	37766d72 			; <UNDEFINED> instruction: 0x37766d72
 a2c:	206d2d65 	rsbcs	r2, sp, r5, ror #26
 a30:	6c666d2d 	stclvs	13, cr6, [r6], #-180	; 0xffffff4c
 a34:	2d74616f 	ldfcse	f6, [r4, #-444]!	; 0xfffffe44
 a38:	3d696261 	sfmcc	f6, 2, [r9, #-388]!	; 0xfffffe7c
 a3c:	64726168 	ldrbtvs	r6, [r2], #-360	; 0xfffffe98
 a40:	666d2d20 	strbtvs	r2, [sp], -r0, lsr #26
 a44:	663d7570 			; <UNDEFINED> instruction: 0x663d7570
 a48:	2d347670 	ldccs	6, cr7, [r4, #-448]!	; 0xfffffe40
 a4c:	642d7073 	strtvs	r7, [sp], #-115	; 0xffffff8d
 a50:	2d203631 	stccs	6, cr3, [r0, #-196]!	; 0xffffff3c
 a54:	672d2067 	strvs	r2, [sp, -r7, rrx]!
 a58:	324f2d20 	subcc	r2, pc, #32, 26	; 0x800
 a5c:	324f2d20 	subcc	r2, pc, #32, 26	; 0x800
 a60:	324f2d20 	subcc	r2, pc, #32, 26	; 0x800
 a64:	66662d20 	strbtvs	r2, [r6], -r0, lsr #26
 a68:	74636e75 	strbtvc	r6, [r3], #-3701	; 0xfffff18b
 a6c:	2d6e6f69 	stclcs	15, cr6, [lr, #-420]!	; 0xfffffe5c
 a70:	74636573 	strbtvc	r6, [r3], #-1395	; 0xfffffa8d
 a74:	736e6f69 	cmnvc	lr, #420	; 0x1a4
 a78:	64662d20 	strbtvs	r2, [r6], #-3360	; 0xfffff2e0
 a7c:	2d617461 	cfstrdcs	mvd7, [r1, #-388]!	; 0xfffffe7c
 a80:	74636573 	strbtvc	r6, [r3], #-1395	; 0xfffffa8d
 a84:	736e6f69 	cmnvc	lr, #420	; 0x1a4
 a88:	Address 0x0000000000000a88 is out of bounds.


Disassembly of section .debug_loc:

00000000 <.debug_loc>:
   0:	08000e90 	stmdaeq	r0, {r4, r7, r9, sl, fp}
   4:	08000e94 	stmdaeq	r0, {r2, r4, r7, r9, sl, fp}
   8:	94500001 	ldrbls	r0, [r0], #-1
   c:	9b08000e 	blls	20004c <__Main_Stack_Size+0x1ffc4c>
  10:	0108000e 	tsteq	r8, lr
  14:	0e9b5100 	fmleqe	f5, f3, f0
  18:	0e9c0800 	cdpeq	8, 9, cr0, cr12, cr0, {0}
  1c:	00040800 	andeq	r0, r4, r0, lsl #16
  20:	9f5001f3 	svcls	0x005001f3
  24:	00000000 	andeq	r0, r0, r0
  28:	00000000 	andeq	r0, r0, r0
  2c:	08000e9c 	stmdaeq	r0, {r2, r3, r4, r7, r9, sl, fp}
  30:	08000ea5 	stmdaeq	r0, {r0, r2, r5, r7, r9, sl, fp}
  34:	a5500001 	ldrbge	r0, [r0, #-1]
  38:	bc08000e 	stclt	0, cr0, [r8], {14}
  3c:	0108000e 	tsteq	r8, lr
  40:	00005400 	andeq	r5, r0, r0, lsl #8
  44:	00000000 	andeq	r0, r0, r0
  48:	0ec40000 	cdpeq	0, 12, cr0, cr4, cr0, {0}
  4c:	0ec60800 	cdpeq	8, 12, cr0, cr6, cr0, {0}
  50:	00050800 	andeq	r0, r5, r0, lsl #16
  54:	26320075 			; <UNDEFINED> instruction: 0x26320075
  58:	000ec69f 	muleq	lr, pc, r6	; <UNPREDICTABLE>
  5c:	000ecc08 	andeq	ip, lr, r8, lsl #24
  60:	54000108 	strpl	r0, [r0], #-264	; 0xfffffef8
  64:	00000000 	andeq	r0, r0, r0
  68:	00000000 	andeq	r0, r0, r0
  6c:	08000ec4 	stmdaeq	r0, {r2, r6, r7, r9, sl, fp}
  70:	08000ec6 	stmdaeq	r0, {r1, r2, r6, r7, r9, sl, fp}
  74:	00750005 	rsbseq	r0, r5, r5
  78:	c69f2632 			; <UNDEFINED> instruction: 0xc69f2632
  7c:	ce08000e 	cdpgt	0, 0, cr0, cr8, cr14, {0}
  80:	0108000e 	tsteq	r8, lr
  84:	0ece5400 	cdpeq	4, 12, cr5, cr14, cr0, {0}
  88:	0ed40800 	cdpeq	8, 13, cr0, cr4, cr0, {0}
  8c:	00030800 	andeq	r0, r3, r0, lsl #16
  90:	d49f0174 	ldrle	r0, [pc], #372	; 98 <_Minimum_Stack_Size-0x68>
  94:	dc08000e 	stcle	0, cr0, [r8], {14}
  98:	0108000e 	tsteq	r8, lr
  9c:	00005400 	andeq	r5, r0, r0, lsl #8
  a0:	00000000 	andeq	r0, r0, r0
  a4:	0ef00000 	cdpeq	0, 15, cr0, cr0, cr0, {0}
  a8:	0ef20800 	cdpeq	8, 15, cr0, cr2, cr0, {0}
  ac:	00050800 	andeq	r0, r5, r0, lsl #16
  b0:	26320076 			; <UNDEFINED> instruction: 0x26320076
  b4:	000ef29f 	muleq	lr, pc, r2	; <UNPREDICTABLE>
  b8:	000f0608 	andeq	r0, pc, r8, lsl #12
  bc:	56000108 	strpl	r0, [r0], -r8, lsl #2
  c0:	08000f0e 	stmdaeq	r0, {r1, r2, r3, r8, r9, sl, fp}
  c4:	08000f10 	stmdaeq	r0, {r4, r8, r9, sl, fp}
  c8:	00760005 	rsbseq	r0, r6, r5
  cc:	109f2632 	addsne	r2, pc, r2, lsr r6	; <UNPREDICTABLE>
  d0:	2608000f 	strcs	r0, [r8], -pc
  d4:	0108000f 	tsteq	r8, pc
  d8:	00005600 	andeq	r5, r0, r0, lsl #12
  dc:	00000000 	andeq	r0, r0, r0
  e0:	0ef00000 	cdpeq	0, 15, cr0, cr0, cr0, {0}
  e4:	0ef80800 	cdpeq	8, 15, cr0, cr8, cr0, {0}
  e8:	00020800 	andeq	r0, r2, r0, lsl #16
  ec:	0ef89f30 	mrceq	15, 7, r9, cr8, cr0, {1}
  f0:	0efa0800 	cdpeq	8, 15, cr0, cr10, cr0, {0}
  f4:	00010800 	andeq	r0, r1, r0, lsl #16
  f8:	000efa54 	andeq	pc, lr, r4, asr sl	; <UNPREDICTABLE>
  fc:	000f0008 	andeq	r0, pc, r8
 100:	74000308 	strvc	r0, [r0], #-776	; 0xfffffcf8
 104:	0f009f7f 	svceq	0x00009f7f
 108:	0f040800 	svceq	0x00040800
 10c:	00010800 	andeq	r0, r1, r0, lsl #16
 110:	000f0e54 	andeq	r0, pc, r4, asr lr	; <UNPREDICTABLE>
 114:	000f1608 	andeq	r1, pc, r8, lsl #12
 118:	30000208 	andcc	r0, r0, r8, lsl #4
 11c:	000f169f 	muleq	pc, pc, r6	; <UNPREDICTABLE>
 120:	000f1808 	andeq	r1, pc, r8, lsl #16
 124:	54000108 	strpl	r0, [r0], #-264	; 0xfffffef8
 128:	08000f18 	stmdaeq	r0, {r3, r4, r8, r9, sl, fp}
 12c:	08000f1e 	stmdaeq	r0, {r1, r2, r3, r4, r8, r9, sl, fp}
 130:	7f740003 	svcvc	0x00740003
 134:	000f1e9f 	muleq	pc, pc, lr	; <UNPREDICTABLE>
 138:	000f2408 	andeq	r2, pc, r8, lsl #8
 13c:	54000108 	strpl	r0, [r0], #-264	; 0xfffffef8
 140:	08000f24 	stmdaeq	r0, {r2, r5, r8, r9, sl, fp}
 144:	08000f38 	stmdaeq	r0, {r3, r4, r5, r8, r9, sl, fp}
 148:	9f300002 	svcls	0x00300002
 14c:	00000000 	andeq	r0, r0, r0
 150:	00000000 	andeq	r0, r0, r0
 154:	08000f38 	stmdaeq	r0, {r3, r4, r5, r8, r9, sl, fp}
 158:	08000fbe 	stmdaeq	r0, {r1, r2, r3, r4, r5, r7, r8, r9, sl, fp}
 15c:	be510001 	cdplt	0, 5, cr0, cr1, cr1, {0}
 160:	cc08000f 	stcgt	0, cr0, [r8], {15}
 164:	0408000f 	streq	r0, [r8], #-15
 168:	5101f300 	mrspl	pc, SP_irq	; <UNPREDICTABLE>
 16c:	000fcc9f 	muleq	pc, pc, ip	; <UNPREDICTABLE>
 170:	000fd208 	andeq	sp, pc, r8, lsl #4
 174:	51000108 	tstpl	r0, r8, lsl #2
 178:	00000000 	andeq	r0, r0, r0
 17c:	00000000 	andeq	r0, r0, r0
 180:	08000f38 	stmdaeq	r0, {r3, r4, r5, r8, r9, sl, fp}
 184:	08000f40 	stmdaeq	r0, {r6, r8, r9, sl, fp}
 188:	40520001 	subsmi	r0, r2, r1
 18c:	4c08000f 	stcmi	0, cr0, [r8], {15}
 190:	0108000f 	tsteq	r8, pc
 194:	0f4c5400 	svceq	0x004c5400
 198:	0f500800 	svceq	0x00500800
 19c:	00010800 	andeq	r0, r1, r0, lsl #16
 1a0:	000f5052 	andeq	r5, pc, r2, asr r0	; <UNPREDICTABLE>
 1a4:	000f5808 	andeq	r5, pc, r8, lsl #16
 1a8:	54000108 	strpl	r0, [r0], #-264	; 0xfffffef8
 1ac:	08000f70 	stmdaeq	r0, {r4, r5, r6, r8, r9, sl, fp}
 1b0:	08000f72 	stmdaeq	r0, {r1, r4, r5, r6, r8, r9, sl, fp}
 1b4:	72560001 	subsvc	r0, r6, #1
 1b8:	8008000f 	andhi	r0, r8, pc
 1bc:	0308000f 	movweq	r0, #32783	; 0x800f
 1c0:	9f107600 	svcls	0x00107600
 1c4:	08000f80 	stmdaeq	r0, {r7, r8, r9, sl, fp}
 1c8:	08000f9c 	stmdaeq	r0, {r2, r3, r4, r7, r8, r9, sl, fp}
 1cc:	a2560001 	subsge	r0, r6, #1
 1d0:	a408000f 	strge	r0, [r8], #-15
 1d4:	0108000f 	tsteq	r8, pc
 1d8:	0fa45200 	svceq	0x00a45200
 1dc:	0faa0800 	svceq	0x00aa0800
 1e0:	00030800 	andeq	r0, r3, r0, lsl #16
 1e4:	aa9f0472 	bge	fe7c13b4 <_estack+0xde7713b4>
 1e8:	ae08000f 	cdpge	0, 0, cr0, cr8, cr15, {0}
 1ec:	0108000f 	tsteq	r8, pc
 1f0:	0fcc5200 	svceq	0x00cc5200
 1f4:	0fd20800 	svceq	0x00d20800
 1f8:	00010800 	andeq	r0, r1, r0, lsl #16
 1fc:	00000052 	andeq	r0, r0, r2, asr r0
 200:	00000000 	andeq	r0, r0, r0
 204:	000f3800 	andeq	r3, pc, r0, lsl #16
 208:	000f4a08 	andeq	r4, pc, r8, lsl #20
 20c:	50000108 	andpl	r0, r0, r8, lsl #2
 210:	08000f4a 	stmdaeq	r0, {r1, r3, r6, r8, r9, sl, fp}
 214:	08000f9c 	stmdaeq	r0, {r2, r3, r4, r7, r8, r9, sl, fp}
 218:	ba530001 	blt	14c0224 <__Main_Stack_Size+0x14bfe24>
 21c:	c808000f 	stmdagt	r8, {r0, r1, r2, r3}
 220:	0108000f 	tsteq	r8, pc
 224:	0fcc5300 	svceq	0x00cc5300
 228:	0fd20800 	svceq	0x00d20800
 22c:	00010800 	andeq	r0, r1, r0, lsl #16
 230:	00000050 	andeq	r0, r0, r0, asr r0
 234:	00000000 	andeq	r0, r0, r0
 238:	000f6800 	andeq	r6, pc, r0, lsl #16
 23c:	000fba08 	andeq	fp, pc, r8, lsl #20
 240:	08000308 	stmdaeq	r0, {r3, r8, r9}
 244:	00009f20 	andeq	r9, r0, r0, lsr #30
 248:	00000000 	andeq	r0, r0, r0
 24c:	0f620000 	svceq	0x00620000
 250:	0fba0800 	svceq	0x00ba0800
 254:	00010800 	andeq	r0, r1, r0, lsl #16
 258:	00000055 	andeq	r0, r0, r5, asr r0
 25c:	00000000 	andeq	r0, r0, r0
 260:	000f5e00 	andeq	r5, pc, r0, lsl #28
 264:	000f7008 	andeq	r7, pc, r8
 268:	53000108 	movwpl	r0, #264	; 0x108
 26c:	08000f70 	stmdaeq	r0, {r4, r5, r6, r8, r9, sl, fp}
 270:	08000f78 	stmdaeq	r0, {r3, r4, r5, r6, r8, r9, sl, fp}
 274:	74720003 	ldrbtvc	r0, [r2], #-3
 278:	000f789f 	muleq	pc, pc, r8	; <UNPREDICTABLE>
 27c:	000f7c08 	andeq	r7, pc, r8, lsl #24
 280:	72000308 	andvc	r0, r0, #8, 6	; 0x20000000
 284:	0f7c9f78 	svceq	0x007c9f78
 288:	0f800800 	svceq	0x00800800
 28c:	00030800 	andeq	r0, r3, r0, lsl #16
 290:	809f7c72 	addshi	r7, pc, r2, ror ip	; <UNPREDICTABLE>
 294:	8808000f 	stmdahi	r8, {r0, r1, r2, r3}
 298:	0108000f 	tsteq	r8, pc
 29c:	0f885200 	svceq	0x00885200
 2a0:	0f8e0800 	svceq	0x008e0800
 2a4:	00030800 	andeq	r0, r3, r0, lsl #16
 2a8:	9c9f7072 	ldcls	0, cr7, [pc], {114}	; 0x72
 2ac:	a208000f 	andge	r0, r8, #15
 2b0:	0108000f 	tsteq	r8, pc
 2b4:	0fa25300 	svceq	0x00a25300
 2b8:	0fba0800 	svceq	0x00ba0800
 2bc:	00010800 	andeq	r0, r1, r0, lsl #16
 2c0:	00000056 	andeq	r0, r0, r6, asr r0
 2c4:	00000000 	andeq	r0, r0, r0
 2c8:	000f3800 	andeq	r3, pc, r0, lsl #16
 2cc:	000fbe08 	andeq	fp, pc, r8, lsl #28
 2d0:	71000608 	tstvc	r0, r8, lsl #12
 2d4:	1aff0800 	bne	fffc22dc <_estack+0xdff722dc>
 2d8:	000fbe9f 	muleq	pc, pc, lr	; <UNPREDICTABLE>
 2dc:	000fcc08 	andeq	ip, pc, r8, lsl #24
 2e0:	f3000708 	vabd.u8	d0, d0, d8
 2e4:	ff085101 			; <UNDEFINED> instruction: 0xff085101
 2e8:	0fcc9f1a 	svceq	0x00cc9f1a
 2ec:	0fd20800 	svceq	0x00d20800
 2f0:	00060800 	andeq	r0, r6, r0, lsl #16
 2f4:	ff080071 			; <UNDEFINED> instruction: 0xff080071
 2f8:	00009f1a 	andeq	r9, r0, sl, lsl pc
 2fc:	00000000 	andeq	r0, r0, r0
 300:	0fd40000 	svceq	0x00d40000
 304:	0fec0800 	svceq	0x00ec0800
 308:	00010800 	andeq	r0, r1, r0, lsl #16
 30c:	000fec50 	andeq	lr, pc, r0, asr ip	; <UNPREDICTABLE>
 310:	00105e08 	andseq	r5, r0, r8, lsl #28
 314:	56000108 	strpl	r0, [r0], -r8, lsl #2
 318:	0800105e 	stmdaeq	r0, {r1, r2, r3, r4, r6, ip}
 31c:	08001068 	stmdaeq	r0, {r3, r5, r6, ip}
 320:	68500001 	ldmdavs	r0, {r0}^
 324:	70080010 	andvc	r0, r8, r0, lsl r0
 328:	01080010 	tsteq	r8, r0, lsl r0
 32c:	10705600 	rsbsne	r5, r0, r0, lsl #12
 330:	10780800 	rsbsne	r0, r8, r0, lsl #16
 334:	00040800 	andeq	r0, r4, r0, lsl #16
 338:	9f5001f3 	svcls	0x005001f3
 33c:	00000000 	andeq	r0, r0, r0
 340:	00000000 	andeq	r0, r0, r0
 344:	08000fd4 	stmdaeq	r0, {r2, r4, r6, r7, r8, r9, sl, fp}
 348:	08000ff4 	stmdaeq	r0, {r2, r4, r5, r6, r7, r8, r9, sl, fp}
 34c:	f4510001 			; <UNDEFINED> instruction: 0xf4510001
 350:	2208000f 	andcs	r0, r8, #15
 354:	01080010 	tsteq	r8, r0, lsl r0
 358:	10225800 	eorne	r5, r2, r0, lsl #16
 35c:	102d0800 	eorne	r0, sp, r0, lsl #16
 360:	00010800 	andeq	r0, r1, r0, lsl #16
 364:	00102d51 	andseq	r2, r0, r1, asr sp
 368:	00105e08 	andseq	r5, r0, r8, lsl #28
 36c:	58000108 	stmdapl	r0, {r3, r8}
 370:	0800105e 	stmdaeq	r0, {r1, r2, r3, r4, r6, ip}
 374:	08001068 	stmdaeq	r0, {r3, r5, r6, ip}
 378:	68510001 	ldmdavs	r1, {r0}^
 37c:	70080010 	andvc	r0, r8, r0, lsl r0
 380:	01080010 	tsteq	r8, r0, lsl r0
 384:	10705800 	rsbsne	r5, r0, r0, lsl #16
 388:	10780800 	rsbsne	r0, r8, r0, lsl #16
 38c:	00040800 	andeq	r0, r4, r0, lsl #16
 390:	9f5101f3 	svcls	0x005101f3
 394:	00000000 	andeq	r0, r0, r0
 398:	00000000 	andeq	r0, r0, r0
 39c:	08000fd4 	stmdaeq	r0, {r2, r4, r6, r7, r8, r9, sl, fp}
 3a0:	08000ff4 	stmdaeq	r0, {r2, r4, r5, r6, r7, r8, r9, sl, fp}
 3a4:	f4520001 			; <UNDEFINED> instruction: 0xf4520001
 3a8:	2208000f 	andcs	r0, r8, #15
 3ac:	01080010 	tsteq	r8, r0, lsl r0
 3b0:	10225a00 	eorne	r5, r2, r0, lsl #20
 3b4:	102d0800 	eorne	r0, sp, r0, lsl #16
 3b8:	00010800 	andeq	r0, r1, r0, lsl #16
 3bc:	00102d52 	andseq	r2, r0, r2, asr sp
 3c0:	00105e08 	andseq	r5, r0, r8, lsl #28
 3c4:	5a000108 	bpl	7ec <__Main_Stack_Size+0x3ec>
 3c8:	0800105e 	stmdaeq	r0, {r1, r2, r3, r4, r6, ip}
 3cc:	08001068 	stmdaeq	r0, {r3, r5, r6, ip}
 3d0:	68520001 	ldmdavs	r2, {r0}^
 3d4:	70080010 	andvc	r0, r8, r0, lsl r0
 3d8:	01080010 	tsteq	r8, r0, lsl r0
 3dc:	10705a00 	rsbsne	r5, r0, r0, lsl #20
 3e0:	10780800 	rsbsne	r0, r8, r0, lsl #16
 3e4:	00040800 	andeq	r0, r4, r0, lsl #16
 3e8:	9f5201f3 	svcls	0x005201f3
 3ec:	00000000 	andeq	r0, r0, r0
 3f0:	00000000 	andeq	r0, r0, r0
 3f4:	08000fd4 	stmdaeq	r0, {r2, r4, r6, r7, r8, r9, sl, fp}
 3f8:	08000ff2 	stmdaeq	r0, {r1, r4, r5, r6, r7, r8, r9, sl, fp}
 3fc:	f2530001 	vhadd.s16	d16, d3, d1
 400:	2208000f 	andcs	r0, r8, #15
 404:	01080010 	tsteq	r8, r0, lsl r0
 408:	10225900 	eorne	r5, r2, r0, lsl #18
 40c:	10240800 	eorne	r0, r4, r0, lsl #16
 410:	00010800 	andeq	r0, r1, r0, lsl #16
 414:	00102453 	andseq	r2, r0, r3, asr r4
 418:	00105e08 	andseq	r5, r0, r8, lsl #28
 41c:	59000108 	stmdbpl	r0, {r3, r8}
 420:	0800105e 	stmdaeq	r0, {r1, r2, r3, r4, r6, ip}
 424:	08001068 	stmdaeq	r0, {r3, r5, r6, ip}
 428:	68530001 	ldmdavs	r3, {r0}^
 42c:	70080010 	andvc	r0, r8, r0, lsl r0
 430:	01080010 	tsteq	r8, r0, lsl r0
 434:	10705900 	rsbsne	r5, r0, r0, lsl #18
 438:	10780800 	rsbsne	r0, r8, r0, lsl #16
 43c:	00040800 	andeq	r0, r4, r0, lsl #16
 440:	9f5301f3 	svcls	0x005301f3
 444:	00000000 	andeq	r0, r0, r0
 448:	00000000 	andeq	r0, r0, r0
 44c:	08000ff4 	stmdaeq	r0, {r2, r4, r5, r6, r7, r8, r9, sl, fp}
 450:	08001014 	stmdaeq	r0, {r2, r4, ip}
 454:	88740004 	ldmdahi	r4!, {r2}^
 458:	10529f01 	subsne	r9, r2, r1, lsl #30
 45c:	105e0800 	subsne	r0, lr, r0, lsl #16
 460:	00040800 	andeq	r0, r4, r0, lsl #16
 464:	9f018874 	svcls	0x00018874
 468:	00000000 	andeq	r0, r0, r0
 46c:	00000000 	andeq	r0, r0, r0
 470:	08000fe0 	stmdaeq	r0, {r5, r6, r7, r8, r9, sl, fp}
 474:	0800102e 	stmdaeq	r0, {r1, r2, r3, r5, ip}
 478:	2e540001 	cdpcs	0, 5, cr0, cr4, cr1, {0}
 47c:	42080010 	andmi	r0, r8, #16
 480:	01080010 	tsteq	r8, r0, lsl r0
 484:	10425000 	subne	r5, r2, r0
 488:	10700800 	rsbsne	r0, r0, r0, lsl #16
 48c:	00010800 	andeq	r0, r1, r0, lsl #16
 490:	00000054 	andeq	r0, r0, r4, asr r0
 494:	00000000 	andeq	r0, r0, r0
 498:	00108c00 	andseq	r8, r0, r0, lsl #24
 49c:	0010a208 	andseq	sl, r0, r8, lsl #4
 4a0:	50000108 	andpl	r0, r0, r8, lsl #2
 4a4:	080010a2 	stmdaeq	r0, {r1, r5, r7, ip}
 4a8:	08001160 	stmdaeq	r0, {r5, r6, r8, ip}
 4ac:	00590001 	subseq	r0, r9, r1
 4b0:	00000000 	andeq	r0, r0, r0
 4b4:	8c000000 	stchi	0, cr0, [r0], {-0}
 4b8:	a2080010 	andge	r0, r8, #16
 4bc:	01080010 	tsteq	r8, r0, lsl r0
 4c0:	10a25100 	adcne	r5, r2, r0, lsl #2
 4c4:	11600800 	cmnne	r0, r0, lsl #16
 4c8:	00010800 	andeq	r0, r1, r0, lsl #16
 4cc:	00000056 	andeq	r0, r0, r6, asr r0
 4d0:	00000000 	andeq	r0, r0, r0
 4d4:	0010a800 	andseq	sl, r0, r0, lsl #16
 4d8:	00114e08 	andseq	r4, r1, r8, lsl #28
 4dc:	57000108 	strpl	r0, [r0, -r8, lsl #2]
 4e0:	0800114e 	stmdaeq	r0, {r1, r2, r3, r6, r8, ip}
 4e4:	08001160 	stmdaeq	r0, {r5, r6, r8, ip}
 4e8:	00530001 	subseq	r0, r3, r1
 4ec:	00000000 	andeq	r0, r0, r0
 4f0:	ae000000 	cdpge	0, 0, cr0, cr0, cr0, {0}
 4f4:	f4080010 	vst4.8	{d0-d3}, [r8 :64], r0
 4f8:	01080010 	tsteq	r8, r0, lsl r0
 4fc:	10fa5a00 	rscsne	r5, sl, r0, lsl #20
 500:	11600800 	cmnne	r0, r0, lsl #16
 504:	00010800 	andeq	r0, r1, r0, lsl #16
 508:	0000005a 	andeq	r0, r0, sl, asr r0
 50c:	00000000 	andeq	r0, r0, r0
 510:	0010ae00 	andseq	sl, r0, r0, lsl #28
 514:	0010f008 	andseq	pc, r0, r8
 518:	77000408 	strvc	r0, [r0, -r8, lsl #8]
 51c:	fa9f0188 	blx	fe7c0b44 <_estack+0xde770b44>
 520:	50080010 	andpl	r0, r8, r0, lsl r0
 524:	04080011 	streq	r0, [r8], #-17	; 0xffffffef
 528:	01887700 	orreq	r7, r8, r0, lsl #14
 52c:	0011509f 	mulseq	r1, pc, r0	; <UNPREDICTABLE>
 530:	00116008 	andseq	r6, r1, r8
 534:	7a000408 	bvc	155c <__Main_Stack_Size+0x115c>
 538:	009f0188 	addseq	r0, pc, r8, lsl #3
 53c:	00000000 	andeq	r0, r0, r0
 540:	b0000000 	andlt	r0, r0, r0
 544:	b2080010 	andlt	r0, r8, #16
 548:	03080010 	movweq	r0, #32784	; 0x8010
 54c:	9f7f7400 	svcls	0x007f7400
 550:	080010b2 	stmdaeq	r0, {r1, r4, r5, r7, ip}
 554:	080010f4 	stmdaeq	r0, {r2, r4, r5, r6, r7, ip}
 558:	fa550001 	blx	1540564 <__Main_Stack_Size+0x1540164>
 55c:	60080010 	andvs	r0, r8, r0, lsl r0
 560:	01080011 	tsteq	r8, r1, lsl r0
 564:	00005500 	andeq	r5, r0, r0, lsl #10
 568:	00000000 	andeq	r0, r0, r0
 56c:	10be0000 	adcsne	r0, lr, r0
 570:	10ca0800 	sbcne	r0, sl, r0, lsl #16
 574:	00050800 	andeq	r0, r5, r0, lsl #16
 578:	24007531 	strcs	r7, [r0], #-1329	; 0xfffffacf
 57c:	0010ca9f 	mulseq	r0, pc, sl	; <UNPREDICTABLE>
 580:	0010d208 	andseq	sp, r0, r8, lsl #4
 584:	31000508 	tstcc	r0, r8, lsl #10
 588:	9f240175 	svcls	0x00240175
 58c:	080010fa 	stmdaeq	r0, {r1, r3, r4, r5, r6, r7, ip}
 590:	0800114a 	stmdaeq	r0, {r1, r3, r6, r8, ip}
 594:	75310005 	ldrvc	r0, [r1, #-5]!
 598:	009f2400 	addseq	r2, pc, r0, lsl #8
 59c:	00000000 	andeq	r0, r0, r0
 5a0:	fe000000 	cdp2	0, 0, cr0, cr0, cr0, {0}
 5a4:	1f080010 	svcne	0x00080010
 5a8:	01080011 	tsteq	r8, r1, lsl r0
 5ac:	11305200 	teqne	r0, r0, lsl #4
 5b0:	113f0800 	teqne	pc, r0, lsl #16
 5b4:	00010800 	andeq	r0, r1, r0, lsl #16
 5b8:	00114252 	andseq	r4, r1, r2, asr r2
 5bc:	00114708 	andseq	r4, r1, r8, lsl #14
 5c0:	52000108 	andpl	r0, r0, #8, 2
 5c4:	00000000 	andeq	r0, r0, r0
 5c8:	00000000 	andeq	r0, r0, r0
 5cc:	08001116 	stmdaeq	r0, {r1, r2, r4, r8, ip}
 5d0:	0800114a 	stmdaeq	r0, {r1, r3, r6, r8, ip}
 5d4:	005b0001 	subseq	r0, fp, r1
 5d8:	00000000 	andeq	r0, r0, r0
 5dc:	Address 0x00000000000005dc is out of bounds.


Disassembly of section .debug_ranges:

00000000 <.debug_ranges>:
   0:	08000e90 	stmdaeq	r0, {r4, r7, r9, sl, fp}
   4:	08000e9c 	stmdaeq	r0, {r2, r3, r4, r7, r9, sl, fp}
   8:	00000000 	andeq	r0, r0, r0
   c:	00000000 	andeq	r0, r0, r0
  10:	08000e9c 	stmdaeq	r0, {r2, r3, r4, r7, r9, sl, fp}
  14:	08000ebc 	stmdaeq	r0, {r2, r3, r4, r5, r7, r9, sl, fp}
  18:	00000000 	andeq	r0, r0, r0
  1c:	00000000 	andeq	r0, r0, r0
  20:	08000ebc 	stmdaeq	r0, {r2, r3, r4, r5, r7, r9, sl, fp}
  24:	08000ee8 	stmdaeq	r0, {r3, r5, r6, r7, r9, sl, fp}
  28:	00000000 	andeq	r0, r0, r0
  2c:	00000000 	andeq	r0, r0, r0
  30:	08000ee8 	stmdaeq	r0, {r3, r5, r6, r7, r9, sl, fp}
  34:	08000f38 	stmdaeq	r0, {r3, r4, r5, r8, r9, sl, fp}
  38:	00000000 	andeq	r0, r0, r0
  3c:	00000000 	andeq	r0, r0, r0
  40:	08000f38 	stmdaeq	r0, {r3, r4, r5, r8, r9, sl, fp}
  44:	08000fd2 	stmdaeq	r0, {r1, r4, r6, r7, r8, r9, sl, fp}
  48:	00000000 	andeq	r0, r0, r0
  4c:	00000000 	andeq	r0, r0, r0
  50:	08000fd4 	stmdaeq	r0, {r2, r4, r6, r7, r8, r9, sl, fp}
  54:	08001078 	stmdaeq	r0, {r3, r4, r5, r6, ip}
  58:	00000000 	andeq	r0, r0, r0
  5c:	00000000 	andeq	r0, r0, r0
  60:	080010ba 	stmdaeq	r0, {r1, r3, r4, r5, r7, ip}
  64:	080010c8 	stmdaeq	r0, {r3, r6, r7, ip}
  68:	080010fa 	stmdaeq	r0, {r1, r3, r4, r5, r6, r7, ip}
  6c:	0800114c 	stmdaeq	r0, {r2, r3, r6, r8, ip}
  70:	00000000 	andeq	r0, r0, r0
  74:	00000000 	andeq	r0, r0, r0
  78:	08001078 	stmdaeq	r0, {r3, r4, r5, r6, ip}
  7c:	0800108c 	stmdaeq	r0, {r2, r3, r7, ip}
  80:	0800108c 	stmdaeq	r0, {r2, r3, r7, ip}
  84:	08001160 	stmdaeq	r0, {r5, r6, r8, ip}
  88:	00000000 	andeq	r0, r0, r0
  8c:	00000000 	andeq	r0, r0, r0
  90:	08001160 	stmdaeq	r0, {r5, r6, r8, ip}
  94:	08001162 	stmdaeq	r0, {r1, r5, r6, r8, ip}
  98:	00000000 	andeq	r0, r0, r0
  9c:	00000000 	andeq	r0, r0, r0
