
bin/main.elf:     file format elf32-littlearm


Disassembly of section .isr_vector:

08000000 <InterruptVector>:
 8000000:	2004ffff 	strdcs	pc, [r4], -pc	; <UNPREDICTABLE>
 8000004:	08000329 	stmdaeq	r0, {r0, r3, r5, r8, r9}
 8000008:	0800030d 	stmdaeq	r0, {r0, r2, r3, r8, r9}
 800000c:	0800031f 	stmdaeq	r0, {r0, r1, r2, r3, r4, r8, r9}
 8000010:	0800030d 	stmdaeq	r0, {r0, r2, r3, r8, r9}
 8000014:	0800030d 	stmdaeq	r0, {r0, r2, r3, r8, r9}
 8000018:	0800030d 	stmdaeq	r0, {r0, r2, r3, r8, r9}
 800001c:	00000000 	andeq	r0, r0, r0
 8000020:	00000000 	andeq	r0, r0, r0
 8000024:	00000000 	andeq	r0, r0, r0
 8000028:	00000000 	andeq	r0, r0, r0
 800002c:	0800030d 	stmdaeq	r0, {r0, r2, r3, r8, r9}
 8000030:	0800030d 	stmdaeq	r0, {r0, r2, r3, r8, r9}
 8000034:	00000000 	andeq	r0, r0, r0
 8000038:	0800030d 	stmdaeq	r0, {r0, r2, r3, r8, r9}
 800003c:	080034d5 	stmdaeq	r0, {r0, r2, r4, r6, r7, sl, ip, sp}
 8000040:	0800030d 	stmdaeq	r0, {r0, r2, r3, r8, r9}
 8000044:	0800030d 	stmdaeq	r0, {r0, r2, r3, r8, r9}
 8000048:	0800030d 	stmdaeq	r0, {r0, r2, r3, r8, r9}
 800004c:	0800030d 	stmdaeq	r0, {r0, r2, r3, r8, r9}
 8000050:	0800030d 	stmdaeq	r0, {r0, r2, r3, r8, r9}
 8000054:	0800030d 	stmdaeq	r0, {r0, r2, r3, r8, r9}
 8000058:	0800030d 	stmdaeq	r0, {r0, r2, r3, r8, r9}
 800005c:	0800030d 	stmdaeq	r0, {r0, r2, r3, r8, r9}
 8000060:	0800030d 	stmdaeq	r0, {r0, r2, r3, r8, r9}
 8000064:	0800030d 	stmdaeq	r0, {r0, r2, r3, r8, r9}
 8000068:	0800030d 	stmdaeq	r0, {r0, r2, r3, r8, r9}
 800006c:	0800030d 	stmdaeq	r0, {r0, r2, r3, r8, r9}
 8000070:	0800030d 	stmdaeq	r0, {r0, r2, r3, r8, r9}
 8000074:	0800030d 	stmdaeq	r0, {r0, r2, r3, r8, r9}
 8000078:	0800030d 	stmdaeq	r0, {r0, r2, r3, r8, r9}
 800007c:	0800030d 	stmdaeq	r0, {r0, r2, r3, r8, r9}
 8000080:	0800030d 	stmdaeq	r0, {r0, r2, r3, r8, r9}
 8000084:	0800030d 	stmdaeq	r0, {r0, r2, r3, r8, r9}
 8000088:	0800030d 	stmdaeq	r0, {r0, r2, r3, r8, r9}
 800008c:	0800030d 	stmdaeq	r0, {r0, r2, r3, r8, r9}
 8000090:	0800030d 	stmdaeq	r0, {r0, r2, r3, r8, r9}
 8000094:	0800030d 	stmdaeq	r0, {r0, r2, r3, r8, r9}
 8000098:	0800030d 	stmdaeq	r0, {r0, r2, r3, r8, r9}
 800009c:	0800030d 	stmdaeq	r0, {r0, r2, r3, r8, r9}
 80000a0:	0800030d 	stmdaeq	r0, {r0, r2, r3, r8, r9}
 80000a4:	0800030d 	stmdaeq	r0, {r0, r2, r3, r8, r9}
 80000a8:	0800030d 	stmdaeq	r0, {r0, r2, r3, r8, r9}
 80000ac:	0800030d 	stmdaeq	r0, {r0, r2, r3, r8, r9}
 80000b0:	080032f9 	stmdaeq	r0, {r0, r3, r4, r5, r6, r7, r9, ip, sp}
 80000b4:	0800030d 	stmdaeq	r0, {r0, r2, r3, r8, r9}
 80000b8:	0800030d 	stmdaeq	r0, {r0, r2, r3, r8, r9}
 80000bc:	0800030d 	stmdaeq	r0, {r0, r2, r3, r8, r9}
 80000c0:	0800030d 	stmdaeq	r0, {r0, r2, r3, r8, r9}
 80000c4:	0800030d 	stmdaeq	r0, {r0, r2, r3, r8, r9}
 80000c8:	0800030d 	stmdaeq	r0, {r0, r2, r3, r8, r9}
 80000cc:	0800030d 	stmdaeq	r0, {r0, r2, r3, r8, r9}
 80000d0:	0800030d 	stmdaeq	r0, {r0, r2, r3, r8, r9}
 80000d4:	0800030d 	stmdaeq	r0, {r0, r2, r3, r8, r9}
 80000d8:	0800030d 	stmdaeq	r0, {r0, r2, r3, r8, r9}
 80000dc:	0800030d 	stmdaeq	r0, {r0, r2, r3, r8, r9}
 80000e0:	0800030d 	stmdaeq	r0, {r0, r2, r3, r8, r9}
 80000e4:	0800030d 	stmdaeq	r0, {r0, r2, r3, r8, r9}
 80000e8:	0800030d 	stmdaeq	r0, {r0, r2, r3, r8, r9}
 80000ec:	0800030d 	stmdaeq	r0, {r0, r2, r3, r8, r9}
 80000f0:	0800030d 	stmdaeq	r0, {r0, r2, r3, r8, r9}
 80000f4:	0800030d 	stmdaeq	r0, {r0, r2, r3, r8, r9}
 80000f8:	0800030d 	stmdaeq	r0, {r0, r2, r3, r8, r9}
 80000fc:	0800030d 	stmdaeq	r0, {r0, r2, r3, r8, r9}
 8000100:	0800030d 	stmdaeq	r0, {r0, r2, r3, r8, r9}
 8000104:	0800030d 	stmdaeq	r0, {r0, r2, r3, r8, r9}
 8000108:	0800030d 	stmdaeq	r0, {r0, r2, r3, r8, r9}
 800010c:	0800030d 	stmdaeq	r0, {r0, r2, r3, r8, r9}
 8000110:	0800030d 	stmdaeq	r0, {r0, r2, r3, r8, r9}
 8000114:	0800030d 	stmdaeq	r0, {r0, r2, r3, r8, r9}
 8000118:	0800030d 	stmdaeq	r0, {r0, r2, r3, r8, r9}
 800011c:	0800030d 	stmdaeq	r0, {r0, r2, r3, r8, r9}
 8000120:	0800030d 	stmdaeq	r0, {r0, r2, r3, r8, r9}
 8000124:	080030c5 	stmdaeq	r0, {r0, r2, r6, r7, ip, sp}
 8000128:	0800030d 	stmdaeq	r0, {r0, r2, r3, r8, r9}
 800012c:	0800030d 	stmdaeq	r0, {r0, r2, r3, r8, r9}
 8000130:	0800030d 	stmdaeq	r0, {r0, r2, r3, r8, r9}
 8000134:	0800030d 	stmdaeq	r0, {r0, r2, r3, r8, r9}
 8000138:	0800030d 	stmdaeq	r0, {r0, r2, r3, r8, r9}
 800013c:	0800030d 	stmdaeq	r0, {r0, r2, r3, r8, r9}
 8000140:	0800030d 	stmdaeq	r0, {r0, r2, r3, r8, r9}
 8000144:	0800030d 	stmdaeq	r0, {r0, r2, r3, r8, r9}
 8000148:	0800030d 	stmdaeq	r0, {r0, r2, r3, r8, r9}
 800014c:	0800030d 	stmdaeq	r0, {r0, r2, r3, r8, r9}
 8000150:	0800030d 	stmdaeq	r0, {r0, r2, r3, r8, r9}
 8000154:	0800030d 	stmdaeq	r0, {r0, r2, r3, r8, r9}
 8000158:	0800030d 	stmdaeq	r0, {r0, r2, r3, r8, r9}
 800015c:	0800030d 	stmdaeq	r0, {r0, r2, r3, r8, r9}
 8000160:	0800030d 	stmdaeq	r0, {r0, r2, r3, r8, r9}
 8000164:	0800030d 	stmdaeq	r0, {r0, r2, r3, r8, r9}
 8000168:	0800030d 	stmdaeq	r0, {r0, r2, r3, r8, r9}
 800016c:	0800030d 	stmdaeq	r0, {r0, r2, r3, r8, r9}
 8000170:	0800030d 	stmdaeq	r0, {r0, r2, r3, r8, r9}
 8000174:	0800030d 	stmdaeq	r0, {r0, r2, r3, r8, r9}
 8000178:	080030d1 	stmdaeq	r0, {r0, r4, r6, r7, ip, sp}
 800017c:	00000000 	andeq	r0, r0, r0
 8000180:	0800030d 	stmdaeq	r0, {r0, r2, r3, r8, r9}
 8000184:	0800030d 	stmdaeq	r0, {r0, r2, r3, r8, r9}
 8000188:	0800030d 	stmdaeq	r0, {r0, r2, r3, r8, r9}
 800018c:	0800030d 	stmdaeq	r0, {r0, r2, r3, r8, r9}
 8000190:	0800030d 	stmdaeq	r0, {r0, r2, r3, r8, r9}
 8000194:	0800030d 	stmdaeq	r0, {r0, r2, r3, r8, r9}
 8000198:	0800030d 	stmdaeq	r0, {r0, r2, r3, r8, r9}
 800019c:	0800030d 	stmdaeq	r0, {r0, r2, r3, r8, r9}
 80001a0:	0800030d 	stmdaeq	r0, {r0, r2, r3, r8, r9}
 80001a4:	0800030d 	stmdaeq	r0, {r0, r2, r3, r8, r9}
 80001a8:	0800030d 	stmdaeq	r0, {r0, r2, r3, r8, r9}
 80001ac:	0800030d 	stmdaeq	r0, {r0, r2, r3, r8, r9}
 80001b0:	0800030d 	stmdaeq	r0, {r0, r2, r3, r8, r9}
 80001b4:	0800030d 	stmdaeq	r0, {r0, r2, r3, r8, r9}
 80001b8:	0800030d 	stmdaeq	r0, {r0, r2, r3, r8, r9}
 80001bc:	0800030d 	stmdaeq	r0, {r0, r2, r3, r8, r9}
 80001c0:	0800030d 	stmdaeq	r0, {r0, r2, r3, r8, r9}
 80001c4:	0800030d 	stmdaeq	r0, {r0, r2, r3, r8, r9}

Disassembly of section .text:

080001c8 <deregister_tm_clones>:
 80001c8:	4b04      	ldr	r3, [pc, #16]	; (80001dc <deregister_tm_clones+0x14>)
 80001ca:	4805      	ldr	r0, [pc, #20]	; (80001e0 <deregister_tm_clones+0x18>)
 80001cc:	1a1b      	subs	r3, r3, r0
 80001ce:	2b06      	cmp	r3, #6
 80001d0:	d902      	bls.n	80001d8 <deregister_tm_clones+0x10>
 80001d2:	4b04      	ldr	r3, [pc, #16]	; (80001e4 <deregister_tm_clones+0x1c>)
 80001d4:	b103      	cbz	r3, 80001d8 <deregister_tm_clones+0x10>
 80001d6:	4718      	bx	r3
 80001d8:	4770      	bx	lr
 80001da:	bf00      	nop
 80001dc:	20003e73 	andcs	r3, r0, r3, ror lr
 80001e0:	20003e70 	andcs	r3, r0, r0, ror lr
 80001e4:	00000000 	andeq	r0, r0, r0

080001e8 <register_tm_clones>:
 80001e8:	4905      	ldr	r1, [pc, #20]	; (8000200 <register_tm_clones+0x18>)
 80001ea:	4806      	ldr	r0, [pc, #24]	; (8000204 <register_tm_clones+0x1c>)
 80001ec:	1a09      	subs	r1, r1, r0
 80001ee:	1089      	asrs	r1, r1, #2
 80001f0:	eb01 71d1 	add.w	r1, r1, r1, lsr #31
 80001f4:	1049      	asrs	r1, r1, #1
 80001f6:	d002      	beq.n	80001fe <register_tm_clones+0x16>
 80001f8:	4b03      	ldr	r3, [pc, #12]	; (8000208 <register_tm_clones+0x20>)
 80001fa:	b103      	cbz	r3, 80001fe <register_tm_clones+0x16>
 80001fc:	4718      	bx	r3
 80001fe:	4770      	bx	lr
 8000200:	20003e70 	andcs	r3, r0, r0, ror lr
 8000204:	20003e70 	andcs	r3, r0, r0, ror lr
 8000208:	00000000 	andeq	r0, r0, r0

0800020c <__do_global_dtors_aux>:
 800020c:	b510      	push	{r4, lr}
 800020e:	4c06      	ldr	r4, [pc, #24]	; (8000228 <__do_global_dtors_aux+0x1c>)
 8000210:	7823      	ldrb	r3, [r4, #0]
 8000212:	b943      	cbnz	r3, 8000226 <__do_global_dtors_aux+0x1a>
 8000214:	f7ff ffd8 	bl	80001c8 <deregister_tm_clones>
 8000218:	4b04      	ldr	r3, [pc, #16]	; (800022c <__do_global_dtors_aux+0x20>)
 800021a:	b113      	cbz	r3, 8000222 <__do_global_dtors_aux+0x16>
 800021c:	4804      	ldr	r0, [pc, #16]	; (8000230 <__do_global_dtors_aux+0x24>)
 800021e:	f3af 8000 	nop.w
 8000222:	2301      	movs	r3, #1
 8000224:	7023      	strb	r3, [r4, #0]
 8000226:	bd10      	pop	{r4, pc}
 8000228:	20003e70 	andcs	r3, r0, r0, ror lr
 800022c:	00000000 	andeq	r0, r0, r0
 8000230:	08004b20 	stmdaeq	r0, {r5, r8, r9, fp, lr}

08000234 <frame_dummy>:
 8000234:	b508      	push	{r3, lr}
 8000236:	4b08      	ldr	r3, [pc, #32]	; (8000258 <frame_dummy+0x24>)
 8000238:	b11b      	cbz	r3, 8000242 <frame_dummy+0xe>
 800023a:	4808      	ldr	r0, [pc, #32]	; (800025c <frame_dummy+0x28>)
 800023c:	4908      	ldr	r1, [pc, #32]	; (8000260 <frame_dummy+0x2c>)
 800023e:	f3af 8000 	nop.w
 8000242:	4808      	ldr	r0, [pc, #32]	; (8000264 <frame_dummy+0x30>)
 8000244:	6803      	ldr	r3, [r0, #0]
 8000246:	b913      	cbnz	r3, 800024e <frame_dummy+0x1a>
 8000248:	e8bd 4008 	ldmia.w	sp!, {r3, lr}
 800024c:	e7cc      	b.n	80001e8 <register_tm_clones>
 800024e:	4b06      	ldr	r3, [pc, #24]	; (8000268 <frame_dummy+0x34>)
 8000250:	2b00      	cmp	r3, #0
 8000252:	d0f9      	beq.n	8000248 <frame_dummy+0x14>
 8000254:	4798      	blx	r3
 8000256:	e7f7      	b.n	8000248 <frame_dummy+0x14>
 8000258:	00000000 	andeq	r0, r0, r0
 800025c:	08004b20 	stmdaeq	r0, {r5, r8, r9, fp, lr}
 8000260:	20003e74 	andcs	r3, r0, r4, ror lr
 8000264:	20003e70 	andcs	r3, r0, r0, ror lr
 8000268:	00000000 	andeq	r0, r0, r0

0800026c <__aeabi_d2f>:
 800026c:	ea4f 0241 	mov.w	r2, r1, lsl #1
 8000270:	f1b2 43e0 	subs.w	r3, r2, #1879048192	; 0x70000000
 8000274:	bf24      	itt	cs
 8000276:	f5b3 1c00 	subscs.w	ip, r3, #2097152	; 0x200000
 800027a:	f1dc 5cfe 	rsbscs	ip, ip, #532676608	; 0x1fc00000
 800027e:	d90d      	bls.n	800029c <__aeabi_d2f+0x30>
 8000280:	f001 4c00 	and.w	ip, r1, #2147483648	; 0x80000000
 8000284:	ea4f 02c0 	mov.w	r2, r0, lsl #3
 8000288:	ea4c 7050 	orr.w	r0, ip, r0, lsr #29
 800028c:	f1b2 4f00 	cmp.w	r2, #2147483648	; 0x80000000
 8000290:	eb40 0083 	adc.w	r0, r0, r3, lsl #2
 8000294:	bf08      	it	eq
 8000296:	f020 0001 	biceq.w	r0, r0, #1
 800029a:	4770      	bx	lr
 800029c:	f011 4f80 	tst.w	r1, #1073741824	; 0x40000000
 80002a0:	d121      	bne.n	80002e6 <__aeabi_d2f+0x7a>
 80002a2:	f113 7238 	adds.w	r2, r3, #48234496	; 0x2e00000
 80002a6:	bfbc      	itt	lt
 80002a8:	f001 4000 	andlt.w	r0, r1, #2147483648	; 0x80000000
 80002ac:	4770      	bxlt	lr
 80002ae:	f441 1180 	orr.w	r1, r1, #1048576	; 0x100000
 80002b2:	ea4f 5252 	mov.w	r2, r2, lsr #21
 80002b6:	f1c2 0218 	rsb	r2, r2, #24
 80002ba:	f1c2 0c20 	rsb	ip, r2, #32
 80002be:	fa10 f30c 	lsls.w	r3, r0, ip
 80002c2:	fa20 f002 	lsr.w	r0, r0, r2
 80002c6:	bf18      	it	ne
 80002c8:	f040 0001 	orrne.w	r0, r0, #1
 80002cc:	ea4f 23c1 	mov.w	r3, r1, lsl #11
 80002d0:	ea4f 23d3 	mov.w	r3, r3, lsr #11
 80002d4:	fa03 fc0c 	lsl.w	ip, r3, ip
 80002d8:	ea40 000c 	orr.w	r0, r0, ip
 80002dc:	fa23 f302 	lsr.w	r3, r3, r2
 80002e0:	ea4f 0343 	mov.w	r3, r3, lsl #1
 80002e4:	e7cc      	b.n	8000280 <__aeabi_d2f+0x14>
 80002e6:	ea7f 5362 	mvns.w	r3, r2, asr #21
 80002ea:	d107      	bne.n	80002fc <__aeabi_d2f+0x90>
 80002ec:	ea50 3301 	orrs.w	r3, r0, r1, lsl #12
 80002f0:	bf1e      	ittt	ne
 80002f2:	f04f 40fe 	movne.w	r0, #2130706432	; 0x7f000000
 80002f6:	f440 0040 	orrne.w	r0, r0, #12582912	; 0xc00000
 80002fa:	4770      	bxne	lr
 80002fc:	f001 4000 	and.w	r0, r1, #2147483648	; 0x80000000
 8000300:	f040 40fe 	orr.w	r0, r0, #2130706432	; 0x7f000000
 8000304:	f440 0000 	orr.w	r0, r0, #8388608	; 0x800000
 8000308:	4770      	bx	lr
 800030a:	bf00      	nop

0800030c <Default_Handler>:
 800030c:	4668      	mov	r0, sp
 800030e:	f020 0107 	bic.w	r1, r0, #7
 8000312:	468d      	mov	sp, r1
 8000314:	b501      	push	{r0, lr}
 8000316:	e8bd 4001 	ldmia.w	sp!, {r0, lr}
 800031a:	4685      	mov	sp, r0
 800031c:	4770      	bx	lr

0800031e <HardFault_Handler>:
 800031e:	4668      	mov	r0, sp
 8000320:	f020 0107 	bic.w	r1, r0, #7
 8000324:	468d      	mov	sp, r1
 8000326:	e7fe      	b.n	8000326 <HardFault_Handler+0x8>

08000328 <Reset_Handler>:
 8000328:	4919      	ldr	r1, [pc, #100]	; (8000390 <Reset_Handler+0x68>)
 800032a:	4b1a      	ldr	r3, [pc, #104]	; (8000394 <Reset_Handler+0x6c>)
 800032c:	1a5b      	subs	r3, r3, r1
 800032e:	089b      	lsrs	r3, r3, #2
 8000330:	2200      	movs	r2, #0
 8000332:	429a      	cmp	r2, r3
 8000334:	d006      	beq.n	8000344 <Reset_Handler+0x1c>
 8000336:	4818      	ldr	r0, [pc, #96]	; (8000398 <Reset_Handler+0x70>)
 8000338:	f850 0022 	ldr.w	r0, [r0, r2, lsl #2]
 800033c:	f841 0022 	str.w	r0, [r1, r2, lsl #2]
 8000340:	3201      	adds	r2, #1
 8000342:	e7f6      	b.n	8000332 <Reset_Handler+0xa>
 8000344:	4b15      	ldr	r3, [pc, #84]	; (800039c <Reset_Handler+0x74>)
 8000346:	4a16      	ldr	r2, [pc, #88]	; (80003a0 <Reset_Handler+0x78>)
 8000348:	4293      	cmp	r3, r2
 800034a:	d003      	beq.n	8000354 <Reset_Handler+0x2c>
 800034c:	2200      	movs	r2, #0
 800034e:	f843 2b04 	str.w	r2, [r3], #4
 8000352:	e7f8      	b.n	8000346 <Reset_Handler+0x1e>
 8000354:	4a13      	ldr	r2, [pc, #76]	; (80003a4 <Reset_Handler+0x7c>)
 8000356:	4c14      	ldr	r4, [pc, #80]	; (80003a8 <Reset_Handler+0x80>)
 8000358:	f8d2 3088 	ldr.w	r3, [r2, #136]	; 0x88
 800035c:	f443 0370 	orr.w	r3, r3, #15728640	; 0xf00000
 8000360:	f8c2 3088 	str.w	r3, [r2, #136]	; 0x88
 8000364:	f8d2 3234 	ldr.w	r3, [r2, #564]	; 0x234
 8000368:	f023 4340 	bic.w	r3, r3, #3221225472	; 0xc0000000
 800036c:	f8c2 3234 	str.w	r3, [r2, #564]	; 0x234
 8000370:	4b0e      	ldr	r3, [pc, #56]	; (80003ac <Reset_Handler+0x84>)
 8000372:	1ae4      	subs	r4, r4, r3
 8000374:	10a4      	asrs	r4, r4, #2
 8000376:	2500      	movs	r5, #0
 8000378:	461e      	mov	r6, r3
 800037a:	42a5      	cmp	r5, r4
 800037c:	d004      	beq.n	8000388 <Reset_Handler+0x60>
 800037e:	f856 3025 	ldr.w	r3, [r6, r5, lsl #2]
 8000382:	4798      	blx	r3
 8000384:	3501      	adds	r5, #1
 8000386:	e7f8      	b.n	800037a <Reset_Handler+0x52>
 8000388:	f000 f812 	bl	80003b0 <SystemInit>
 800038c:	f003 bbb4 	b.w	8003af8 <main>
 8000390:	20000000 	andcs	r0, r0, r0
 8000394:	20003e70 	andcs	r3, r0, r0, ror lr
 8000398:	08004c6c 	stmdaeq	r0, {r2, r3, r5, r6, sl, fp, lr}
 800039c:	20003e70 	andcs	r3, r0, r0, ror lr
 80003a0:	2000476c 	andcs	r4, r0, ip, ror #14
 80003a4:	e000ed00 	and	lr, r0, r0, lsl #26
 80003a8:	08004c68 	stmdaeq	r0, {r3, r5, r6, sl, fp, lr}
 80003ac:	08004c40 	stmdaeq	r0, {r6, sl, fp, lr}

080003b0 <SystemInit>:
 80003b0:	490f      	ldr	r1, [pc, #60]	; (80003f0 <SystemInit+0x40>)
 80003b2:	f8d1 3088 	ldr.w	r3, [r1, #136]	; 0x88
 80003b6:	f443 0370 	orr.w	r3, r3, #15728640	; 0xf00000
 80003ba:	f8c1 3088 	str.w	r3, [r1, #136]	; 0x88
 80003be:	4b0d      	ldr	r3, [pc, #52]	; (80003f4 <SystemInit+0x44>)
 80003c0:	681a      	ldr	r2, [r3, #0]
 80003c2:	2000      	movs	r0, #0
 80003c4:	f042 0201 	orr.w	r2, r2, #1
 80003c8:	601a      	str	r2, [r3, #0]
 80003ca:	6098      	str	r0, [r3, #8]
 80003cc:	681a      	ldr	r2, [r3, #0]
 80003ce:	f022 7284 	bic.w	r2, r2, #17301504	; 0x1080000
 80003d2:	f422 3280 	bic.w	r2, r2, #65536	; 0x10000
 80003d6:	601a      	str	r2, [r3, #0]
 80003d8:	4a07      	ldr	r2, [pc, #28]	; (80003f8 <SystemInit+0x48>)
 80003da:	605a      	str	r2, [r3, #4]
 80003dc:	681a      	ldr	r2, [r3, #0]
 80003de:	f422 2280 	bic.w	r2, r2, #262144	; 0x40000
 80003e2:	601a      	str	r2, [r3, #0]
 80003e4:	60d8      	str	r0, [r3, #12]
 80003e6:	f04f 6300 	mov.w	r3, #134217728	; 0x8000000
 80003ea:	608b      	str	r3, [r1, #8]
 80003ec:	4770      	bx	lr
 80003ee:	bf00      	nop
 80003f0:	e000ed00 	and	lr, r0, r0, lsl #26
 80003f4:	40023800 	andmi	r3, r2, r0, lsl #16
 80003f8:	24003010 	strcs	r3, [r0], #-16

080003fc <core_mpu_config>:
 80003fc:	b530      	push	{r4, r5, lr}
 80003fe:	4c18      	ldr	r4, [pc, #96]	; (8000460 <core_mpu_config+0x64>)
 8000400:	4d18      	ldr	r5, [pc, #96]	; (8000464 <core_mpu_config+0x68>)
 8000402:	6a63      	ldr	r3, [r4, #36]	; 0x24
 8000404:	f423 3380 	bic.w	r3, r3, #65536	; 0x10000
 8000408:	6263      	str	r3, [r4, #36]	; 0x24
 800040a:	686b      	ldr	r3, [r5, #4]
 800040c:	b085      	sub	sp, #20
 800040e:	f023 0301 	bic.w	r3, r3, #1
 8000412:	606b      	str	r3, [r5, #4]
 8000414:	4b14      	ldr	r3, [pc, #80]	; (8000468 <core_mpu_config+0x6c>)
 8000416:	9301      	str	r3, [sp, #4]
 8000418:	2311      	movs	r3, #17
 800041a:	f88d 3008 	strb.w	r3, [sp, #8]
 800041e:	2303      	movs	r3, #3
 8000420:	2201      	movs	r2, #1
 8000422:	f88d 300b 	strb.w	r3, [sp, #11]
 8000426:	4668      	mov	r0, sp
 8000428:	2300      	movs	r3, #0
 800042a:	f88d 300f 	strb.w	r3, [sp, #15]
 800042e:	f88d 300d 	strb.w	r3, [sp, #13]
 8000432:	f88d 3001 	strb.w	r3, [sp, #1]
 8000436:	f88d 300a 	strb.w	r3, [sp, #10]
 800043a:	f88d 3009 	strb.w	r3, [sp, #9]
 800043e:	f88d 300c 	strb.w	r3, [sp, #12]
 8000442:	f88d 2000 	strb.w	r2, [sp]
 8000446:	f88d 200e 	strb.w	r2, [sp, #14]
 800044a:	f000 fe79 	bl	8001140 <HAL_MPU_ConfigRegion>
 800044e:	2305      	movs	r3, #5
 8000450:	606b      	str	r3, [r5, #4]
 8000452:	6a63      	ldr	r3, [r4, #36]	; 0x24
 8000454:	f443 3380 	orr.w	r3, r3, #65536	; 0x10000
 8000458:	6263      	str	r3, [r4, #36]	; 0x24
 800045a:	b005      	add	sp, #20
 800045c:	bd30      	pop	{r4, r5, pc}
 800045e:	bf00      	nop
 8000460:	e000ed00 	and	lr, r0, r0, lsl #26
 8000464:	e000ed90 	mul	r0, r0, sp
 8000468:	20010000 	andcs	r0, r1, r0

0800046c <core_cpu_cache_enable>:
 800046c:	b530      	push	{r4, r5, lr}
 800046e:	f3bf 8f4f 	dsb	sy
 8000472:	f3bf 8f6f 	isb	sy
 8000476:	4b30      	ldr	r3, [pc, #192]	; (8000538 <core_cpu_cache_enable+0xcc>)
 8000478:	2200      	movs	r2, #0
 800047a:	f8c3 2250 	str.w	r2, [r3, #592]	; 0x250
 800047e:	f3bf 8f4f 	dsb	sy
 8000482:	f3bf 8f6f 	isb	sy
 8000486:	6959      	ldr	r1, [r3, #20]
 8000488:	f441 2180 	orr.w	r1, r1, #262144	; 0x40000
 800048c:	6159      	str	r1, [r3, #20]
 800048e:	f3bf 8f4f 	dsb	sy
 8000492:	f3bf 8f4f 	dsb	sy
 8000496:	f3bf 8f6f 	isb	sy
 800049a:	f8c3 2250 	str.w	r2, [r3, #592]	; 0x250
 800049e:	6959      	ldr	r1, [r3, #20]
 80004a0:	f441 3100 	orr.w	r1, r1, #131072	; 0x20000
 80004a4:	6159      	str	r1, [r3, #20]
 80004a6:	f3bf 8f4f 	dsb	sy
 80004aa:	f3bf 8f6f 	isb	sy
 80004ae:	f8c3 2084 	str.w	r2, [r3, #132]	; 0x84
 80004b2:	f3bf 8f4f 	dsb	sy
 80004b6:	f8d3 2080 	ldr.w	r2, [r3, #128]	; 0x80
 80004ba:	f3c2 334e 	ubfx	r3, r2, #13, #15
 80004be:	f3c2 02c9 	ubfx	r2, r2, #3, #10
 80004c2:	0159      	lsls	r1, r3, #5
 80004c4:	f643 74e0 	movw	r4, #16352	; 0x3fe0
 80004c8:	400c      	ands	r4, r1
 80004ca:	4611      	mov	r1, r2
 80004cc:	481a      	ldr	r0, [pc, #104]	; (8000538 <core_cpu_cache_enable+0xcc>)
 80004ce:	ea44 7581 	orr.w	r5, r4, r1, lsl #30
 80004d2:	f111 31ff 	adds.w	r1, r1, #4294967295	; 0xffffffff
 80004d6:	f8c0 5260 	str.w	r5, [r0, #608]	; 0x260
 80004da:	d2f7      	bcs.n	80004cc <core_cpu_cache_enable+0x60>
 80004dc:	f113 33ff 	adds.w	r3, r3, #4294967295	; 0xffffffff
 80004e0:	d2ef      	bcs.n	80004c2 <core_cpu_cache_enable+0x56>
 80004e2:	f3bf 8f4f 	dsb	sy
 80004e6:	f3bf 8f6f 	isb	sy
 80004ea:	2300      	movs	r3, #0
 80004ec:	f8c0 3084 	str.w	r3, [r0, #132]	; 0x84
 80004f0:	f3bf 8f4f 	dsb	sy
 80004f4:	f8d0 2080 	ldr.w	r2, [r0, #128]	; 0x80
 80004f8:	f3c2 334e 	ubfx	r3, r2, #13, #15
 80004fc:	f3c2 02c9 	ubfx	r2, r2, #3, #10
 8000500:	0159      	lsls	r1, r3, #5
 8000502:	f643 74e0 	movw	r4, #16352	; 0x3fe0
 8000506:	400c      	ands	r4, r1
 8000508:	4611      	mov	r1, r2
 800050a:	480b      	ldr	r0, [pc, #44]	; (8000538 <core_cpu_cache_enable+0xcc>)
 800050c:	ea44 7581 	orr.w	r5, r4, r1, lsl #30
 8000510:	f111 31ff 	adds.w	r1, r1, #4294967295	; 0xffffffff
 8000514:	f8c0 5260 	str.w	r5, [r0, #608]	; 0x260
 8000518:	d2f7      	bcs.n	800050a <core_cpu_cache_enable+0x9e>
 800051a:	f113 33ff 	adds.w	r3, r3, #4294967295	; 0xffffffff
 800051e:	d2ef      	bcs.n	8000500 <core_cpu_cache_enable+0x94>
 8000520:	f3bf 8f4f 	dsb	sy
 8000524:	6943      	ldr	r3, [r0, #20]
 8000526:	f443 3380 	orr.w	r3, r3, #65536	; 0x10000
 800052a:	6143      	str	r3, [r0, #20]
 800052c:	f3bf 8f4f 	dsb	sy
 8000530:	f3bf 8f6f 	isb	sy
 8000534:	bd30      	pop	{r4, r5, pc}
 8000536:	bf00      	nop
 8000538:	e000ed00 	and	lr, r0, r0, lsl #26

0800053c <core_SystemClock_Config_216>:
 800053c:	b510      	push	{r4, lr}
 800053e:	b092      	sub	sp, #72	; 0x48
 8000540:	2301      	movs	r3, #1
 8000542:	9306      	str	r3, [sp, #24]
 8000544:	f44f 3380 	mov.w	r3, #65536	; 0x10000
 8000548:	9307      	str	r3, [sp, #28]
 800054a:	f44f 0380 	mov.w	r3, #4194304	; 0x400000
 800054e:	930d      	str	r3, [sp, #52]	; 0x34
 8000550:	2319      	movs	r3, #25
 8000552:	930e      	str	r3, [sp, #56]	; 0x38
 8000554:	f44f 73d8 	mov.w	r3, #432	; 0x1b0
 8000558:	2402      	movs	r4, #2
 800055a:	930f      	str	r3, [sp, #60]	; 0x3c
 800055c:	a806      	add	r0, sp, #24
 800055e:	2309      	movs	r3, #9
 8000560:	940c      	str	r4, [sp, #48]	; 0x30
 8000562:	9410      	str	r4, [sp, #64]	; 0x40
 8000564:	9311      	str	r3, [sp, #68]	; 0x44
 8000566:	f001 fa41 	bl	80019ec <HAL_RCC_OscConfig>
 800056a:	b100      	cbz	r0, 800056e <core_SystemClock_Config_216+0x32>
 800056c:	e7fe      	b.n	800056c <core_SystemClock_Config_216+0x30>
 800056e:	f000 f91f 	bl	80007b0 <HAL_PWREx_EnableOverDrive>
 8000572:	b100      	cbz	r0, 8000576 <core_SystemClock_Config_216+0x3a>
 8000574:	e7fe      	b.n	8000574 <core_SystemClock_Config_216+0x38>
 8000576:	230f      	movs	r3, #15
 8000578:	9301      	str	r3, [sp, #4]
 800057a:	f44f 53a0 	mov.w	r3, #5120	; 0x1400
 800057e:	9003      	str	r0, [sp, #12]
 8000580:	9304      	str	r3, [sp, #16]
 8000582:	a801      	add	r0, sp, #4
 8000584:	f44f 5380 	mov.w	r3, #4096	; 0x1000
 8000588:	2107      	movs	r1, #7
 800058a:	9402      	str	r4, [sp, #8]
 800058c:	9305      	str	r3, [sp, #20]
 800058e:	f001 fc05 	bl	8001d9c <HAL_RCC_ClockConfig>
 8000592:	b100      	cbz	r0, 8000596 <core_SystemClock_Config_216+0x5a>
 8000594:	e7fe      	b.n	8000594 <core_SystemClock_Config_216+0x58>
 8000596:	b012      	add	sp, #72	; 0x48
 8000598:	bd10      	pop	{r4, pc}

0800059a <core_init>:
 800059a:	b508      	push	{r3, lr}
 800059c:	f7ff ff2e 	bl	80003fc <core_mpu_config>
 80005a0:	f7ff ff64 	bl	800046c <core_cpu_cache_enable>
 80005a4:	f000 f816 	bl	80005d4 <HAL_Init>
 80005a8:	e8bd 4008 	ldmia.w	sp!, {r3, lr}
 80005ac:	f7ff bfc6 	b.w	800053c <core_SystemClock_Config_216>

080005b0 <HAL_InitTick>:
 80005b0:	b510      	push	{r4, lr}
 80005b2:	4604      	mov	r4, r0
 80005b4:	f001 fd1c 	bl	8001ff0 <HAL_RCC_GetHCLKFreq>
 80005b8:	f44f 737a 	mov.w	r3, #1000	; 0x3e8
 80005bc:	fbb0 f0f3 	udiv	r0, r0, r3
 80005c0:	f000 fda8 	bl	8001114 <HAL_SYSTICK_Config>
 80005c4:	f04f 30ff 	mov.w	r0, #4294967295	; 0xffffffff
 80005c8:	4621      	mov	r1, r4
 80005ca:	2200      	movs	r2, #0
 80005cc:	f000 fd66 	bl	800109c <HAL_NVIC_SetPriority>
 80005d0:	2000      	movs	r0, #0
 80005d2:	bd10      	pop	{r4, pc}

080005d4 <HAL_Init>:
 80005d4:	4a07      	ldr	r2, [pc, #28]	; (80005f4 <HAL_Init+0x20>)
 80005d6:	b508      	push	{r3, lr}
 80005d8:	6813      	ldr	r3, [r2, #0]
 80005da:	f443 7300 	orr.w	r3, r3, #512	; 0x200
 80005de:	6013      	str	r3, [r2, #0]
 80005e0:	2003      	movs	r0, #3
 80005e2:	f000 fd49 	bl	8001078 <HAL_NVIC_SetPriorityGrouping>
 80005e6:	200f      	movs	r0, #15
 80005e8:	f7ff ffe2 	bl	80005b0 <HAL_InitTick>
 80005ec:	f001 fef8 	bl	80023e0 <HAL_MspInit>
 80005f0:	2000      	movs	r0, #0
 80005f2:	bd08      	pop	{r3, pc}
 80005f4:	40023c00 	andmi	r3, r2, r0, lsl #24

080005f8 <HAL_GetTick>:
 80005f8:	4b01      	ldr	r3, [pc, #4]	; (8000600 <HAL_GetTick+0x8>)
 80005fa:	6818      	ldr	r0, [r3, #0]
 80005fc:	4770      	bx	lr
 80005fe:	bf00      	nop
 8000600:	20003e8c 	andcs	r3, r0, ip, lsl #29

08000604 <HAL_DMA_Abort>:
 8000604:	6802      	ldr	r2, [r0, #0]
 8000606:	b538      	push	{r3, r4, r5, lr}
 8000608:	6813      	ldr	r3, [r2, #0]
 800060a:	f023 0301 	bic.w	r3, r3, #1
 800060e:	6013      	str	r3, [r2, #0]
 8000610:	4604      	mov	r4, r0
 8000612:	f7ff fff1 	bl	80005f8 <HAL_GetTick>
 8000616:	4605      	mov	r5, r0
 8000618:	6823      	ldr	r3, [r4, #0]
 800061a:	6818      	ldr	r0, [r3, #0]
 800061c:	f010 0001 	ands.w	r0, r0, #1
 8000620:	d010      	beq.n	8000644 <HAL_DMA_Abort+0x40>
 8000622:	f7ff ffe9 	bl	80005f8 <HAL_GetTick>
 8000626:	1b40      	subs	r0, r0, r5
 8000628:	f5b0 7f7a 	cmp.w	r0, #1000	; 0x3e8
 800062c:	d9f4      	bls.n	8000618 <HAL_DMA_Abort+0x14>
 800062e:	6ce3      	ldr	r3, [r4, #76]	; 0x4c
 8000630:	f043 0320 	orr.w	r3, r3, #32
 8000634:	64e3      	str	r3, [r4, #76]	; 0x4c
 8000636:	2003      	movs	r0, #3
 8000638:	2300      	movs	r3, #0
 800063a:	f884 3034 	strb.w	r3, [r4, #52]	; 0x34
 800063e:	f884 0035 	strb.w	r0, [r4, #53]	; 0x35
 8000642:	bd38      	pop	{r3, r4, r5, pc}
 8000644:	2301      	movs	r3, #1
 8000646:	f884 0034 	strb.w	r0, [r4, #52]	; 0x34
 800064a:	f884 3035 	strb.w	r3, [r4, #53]	; 0x35
 800064e:	bd38      	pop	{r3, r4, r5, pc}

08000650 <HAL_DMA_IRQHandler>:
 8000650:	b570      	push	{r4, r5, r6, lr}
 8000652:	6d05      	ldr	r5, [r0, #80]	; 0x50
 8000654:	6d41      	ldr	r1, [r0, #84]	; 0x54
 8000656:	682a      	ldr	r2, [r5, #0]
 8000658:	2308      	movs	r3, #8
 800065a:	408b      	lsls	r3, r1
 800065c:	4213      	tst	r3, r2
 800065e:	4604      	mov	r4, r0
 8000660:	d015      	beq.n	800068e <HAL_DMA_IRQHandler+0x3e>
 8000662:	6802      	ldr	r2, [r0, #0]
 8000664:	6811      	ldr	r1, [r2, #0]
 8000666:	074e      	lsls	r6, r1, #29
 8000668:	d511      	bpl.n	800068e <HAL_DMA_IRQHandler+0x3e>
 800066a:	6811      	ldr	r1, [r2, #0]
 800066c:	f021 0104 	bic.w	r1, r1, #4
 8000670:	6011      	str	r1, [r2, #0]
 8000672:	60ab      	str	r3, [r5, #8]
 8000674:	6cc3      	ldr	r3, [r0, #76]	; 0x4c
 8000676:	f043 0301 	orr.w	r3, r3, #1
 800067a:	64c3      	str	r3, [r0, #76]	; 0x4c
 800067c:	2304      	movs	r3, #4
 800067e:	f880 3035 	strb.w	r3, [r0, #53]	; 0x35
 8000682:	2300      	movs	r3, #0
 8000684:	f880 3034 	strb.w	r3, [r0, #52]	; 0x34
 8000688:	6c83      	ldr	r3, [r0, #72]	; 0x48
 800068a:	b103      	cbz	r3, 800068e <HAL_DMA_IRQHandler+0x3e>
 800068c:	4798      	blx	r3
 800068e:	6d61      	ldr	r1, [r4, #84]	; 0x54
 8000690:	4b45      	ldr	r3, [pc, #276]	; (80007a8 <HAL_DMA_IRQHandler+0x158>)
 8000692:	682a      	ldr	r2, [r5, #0]
 8000694:	408b      	lsls	r3, r1
 8000696:	4213      	tst	r3, r2
 8000698:	d016      	beq.n	80006c8 <HAL_DMA_IRQHandler+0x78>
 800069a:	6822      	ldr	r2, [r4, #0]
 800069c:	6951      	ldr	r1, [r2, #20]
 800069e:	0609      	lsls	r1, r1, #24
 80006a0:	d512      	bpl.n	80006c8 <HAL_DMA_IRQHandler+0x78>
 80006a2:	6951      	ldr	r1, [r2, #20]
 80006a4:	f021 0180 	bic.w	r1, r1, #128	; 0x80
 80006a8:	6151      	str	r1, [r2, #20]
 80006aa:	60ab      	str	r3, [r5, #8]
 80006ac:	6ce3      	ldr	r3, [r4, #76]	; 0x4c
 80006ae:	f043 0302 	orr.w	r3, r3, #2
 80006b2:	64e3      	str	r3, [r4, #76]	; 0x4c
 80006b4:	2304      	movs	r3, #4
 80006b6:	f884 3035 	strb.w	r3, [r4, #53]	; 0x35
 80006ba:	2300      	movs	r3, #0
 80006bc:	f884 3034 	strb.w	r3, [r4, #52]	; 0x34
 80006c0:	6ca3      	ldr	r3, [r4, #72]	; 0x48
 80006c2:	b10b      	cbz	r3, 80006c8 <HAL_DMA_IRQHandler+0x78>
 80006c4:	4620      	mov	r0, r4
 80006c6:	4798      	blx	r3
 80006c8:	6d61      	ldr	r1, [r4, #84]	; 0x54
 80006ca:	4b38      	ldr	r3, [pc, #224]	; (80007ac <HAL_DMA_IRQHandler+0x15c>)
 80006cc:	682a      	ldr	r2, [r5, #0]
 80006ce:	408b      	lsls	r3, r1
 80006d0:	4213      	tst	r3, r2
 80006d2:	d016      	beq.n	8000702 <HAL_DMA_IRQHandler+0xb2>
 80006d4:	6822      	ldr	r2, [r4, #0]
 80006d6:	6811      	ldr	r1, [r2, #0]
 80006d8:	078e      	lsls	r6, r1, #30
 80006da:	d512      	bpl.n	8000702 <HAL_DMA_IRQHandler+0xb2>
 80006dc:	6811      	ldr	r1, [r2, #0]
 80006de:	f021 0102 	bic.w	r1, r1, #2
 80006e2:	6011      	str	r1, [r2, #0]
 80006e4:	60ab      	str	r3, [r5, #8]
 80006e6:	6ce3      	ldr	r3, [r4, #76]	; 0x4c
 80006e8:	f043 0304 	orr.w	r3, r3, #4
 80006ec:	64e3      	str	r3, [r4, #76]	; 0x4c
 80006ee:	2304      	movs	r3, #4
 80006f0:	f884 3035 	strb.w	r3, [r4, #53]	; 0x35
 80006f4:	2300      	movs	r3, #0
 80006f6:	f884 3034 	strb.w	r3, [r4, #52]	; 0x34
 80006fa:	6ca3      	ldr	r3, [r4, #72]	; 0x48
 80006fc:	b10b      	cbz	r3, 8000702 <HAL_DMA_IRQHandler+0xb2>
 80006fe:	4620      	mov	r0, r4
 8000700:	4798      	blx	r3
 8000702:	6d61      	ldr	r1, [r4, #84]	; 0x54
 8000704:	682b      	ldr	r3, [r5, #0]
 8000706:	2210      	movs	r2, #16
 8000708:	408a      	lsls	r2, r1
 800070a:	421a      	tst	r2, r3
 800070c:	d01e      	beq.n	800074c <HAL_DMA_IRQHandler+0xfc>
 800070e:	6823      	ldr	r3, [r4, #0]
 8000710:	6819      	ldr	r1, [r3, #0]
 8000712:	0708      	lsls	r0, r1, #28
 8000714:	d51a      	bpl.n	800074c <HAL_DMA_IRQHandler+0xfc>
 8000716:	6819      	ldr	r1, [r3, #0]
 8000718:	0349      	lsls	r1, r1, #13
 800071a:	d508      	bpl.n	800072e <HAL_DMA_IRQHandler+0xde>
 800071c:	60aa      	str	r2, [r5, #8]
 800071e:	681a      	ldr	r2, [r3, #0]
 8000720:	0312      	lsls	r2, r2, #12
 8000722:	d50c      	bpl.n	800073e <HAL_DMA_IRQHandler+0xee>
 8000724:	681b      	ldr	r3, [r3, #0]
 8000726:	031e      	lsls	r6, r3, #12
 8000728:	d50c      	bpl.n	8000744 <HAL_DMA_IRQHandler+0xf4>
 800072a:	2341      	movs	r3, #65	; 0x41
 800072c:	e008      	b.n	8000740 <HAL_DMA_IRQHandler+0xf0>
 800072e:	6819      	ldr	r1, [r3, #0]
 8000730:	05c8      	lsls	r0, r1, #23
 8000732:	bf5e      	ittt	pl
 8000734:	6819      	ldrpl	r1, [r3, #0]
 8000736:	f021 0108 	bicpl.w	r1, r1, #8
 800073a:	6019      	strpl	r1, [r3, #0]
 800073c:	60aa      	str	r2, [r5, #8]
 800073e:	2331      	movs	r3, #49	; 0x31
 8000740:	f884 3035 	strb.w	r3, [r4, #53]	; 0x35
 8000744:	6c23      	ldr	r3, [r4, #64]	; 0x40
 8000746:	b10b      	cbz	r3, 800074c <HAL_DMA_IRQHandler+0xfc>
 8000748:	4620      	mov	r0, r4
 800074a:	4798      	blx	r3
 800074c:	6d61      	ldr	r1, [r4, #84]	; 0x54
 800074e:	682b      	ldr	r3, [r5, #0]
 8000750:	2220      	movs	r2, #32
 8000752:	408a      	lsls	r2, r1
 8000754:	421a      	tst	r2, r3
 8000756:	d026      	beq.n	80007a6 <HAL_DMA_IRQHandler+0x156>
 8000758:	6823      	ldr	r3, [r4, #0]
 800075a:	6819      	ldr	r1, [r3, #0]
 800075c:	06c9      	lsls	r1, r1, #27
 800075e:	d522      	bpl.n	80007a6 <HAL_DMA_IRQHandler+0x156>
 8000760:	6819      	ldr	r1, [r3, #0]
 8000762:	034e      	lsls	r6, r1, #13
 8000764:	d509      	bpl.n	800077a <HAL_DMA_IRQHandler+0x12a>
 8000766:	60aa      	str	r2, [r5, #8]
 8000768:	681a      	ldr	r2, [r3, #0]
 800076a:	0315      	lsls	r5, r2, #12
 800076c:	d401      	bmi.n	8000772 <HAL_DMA_IRQHandler+0x122>
 800076e:	6c63      	ldr	r3, [r4, #68]	; 0x44
 8000770:	e014      	b.n	800079c <HAL_DMA_IRQHandler+0x14c>
 8000772:	681b      	ldr	r3, [r3, #0]
 8000774:	0318      	lsls	r0, r3, #12
 8000776:	d516      	bpl.n	80007a6 <HAL_DMA_IRQHandler+0x156>
 8000778:	e00f      	b.n	800079a <HAL_DMA_IRQHandler+0x14a>
 800077a:	6819      	ldr	r1, [r3, #0]
 800077c:	05c9      	lsls	r1, r1, #23
 800077e:	bf5e      	ittt	pl
 8000780:	6819      	ldrpl	r1, [r3, #0]
 8000782:	f021 0110 	bicpl.w	r1, r1, #16
 8000786:	6019      	strpl	r1, [r3, #0]
 8000788:	60aa      	str	r2, [r5, #8]
 800078a:	6ce3      	ldr	r3, [r4, #76]	; 0x4c
 800078c:	64e3      	str	r3, [r4, #76]	; 0x4c
 800078e:	2311      	movs	r3, #17
 8000790:	f884 3035 	strb.w	r3, [r4, #53]	; 0x35
 8000794:	2300      	movs	r3, #0
 8000796:	f884 3034 	strb.w	r3, [r4, #52]	; 0x34
 800079a:	6be3      	ldr	r3, [r4, #60]	; 0x3c
 800079c:	b11b      	cbz	r3, 80007a6 <HAL_DMA_IRQHandler+0x156>
 800079e:	4620      	mov	r0, r4
 80007a0:	e8bd 4070 	ldmia.w	sp!, {r4, r5, r6, lr}
 80007a4:	4718      	bx	r3
 80007a6:	bd70      	pop	{r4, r5, r6, pc}
 80007a8:	00800001 	addeq	r0, r0, r1
 80007ac:	00800004 	addeq	r0, r0, r4

080007b0 <HAL_PWREx_EnableOverDrive>:
 80007b0:	b513      	push	{r0, r1, r4, lr}
 80007b2:	2300      	movs	r3, #0
 80007b4:	9301      	str	r3, [sp, #4]
 80007b6:	4b19      	ldr	r3, [pc, #100]	; (800081c <HAL_PWREx_EnableOverDrive+0x6c>)
 80007b8:	6c1a      	ldr	r2, [r3, #64]	; 0x40
 80007ba:	f042 5280 	orr.w	r2, r2, #268435456	; 0x10000000
 80007be:	641a      	str	r2, [r3, #64]	; 0x40
 80007c0:	6c1b      	ldr	r3, [r3, #64]	; 0x40
 80007c2:	4a17      	ldr	r2, [pc, #92]	; (8000820 <HAL_PWREx_EnableOverDrive+0x70>)
 80007c4:	f003 5380 	and.w	r3, r3, #268435456	; 0x10000000
 80007c8:	9301      	str	r3, [sp, #4]
 80007ca:	9b01      	ldr	r3, [sp, #4]
 80007cc:	6813      	ldr	r3, [r2, #0]
 80007ce:	f443 3380 	orr.w	r3, r3, #65536	; 0x10000
 80007d2:	6013      	str	r3, [r2, #0]
 80007d4:	f7ff ff10 	bl	80005f8 <HAL_GetTick>
 80007d8:	4604      	mov	r4, r0
 80007da:	4b11      	ldr	r3, [pc, #68]	; (8000820 <HAL_PWREx_EnableOverDrive+0x70>)
 80007dc:	685a      	ldr	r2, [r3, #4]
 80007de:	03d2      	lsls	r2, r2, #15
 80007e0:	d407      	bmi.n	80007f2 <HAL_PWREx_EnableOverDrive+0x42>
 80007e2:	f7ff ff09 	bl	80005f8 <HAL_GetTick>
 80007e6:	1b00      	subs	r0, r0, r4
 80007e8:	f5b0 7f7a 	cmp.w	r0, #1000	; 0x3e8
 80007ec:	d9f5      	bls.n	80007da <HAL_PWREx_EnableOverDrive+0x2a>
 80007ee:	2003      	movs	r0, #3
 80007f0:	e012      	b.n	8000818 <HAL_PWREx_EnableOverDrive+0x68>
 80007f2:	681a      	ldr	r2, [r3, #0]
 80007f4:	f442 3200 	orr.w	r2, r2, #131072	; 0x20000
 80007f8:	601a      	str	r2, [r3, #0]
 80007fa:	f7ff fefd 	bl	80005f8 <HAL_GetTick>
 80007fe:	4604      	mov	r4, r0
 8000800:	4b07      	ldr	r3, [pc, #28]	; (8000820 <HAL_PWREx_EnableOverDrive+0x70>)
 8000802:	685b      	ldr	r3, [r3, #4]
 8000804:	039b      	lsls	r3, r3, #14
 8000806:	d406      	bmi.n	8000816 <HAL_PWREx_EnableOverDrive+0x66>
 8000808:	f7ff fef6 	bl	80005f8 <HAL_GetTick>
 800080c:	1b00      	subs	r0, r0, r4
 800080e:	f5b0 7f7a 	cmp.w	r0, #1000	; 0x3e8
 8000812:	d9f5      	bls.n	8000800 <HAL_PWREx_EnableOverDrive+0x50>
 8000814:	e7eb      	b.n	80007ee <HAL_PWREx_EnableOverDrive+0x3e>
 8000816:	2000      	movs	r0, #0
 8000818:	b002      	add	sp, #8
 800081a:	bd10      	pop	{r4, pc}
 800081c:	40023800 	andmi	r3, r2, r0, lsl #16
 8000820:	40007000 	andmi	r7, r0, r0

08000824 <FMC_SDRAM_Init>:
 8000824:	680b      	ldr	r3, [r1, #0]
 8000826:	6a0a      	ldr	r2, [r1, #32]
 8000828:	2b01      	cmp	r3, #1
 800082a:	e92d 47f0 	stmdb	sp!, {r4, r5, r6, r7, r8, r9, sl, lr}
 800082e:	684b      	ldr	r3, [r1, #4]
 8000830:	f8d1 e008 	ldr.w	lr, [r1, #8]
 8000834:	68cf      	ldr	r7, [r1, #12]
 8000836:	690e      	ldr	r6, [r1, #16]
 8000838:	694d      	ldr	r5, [r1, #20]
 800083a:	698c      	ldr	r4, [r1, #24]
 800083c:	f8d1 a01c 	ldr.w	sl, [r1, #28]
 8000840:	f8d1 9024 	ldr.w	r9, [r1, #36]	; 0x24
 8000844:	6801      	ldr	r1, [r0, #0]
 8000846:	d013      	beq.n	8000870 <FMC_SDRAM_Init+0x4c>
 8000848:	ea4e 0e03 	orr.w	lr, lr, r3
 800084c:	ea4e 0707 	orr.w	r7, lr, r7
 8000850:	433e      	orrs	r6, r7
 8000852:	4335      	orrs	r5, r6
 8000854:	432c      	orrs	r4, r5
 8000856:	f421 48ff 	bic.w	r8, r1, #32640	; 0x7f80
 800085a:	ea44 010a 	orr.w	r1, r4, sl
 800085e:	430a      	orrs	r2, r1
 8000860:	f028 087f 	bic.w	r8, r8, #127	; 0x7f
 8000864:	ea42 0309 	orr.w	r3, r2, r9
 8000868:	ea43 0308 	orr.w	r3, r3, r8
 800086c:	6003      	str	r3, [r0, #0]
 800086e:	e019      	b.n	80008a4 <FMC_SDRAM_Init+0x80>
 8000870:	ea42 020a 	orr.w	r2, r2, sl
 8000874:	ea4e 0e03 	orr.w	lr, lr, r3
 8000878:	f421 4cff 	bic.w	ip, r1, #32640	; 0x7f80
 800087c:	ea42 0909 	orr.w	r9, r2, r9
 8000880:	ea4e 0707 	orr.w	r7, lr, r7
 8000884:	6842      	ldr	r2, [r0, #4]
 8000886:	f02c 0c7f 	bic.w	ip, ip, #127	; 0x7f
 800088a:	433e      	orrs	r6, r7
 800088c:	ea49 010c 	orr.w	r1, r9, ip
 8000890:	4335      	orrs	r5, r6
 8000892:	f422 4cff 	bic.w	ip, r2, #32640	; 0x7f80
 8000896:	f02c 0c7f 	bic.w	ip, ip, #127	; 0x7f
 800089a:	432c      	orrs	r4, r5
 800089c:	ea44 040c 	orr.w	r4, r4, ip
 80008a0:	6001      	str	r1, [r0, #0]
 80008a2:	6044      	str	r4, [r0, #4]
 80008a4:	2000      	movs	r0, #0
 80008a6:	e8bd 87f0 	ldmia.w	sp!, {r4, r5, r6, r7, r8, r9, sl, pc}

080008aa <FMC_SDRAM_Timing_Init>:
 80008aa:	2a01      	cmp	r2, #1
 80008ac:	e92d 43f0 	stmdb	sp!, {r4, r5, r6, r7, r8, r9, lr}
 80008b0:	68ca      	ldr	r2, [r1, #12]
 80008b2:	680e      	ldr	r6, [r1, #0]
 80008b4:	684d      	ldr	r5, [r1, #4]
 80008b6:	688c      	ldr	r4, [r1, #8]
 80008b8:	f8d1 9010 	ldr.w	r9, [r1, #16]
 80008bc:	694b      	ldr	r3, [r1, #20]
 80008be:	f8d1 c018 	ldr.w	ip, [r1, #24]
 80008c2:	d01a      	beq.n	80008fa <FMC_SDRAM_Timing_Init+0x50>
 80008c4:	6887      	ldr	r7, [r0, #8]
 80008c6:	3e01      	subs	r6, #1
 80008c8:	f007 4770 	and.w	r7, r7, #4026531840	; 0xf0000000
 80008cc:	3d01      	subs	r5, #1
 80008ce:	4337      	orrs	r7, r6
 80008d0:	3c01      	subs	r4, #1
 80008d2:	ea47 1605 	orr.w	r6, r7, r5, lsl #4
 80008d6:	3a01      	subs	r2, #1
 80008d8:	ea46 2504 	orr.w	r5, r6, r4, lsl #8
 80008dc:	ea45 3402 	orr.w	r4, r5, r2, lsl #12
 80008e0:	f109 32ff 	add.w	r2, r9, #4294967295	; 0xffffffff
 80008e4:	3b01      	subs	r3, #1
 80008e6:	ea44 4102 	orr.w	r1, r4, r2, lsl #16
 80008ea:	ea41 5203 	orr.w	r2, r1, r3, lsl #20
 80008ee:	f10c 33ff 	add.w	r3, ip, #4294967295	; 0xffffffff
 80008f2:	ea42 6303 	orr.w	r3, r2, r3, lsl #24
 80008f6:	6083      	str	r3, [r0, #8]
 80008f8:	e01f      	b.n	800093a <FMC_SDRAM_Timing_Init+0x90>
 80008fa:	68c1      	ldr	r1, [r0, #12]
 80008fc:	f106 3eff 	add.w	lr, r6, #4294967295	; 0xffffffff
 8000900:	f001 4870 	and.w	r8, r1, #4026531840	; 0xf0000000
 8000904:	1e6f      	subs	r7, r5, #1
 8000906:	ea4e 0808 	orr.w	r8, lr, r8
 800090a:	1e66      	subs	r6, r4, #1
 800090c:	ea48 1e07 	orr.w	lr, r8, r7, lsl #4
 8000910:	f109 35ff 	add.w	r5, r9, #4294967295	; 0xffffffff
 8000914:	ea4e 2706 	orr.w	r7, lr, r6, lsl #8
 8000918:	ea47 4605 	orr.w	r6, r7, r5, lsl #16
 800091c:	f10c 35ff 	add.w	r5, ip, #4294967295	; 0xffffffff
 8000920:	ea46 6505 	orr.w	r5, r6, r5, lsl #24
 8000924:	3b01      	subs	r3, #1
 8000926:	6886      	ldr	r6, [r0, #8]
 8000928:	60c5      	str	r5, [r0, #12]
 800092a:	3a01      	subs	r2, #1
 800092c:	051b      	lsls	r3, r3, #20
 800092e:	f006 4670 	and.w	r6, r6, #4026531840	; 0xf0000000
 8000932:	ea43 3202 	orr.w	r2, r3, r2, lsl #12
 8000936:	4332      	orrs	r2, r6
 8000938:	6082      	str	r2, [r0, #8]
 800093a:	2000      	movs	r0, #0
 800093c:	e8bd 83f0 	ldmia.w	sp!, {r4, r5, r6, r7, r8, r9, pc}

08000940 <FMC_SDRAM_SendCommand>:
 8000940:	b573      	push	{r0, r1, r4, r5, r6, lr}
 8000942:	2300      	movs	r3, #0
 8000944:	9301      	str	r3, [sp, #4]
 8000946:	4604      	mov	r4, r0
 8000948:	e891 0009 	ldmia.w	r1, {r0, r3}
 800094c:	4303      	orrs	r3, r0
 800094e:	68c8      	ldr	r0, [r1, #12]
 8000950:	ea43 2040 	orr.w	r0, r3, r0, lsl #9
 8000954:	688b      	ldr	r3, [r1, #8]
 8000956:	3b01      	subs	r3, #1
 8000958:	ea40 1343 	orr.w	r3, r0, r3, lsl #5
 800095c:	9301      	str	r3, [sp, #4]
 800095e:	9b01      	ldr	r3, [sp, #4]
 8000960:	6123      	str	r3, [r4, #16]
 8000962:	4615      	mov	r5, r2
 8000964:	f7ff fe48 	bl	80005f8 <HAL_GetTick>
 8000968:	4606      	mov	r6, r0
 800096a:	69a0      	ldr	r0, [r4, #24]
 800096c:	f010 0020 	ands.w	r0, r0, #32
 8000970:	d00a      	beq.n	8000988 <FMC_SDRAM_SendCommand+0x48>
 8000972:	1c6b      	adds	r3, r5, #1
 8000974:	d0f9      	beq.n	800096a <FMC_SDRAM_SendCommand+0x2a>
 8000976:	b90d      	cbnz	r5, 800097c <FMC_SDRAM_SendCommand+0x3c>
 8000978:	2003      	movs	r0, #3
 800097a:	e005      	b.n	8000988 <FMC_SDRAM_SendCommand+0x48>
 800097c:	f7ff fe3c 	bl	80005f8 <HAL_GetTick>
 8000980:	1b80      	subs	r0, r0, r6
 8000982:	42a8      	cmp	r0, r5
 8000984:	d9f1      	bls.n	800096a <FMC_SDRAM_SendCommand+0x2a>
 8000986:	e7f7      	b.n	8000978 <FMC_SDRAM_SendCommand+0x38>
 8000988:	b002      	add	sp, #8
 800098a:	bd70      	pop	{r4, r5, r6, pc}

0800098c <FMC_SDRAM_ProgramRefreshRate>:
 800098c:	6943      	ldr	r3, [r0, #20]
 800098e:	ea43 0141 	orr.w	r1, r3, r1, lsl #1
 8000992:	6141      	str	r1, [r0, #20]
 8000994:	2000      	movs	r0, #0
 8000996:	4770      	bx	lr

08000998 <HAL_UART_MspInit>:
 8000998:	4770      	bx	lr

0800099a <UART_WaitOnFlagUntilTimeout>:
 800099a:	e92d 41f0 	stmdb	sp!, {r4, r5, r6, r7, r8, lr}
 800099e:	4604      	mov	r4, r0
 80009a0:	460e      	mov	r6, r1
 80009a2:	4690      	mov	r8, r2
 80009a4:	461d      	mov	r5, r3
 80009a6:	f7ff fe27 	bl	80005f8 <HAL_GetTick>
 80009aa:	4607      	mov	r7, r0
 80009ac:	f1b8 0f00 	cmp.w	r8, #0
 80009b0:	d136      	bne.n	8000a20 <UART_WaitOnFlagUntilTimeout+0x86>
 80009b2:	6822      	ldr	r2, [r4, #0]
 80009b4:	69d3      	ldr	r3, [r2, #28]
 80009b6:	4033      	ands	r3, r6
 80009b8:	42b3      	cmp	r3, r6
 80009ba:	d00e      	beq.n	80009da <UART_WaitOnFlagUntilTimeout+0x40>
 80009bc:	1c69      	adds	r1, r5, #1
 80009be:	d0f9      	beq.n	80009b4 <UART_WaitOnFlagUntilTimeout+0x1a>
 80009c0:	b17d      	cbz	r5, 80009e2 <UART_WaitOnFlagUntilTimeout+0x48>
 80009c2:	f7ff fe19 	bl	80005f8 <HAL_GetTick>
 80009c6:	1bc0      	subs	r0, r0, r7
 80009c8:	42a8      	cmp	r0, r5
 80009ca:	d3f2      	bcc.n	80009b2 <UART_WaitOnFlagUntilTimeout+0x18>
 80009cc:	e009      	b.n	80009e2 <UART_WaitOnFlagUntilTimeout+0x48>
 80009ce:	1c6b      	adds	r3, r5, #1
 80009d0:	d106      	bne.n	80009e0 <UART_WaitOnFlagUntilTimeout+0x46>
 80009d2:	69d3      	ldr	r3, [r2, #28]
 80009d4:	4033      	ands	r3, r6
 80009d6:	42b3      	cmp	r3, r6
 80009d8:	d0f9      	beq.n	80009ce <UART_WaitOnFlagUntilTimeout+0x34>
 80009da:	2000      	movs	r0, #0
 80009dc:	e8bd 81f0 	ldmia.w	sp!, {r4, r5, r6, r7, r8, pc}
 80009e0:	b9cd      	cbnz	r5, 8000a16 <UART_WaitOnFlagUntilTimeout+0x7c>
 80009e2:	6823      	ldr	r3, [r4, #0]
 80009e4:	681a      	ldr	r2, [r3, #0]
 80009e6:	f022 0280 	bic.w	r2, r2, #128	; 0x80
 80009ea:	601a      	str	r2, [r3, #0]
 80009ec:	681a      	ldr	r2, [r3, #0]
 80009ee:	f022 0220 	bic.w	r2, r2, #32
 80009f2:	601a      	str	r2, [r3, #0]
 80009f4:	681a      	ldr	r2, [r3, #0]
 80009f6:	f422 7280 	bic.w	r2, r2, #256	; 0x100
 80009fa:	601a      	str	r2, [r3, #0]
 80009fc:	689a      	ldr	r2, [r3, #8]
 80009fe:	f022 0201 	bic.w	r2, r2, #1
 8000a02:	609a      	str	r2, [r3, #8]
 8000a04:	2301      	movs	r3, #1
 8000a06:	f884 3069 	strb.w	r3, [r4, #105]	; 0x69
 8000a0a:	2300      	movs	r3, #0
 8000a0c:	f884 3068 	strb.w	r3, [r4, #104]	; 0x68
 8000a10:	2003      	movs	r0, #3
 8000a12:	e8bd 81f0 	ldmia.w	sp!, {r4, r5, r6, r7, r8, pc}
 8000a16:	f7ff fdef 	bl	80005f8 <HAL_GetTick>
 8000a1a:	1bc0      	subs	r0, r0, r7
 8000a1c:	42a8      	cmp	r0, r5
 8000a1e:	d2e0      	bcs.n	80009e2 <UART_WaitOnFlagUntilTimeout+0x48>
 8000a20:	6822      	ldr	r2, [r4, #0]
 8000a22:	e7d6      	b.n	80009d2 <UART_WaitOnFlagUntilTimeout+0x38>

08000a24 <UART_SetConfig>:
 8000a24:	b538      	push	{r3, r4, r5, lr}
 8000a26:	4604      	mov	r4, r0
 8000a28:	6805      	ldr	r5, [r0, #0]
 8000a2a:	68a2      	ldr	r2, [r4, #8]
 8000a2c:	6921      	ldr	r1, [r4, #16]
 8000a2e:	69c3      	ldr	r3, [r0, #28]
 8000a30:	6828      	ldr	r0, [r5, #0]
 8000a32:	4311      	orrs	r1, r2
 8000a34:	6962      	ldr	r2, [r4, #20]
 8000a36:	430a      	orrs	r2, r1
 8000a38:	ea42 0103 	orr.w	r1, r2, r3
 8000a3c:	4a81      	ldr	r2, [pc, #516]	; (8000c44 <UART_SetConfig+0x220>)
 8000a3e:	4002      	ands	r2, r0
 8000a40:	430a      	orrs	r2, r1
 8000a42:	602a      	str	r2, [r5, #0]
 8000a44:	686a      	ldr	r2, [r5, #4]
 8000a46:	6a20      	ldr	r0, [r4, #32]
 8000a48:	f422 5140 	bic.w	r1, r2, #12288	; 0x3000
 8000a4c:	68e2      	ldr	r2, [r4, #12]
 8000a4e:	430a      	orrs	r2, r1
 8000a50:	606a      	str	r2, [r5, #4]
 8000a52:	68aa      	ldr	r2, [r5, #8]
 8000a54:	69a1      	ldr	r1, [r4, #24]
 8000a56:	f422 6230 	bic.w	r2, r2, #2816	; 0xb00
 8000a5a:	4301      	orrs	r1, r0
 8000a5c:	430a      	orrs	r2, r1
 8000a5e:	60aa      	str	r2, [r5, #8]
 8000a60:	4a79      	ldr	r2, [pc, #484]	; (8000c48 <UART_SetConfig+0x224>)
 8000a62:	4295      	cmp	r5, r2
 8000a64:	d107      	bne.n	8000a76 <UART_SetConfig+0x52>
 8000a66:	f502 3294 	add.w	r2, r2, #75776	; 0x12800
 8000a6a:	4978      	ldr	r1, [pc, #480]	; (8000c4c <UART_SetConfig+0x228>)
 8000a6c:	f8d2 2090 	ldr.w	r2, [r2, #144]	; 0x90
 8000a70:	f002 0203 	and.w	r2, r2, #3
 8000a74:	e009      	b.n	8000a8a <UART_SetConfig+0x66>
 8000a76:	4a76      	ldr	r2, [pc, #472]	; (8000c50 <UART_SetConfig+0x22c>)
 8000a78:	4295      	cmp	r5, r2
 8000a7a:	d10c      	bne.n	8000a96 <UART_SetConfig+0x72>
 8000a7c:	f502 32fa 	add.w	r2, r2, #128000	; 0x1f400
 8000a80:	4974      	ldr	r1, [pc, #464]	; (8000c54 <UART_SetConfig+0x230>)
 8000a82:	f8d2 2090 	ldr.w	r2, [r2, #144]	; 0x90
 8000a86:	f002 020c 	and.w	r2, r2, #12
 8000a8a:	f5b3 4f00 	cmp.w	r3, #32768	; 0x8000
 8000a8e:	5c8a      	ldrb	r2, [r1, r2]
 8000a90:	f040 80b1 	bne.w	8000bf6 <UART_SetConfig+0x1d2>
 8000a94:	e072      	b.n	8000b7c <UART_SetConfig+0x158>
 8000a96:	4a70      	ldr	r2, [pc, #448]	; (8000c58 <UART_SetConfig+0x234>)
 8000a98:	4295      	cmp	r5, r2
 8000a9a:	d10d      	bne.n	8000ab8 <UART_SetConfig+0x94>
 8000a9c:	f502 32f8 	add.w	r2, r2, #126976	; 0x1f000
 8000aa0:	f8d2 2090 	ldr.w	r2, [r2, #144]	; 0x90
 8000aa4:	f002 0230 	and.w	r2, r2, #48	; 0x30
 8000aa8:	2a10      	cmp	r2, #16
 8000aaa:	f000 8082 	beq.w	8000bb2 <UART_SetConfig+0x18e>
 8000aae:	d95d      	bls.n	8000b6c <UART_SetConfig+0x148>
 8000ab0:	2a20      	cmp	r2, #32
 8000ab2:	d078      	beq.n	8000ba6 <UART_SetConfig+0x182>
 8000ab4:	2a30      	cmp	r2, #48	; 0x30
 8000ab6:	e00e      	b.n	8000ad6 <UART_SetConfig+0xb2>
 8000ab8:	4a68      	ldr	r2, [pc, #416]	; (8000c5c <UART_SetConfig+0x238>)
 8000aba:	4295      	cmp	r5, r2
 8000abc:	d10d      	bne.n	8000ada <UART_SetConfig+0xb6>
 8000abe:	f502 32f6 	add.w	r2, r2, #125952	; 0x1ec00
 8000ac2:	f8d2 2090 	ldr.w	r2, [r2, #144]	; 0x90
 8000ac6:	f002 02c0 	and.w	r2, r2, #192	; 0xc0
 8000aca:	2a40      	cmp	r2, #64	; 0x40
 8000acc:	d071      	beq.n	8000bb2 <UART_SetConfig+0x18e>
 8000ace:	d94d      	bls.n	8000b6c <UART_SetConfig+0x148>
 8000ad0:	2a80      	cmp	r2, #128	; 0x80
 8000ad2:	d068      	beq.n	8000ba6 <UART_SetConfig+0x182>
 8000ad4:	2ac0      	cmp	r2, #192	; 0xc0
 8000ad6:	d076      	beq.n	8000bc6 <UART_SetConfig+0x1a2>
 8000ad8:	e080      	b.n	8000bdc <UART_SetConfig+0x1b8>
 8000ada:	4a61      	ldr	r2, [pc, #388]	; (8000c60 <UART_SetConfig+0x23c>)
 8000adc:	4295      	cmp	r5, r2
 8000ade:	d10f      	bne.n	8000b00 <UART_SetConfig+0xdc>
 8000ae0:	f502 32f4 	add.w	r2, r2, #124928	; 0x1e800
 8000ae4:	f8d2 2090 	ldr.w	r2, [r2, #144]	; 0x90
 8000ae8:	f402 7240 	and.w	r2, r2, #768	; 0x300
 8000aec:	f5b2 7f80 	cmp.w	r2, #256	; 0x100
 8000af0:	d05f      	beq.n	8000bb2 <UART_SetConfig+0x18e>
 8000af2:	d93b      	bls.n	8000b6c <UART_SetConfig+0x148>
 8000af4:	f5b2 7f00 	cmp.w	r2, #512	; 0x200
 8000af8:	d055      	beq.n	8000ba6 <UART_SetConfig+0x182>
 8000afa:	f5b2 7f40 	cmp.w	r2, #768	; 0x300
 8000afe:	e7ea      	b.n	8000ad6 <UART_SetConfig+0xb2>
 8000b00:	4a58      	ldr	r2, [pc, #352]	; (8000c64 <UART_SetConfig+0x240>)
 8000b02:	4295      	cmp	r5, r2
 8000b04:	d112      	bne.n	8000b2c <UART_SetConfig+0x108>
 8000b06:	f502 3292 	add.w	r2, r2, #74752	; 0x12400
 8000b0a:	f8d2 2090 	ldr.w	r2, [r2, #144]	; 0x90
 8000b0e:	f402 6240 	and.w	r2, r2, #3072	; 0xc00
 8000b12:	f5b2 6f80 	cmp.w	r2, #1024	; 0x400
 8000b16:	d04c      	beq.n	8000bb2 <UART_SetConfig+0x18e>
 8000b18:	d802      	bhi.n	8000b20 <UART_SetConfig+0xfc>
 8000b1a:	2a00      	cmp	r2, #0
 8000b1c:	d03d      	beq.n	8000b9a <UART_SetConfig+0x176>
 8000b1e:	e05d      	b.n	8000bdc <UART_SetConfig+0x1b8>
 8000b20:	f5b2 6f00 	cmp.w	r2, #2048	; 0x800
 8000b24:	d03f      	beq.n	8000ba6 <UART_SetConfig+0x182>
 8000b26:	f5b2 6f40 	cmp.w	r2, #3072	; 0xc00
 8000b2a:	e7d4      	b.n	8000ad6 <UART_SetConfig+0xb2>
 8000b2c:	4a4e      	ldr	r2, [pc, #312]	; (8000c68 <UART_SetConfig+0x244>)
 8000b2e:	4295      	cmp	r5, r2
 8000b30:	d10f      	bne.n	8000b52 <UART_SetConfig+0x12e>
 8000b32:	f502 32e0 	add.w	r2, r2, #114688	; 0x1c000
 8000b36:	f8d2 2090 	ldr.w	r2, [r2, #144]	; 0x90
 8000b3a:	f402 5240 	and.w	r2, r2, #12288	; 0x3000
 8000b3e:	f5b2 5f80 	cmp.w	r2, #4096	; 0x1000
 8000b42:	d036      	beq.n	8000bb2 <UART_SetConfig+0x18e>
 8000b44:	d912      	bls.n	8000b6c <UART_SetConfig+0x148>
 8000b46:	f5b2 5f00 	cmp.w	r2, #8192	; 0x2000
 8000b4a:	d02c      	beq.n	8000ba6 <UART_SetConfig+0x182>
 8000b4c:	f5b2 5f40 	cmp.w	r2, #12288	; 0x3000
 8000b50:	e7c1      	b.n	8000ad6 <UART_SetConfig+0xb2>
 8000b52:	4a46      	ldr	r2, [pc, #280]	; (8000c6c <UART_SetConfig+0x248>)
 8000b54:	4295      	cmp	r5, r2
 8000b56:	d141      	bne.n	8000bdc <UART_SetConfig+0x1b8>
 8000b58:	f502 32de 	add.w	r2, r2, #113664	; 0x1bc00
 8000b5c:	f8d2 2090 	ldr.w	r2, [r2, #144]	; 0x90
 8000b60:	f402 4240 	and.w	r2, r2, #49152	; 0xc000
 8000b64:	f5b2 4f80 	cmp.w	r2, #16384	; 0x4000
 8000b68:	d023      	beq.n	8000bb2 <UART_SetConfig+0x18e>
 8000b6a:	d801      	bhi.n	8000b70 <UART_SetConfig+0x14c>
 8000b6c:	b17a      	cbz	r2, 8000b8e <UART_SetConfig+0x16a>
 8000b6e:	e035      	b.n	8000bdc <UART_SetConfig+0x1b8>
 8000b70:	f5b2 4f00 	cmp.w	r2, #32768	; 0x8000
 8000b74:	d017      	beq.n	8000ba6 <UART_SetConfig+0x182>
 8000b76:	f5b2 4f40 	cmp.w	r2, #49152	; 0xc000
 8000b7a:	e7ac      	b.n	8000ad6 <UART_SetConfig+0xb2>
 8000b7c:	2a08      	cmp	r2, #8
 8000b7e:	d830      	bhi.n	8000be2 <UART_SetConfig+0x1be>
 8000b80:	e8df f002 	tbb	[pc, r2]
 8000b84:	2f140e08 	svccs	0x00140e08
 8000b88:	2f2f2f1a 	svccs	0x002f2f1a
 8000b8c:	f5b30024 			; <UNDEFINED> instruction: 0xf5b30024
 8000b90:	4f00      	ldr	r7, [pc, #0]	; (8000b94 <UART_SetConfig+0x170>)
 8000b92:	d139      	bne.n	8000c08 <UART_SetConfig+0x1e4>
 8000b94:	f001 fa46 	bl	8002024 <HAL_RCC_GetPCLK1Freq>
 8000b98:	e010      	b.n	8000bbc <UART_SetConfig+0x198>
 8000b9a:	f5b3 4f00 	cmp.w	r3, #32768	; 0x8000
 8000b9e:	d136      	bne.n	8000c0e <UART_SetConfig+0x1ea>
 8000ba0:	f001 fa56 	bl	8002050 <HAL_RCC_GetPCLK2Freq>
 8000ba4:	e00a      	b.n	8000bbc <UART_SetConfig+0x198>
 8000ba6:	f5b3 4f00 	cmp.w	r3, #32768	; 0x8000
 8000baa:	d133      	bne.n	8000c14 <UART_SetConfig+0x1f0>
 8000bac:	6860      	ldr	r0, [r4, #4]
 8000bae:	4b30      	ldr	r3, [pc, #192]	; (8000c70 <UART_SetConfig+0x24c>)
 8000bb0:	e00f      	b.n	8000bd2 <UART_SetConfig+0x1ae>
 8000bb2:	f5b3 4f00 	cmp.w	r3, #32768	; 0x8000
 8000bb6:	d133      	bne.n	8000c20 <UART_SetConfig+0x1fc>
 8000bb8:	f001 f9da 	bl	8001f70 <HAL_RCC_GetSysClockFreq>
 8000bbc:	0040      	lsls	r0, r0, #1
 8000bbe:	6863      	ldr	r3, [r4, #4]
 8000bc0:	fbb0 f3f3 	udiv	r3, r0, r3
 8000bc4:	e007      	b.n	8000bd6 <UART_SetConfig+0x1b2>
 8000bc6:	f5b3 4f00 	cmp.w	r3, #32768	; 0x8000
 8000bca:	d131      	bne.n	8000c30 <UART_SetConfig+0x20c>
 8000bcc:	6860      	ldr	r0, [r4, #4]
 8000bce:	f44f 3380 	mov.w	r3, #65536	; 0x10000
 8000bd2:	fbb3 f3f0 	udiv	r3, r3, r0
 8000bd6:	b29b      	uxth	r3, r3
 8000bd8:	2000      	movs	r0, #0
 8000bda:	e004      	b.n	8000be6 <UART_SetConfig+0x1c2>
 8000bdc:	f5b3 4f00 	cmp.w	r3, #32768	; 0x8000
 8000be0:	d12e      	bne.n	8000c40 <UART_SetConfig+0x21c>
 8000be2:	2001      	movs	r0, #1
 8000be4:	2300      	movs	r3, #0
 8000be6:	f023 010f 	bic.w	r1, r3, #15
 8000bea:	6822      	ldr	r2, [r4, #0]
 8000bec:	f3c3 0342 	ubfx	r3, r3, #1, #3
 8000bf0:	430b      	orrs	r3, r1
 8000bf2:	60d3      	str	r3, [r2, #12]
 8000bf4:	bd38      	pop	{r3, r4, r5, pc}
 8000bf6:	2a08      	cmp	r2, #8
 8000bf8:	d822      	bhi.n	8000c40 <UART_SetConfig+0x21c>
 8000bfa:	e8df f002 	tbb	[pc, r2]
 8000bfe:	210b0805 	tstcs	fp, r5, lsl #16
 8000c02:	21212111 			; <UNDEFINED> instruction: 0x21212111
 8000c06:	f0010019 			; <UNDEFINED> instruction: 0xf0010019
 8000c0a:	fa0c e00a 			; <UNDEFINED> instruction: 0xfa0ce00a
 8000c0e:	f001 fa1f 	bl	8002050 <HAL_RCC_GetPCLK2Freq>
 8000c12:	e007      	b.n	8000c24 <UART_SetConfig+0x200>
 8000c14:	6862      	ldr	r2, [r4, #4]
 8000c16:	4b17      	ldr	r3, [pc, #92]	; (8000c74 <UART_SetConfig+0x250>)
 8000c18:	fbb3 f3f2 	udiv	r3, r3, r2
 8000c1c:	b29b      	uxth	r3, r3
 8000c1e:	e00c      	b.n	8000c3a <UART_SetConfig+0x216>
 8000c20:	f001 f9a6 	bl	8001f70 <HAL_RCC_GetSysClockFreq>
 8000c24:	6863      	ldr	r3, [r4, #4]
 8000c26:	fbb0 f0f3 	udiv	r0, r0, r3
 8000c2a:	b280      	uxth	r0, r0
 8000c2c:	60e8      	str	r0, [r5, #12]
 8000c2e:	e005      	b.n	8000c3c <UART_SetConfig+0x218>
 8000c30:	6862      	ldr	r2, [r4, #4]
 8000c32:	f44f 4300 	mov.w	r3, #32768	; 0x8000
 8000c36:	fbb3 f3f2 	udiv	r3, r3, r2
 8000c3a:	60eb      	str	r3, [r5, #12]
 8000c3c:	2000      	movs	r0, #0
 8000c3e:	bd38      	pop	{r3, r4, r5, pc}
 8000c40:	2001      	movs	r0, #1
 8000c42:	bd38      	pop	{r3, r4, r5, pc}
 8000c44:	efff69f3 	svc	0x00ff69f3
 8000c48:	40011000 	andmi	r1, r1, r0
 8000c4c:	08004b45 	stmdaeq	r0, {r0, r2, r6, r8, r9, fp, lr}
 8000c50:	40004400 	andmi	r4, r0, r0, lsl #8
 8000c54:	08004b38 	stmdaeq	r0, {r3, r4, r5, r8, r9, fp, lr}
 8000c58:	40004800 	andmi	r4, r0, r0, lsl #16
 8000c5c:	40004c00 	andmi	r4, r0, r0, lsl #24
 8000c60:	40005000 	andmi	r5, r0, r0
 8000c64:	40011400 	andmi	r1, r1, r0, lsl #8
 8000c68:	40007800 	andmi	r7, r0, r0, lsl #16
 8000c6c:	40007c00 	andmi	r7, r0, r0, lsl #24
 8000c70:	01e84800 	mvneq	r4, r0, lsl #16
 8000c74:	00f42400 	rscseq	r2, r4, r0, lsl #8

08000c78 <UART_AdvFeatureConfig>:
 8000c78:	6a43      	ldr	r3, [r0, #36]	; 0x24
 8000c7a:	07da      	lsls	r2, r3, #31
 8000c7c:	b510      	push	{r4, lr}
 8000c7e:	bf41      	itttt	mi
 8000c80:	6804      	ldrmi	r4, [r0, #0]
 8000c82:	6862      	ldrmi	r2, [r4, #4]
 8000c84:	f422 3100 	bicmi.w	r1, r2, #131072	; 0x20000
 8000c88:	6a82      	ldrmi	r2, [r0, #40]	; 0x28
 8000c8a:	bf44      	itt	mi
 8000c8c:	430a      	orrmi	r2, r1
 8000c8e:	6062      	strmi	r2, [r4, #4]
 8000c90:	079c      	lsls	r4, r3, #30
 8000c92:	bf41      	itttt	mi
 8000c94:	6804      	ldrmi	r4, [r0, #0]
 8000c96:	6862      	ldrmi	r2, [r4, #4]
 8000c98:	f422 3180 	bicmi.w	r1, r2, #65536	; 0x10000
 8000c9c:	6ac2      	ldrmi	r2, [r0, #44]	; 0x2c
 8000c9e:	bf44      	itt	mi
 8000ca0:	430a      	orrmi	r2, r1
 8000ca2:	6062      	strmi	r2, [r4, #4]
 8000ca4:	0759      	lsls	r1, r3, #29
 8000ca6:	bf41      	itttt	mi
 8000ca8:	6804      	ldrmi	r4, [r0, #0]
 8000caa:	6862      	ldrmi	r2, [r4, #4]
 8000cac:	f422 2180 	bicmi.w	r1, r2, #262144	; 0x40000
 8000cb0:	6b02      	ldrmi	r2, [r0, #48]	; 0x30
 8000cb2:	bf44      	itt	mi
 8000cb4:	430a      	orrmi	r2, r1
 8000cb6:	6062      	strmi	r2, [r4, #4]
 8000cb8:	071a      	lsls	r2, r3, #28
 8000cba:	bf41      	itttt	mi
 8000cbc:	6804      	ldrmi	r4, [r0, #0]
 8000cbe:	6862      	ldrmi	r2, [r4, #4]
 8000cc0:	f422 4100 	bicmi.w	r1, r2, #32768	; 0x8000
 8000cc4:	6b42      	ldrmi	r2, [r0, #52]	; 0x34
 8000cc6:	bf44      	itt	mi
 8000cc8:	430a      	orrmi	r2, r1
 8000cca:	6062      	strmi	r2, [r4, #4]
 8000ccc:	06dc      	lsls	r4, r3, #27
 8000cce:	bf41      	itttt	mi
 8000cd0:	6804      	ldrmi	r4, [r0, #0]
 8000cd2:	68a2      	ldrmi	r2, [r4, #8]
 8000cd4:	f422 5180 	bicmi.w	r1, r2, #4096	; 0x1000
 8000cd8:	6b82      	ldrmi	r2, [r0, #56]	; 0x38
 8000cda:	bf44      	itt	mi
 8000cdc:	430a      	orrmi	r2, r1
 8000cde:	60a2      	strmi	r2, [r4, #8]
 8000ce0:	0699      	lsls	r1, r3, #26
 8000ce2:	bf41      	itttt	mi
 8000ce4:	6804      	ldrmi	r4, [r0, #0]
 8000ce6:	68a2      	ldrmi	r2, [r4, #8]
 8000ce8:	f422 5100 	bicmi.w	r1, r2, #8192	; 0x2000
 8000cec:	6bc2      	ldrmi	r2, [r0, #60]	; 0x3c
 8000cee:	bf44      	itt	mi
 8000cf0:	430a      	orrmi	r2, r1
 8000cf2:	60a2      	strmi	r2, [r4, #8]
 8000cf4:	065a      	lsls	r2, r3, #25
 8000cf6:	d510      	bpl.n	8000d1a <UART_AdvFeatureConfig+0xa2>
 8000cf8:	6801      	ldr	r1, [r0, #0]
 8000cfa:	6c04      	ldr	r4, [r0, #64]	; 0x40
 8000cfc:	684a      	ldr	r2, [r1, #4]
 8000cfe:	f422 1280 	bic.w	r2, r2, #1048576	; 0x100000
 8000d02:	4322      	orrs	r2, r4
 8000d04:	f5b4 1f80 	cmp.w	r4, #1048576	; 0x100000
 8000d08:	604a      	str	r2, [r1, #4]
 8000d0a:	bf01      	itttt	eq
 8000d0c:	684a      	ldreq	r2, [r1, #4]
 8000d0e:	f422 04c0 	biceq.w	r4, r2, #6291456	; 0x600000
 8000d12:	6c42      	ldreq	r2, [r0, #68]	; 0x44
 8000d14:	4322      	orreq	r2, r4
 8000d16:	bf08      	it	eq
 8000d18:	604a      	streq	r2, [r1, #4]
 8000d1a:	061b      	lsls	r3, r3, #24
 8000d1c:	bf41      	itttt	mi
 8000d1e:	6801      	ldrmi	r1, [r0, #0]
 8000d20:	684b      	ldrmi	r3, [r1, #4]
 8000d22:	f423 2200 	bicmi.w	r2, r3, #524288	; 0x80000
 8000d26:	6c83      	ldrmi	r3, [r0, #72]	; 0x48
 8000d28:	bf44      	itt	mi
 8000d2a:	4313      	orrmi	r3, r2
 8000d2c:	604b      	strmi	r3, [r1, #4]
 8000d2e:	bd10      	pop	{r4, pc}

08000d30 <UART_CheckIdleState>:
 8000d30:	2200      	movs	r2, #0
 8000d32:	6803      	ldr	r3, [r0, #0]
 8000d34:	b510      	push	{r4, lr}
 8000d36:	66c2      	str	r2, [r0, #108]	; 0x6c
 8000d38:	681b      	ldr	r3, [r3, #0]
 8000d3a:	0719      	lsls	r1, r3, #28
 8000d3c:	4604      	mov	r4, r0
 8000d3e:	d404      	bmi.n	8000d4a <UART_CheckIdleState+0x1a>
 8000d40:	6823      	ldr	r3, [r4, #0]
 8000d42:	681b      	ldr	r3, [r3, #0]
 8000d44:	075b      	lsls	r3, r3, #29
 8000d46:	d514      	bpl.n	8000d72 <UART_CheckIdleState+0x42>
 8000d48:	e009      	b.n	8000d5e <UART_CheckIdleState+0x2e>
 8000d4a:	f44f 1100 	mov.w	r1, #2097152	; 0x200000
 8000d4e:	f06f 437e 	mvn.w	r3, #4261412864	; 0xfe000000
 8000d52:	f7ff fe22 	bl	800099a <UART_WaitOnFlagUntilTimeout>
 8000d56:	2800      	cmp	r0, #0
 8000d58:	d0f2      	beq.n	8000d40 <UART_CheckIdleState+0x10>
 8000d5a:	2003      	movs	r0, #3
 8000d5c:	bd10      	pop	{r4, pc}
 8000d5e:	4620      	mov	r0, r4
 8000d60:	f44f 0180 	mov.w	r1, #4194304	; 0x400000
 8000d64:	2200      	movs	r2, #0
 8000d66:	f06f 437e 	mvn.w	r3, #4261412864	; 0xfe000000
 8000d6a:	f7ff fe16 	bl	800099a <UART_WaitOnFlagUntilTimeout>
 8000d6e:	2800      	cmp	r0, #0
 8000d70:	d1f3      	bne.n	8000d5a <UART_CheckIdleState+0x2a>
 8000d72:	2301      	movs	r3, #1
 8000d74:	2000      	movs	r0, #0
 8000d76:	f884 3069 	strb.w	r3, [r4, #105]	; 0x69
 8000d7a:	f884 0068 	strb.w	r0, [r4, #104]	; 0x68
 8000d7e:	bd10      	pop	{r4, pc}

08000d80 <HAL_UART_Init>:
 8000d80:	b510      	push	{r4, lr}
 8000d82:	4604      	mov	r4, r0
 8000d84:	b360      	cbz	r0, 8000de0 <HAL_UART_Init+0x60>
 8000d86:	f890 3069 	ldrb.w	r3, [r0, #105]	; 0x69
 8000d8a:	f003 02ff 	and.w	r2, r3, #255	; 0xff
 8000d8e:	b91b      	cbnz	r3, 8000d98 <HAL_UART_Init+0x18>
 8000d90:	f880 2068 	strb.w	r2, [r0, #104]	; 0x68
 8000d94:	f7ff fe00 	bl	8000998 <HAL_UART_MspInit>
 8000d98:	6822      	ldr	r2, [r4, #0]
 8000d9a:	2302      	movs	r3, #2
 8000d9c:	f884 3069 	strb.w	r3, [r4, #105]	; 0x69
 8000da0:	6813      	ldr	r3, [r2, #0]
 8000da2:	f023 0301 	bic.w	r3, r3, #1
 8000da6:	6013      	str	r3, [r2, #0]
 8000da8:	4620      	mov	r0, r4
 8000daa:	f7ff fe3b 	bl	8000a24 <UART_SetConfig>
 8000dae:	2801      	cmp	r0, #1
 8000db0:	d016      	beq.n	8000de0 <HAL_UART_Init+0x60>
 8000db2:	6a63      	ldr	r3, [r4, #36]	; 0x24
 8000db4:	b113      	cbz	r3, 8000dbc <HAL_UART_Init+0x3c>
 8000db6:	4620      	mov	r0, r4
 8000db8:	f7ff ff5e 	bl	8000c78 <UART_AdvFeatureConfig>
 8000dbc:	6823      	ldr	r3, [r4, #0]
 8000dbe:	685a      	ldr	r2, [r3, #4]
 8000dc0:	f422 4290 	bic.w	r2, r2, #18432	; 0x4800
 8000dc4:	605a      	str	r2, [r3, #4]
 8000dc6:	689a      	ldr	r2, [r3, #8]
 8000dc8:	f022 022a 	bic.w	r2, r2, #42	; 0x2a
 8000dcc:	609a      	str	r2, [r3, #8]
 8000dce:	681a      	ldr	r2, [r3, #0]
 8000dd0:	f042 0201 	orr.w	r2, r2, #1
 8000dd4:	4620      	mov	r0, r4
 8000dd6:	601a      	str	r2, [r3, #0]
 8000dd8:	e8bd 4010 	ldmia.w	sp!, {r4, lr}
 8000ddc:	f7ff bfa8 	b.w	8000d30 <UART_CheckIdleState>
 8000de0:	2001      	movs	r0, #1
 8000de2:	bd10      	pop	{r4, pc}

08000de4 <LTDC_SetConfig>:
 8000de4:	e92d 43f0 	stmdb	sp!, {r4, r5, r6, r7, r8, r9, lr}
 8000de8:	6807      	ldr	r7, [r0, #0]
 8000dea:	684c      	ldr	r4, [r1, #4]
 8000dec:	68fd      	ldr	r5, [r7, #12]
 8000dee:	f8d1 9018 	ldr.w	r9, [r1, #24]
 8000df2:	f107 0e84 	add.w	lr, r7, #132	; 0x84
 8000df6:	01d2      	lsls	r2, r2, #7
 8000df8:	eb0e 0302 	add.w	r3, lr, r2
 8000dfc:	f3c5 450b 	ubfx	r5, r5, #16, #12
 8000e00:	6858      	ldr	r0, [r3, #4]
 8000e02:	f400 4070 	and.w	r0, r0, #61440	; 0xf000
 8000e06:	6058      	str	r0, [r3, #4]
 8000e08:	68fe      	ldr	r6, [r7, #12]
 8000e0a:	6808      	ldr	r0, [r1, #0]
 8000e0c:	eb05 0c04 	add.w	ip, r5, r4
 8000e10:	f3c6 460b 	ubfx	r6, r6, #16, #12
 8000e14:	1c45      	adds	r5, r0, #1
 8000e16:	4435      	add	r5, r6
 8000e18:	ea45 450c 	orr.w	r5, r5, ip, lsl #16
 8000e1c:	605d      	str	r5, [r3, #4]
 8000e1e:	68fd      	ldr	r5, [r7, #12]
 8000e20:	68ce      	ldr	r6, [r1, #12]
 8000e22:	f3c5 050a 	ubfx	r5, r5, #0, #11
 8000e26:	eb05 0c06 	add.w	ip, r5, r6
 8000e2a:	689d      	ldr	r5, [r3, #8]
 8000e2c:	f405 4570 	and.w	r5, r5, #61440	; 0xf000
 8000e30:	609d      	str	r5, [r3, #8]
 8000e32:	68fe      	ldr	r6, [r7, #12]
 8000e34:	688f      	ldr	r7, [r1, #8]
 8000e36:	f3c6 060a 	ubfx	r6, r6, #0, #11
 8000e3a:	1c7d      	adds	r5, r7, #1
 8000e3c:	4435      	add	r5, r6
 8000e3e:	ea45 450c 	orr.w	r5, r5, ip, lsl #16
 8000e42:	609d      	str	r5, [r3, #8]
 8000e44:	691d      	ldr	r5, [r3, #16]
 8000e46:	690f      	ldr	r7, [r1, #16]
 8000e48:	f025 0507 	bic.w	r5, r5, #7
 8000e4c:	611d      	str	r5, [r3, #16]
 8000e4e:	f04f 0c00 	mov.w	ip, #0
 8000e52:	611f      	str	r7, [r3, #16]
 8000e54:	699e      	ldr	r6, [r3, #24]
 8000e56:	f891 5031 	ldrb.w	r5, [r1, #49]	; 0x31
 8000e5a:	f891 8032 	ldrb.w	r8, [r1, #50]	; 0x32
 8000e5e:	f8c3 c018 	str.w	ip, [r3, #24]
 8000e62:	f891 6030 	ldrb.w	r6, [r1, #48]	; 0x30
 8000e66:	ea46 6609 	orr.w	r6, r6, r9, lsl #24
 8000e6a:	ea46 2505 	orr.w	r5, r6, r5, lsl #8
 8000e6e:	ea45 4508 	orr.w	r5, r5, r8, lsl #16
 8000e72:	619d      	str	r5, [r3, #24]
 8000e74:	695d      	ldr	r5, [r3, #20]
 8000e76:	f025 05ff 	bic.w	r5, r5, #255	; 0xff
 8000e7a:	615d      	str	r5, [r3, #20]
 8000e7c:	694d      	ldr	r5, [r1, #20]
 8000e7e:	615d      	str	r5, [r3, #20]
 8000e80:	69dd      	ldr	r5, [r3, #28]
 8000e82:	f425 65e0 	bic.w	r5, r5, #1792	; 0x700
 8000e86:	f025 0507 	bic.w	r5, r5, #7
 8000e8a:	61dd      	str	r5, [r3, #28]
 8000e8c:	6a0e      	ldr	r6, [r1, #32]
 8000e8e:	69cd      	ldr	r5, [r1, #28]
 8000e90:	4335      	orrs	r5, r6
 8000e92:	61dd      	str	r5, [r3, #28]
 8000e94:	6a9d      	ldr	r5, [r3, #40]	; 0x28
 8000e96:	6a4d      	ldr	r5, [r1, #36]	; 0x24
 8000e98:	f8c3 c028 	str.w	ip, [r3, #40]	; 0x28
 8000e9c:	629d      	str	r5, [r3, #40]	; 0x28
 8000e9e:	b14f      	cbz	r7, 8000eb4 <LTDC_SetConfig+0xd0>
 8000ea0:	2f01      	cmp	r7, #1
 8000ea2:	d009      	beq.n	8000eb8 <LTDC_SetConfig+0xd4>
 8000ea4:	1ebd      	subs	r5, r7, #2
 8000ea6:	2d02      	cmp	r5, #2
 8000ea8:	d908      	bls.n	8000ebc <LTDC_SetConfig+0xd8>
 8000eaa:	2f07      	cmp	r7, #7
 8000eac:	bf0c      	ite	eq
 8000eae:	2502      	moveq	r5, #2
 8000eb0:	2501      	movne	r5, #1
 8000eb2:	e004      	b.n	8000ebe <LTDC_SetConfig+0xda>
 8000eb4:	2504      	movs	r5, #4
 8000eb6:	e002      	b.n	8000ebe <LTDC_SetConfig+0xda>
 8000eb8:	2503      	movs	r5, #3
 8000eba:	e000      	b.n	8000ebe <LTDC_SetConfig+0xda>
 8000ebc:	2502      	movs	r5, #2
 8000ebe:	1a24      	subs	r4, r4, r0
 8000ec0:	436c      	muls	r4, r5
 8000ec2:	1ce0      	adds	r0, r4, #3
 8000ec4:	6a8c      	ldr	r4, [r1, #40]	; 0x28
 8000ec6:	6ade      	ldr	r6, [r3, #44]	; 0x2c
 8000ec8:	6ac9      	ldr	r1, [r1, #44]	; 0x2c
 8000eca:	436c      	muls	r4, r5
 8000ecc:	ea40 4404 	orr.w	r4, r0, r4, lsl #16
 8000ed0:	f006 26e0 	and.w	r6, r6, #3758153728	; 0xe000e000
 8000ed4:	62de      	str	r6, [r3, #44]	; 0x2c
 8000ed6:	62dc      	str	r4, [r3, #44]	; 0x2c
 8000ed8:	6b18      	ldr	r0, [r3, #48]	; 0x30
 8000eda:	f420 60ff 	bic.w	r0, r0, #2040	; 0x7f8
 8000ede:	f020 0007 	bic.w	r0, r0, #7
 8000ee2:	6318      	str	r0, [r3, #48]	; 0x30
 8000ee4:	6319      	str	r1, [r3, #48]	; 0x30
 8000ee6:	f85e 3002 	ldr.w	r3, [lr, r2]
 8000eea:	f043 0301 	orr.w	r3, r3, #1
 8000eee:	f84e 3002 	str.w	r3, [lr, r2]
 8000ef2:	e8bd 83f0 	ldmia.w	sp!, {r4, r5, r6, r7, r8, r9, pc}

08000ef6 <HAL_LTDC_MspInit>:
 8000ef6:	4770      	bx	lr

08000ef8 <HAL_LTDC_Init>:
 8000ef8:	b538      	push	{r3, r4, r5, lr}
 8000efa:	4604      	mov	r4, r0
 8000efc:	2800      	cmp	r0, #0
 8000efe:	d06a      	beq.n	8000fd6 <HAL_LTDC_Init+0xde>
 8000f00:	f890 30a1 	ldrb.w	r3, [r0, #161]	; 0xa1
 8000f04:	f003 02ff 	and.w	r2, r3, #255	; 0xff
 8000f08:	b91b      	cbnz	r3, 8000f12 <HAL_LTDC_Init+0x1a>
 8000f0a:	f880 20a0 	strb.w	r2, [r0, #160]	; 0xa0
 8000f0e:	f7ff fff2 	bl	8000ef6 <HAL_LTDC_MspInit>
 8000f12:	2302      	movs	r3, #2
 8000f14:	f884 30a1 	strb.w	r3, [r4, #161]	; 0xa1
 8000f18:	6823      	ldr	r3, [r4, #0]
 8000f1a:	699a      	ldr	r2, [r3, #24]
 8000f1c:	f022 4270 	bic.w	r2, r2, #4026531840	; 0xf0000000
 8000f20:	619a      	str	r2, [r3, #24]
 8000f22:	6999      	ldr	r1, [r3, #24]
 8000f24:	6862      	ldr	r2, [r4, #4]
 8000f26:	4311      	orrs	r1, r2
 8000f28:	68a2      	ldr	r2, [r4, #8]
 8000f2a:	4311      	orrs	r1, r2
 8000f2c:	68e2      	ldr	r2, [r4, #12]
 8000f2e:	4311      	orrs	r1, r2
 8000f30:	6922      	ldr	r2, [r4, #16]
 8000f32:	430a      	orrs	r2, r1
 8000f34:	619a      	str	r2, [r3, #24]
 8000f36:	6899      	ldr	r1, [r3, #8]
 8000f38:	4a28      	ldr	r2, [pc, #160]	; (8000fdc <HAL_LTDC_Init+0xe4>)
 8000f3a:	400a      	ands	r2, r1
 8000f3c:	609a      	str	r2, [r3, #8]
 8000f3e:	6899      	ldr	r1, [r3, #8]
 8000f40:	69a2      	ldr	r2, [r4, #24]
 8000f42:	430a      	orrs	r2, r1
 8000f44:	6961      	ldr	r1, [r4, #20]
 8000f46:	ea42 4201 	orr.w	r2, r2, r1, lsl #16
 8000f4a:	609a      	str	r2, [r3, #8]
 8000f4c:	68d9      	ldr	r1, [r3, #12]
 8000f4e:	4a23      	ldr	r2, [pc, #140]	; (8000fdc <HAL_LTDC_Init+0xe4>)
 8000f50:	400a      	ands	r2, r1
 8000f52:	60da      	str	r2, [r3, #12]
 8000f54:	68d9      	ldr	r1, [r3, #12]
 8000f56:	6a22      	ldr	r2, [r4, #32]
 8000f58:	430a      	orrs	r2, r1
 8000f5a:	69e1      	ldr	r1, [r4, #28]
 8000f5c:	ea42 4201 	orr.w	r2, r2, r1, lsl #16
 8000f60:	60da      	str	r2, [r3, #12]
 8000f62:	6919      	ldr	r1, [r3, #16]
 8000f64:	4a1d      	ldr	r2, [pc, #116]	; (8000fdc <HAL_LTDC_Init+0xe4>)
 8000f66:	400a      	ands	r2, r1
 8000f68:	611a      	str	r2, [r3, #16]
 8000f6a:	6919      	ldr	r1, [r3, #16]
 8000f6c:	6aa2      	ldr	r2, [r4, #40]	; 0x28
 8000f6e:	430a      	orrs	r2, r1
 8000f70:	6a61      	ldr	r1, [r4, #36]	; 0x24
 8000f72:	ea42 4201 	orr.w	r2, r2, r1, lsl #16
 8000f76:	611a      	str	r2, [r3, #16]
 8000f78:	6959      	ldr	r1, [r3, #20]
 8000f7a:	4a18      	ldr	r2, [pc, #96]	; (8000fdc <HAL_LTDC_Init+0xe4>)
 8000f7c:	400a      	ands	r2, r1
 8000f7e:	615a      	str	r2, [r3, #20]
 8000f80:	6959      	ldr	r1, [r3, #20]
 8000f82:	6b22      	ldr	r2, [r4, #48]	; 0x30
 8000f84:	430a      	orrs	r2, r1
 8000f86:	6ae1      	ldr	r1, [r4, #44]	; 0x2c
 8000f88:	ea42 4201 	orr.w	r2, r2, r1, lsl #16
 8000f8c:	615a      	str	r2, [r3, #20]
 8000f8e:	6ad9      	ldr	r1, [r3, #44]	; 0x2c
 8000f90:	f894 0036 	ldrb.w	r0, [r4, #54]	; 0x36
 8000f94:	f894 2035 	ldrb.w	r2, [r4, #53]	; 0x35
 8000f98:	f001 417f 	and.w	r1, r1, #4278190080	; 0xff000000
 8000f9c:	62d9      	str	r1, [r3, #44]	; 0x2c
 8000f9e:	6ad9      	ldr	r1, [r3, #44]	; 0x2c
 8000fa0:	f894 5034 	ldrb.w	r5, [r4, #52]	; 0x34
 8000fa4:	4329      	orrs	r1, r5
 8000fa6:	ea41 2202 	orr.w	r2, r1, r2, lsl #8
 8000faa:	ea42 4200 	orr.w	r2, r2, r0, lsl #16
 8000fae:	62da      	str	r2, [r3, #44]	; 0x2c
 8000fb0:	6b5a      	ldr	r2, [r3, #52]	; 0x34
 8000fb2:	f042 0204 	orr.w	r2, r2, #4
 8000fb6:	635a      	str	r2, [r3, #52]	; 0x34
 8000fb8:	6b5a      	ldr	r2, [r3, #52]	; 0x34
 8000fba:	f042 0202 	orr.w	r2, r2, #2
 8000fbe:	635a      	str	r2, [r3, #52]	; 0x34
 8000fc0:	699a      	ldr	r2, [r3, #24]
 8000fc2:	f042 0201 	orr.w	r2, r2, #1
 8000fc6:	619a      	str	r2, [r3, #24]
 8000fc8:	2000      	movs	r0, #0
 8000fca:	2301      	movs	r3, #1
 8000fcc:	f8c4 00a4 	str.w	r0, [r4, #164]	; 0xa4
 8000fd0:	f884 30a1 	strb.w	r3, [r4, #161]	; 0xa1
 8000fd4:	bd38      	pop	{r3, r4, r5, pc}
 8000fd6:	2001      	movs	r0, #1
 8000fd8:	bd38      	pop	{r3, r4, r5, pc}
 8000fda:	bf00      	nop
 8000fdc:	f000f800 			; <UNDEFINED> instruction: 0xf000f800

08000fe0 <HAL_LTDC_ConfigLayer>:
 8000fe0:	b5f8      	push	{r3, r4, r5, r6, r7, lr}
 8000fe2:	f890 30a0 	ldrb.w	r3, [r0, #160]	; 0xa0
 8000fe6:	2b01      	cmp	r3, #1
 8000fe8:	4606      	mov	r6, r0
 8000fea:	468c      	mov	ip, r1
 8000fec:	4696      	mov	lr, r2
 8000fee:	f04f 0002 	mov.w	r0, #2
 8000ff2:	d01d      	beq.n	8001030 <HAL_LTDC_ConfigLayer+0x50>
 8000ff4:	2701      	movs	r7, #1
 8000ff6:	f886 70a0 	strb.w	r7, [r6, #160]	; 0xa0
 8000ffa:	f886 00a1 	strb.w	r0, [r6, #161]	; 0xa1
 8000ffe:	2434      	movs	r4, #52	; 0x34
 8001000:	460d      	mov	r5, r1
 8001002:	fb04 6402 	mla	r4, r4, r2, r6
 8001006:	cd0f      	ldmia	r5!, {r0, r1, r2, r3}
 8001008:	3438      	adds	r4, #56	; 0x38
 800100a:	c40f      	stmia	r4!, {r0, r1, r2, r3}
 800100c:	cd0f      	ldmia	r5!, {r0, r1, r2, r3}
 800100e:	c40f      	stmia	r4!, {r0, r1, r2, r3}
 8001010:	cd0f      	ldmia	r5!, {r0, r1, r2, r3}
 8001012:	c40f      	stmia	r4!, {r0, r1, r2, r3}
 8001014:	682b      	ldr	r3, [r5, #0]
 8001016:	6023      	str	r3, [r4, #0]
 8001018:	4630      	mov	r0, r6
 800101a:	4661      	mov	r1, ip
 800101c:	4672      	mov	r2, lr
 800101e:	f7ff fee1 	bl	8000de4 <LTDC_SetConfig>
 8001022:	6833      	ldr	r3, [r6, #0]
 8001024:	2000      	movs	r0, #0
 8001026:	625f      	str	r7, [r3, #36]	; 0x24
 8001028:	f886 70a1 	strb.w	r7, [r6, #161]	; 0xa1
 800102c:	f886 00a0 	strb.w	r0, [r6, #160]	; 0xa0
 8001030:	bdf8      	pop	{r3, r4, r5, r6, r7, pc}

08001032 <HAL_LTDC_SetAlpha>:
 8001032:	f890 30a0 	ldrb.w	r3, [r0, #160]	; 0xa0
 8001036:	2b01      	cmp	r3, #1
 8001038:	b570      	push	{r4, r5, r6, lr}
 800103a:	f04f 0302 	mov.w	r3, #2
 800103e:	4604      	mov	r4, r0
 8001040:	d015      	beq.n	800106e <HAL_LTDC_SetAlpha+0x3c>
 8001042:	f880 30a1 	strb.w	r3, [r0, #161]	; 0xa1
 8001046:	2334      	movs	r3, #52	; 0x34
 8001048:	4353      	muls	r3, r2
 800104a:	18c6      	adds	r6, r0, r3
 800104c:	2501      	movs	r5, #1
 800104e:	f880 50a0 	strb.w	r5, [r0, #160]	; 0xa0
 8001052:	64f1      	str	r1, [r6, #76]	; 0x4c
 8001054:	f103 0138 	add.w	r1, r3, #56	; 0x38
 8001058:	4401      	add	r1, r0
 800105a:	f7ff fec3 	bl	8000de4 <LTDC_SetConfig>
 800105e:	6823      	ldr	r3, [r4, #0]
 8001060:	2000      	movs	r0, #0
 8001062:	625d      	str	r5, [r3, #36]	; 0x24
 8001064:	f884 50a1 	strb.w	r5, [r4, #161]	; 0xa1
 8001068:	f884 00a0 	strb.w	r0, [r4, #160]	; 0xa0
 800106c:	bd70      	pop	{r4, r5, r6, pc}
 800106e:	4618      	mov	r0, r3
 8001070:	bd70      	pop	{r4, r5, r6, pc}

08001072 <HAL_LTDC_GetState>:
 8001072:	f890 00a1 	ldrb.w	r0, [r0, #161]	; 0xa1
 8001076:	4770      	bx	lr

08001078 <HAL_NVIC_SetPriorityGrouping>:
 8001078:	4a07      	ldr	r2, [pc, #28]	; (8001098 <HAL_NVIC_SetPriorityGrouping+0x20>)
 800107a:	68d3      	ldr	r3, [r2, #12]
 800107c:	f423 63e0 	bic.w	r3, r3, #1792	; 0x700
 8001080:	041b      	lsls	r3, r3, #16
 8001082:	0c1b      	lsrs	r3, r3, #16
 8001084:	f043 63bf 	orr.w	r3, r3, #100139008	; 0x5f80000
 8001088:	f443 3300 	orr.w	r3, r3, #131072	; 0x20000
 800108c:	f000 0007 	and.w	r0, r0, #7
 8001090:	ea43 2300 	orr.w	r3, r3, r0, lsl #8
 8001094:	60d3      	str	r3, [r2, #12]
 8001096:	4770      	bx	lr
 8001098:	e000ed00 	and	lr, r0, r0, lsl #26

0800109c <HAL_NVIC_SetPriority>:
 800109c:	4b15      	ldr	r3, [pc, #84]	; (80010f4 <HAL_NVIC_SetPriority+0x58>)
 800109e:	68db      	ldr	r3, [r3, #12]
 80010a0:	f3c3 2302 	ubfx	r3, r3, #8, #3
 80010a4:	b570      	push	{r4, r5, r6, lr}
 80010a6:	f1c3 0507 	rsb	r5, r3, #7
 80010aa:	1d1c      	adds	r4, r3, #4
 80010ac:	2d04      	cmp	r5, #4
 80010ae:	bf28      	it	cs
 80010b0:	2504      	movcs	r5, #4
 80010b2:	2c06      	cmp	r4, #6
 80010b4:	bf8c      	ite	hi
 80010b6:	3b03      	subhi	r3, #3
 80010b8:	2300      	movls	r3, #0
 80010ba:	2401      	movs	r4, #1
 80010bc:	fa04 f603 	lsl.w	r6, r4, r3
 80010c0:	40ac      	lsls	r4, r5
 80010c2:	3c01      	subs	r4, #1
 80010c4:	3e01      	subs	r6, #1
 80010c6:	4021      	ands	r1, r4
 80010c8:	4099      	lsls	r1, r3
 80010ca:	4032      	ands	r2, r6
 80010cc:	2800      	cmp	r0, #0
 80010ce:	ea42 0201 	orr.w	r2, r2, r1
 80010d2:	ea4f 1202 	mov.w	r2, r2, lsl #4
 80010d6:	bfaf      	iteee	ge
 80010d8:	f100 4060 	addge.w	r0, r0, #3758096384	; 0xe0000000
 80010dc:	f000 000f 	andlt.w	r0, r0, #15
 80010e0:	4b05      	ldrlt	r3, [pc, #20]	; (80010f8 <HAL_NVIC_SetPriority+0x5c>)
 80010e2:	b2d2      	uxtblt	r2, r2
 80010e4:	bfa5      	ittet	ge
 80010e6:	f500 4061 	addge.w	r0, r0, #57600	; 0xe100
 80010ea:	b2d2      	uxtbge	r2, r2
 80010ec:	541a      	strblt	r2, [r3, r0]
 80010ee:	f880 2300 	strbge.w	r2, [r0, #768]	; 0x300
 80010f2:	bd70      	pop	{r4, r5, r6, pc}
 80010f4:	e000ed00 	and	lr, r0, r0, lsl #26
 80010f8:	e000ed14 	and	lr, r0, r4, lsl sp

080010fc <HAL_NVIC_EnableIRQ>:
 80010fc:	0941      	lsrs	r1, r0, #5
 80010fe:	2301      	movs	r3, #1
 8001100:	f000 001f 	and.w	r0, r0, #31
 8001104:	4a02      	ldr	r2, [pc, #8]	; (8001110 <HAL_NVIC_EnableIRQ+0x14>)
 8001106:	4083      	lsls	r3, r0
 8001108:	f842 3021 	str.w	r3, [r2, r1, lsl #2]
 800110c:	4770      	bx	lr
 800110e:	bf00      	nop
 8001110:	e000e100 	and	lr, r0, r0, lsl #2

08001114 <HAL_SYSTICK_Config>:
 8001114:	3801      	subs	r0, #1
 8001116:	f1b0 7f80 	cmp.w	r0, #16777216	; 0x1000000
 800111a:	bf3f      	itttt	cc
 800111c:	4b06      	ldrcc	r3, [pc, #24]	; (8001138 <HAL_SYSTICK_Config+0x24>)
 800111e:	4a07      	ldrcc	r2, [pc, #28]	; (800113c <HAL_SYSTICK_Config+0x28>)
 8001120:	6058      	strcc	r0, [r3, #4]
 8001122:	21f0      	movcc	r1, #240	; 0xf0
 8001124:	bf3f      	itttt	cc
 8001126:	f882 1023 	strbcc.w	r1, [r2, #35]	; 0x23
 800112a:	2000      	movcc	r0, #0
 800112c:	2207      	movcc	r2, #7
 800112e:	6098      	strcc	r0, [r3, #8]
 8001130:	bf34      	ite	cc
 8001132:	601a      	strcc	r2, [r3, #0]
 8001134:	2001      	movcs	r0, #1
 8001136:	4770      	bx	lr
 8001138:	e000e010 	and	lr, r0, r0, lsl r0
 800113c:	e000ed00 	and	lr, r0, r0, lsl #26

08001140 <HAL_MPU_ConfigRegion>:
 8001140:	4911      	ldr	r1, [pc, #68]	; (8001188 <HAL_MPU_ConfigRegion+0x48>)
 8001142:	7843      	ldrb	r3, [r0, #1]
 8001144:	608b      	str	r3, [r1, #8]
 8001146:	7803      	ldrb	r3, [r0, #0]
 8001148:	b1db      	cbz	r3, 8001182 <HAL_MPU_ConfigRegion+0x42>
 800114a:	6843      	ldr	r3, [r0, #4]
 800114c:	60cb      	str	r3, [r1, #12]
 800114e:	7ac3      	ldrb	r3, [r0, #11]
 8001150:	7b02      	ldrb	r2, [r0, #12]
 8001152:	061b      	lsls	r3, r3, #24
 8001154:	ea43 7302 	orr.w	r3, r3, r2, lsl #28
 8001158:	7802      	ldrb	r2, [r0, #0]
 800115a:	4313      	orrs	r3, r2
 800115c:	7a82      	ldrb	r2, [r0, #10]
 800115e:	ea43 43c2 	orr.w	r3, r3, r2, lsl #19
 8001162:	7b42      	ldrb	r2, [r0, #13]
 8001164:	ea43 4382 	orr.w	r3, r3, r2, lsl #18
 8001168:	7b82      	ldrb	r2, [r0, #14]
 800116a:	ea43 4342 	orr.w	r3, r3, r2, lsl #17
 800116e:	7bc2      	ldrb	r2, [r0, #15]
 8001170:	ea43 4302 	orr.w	r3, r3, r2, lsl #16
 8001174:	7a42      	ldrb	r2, [r0, #9]
 8001176:	ea43 2302 	orr.w	r3, r3, r2, lsl #8
 800117a:	7a02      	ldrb	r2, [r0, #8]
 800117c:	ea43 0342 	orr.w	r3, r3, r2, lsl #1
 8001180:	e000      	b.n	8001184 <HAL_MPU_ConfigRegion+0x44>
 8001182:	60cb      	str	r3, [r1, #12]
 8001184:	610b      	str	r3, [r1, #16]
 8001186:	4770      	bx	lr
 8001188:	e000ed90 	mul	r0, r0, sp

0800118c <HAL_RCCEx_PeriphCLKConfig>:
 800118c:	6803      	ldr	r3, [r0, #0]
 800118e:	e92d 47f3 	stmdb	sp!, {r0, r1, r4, r5, r6, r7, r8, r9, sl, lr}
 8001192:	f013 0601 	ands.w	r6, r3, #1
 8001196:	4604      	mov	r4, r0
 8001198:	d00b      	beq.n	80011b2 <HAL_RCCEx_PeriphCLKConfig+0x26>
 800119a:	4a46      	ldr	r2, [pc, #280]	; (80012b4 <HAL_RCCEx_PeriphCLKConfig+0x128>)
 800119c:	6891      	ldr	r1, [r2, #8]
 800119e:	f421 0100 	bic.w	r1, r1, #8388608	; 0x800000
 80011a2:	6091      	str	r1, [r2, #8]
 80011a4:	6b46      	ldr	r6, [r0, #52]	; 0x34
 80011a6:	6891      	ldr	r1, [r2, #8]
 80011a8:	4331      	orrs	r1, r6
 80011aa:	6091      	str	r1, [r2, #8]
 80011ac:	fab6 f686 	clz	r6, r6
 80011b0:	0976      	lsrs	r6, r6, #5
 80011b2:	f413 2500 	ands.w	r5, r3, #524288	; 0x80000
 80011b6:	d010      	beq.n	80011da <HAL_RCCEx_PeriphCLKConfig+0x4e>
 80011b8:	493e      	ldr	r1, [pc, #248]	; (80012b4 <HAL_RCCEx_PeriphCLKConfig+0x128>)
 80011ba:	6be5      	ldr	r5, [r4, #60]	; 0x3c
 80011bc:	f8d1 208c 	ldr.w	r2, [r1, #140]	; 0x8c
 80011c0:	f422 1240 	bic.w	r2, r2, #3145728	; 0x300000
 80011c4:	432a      	orrs	r2, r5
 80011c6:	f5b5 1f80 	cmp.w	r5, #1048576	; 0x100000
 80011ca:	f8c1 208c 	str.w	r2, [r1, #140]	; 0x8c
 80011ce:	bf15      	itete	ne
 80011d0:	fab5 f585 	clzne	r5, r5
 80011d4:	2500      	moveq	r5, #0
 80011d6:	096d      	lsrne	r5, r5, #5
 80011d8:	2601      	moveq	r6, #1
 80011da:	02d9      	lsls	r1, r3, #11
 80011dc:	d510      	bpl.n	8001200 <HAL_RCCEx_PeriphCLKConfig+0x74>
 80011de:	4835      	ldr	r0, [pc, #212]	; (80012b4 <HAL_RCCEx_PeriphCLKConfig+0x128>)
 80011e0:	6c21      	ldr	r1, [r4, #64]	; 0x40
 80011e2:	f8d0 208c 	ldr.w	r2, [r0, #140]	; 0x8c
 80011e6:	f422 0240 	bic.w	r2, r2, #12582912	; 0xc00000
 80011ea:	430a      	orrs	r2, r1
 80011ec:	f5b1 0f80 	cmp.w	r1, #4194304	; 0x400000
 80011f0:	f8c0 208c 	str.w	r2, [r0, #140]	; 0x8c
 80011f4:	d003      	beq.n	80011fe <HAL_RCCEx_PeriphCLKConfig+0x72>
 80011f6:	2900      	cmp	r1, #0
 80011f8:	bf08      	it	eq
 80011fa:	2501      	moveq	r5, #1
 80011fc:	e000      	b.n	8001200 <HAL_RCCEx_PeriphCLKConfig+0x74>
 80011fe:	2601      	movs	r6, #1
 8001200:	f013 7f80 	tst.w	r3, #16777216	; 0x1000000
 8001204:	bf18      	it	ne
 8001206:	2601      	movne	r6, #1
 8001208:	069a      	lsls	r2, r3, #26
 800120a:	d560      	bpl.n	80012ce <HAL_RCCEx_PeriphCLKConfig+0x142>
 800120c:	2300      	movs	r3, #0
 800120e:	9301      	str	r3, [sp, #4]
 8001210:	4b28      	ldr	r3, [pc, #160]	; (80012b4 <HAL_RCCEx_PeriphCLKConfig+0x128>)
 8001212:	6c1a      	ldr	r2, [r3, #64]	; 0x40
 8001214:	f042 5280 	orr.w	r2, r2, #268435456	; 0x10000000
 8001218:	641a      	str	r2, [r3, #64]	; 0x40
 800121a:	6c1b      	ldr	r3, [r3, #64]	; 0x40
 800121c:	4a26      	ldr	r2, [pc, #152]	; (80012b8 <HAL_RCCEx_PeriphCLKConfig+0x12c>)
 800121e:	f003 5380 	and.w	r3, r3, #268435456	; 0x10000000
 8001222:	9301      	str	r3, [sp, #4]
 8001224:	9b01      	ldr	r3, [sp, #4]
 8001226:	6813      	ldr	r3, [r2, #0]
 8001228:	f443 7380 	orr.w	r3, r3, #256	; 0x100
 800122c:	6013      	str	r3, [r2, #0]
 800122e:	f7ff f9e3 	bl	80005f8 <HAL_GetTick>
 8001232:	4607      	mov	r7, r0
 8001234:	4b20      	ldr	r3, [pc, #128]	; (80012b8 <HAL_RCCEx_PeriphCLKConfig+0x12c>)
 8001236:	681b      	ldr	r3, [r3, #0]
 8001238:	05db      	lsls	r3, r3, #23
 800123a:	d406      	bmi.n	800124a <HAL_RCCEx_PeriphCLKConfig+0xbe>
 800123c:	f7ff f9dc 	bl	80005f8 <HAL_GetTick>
 8001240:	1bc0      	subs	r0, r0, r7
 8001242:	2864      	cmp	r0, #100	; 0x64
 8001244:	d9f6      	bls.n	8001234 <HAL_RCCEx_PeriphCLKConfig+0xa8>
 8001246:	2003      	movs	r0, #3
 8001248:	e344      	b.n	80018d4 <HAL_RCCEx_PeriphCLKConfig+0x748>
 800124a:	4b1a      	ldr	r3, [pc, #104]	; (80012b4 <HAL_RCCEx_PeriphCLKConfig+0x128>)
 800124c:	6b22      	ldr	r2, [r4, #48]	; 0x30
 800124e:	6f19      	ldr	r1, [r3, #112]	; 0x70
 8001250:	404a      	eors	r2, r1
 8001252:	f412 7f40 	tst.w	r2, #768	; 0x300
 8001256:	d03a      	beq.n	80012ce <HAL_RCCEx_PeriphCLKConfig+0x142>
 8001258:	6f19      	ldr	r1, [r3, #112]	; 0x70
 800125a:	6f1a      	ldr	r2, [r3, #112]	; 0x70
 800125c:	f442 3280 	orr.w	r2, r2, #65536	; 0x10000
 8001260:	671a      	str	r2, [r3, #112]	; 0x70
 8001262:	6f1a      	ldr	r2, [r3, #112]	; 0x70
 8001264:	f421 7040 	bic.w	r0, r1, #768	; 0x300
 8001268:	f422 3280 	bic.w	r2, r2, #65536	; 0x10000
 800126c:	078f      	lsls	r7, r1, #30
 800126e:	671a      	str	r2, [r3, #112]	; 0x70
 8001270:	6718      	str	r0, [r3, #112]	; 0x70
 8001272:	d40f      	bmi.n	8001294 <HAL_RCCEx_PeriphCLKConfig+0x108>
 8001274:	6b22      	ldr	r2, [r4, #48]	; 0x30
 8001276:	f402 7340 	and.w	r3, r2, #768	; 0x300
 800127a:	f5b3 7f40 	cmp.w	r3, #768	; 0x300
 800127e:	4b0d      	ldr	r3, [pc, #52]	; (80012b4 <HAL_RCCEx_PeriphCLKConfig+0x128>)
 8001280:	d11c      	bne.n	80012bc <HAL_RCCEx_PeriphCLKConfig+0x130>
 8001282:	6899      	ldr	r1, [r3, #8]
 8001284:	f022 4070 	bic.w	r0, r2, #4026531840	; 0xf0000000
 8001288:	f420 7040 	bic.w	r0, r0, #768	; 0x300
 800128c:	f421 11f8 	bic.w	r1, r1, #2031616	; 0x1f0000
 8001290:	4301      	orrs	r1, r0
 8001292:	e016      	b.n	80012c2 <HAL_RCCEx_PeriphCLKConfig+0x136>
 8001294:	f7ff f9b0 	bl	80005f8 <HAL_GetTick>
 8001298:	4607      	mov	r7, r0
 800129a:	4b06      	ldr	r3, [pc, #24]	; (80012b4 <HAL_RCCEx_PeriphCLKConfig+0x128>)
 800129c:	6f1b      	ldr	r3, [r3, #112]	; 0x70
 800129e:	0798      	lsls	r0, r3, #30
 80012a0:	d4e8      	bmi.n	8001274 <HAL_RCCEx_PeriphCLKConfig+0xe8>
 80012a2:	f7ff f9a9 	bl	80005f8 <HAL_GetTick>
 80012a6:	f241 3388 	movw	r3, #5000	; 0x1388
 80012aa:	1bc0      	subs	r0, r0, r7
 80012ac:	4298      	cmp	r0, r3
 80012ae:	d9f4      	bls.n	800129a <HAL_RCCEx_PeriphCLKConfig+0x10e>
 80012b0:	e7c9      	b.n	8001246 <HAL_RCCEx_PeriphCLKConfig+0xba>
 80012b2:	bf00      	nop
 80012b4:	40023800 	andmi	r3, r2, r0, lsl #16
 80012b8:	40007000 	andmi	r7, r0, r0
 80012bc:	6899      	ldr	r1, [r3, #8]
 80012be:	f421 11f8 	bic.w	r1, r1, #2031616	; 0x1f0000
 80012c2:	6099      	str	r1, [r3, #8]
 80012c4:	6f19      	ldr	r1, [r3, #112]	; 0x70
 80012c6:	f3c2 020b 	ubfx	r2, r2, #0, #12
 80012ca:	430a      	orrs	r2, r1
 80012cc:	671a      	str	r2, [r3, #112]	; 0x70
 80012ce:	6823      	ldr	r3, [r4, #0]
 80012d0:	06d9      	lsls	r1, r3, #27
 80012d2:	d50c      	bpl.n	80012ee <HAL_RCCEx_PeriphCLKConfig+0x162>
 80012d4:	4a77      	ldr	r2, [pc, #476]	; (80014b4 <HAL_RCCEx_PeriphCLKConfig+0x328>)
 80012d6:	f8d2 108c 	ldr.w	r1, [r2, #140]	; 0x8c
 80012da:	f021 7180 	bic.w	r1, r1, #16777216	; 0x1000000
 80012de:	f8c2 108c 	str.w	r1, [r2, #140]	; 0x8c
 80012e2:	f8d2 008c 	ldr.w	r0, [r2, #140]	; 0x8c
 80012e6:	6ba1      	ldr	r1, [r4, #56]	; 0x38
 80012e8:	4301      	orrs	r1, r0
 80012ea:	f8c2 108c 	str.w	r1, [r2, #140]	; 0x8c
 80012ee:	045a      	lsls	r2, r3, #17
 80012f0:	bf41      	itttt	mi
 80012f2:	4870      	ldrmi	r0, [pc, #448]	; (80014b4 <HAL_RCCEx_PeriphCLKConfig+0x328>)
 80012f4:	f8d0 2090 	ldrmi.w	r2, [r0, #144]	; 0x90
 80012f8:	f422 3140 	bicmi.w	r1, r2, #196608	; 0x30000
 80012fc:	6e62      	ldrmi	r2, [r4, #100]	; 0x64
 80012fe:	bf44      	itt	mi
 8001300:	430a      	orrmi	r2, r1
 8001302:	f8c0 2090 	strmi.w	r2, [r0, #144]	; 0x90
 8001306:	041f      	lsls	r7, r3, #16
 8001308:	bf41      	itttt	mi
 800130a:	486a      	ldrmi	r0, [pc, #424]	; (80014b4 <HAL_RCCEx_PeriphCLKConfig+0x328>)
 800130c:	f8d0 2090 	ldrmi.w	r2, [r0, #144]	; 0x90
 8001310:	f422 2140 	bicmi.w	r1, r2, #786432	; 0xc0000
 8001314:	6ea2      	ldrmi	r2, [r4, #104]	; 0x68
 8001316:	bf44      	itt	mi
 8001318:	430a      	orrmi	r2, r1
 800131a:	f8c0 2090 	strmi.w	r2, [r0, #144]	; 0x90
 800131e:	03d8      	lsls	r0, r3, #15
 8001320:	bf41      	itttt	mi
 8001322:	4864      	ldrmi	r0, [pc, #400]	; (80014b4 <HAL_RCCEx_PeriphCLKConfig+0x328>)
 8001324:	f8d0 2090 	ldrmi.w	r2, [r0, #144]	; 0x90
 8001328:	f422 1140 	bicmi.w	r1, r2, #3145728	; 0x300000
 800132c:	6ee2      	ldrmi	r2, [r4, #108]	; 0x6c
 800132e:	bf44      	itt	mi
 8001330:	430a      	orrmi	r2, r1
 8001332:	f8c0 2090 	strmi.w	r2, [r0, #144]	; 0x90
 8001336:	0399      	lsls	r1, r3, #14
 8001338:	bf41      	itttt	mi
 800133a:	485e      	ldrmi	r0, [pc, #376]	; (80014b4 <HAL_RCCEx_PeriphCLKConfig+0x328>)
 800133c:	f8d0 2090 	ldrmi.w	r2, [r0, #144]	; 0x90
 8001340:	f422 0140 	bicmi.w	r1, r2, #12582912	; 0xc00000
 8001344:	6f22      	ldrmi	r2, [r4, #112]	; 0x70
 8001346:	bf44      	itt	mi
 8001348:	430a      	orrmi	r2, r1
 800134a:	f8c0 2090 	strmi.w	r2, [r0, #144]	; 0x90
 800134e:	065a      	lsls	r2, r3, #25
 8001350:	bf41      	itttt	mi
 8001352:	4858      	ldrmi	r0, [pc, #352]	; (80014b4 <HAL_RCCEx_PeriphCLKConfig+0x328>)
 8001354:	f8d0 2090 	ldrmi.w	r2, [r0, #144]	; 0x90
 8001358:	f022 0103 	bicmi.w	r1, r2, #3
 800135c:	6c62      	ldrmi	r2, [r4, #68]	; 0x44
 800135e:	bf44      	itt	mi
 8001360:	430a      	orrmi	r2, r1
 8001362:	f8c0 2090 	strmi.w	r2, [r0, #144]	; 0x90
 8001366:	061f      	lsls	r7, r3, #24
 8001368:	bf41      	itttt	mi
 800136a:	4852      	ldrmi	r0, [pc, #328]	; (80014b4 <HAL_RCCEx_PeriphCLKConfig+0x328>)
 800136c:	f8d0 2090 	ldrmi.w	r2, [r0, #144]	; 0x90
 8001370:	f022 010c 	bicmi.w	r1, r2, #12
 8001374:	6ca2      	ldrmi	r2, [r4, #72]	; 0x48
 8001376:	bf44      	itt	mi
 8001378:	430a      	orrmi	r2, r1
 800137a:	f8c0 2090 	strmi.w	r2, [r0, #144]	; 0x90
 800137e:	05d8      	lsls	r0, r3, #23
 8001380:	bf41      	itttt	mi
 8001382:	484c      	ldrmi	r0, [pc, #304]	; (80014b4 <HAL_RCCEx_PeriphCLKConfig+0x328>)
 8001384:	f8d0 2090 	ldrmi.w	r2, [r0, #144]	; 0x90
 8001388:	f022 0130 	bicmi.w	r1, r2, #48	; 0x30
 800138c:	6ce2      	ldrmi	r2, [r4, #76]	; 0x4c
 800138e:	bf44      	itt	mi
 8001390:	430a      	orrmi	r2, r1
 8001392:	f8c0 2090 	strmi.w	r2, [r0, #144]	; 0x90
 8001396:	0599      	lsls	r1, r3, #22
 8001398:	bf41      	itttt	mi
 800139a:	4846      	ldrmi	r0, [pc, #280]	; (80014b4 <HAL_RCCEx_PeriphCLKConfig+0x328>)
 800139c:	f8d0 2090 	ldrmi.w	r2, [r0, #144]	; 0x90
 80013a0:	f022 01c0 	bicmi.w	r1, r2, #192	; 0xc0
 80013a4:	6d22      	ldrmi	r2, [r4, #80]	; 0x50
 80013a6:	bf44      	itt	mi
 80013a8:	430a      	orrmi	r2, r1
 80013aa:	f8c0 2090 	strmi.w	r2, [r0, #144]	; 0x90
 80013ae:	055a      	lsls	r2, r3, #21
 80013b0:	bf41      	itttt	mi
 80013b2:	4840      	ldrmi	r0, [pc, #256]	; (80014b4 <HAL_RCCEx_PeriphCLKConfig+0x328>)
 80013b4:	f8d0 2090 	ldrmi.w	r2, [r0, #144]	; 0x90
 80013b8:	f422 7140 	bicmi.w	r1, r2, #768	; 0x300
 80013bc:	6d62      	ldrmi	r2, [r4, #84]	; 0x54
 80013be:	bf44      	itt	mi
 80013c0:	430a      	orrmi	r2, r1
 80013c2:	f8c0 2090 	strmi.w	r2, [r0, #144]	; 0x90
 80013c6:	051f      	lsls	r7, r3, #20
 80013c8:	bf41      	itttt	mi
 80013ca:	483a      	ldrmi	r0, [pc, #232]	; (80014b4 <HAL_RCCEx_PeriphCLKConfig+0x328>)
 80013cc:	f8d0 2090 	ldrmi.w	r2, [r0, #144]	; 0x90
 80013d0:	f422 6140 	bicmi.w	r1, r2, #3072	; 0xc00
 80013d4:	6da2      	ldrmi	r2, [r4, #88]	; 0x58
 80013d6:	bf44      	itt	mi
 80013d8:	430a      	orrmi	r2, r1
 80013da:	f8c0 2090 	strmi.w	r2, [r0, #144]	; 0x90
 80013de:	04d8      	lsls	r0, r3, #19
 80013e0:	bf41      	itttt	mi
 80013e2:	4834      	ldrmi	r0, [pc, #208]	; (80014b4 <HAL_RCCEx_PeriphCLKConfig+0x328>)
 80013e4:	f8d0 2090 	ldrmi.w	r2, [r0, #144]	; 0x90
 80013e8:	f422 5140 	bicmi.w	r1, r2, #12288	; 0x3000
 80013ec:	6de2      	ldrmi	r2, [r4, #92]	; 0x5c
 80013ee:	bf44      	itt	mi
 80013f0:	430a      	orrmi	r2, r1
 80013f2:	f8c0 2090 	strmi.w	r2, [r0, #144]	; 0x90
 80013f6:	0499      	lsls	r1, r3, #18
 80013f8:	bf41      	itttt	mi
 80013fa:	482e      	ldrmi	r0, [pc, #184]	; (80014b4 <HAL_RCCEx_PeriphCLKConfig+0x328>)
 80013fc:	f8d0 2090 	ldrmi.w	r2, [r0, #144]	; 0x90
 8001400:	f422 4140 	bicmi.w	r1, r2, #49152	; 0xc000
 8001404:	6e22      	ldrmi	r2, [r4, #96]	; 0x60
 8001406:	bf44      	itt	mi
 8001408:	430a      	orrmi	r2, r1
 800140a:	f8c0 2090 	strmi.w	r2, [r0, #144]	; 0x90
 800140e:	025a      	lsls	r2, r3, #9
 8001410:	bf41      	itttt	mi
 8001412:	4828      	ldrmi	r0, [pc, #160]	; (80014b4 <HAL_RCCEx_PeriphCLKConfig+0x328>)
 8001414:	f8d0 2090 	ldrmi.w	r2, [r0, #144]	; 0x90
 8001418:	f022 6180 	bicmi.w	r1, r2, #67108864	; 0x4000000
 800141c:	6fa2      	ldrmi	r2, [r4, #120]	; 0x78
 800141e:	bf44      	itt	mi
 8001420:	430a      	orrmi	r2, r1
 8001422:	f8c0 2090 	strmi.w	r2, [r0, #144]	; 0x90
 8001426:	029f      	lsls	r7, r3, #10
 8001428:	d50c      	bpl.n	8001444 <HAL_RCCEx_PeriphCLKConfig+0x2b8>
 800142a:	4822      	ldr	r0, [pc, #136]	; (80014b4 <HAL_RCCEx_PeriphCLKConfig+0x328>)
 800142c:	6fe1      	ldr	r1, [r4, #124]	; 0x7c
 800142e:	f8d0 2090 	ldr.w	r2, [r0, #144]	; 0x90
 8001432:	f022 6200 	bic.w	r2, r2, #134217728	; 0x8000000
 8001436:	430a      	orrs	r2, r1
 8001438:	f1b1 6f00 	cmp.w	r1, #134217728	; 0x8000000
 800143c:	f8c0 2090 	str.w	r2, [r0, #144]	; 0x90
 8001440:	bf08      	it	eq
 8001442:	2501      	moveq	r5, #1
 8001444:	f013 0f08 	tst.w	r3, #8
 8001448:	bf18      	it	ne
 800144a:	2501      	movne	r5, #1
 800144c:	0358      	lsls	r0, r3, #13
 800144e:	bf41      	itttt	mi
 8001450:	4818      	ldrmi	r0, [pc, #96]	; (80014b4 <HAL_RCCEx_PeriphCLKConfig+0x328>)
 8001452:	f8d0 2090 	ldrmi.w	r2, [r0, #144]	; 0x90
 8001456:	f022 7140 	bicmi.w	r1, r2, #50331648	; 0x3000000
 800145a:	6f62      	ldrmi	r2, [r4, #116]	; 0x74
 800145c:	bf44      	itt	mi
 800145e:	430a      	orrmi	r2, r1
 8001460:	f8c0 2090 	strmi.w	r2, [r0, #144]	; 0x90
 8001464:	0219      	lsls	r1, r3, #8
 8001466:	bf41      	itttt	mi
 8001468:	4812      	ldrmi	r0, [pc, #72]	; (80014b4 <HAL_RCCEx_PeriphCLKConfig+0x328>)
 800146a:	f8d0 2090 	ldrmi.w	r2, [r0, #144]	; 0x90
 800146e:	f022 5180 	bicmi.w	r1, r2, #268435456	; 0x10000000
 8001472:	f8d4 2080 	ldrmi.w	r2, [r4, #128]	; 0x80
 8001476:	bf44      	itt	mi
 8001478:	430a      	orrmi	r2, r1
 800147a:	f8c0 2090 	strmi.w	r2, [r0, #144]	; 0x90
 800147e:	2e01      	cmp	r6, #1
 8001480:	d006      	beq.n	8001490 <HAL_RCCEx_PeriphCLKConfig+0x304>
 8001482:	f1b3 7f00 	cmp.w	r3, #33554432	; 0x2000000
 8001486:	d003      	beq.n	8001490 <HAL_RCCEx_PeriphCLKConfig+0x304>
 8001488:	2d01      	cmp	r5, #1
 800148a:	f040 8185 	bne.w	8001798 <HAL_RCCEx_PeriphCLKConfig+0x60c>
 800148e:	e11e      	b.n	80016ce <HAL_RCCEx_PeriphCLKConfig+0x542>
 8001490:	4a08      	ldr	r2, [pc, #32]	; (80014b4 <HAL_RCCEx_PeriphCLKConfig+0x328>)
 8001492:	6813      	ldr	r3, [r2, #0]
 8001494:	f023 6380 	bic.w	r3, r3, #67108864	; 0x4000000
 8001498:	6013      	str	r3, [r2, #0]
 800149a:	f7ff f8ad 	bl	80005f8 <HAL_GetTick>
 800149e:	4607      	mov	r7, r0
 80014a0:	4e04      	ldr	r6, [pc, #16]	; (80014b4 <HAL_RCCEx_PeriphCLKConfig+0x328>)
 80014a2:	6833      	ldr	r3, [r6, #0]
 80014a4:	011a      	lsls	r2, r3, #4
 80014a6:	d507      	bpl.n	80014b8 <HAL_RCCEx_PeriphCLKConfig+0x32c>
 80014a8:	f7ff f8a6 	bl	80005f8 <HAL_GetTick>
 80014ac:	1bc0      	subs	r0, r0, r7
 80014ae:	2864      	cmp	r0, #100	; 0x64
 80014b0:	d9f6      	bls.n	80014a0 <HAL_RCCEx_PeriphCLKConfig+0x314>
 80014b2:	e6c8      	b.n	8001246 <HAL_RCCEx_PeriphCLKConfig+0xba>
 80014b4:	40023800 	andmi	r3, r2, r0, lsl #16
 80014b8:	6820      	ldr	r0, [r4, #0]
 80014ba:	07c3      	lsls	r3, r0, #31
 80014bc:	d53c      	bpl.n	8001538 <HAL_RCCEx_PeriphCLKConfig+0x3ac>
 80014be:	6b63      	ldr	r3, [r4, #52]	; 0x34
 80014c0:	bbd3      	cbnz	r3, 8001538 <HAL_RCCEx_PeriphCLKConfig+0x3ac>
 80014c2:	f8d6 2084 	ldr.w	r2, [r6, #132]	; 0x84
 80014c6:	f44f 3c40 	mov.w	ip, #196608	; 0x30000
 80014ca:	fa9c f8ac 	rbit	r8, ip
 80014ce:	f04f 6170 	mov.w	r1, #251658240	; 0xf000000
 80014d2:	fab8 f888 	clz	r8, r8
 80014d6:	f8d6 3084 	ldr.w	r3, [r6, #132]	; 0x84
 80014da:	fa91 fea1 	rbit	lr, r1
 80014de:	f647 79c0 	movw	r9, #32704	; 0x7fc0
 80014e2:	fabe fe8e 	clz	lr, lr
 80014e6:	fa99 f9a9 	rbit	r9, r9
 80014ea:	fab9 f989 	clz	r9, r9
 80014ee:	fa9c fcac 	rbit	ip, ip
 80014f2:	fabc fc8c 	clz	ip, ip
 80014f6:	fa91 f1a1 	rbit	r1, r1
 80014fa:	f04f 4ae0 	mov.w	sl, #1879048192	; 0x70000000
 80014fe:	fab1 f181 	clz	r1, r1
 8001502:	fa9a faaa 	rbit	sl, sl
 8001506:	68a7      	ldr	r7, [r4, #8]
 8001508:	faba fa8a 	clz	sl, sl
 800150c:	fa07 fa0a 	lsl.w	sl, r7, sl
 8001510:	6867      	ldr	r7, [r4, #4]
 8001512:	f402 3240 	and.w	r2, r2, #196608	; 0x30000
 8001516:	fa07 f909 	lsl.w	r9, r7, r9
 800151a:	fa22 f208 	lsr.w	r2, r2, r8
 800151e:	f003 6370 	and.w	r3, r3, #251658240	; 0xf000000
 8001522:	ea4a 0709 	orr.w	r7, sl, r9
 8001526:	fa02 f20c 	lsl.w	r2, r2, ip
 800152a:	fa23 f30e 	lsr.w	r3, r3, lr
 800152e:	433a      	orrs	r2, r7
 8001530:	408b      	lsls	r3, r1
 8001532:	4313      	orrs	r3, r2
 8001534:	f8c6 3084 	str.w	r3, [r6, #132]	; 0x84
 8001538:	0307      	lsls	r7, r0, #12
 800153a:	d503      	bpl.n	8001544 <HAL_RCCEx_PeriphCLKConfig+0x3b8>
 800153c:	6be3      	ldr	r3, [r4, #60]	; 0x3c
 800153e:	f5b3 1f80 	cmp.w	r3, #1048576	; 0x100000
 8001542:	d005      	beq.n	8001550 <HAL_RCCEx_PeriphCLKConfig+0x3c4>
 8001544:	02c6      	lsls	r6, r0, #11
 8001546:	d548      	bpl.n	80015da <HAL_RCCEx_PeriphCLKConfig+0x44e>
 8001548:	6c23      	ldr	r3, [r4, #64]	; 0x40
 800154a:	f5b3 0f80 	cmp.w	r3, #4194304	; 0x400000
 800154e:	d144      	bne.n	80015da <HAL_RCCEx_PeriphCLKConfig+0x44e>
 8001550:	4ebb      	ldr	r6, [pc, #748]	; (8001840 <HAL_RCCEx_PeriphCLKConfig+0x6b4>)
 8001552:	f44f 3c40 	mov.w	ip, #196608	; 0x30000
 8001556:	f8d6 2084 	ldr.w	r2, [r6, #132]	; 0x84
 800155a:	fa9c f8ac 	rbit	r8, ip
 800155e:	f04f 41e0 	mov.w	r1, #1879048192	; 0x70000000
 8001562:	fab8 f888 	clz	r8, r8
 8001566:	f8d6 3084 	ldr.w	r3, [r6, #132]	; 0x84
 800156a:	fa91 fea1 	rbit	lr, r1
 800156e:	f647 79c0 	movw	r9, #32704	; 0x7fc0
 8001572:	fabe fe8e 	clz	lr, lr
 8001576:	fa99 f9a9 	rbit	r9, r9
 800157a:	fab9 f989 	clz	r9, r9
 800157e:	fa9c fcac 	rbit	ip, ip
 8001582:	f04f 6a70 	mov.w	sl, #251658240	; 0xf000000
 8001586:	fabc fc8c 	clz	ip, ip
 800158a:	fa9a faaa 	rbit	sl, sl
 800158e:	faba fa8a 	clz	sl, sl
 8001592:	fa91 f1a1 	rbit	r1, r1
 8001596:	68e7      	ldr	r7, [r4, #12]
 8001598:	fab1 f181 	clz	r1, r1
 800159c:	fa07 fa0a 	lsl.w	sl, r7, sl
 80015a0:	6867      	ldr	r7, [r4, #4]
 80015a2:	f402 3240 	and.w	r2, r2, #196608	; 0x30000
 80015a6:	fa07 f909 	lsl.w	r9, r7, r9
 80015aa:	fa22 f208 	lsr.w	r2, r2, r8
 80015ae:	f003 43e0 	and.w	r3, r3, #1879048192	; 0x70000000
 80015b2:	ea4a 0709 	orr.w	r7, sl, r9
 80015b6:	fa02 f20c 	lsl.w	r2, r2, ip
 80015ba:	fa23 f30e 	lsr.w	r3, r3, lr
 80015be:	433a      	orrs	r2, r7
 80015c0:	408b      	lsls	r3, r1
 80015c2:	4313      	orrs	r3, r2
 80015c4:	f8c6 3084 	str.w	r3, [r6, #132]	; 0x84
 80015c8:	f8d6 308c 	ldr.w	r3, [r6, #140]	; 0x8c
 80015cc:	6a62      	ldr	r2, [r4, #36]	; 0x24
 80015ce:	f023 031f 	bic.w	r3, r3, #31
 80015d2:	3a01      	subs	r2, #1
 80015d4:	4313      	orrs	r3, r2
 80015d6:	f8c6 308c 	str.w	r3, [r6, #140]	; 0x8c
 80015da:	01c1      	lsls	r1, r0, #7
 80015dc:	d53b      	bpl.n	8001656 <HAL_RCCEx_PeriphCLKConfig+0x4ca>
 80015de:	4e98      	ldr	r6, [pc, #608]	; (8001840 <HAL_RCCEx_PeriphCLKConfig+0x6b4>)
 80015e0:	f04f 6c70 	mov.w	ip, #251658240	; 0xf000000
 80015e4:	f8d6 2084 	ldr.w	r2, [r6, #132]	; 0x84
 80015e8:	fa9c f8ac 	rbit	r8, ip
 80015ec:	f04f 41e0 	mov.w	r1, #1879048192	; 0x70000000
 80015f0:	fab8 f888 	clz	r8, r8
 80015f4:	f8d6 3084 	ldr.w	r3, [r6, #132]	; 0x84
 80015f8:	fa91 fea1 	rbit	lr, r1
 80015fc:	f647 79c0 	movw	r9, #32704	; 0x7fc0
 8001600:	fabe fe8e 	clz	lr, lr
 8001604:	fa99 f9a9 	rbit	r9, r9
 8001608:	f44f 3a40 	mov.w	sl, #196608	; 0x30000
 800160c:	fab9 f989 	clz	r9, r9
 8001610:	fa9a faaa 	rbit	sl, sl
 8001614:	faba fa8a 	clz	sl, sl
 8001618:	fa9c fcac 	rbit	ip, ip
 800161c:	fabc fc8c 	clz	ip, ip
 8001620:	fa91 f1a1 	rbit	r1, r1
 8001624:	6927      	ldr	r7, [r4, #16]
 8001626:	fab1 f181 	clz	r1, r1
 800162a:	fa07 fa0a 	lsl.w	sl, r7, sl
 800162e:	6867      	ldr	r7, [r4, #4]
 8001630:	f002 6270 	and.w	r2, r2, #251658240	; 0xf000000
 8001634:	fa07 f909 	lsl.w	r9, r7, r9
 8001638:	fa22 f208 	lsr.w	r2, r2, r8
 800163c:	f003 43e0 	and.w	r3, r3, #1879048192	; 0x70000000
 8001640:	ea4a 0709 	orr.w	r7, sl, r9
 8001644:	fa02 f20c 	lsl.w	r2, r2, ip
 8001648:	fa23 f30e 	lsr.w	r3, r3, lr
 800164c:	433a      	orrs	r2, r7
 800164e:	408b      	lsls	r3, r1
 8001650:	4313      	orrs	r3, r2
 8001652:	f8c6 3084 	str.w	r3, [r6, #132]	; 0x84
 8001656:	0182      	lsls	r2, r0, #6
 8001658:	d526      	bpl.n	80016a8 <HAL_RCCEx_PeriphCLKConfig+0x51c>
 800165a:	f647 76c0 	movw	r6, #32704	; 0x7fc0
 800165e:	fa96 f6a6 	rbit	r6, r6
 8001662:	f44f 3740 	mov.w	r7, #196608	; 0x30000
 8001666:	fab6 f686 	clz	r6, r6
 800166a:	fa97 f7a7 	rbit	r7, r7
 800166e:	f04f 6070 	mov.w	r0, #251658240	; 0xf000000
 8001672:	fab7 f787 	clz	r7, r7
 8001676:	fa90 f0a0 	rbit	r0, r0
 800167a:	f04f 41e0 	mov.w	r1, #1879048192	; 0x70000000
 800167e:	fab0 f080 	clz	r0, r0
 8001682:	fa91 f1a1 	rbit	r1, r1
 8001686:	6922      	ldr	r2, [r4, #16]
 8001688:	fab1 f181 	clz	r1, r1
 800168c:	fa02 f307 	lsl.w	r3, r2, r7
 8001690:	6862      	ldr	r2, [r4, #4]
 8001692:	40b2      	lsls	r2, r6
 8001694:	431a      	orrs	r2, r3
 8001696:	68e3      	ldr	r3, [r4, #12]
 8001698:	4083      	lsls	r3, r0
 800169a:	431a      	orrs	r2, r3
 800169c:	68a3      	ldr	r3, [r4, #8]
 800169e:	408b      	lsls	r3, r1
 80016a0:	4313      	orrs	r3, r2
 80016a2:	4a67      	ldr	r2, [pc, #412]	; (8001840 <HAL_RCCEx_PeriphCLKConfig+0x6b4>)
 80016a4:	f8c2 3084 	str.w	r3, [r2, #132]	; 0x84
 80016a8:	4a65      	ldr	r2, [pc, #404]	; (8001840 <HAL_RCCEx_PeriphCLKConfig+0x6b4>)
 80016aa:	6813      	ldr	r3, [r2, #0]
 80016ac:	f043 6380 	orr.w	r3, r3, #67108864	; 0x4000000
 80016b0:	6013      	str	r3, [r2, #0]
 80016b2:	f7fe ffa1 	bl	80005f8 <HAL_GetTick>
 80016b6:	4606      	mov	r6, r0
 80016b8:	4b61      	ldr	r3, [pc, #388]	; (8001840 <HAL_RCCEx_PeriphCLKConfig+0x6b4>)
 80016ba:	681b      	ldr	r3, [r3, #0]
 80016bc:	011b      	lsls	r3, r3, #4
 80016be:	f53f aee3 	bmi.w	8001488 <HAL_RCCEx_PeriphCLKConfig+0x2fc>
 80016c2:	f7fe ff99 	bl	80005f8 <HAL_GetTick>
 80016c6:	1b80      	subs	r0, r0, r6
 80016c8:	2864      	cmp	r0, #100	; 0x64
 80016ca:	d9f5      	bls.n	80016b8 <HAL_RCCEx_PeriphCLKConfig+0x52c>
 80016cc:	e5bb      	b.n	8001246 <HAL_RCCEx_PeriphCLKConfig+0xba>
 80016ce:	4a5c      	ldr	r2, [pc, #368]	; (8001840 <HAL_RCCEx_PeriphCLKConfig+0x6b4>)
 80016d0:	6813      	ldr	r3, [r2, #0]
 80016d2:	f023 5380 	bic.w	r3, r3, #268435456	; 0x10000000
 80016d6:	6013      	str	r3, [r2, #0]
 80016d8:	f7fe ff8e 	bl	80005f8 <HAL_GetTick>
 80016dc:	4605      	mov	r5, r0
 80016de:	4b58      	ldr	r3, [pc, #352]	; (8001840 <HAL_RCCEx_PeriphCLKConfig+0x6b4>)
 80016e0:	681b      	ldr	r3, [r3, #0]
 80016e2:	009f      	lsls	r7, r3, #2
 80016e4:	d45a      	bmi.n	800179c <HAL_RCCEx_PeriphCLKConfig+0x610>
 80016e6:	6821      	ldr	r1, [r4, #0]
 80016e8:	030e      	lsls	r6, r1, #12
 80016ea:	d45d      	bmi.n	80017a8 <HAL_RCCEx_PeriphCLKConfig+0x61c>
 80016ec:	02cd      	lsls	r5, r1, #11
 80016ee:	d45e      	bmi.n	80017ae <HAL_RCCEx_PeriphCLKConfig+0x622>
 80016f0:	0288      	lsls	r0, r1, #10
 80016f2:	f100 80a7 	bmi.w	8001844 <HAL_RCCEx_PeriphCLKConfig+0x6b8>
 80016f6:	070a      	lsls	r2, r1, #28
 80016f8:	d541      	bpl.n	800177e <HAL_RCCEx_PeriphCLKConfig+0x5f2>
 80016fa:	4d51      	ldr	r5, [pc, #324]	; (8001840 <HAL_RCCEx_PeriphCLKConfig+0x6b4>)
 80016fc:	f04f 6170 	mov.w	r1, #251658240	; 0xf000000
 8001700:	f8d5 3088 	ldr.w	r3, [r5, #136]	; 0x88
 8001704:	fa91 f7a1 	rbit	r7, r1
 8001708:	f44f 3040 	mov.w	r0, #196608	; 0x30000
 800170c:	fab7 f787 	clz	r7, r7
 8001710:	f8d5 2088 	ldr.w	r2, [r5, #136]	; 0x88
 8001714:	fa90 fca0 	rbit	ip, r0
 8001718:	f647 7ec0 	movw	lr, #32704	; 0x7fc0
 800171c:	fabc fc8c 	clz	ip, ip
 8001720:	fa9e feae 	rbit	lr, lr
 8001724:	fabe fe8e 	clz	lr, lr
 8001728:	fa90 f0a0 	rbit	r0, r0
 800172c:	fab0 f080 	clz	r0, r0
 8001730:	fa91 f1a1 	rbit	r1, r1
 8001734:	f04f 48e0 	mov.w	r8, #1879048192	; 0x70000000
 8001738:	fab1 f181 	clz	r1, r1
 800173c:	fa98 f8a8 	rbit	r8, r8
 8001740:	69e6      	ldr	r6, [r4, #28]
 8001742:	fab8 f888 	clz	r8, r8
 8001746:	fa06 f808 	lsl.w	r8, r6, r8
 800174a:	6966      	ldr	r6, [r4, #20]
 800174c:	f402 3240 	and.w	r2, r2, #196608	; 0x30000
 8001750:	fa06 f60e 	lsl.w	r6, r6, lr
 8001754:	fa22 f20c 	lsr.w	r2, r2, ip
 8001758:	f003 6370 	and.w	r3, r3, #251658240	; 0xf000000
 800175c:	ea48 0606 	orr.w	r6, r8, r6
 8001760:	4082      	lsls	r2, r0
 8001762:	40fb      	lsrs	r3, r7
 8001764:	4332      	orrs	r2, r6
 8001766:	408b      	lsls	r3, r1
 8001768:	4313      	orrs	r3, r2
 800176a:	f8c5 3088 	str.w	r3, [r5, #136]	; 0x88
 800176e:	f8d5 308c 	ldr.w	r3, [r5, #140]	; 0x8c
 8001772:	f423 3240 	bic.w	r2, r3, #196608	; 0x30000
 8001776:	6ae3      	ldr	r3, [r4, #44]	; 0x2c
 8001778:	4313      	orrs	r3, r2
 800177a:	f8c5 308c 	str.w	r3, [r5, #140]	; 0x8c
 800177e:	4a30      	ldr	r2, [pc, #192]	; (8001840 <HAL_RCCEx_PeriphCLKConfig+0x6b4>)
 8001780:	6813      	ldr	r3, [r2, #0]
 8001782:	f043 5380 	orr.w	r3, r3, #268435456	; 0x10000000
 8001786:	6013      	str	r3, [r2, #0]
 8001788:	f7fe ff36 	bl	80005f8 <HAL_GetTick>
 800178c:	4604      	mov	r4, r0
 800178e:	4b2c      	ldr	r3, [pc, #176]	; (8001840 <HAL_RCCEx_PeriphCLKConfig+0x6b4>)
 8001790:	681b      	ldr	r3, [r3, #0]
 8001792:	009b      	lsls	r3, r3, #2
 8001794:	f140 8097 	bpl.w	80018c6 <HAL_RCCEx_PeriphCLKConfig+0x73a>
 8001798:	2000      	movs	r0, #0
 800179a:	e09b      	b.n	80018d4 <HAL_RCCEx_PeriphCLKConfig+0x748>
 800179c:	f7fe ff2c 	bl	80005f8 <HAL_GetTick>
 80017a0:	1b40      	subs	r0, r0, r5
 80017a2:	2864      	cmp	r0, #100	; 0x64
 80017a4:	d99b      	bls.n	80016de <HAL_RCCEx_PeriphCLKConfig+0x552>
 80017a6:	e54e      	b.n	8001246 <HAL_RCCEx_PeriphCLKConfig+0xba>
 80017a8:	6be3      	ldr	r3, [r4, #60]	; 0x3c
 80017aa:	b11b      	cbz	r3, 80017b4 <HAL_RCCEx_PeriphCLKConfig+0x628>
 80017ac:	e79e      	b.n	80016ec <HAL_RCCEx_PeriphCLKConfig+0x560>
 80017ae:	6c23      	ldr	r3, [r4, #64]	; 0x40
 80017b0:	2b00      	cmp	r3, #0
 80017b2:	d19d      	bne.n	80016f0 <HAL_RCCEx_PeriphCLKConfig+0x564>
 80017b4:	4d22      	ldr	r5, [pc, #136]	; (8001840 <HAL_RCCEx_PeriphCLKConfig+0x6b4>)
 80017b6:	f44f 3e40 	mov.w	lr, #196608	; 0x30000
 80017ba:	f8d5 2088 	ldr.w	r2, [r5, #136]	; 0x88
 80017be:	fa9e f8ae 	rbit	r8, lr
 80017c2:	f04f 40e0 	mov.w	r0, #1879048192	; 0x70000000
 80017c6:	fab8 f888 	clz	r8, r8
 80017ca:	f8d5 3088 	ldr.w	r3, [r5, #136]	; 0x88
 80017ce:	fa90 f7a0 	rbit	r7, r0
 80017d2:	f647 7cc0 	movw	ip, #32704	; 0x7fc0
 80017d6:	fab7 f787 	clz	r7, r7
 80017da:	fa9c fcac 	rbit	ip, ip
 80017de:	fabc fc8c 	clz	ip, ip
 80017e2:	fa9e feae 	rbit	lr, lr
 80017e6:	f04f 6970 	mov.w	r9, #251658240	; 0xf000000
 80017ea:	fabe fe8e 	clz	lr, lr
 80017ee:	fa99 f9a9 	rbit	r9, r9
 80017f2:	fab9 f989 	clz	r9, r9
 80017f6:	fa90 f0a0 	rbit	r0, r0
 80017fa:	69a6      	ldr	r6, [r4, #24]
 80017fc:	fab0 f080 	clz	r0, r0
 8001800:	fa06 f909 	lsl.w	r9, r6, r9
 8001804:	6966      	ldr	r6, [r4, #20]
 8001806:	f402 3240 	and.w	r2, r2, #196608	; 0x30000
 800180a:	fa06 fc0c 	lsl.w	ip, r6, ip
 800180e:	fa22 f208 	lsr.w	r2, r2, r8
 8001812:	f003 43e0 	and.w	r3, r3, #1879048192	; 0x70000000
 8001816:	ea49 060c 	orr.w	r6, r9, ip
 800181a:	fa02 f20e 	lsl.w	r2, r2, lr
 800181e:	40fb      	lsrs	r3, r7
 8001820:	4332      	orrs	r2, r6
 8001822:	4083      	lsls	r3, r0
 8001824:	4313      	orrs	r3, r2
 8001826:	f8c5 3088 	str.w	r3, [r5, #136]	; 0x88
 800182a:	f8d5 308c 	ldr.w	r3, [r5, #140]	; 0x8c
 800182e:	6aa2      	ldr	r2, [r4, #40]	; 0x28
 8001830:	f423 53f8 	bic.w	r3, r3, #7936	; 0x1f00
 8001834:	3a01      	subs	r2, #1
 8001836:	ea43 2302 	orr.w	r3, r3, r2, lsl #8
 800183a:	f8c5 308c 	str.w	r3, [r5, #140]	; 0x8c
 800183e:	e757      	b.n	80016f0 <HAL_RCCEx_PeriphCLKConfig+0x564>
 8001840:	40023800 	andmi	r3, r2, r0, lsl #16
 8001844:	6fe3      	ldr	r3, [r4, #124]	; 0x7c
 8001846:	f1b3 6f00 	cmp.w	r3, #134217728	; 0x8000000
 800184a:	f47f af54 	bne.w	80016f6 <HAL_RCCEx_PeriphCLKConfig+0x56a>
 800184e:	4d23      	ldr	r5, [pc, #140]	; (80018dc <HAL_RCCEx_PeriphCLKConfig+0x750>)
 8001850:	f04f 6e70 	mov.w	lr, #251658240	; 0xf000000
 8001854:	f8d5 2088 	ldr.w	r2, [r5, #136]	; 0x88
 8001858:	fa9e f8ae 	rbit	r8, lr
 800185c:	f04f 40e0 	mov.w	r0, #1879048192	; 0x70000000
 8001860:	fab8 f888 	clz	r8, r8
 8001864:	f8d5 3088 	ldr.w	r3, [r5, #136]	; 0x88
 8001868:	fa90 f7a0 	rbit	r7, r0
 800186c:	f647 7cc0 	movw	ip, #32704	; 0x7fc0
 8001870:	fab7 f787 	clz	r7, r7
 8001874:	fa9c fcac 	rbit	ip, ip
 8001878:	f44f 3940 	mov.w	r9, #196608	; 0x30000
 800187c:	fabc fc8c 	clz	ip, ip
 8001880:	fa99 f9a9 	rbit	r9, r9
 8001884:	fab9 f989 	clz	r9, r9
 8001888:	fa9e feae 	rbit	lr, lr
 800188c:	fabe fe8e 	clz	lr, lr
 8001890:	fa90 f0a0 	rbit	r0, r0
 8001894:	6a26      	ldr	r6, [r4, #32]
 8001896:	fab0 f080 	clz	r0, r0
 800189a:	fa06 f909 	lsl.w	r9, r6, r9
 800189e:	6966      	ldr	r6, [r4, #20]
 80018a0:	f002 6270 	and.w	r2, r2, #251658240	; 0xf000000
 80018a4:	fa06 fc0c 	lsl.w	ip, r6, ip
 80018a8:	fa22 f208 	lsr.w	r2, r2, r8
 80018ac:	f003 43e0 	and.w	r3, r3, #1879048192	; 0x70000000
 80018b0:	ea49 060c 	orr.w	r6, r9, ip
 80018b4:	fa02 f20e 	lsl.w	r2, r2, lr
 80018b8:	40fb      	lsrs	r3, r7
 80018ba:	4332      	orrs	r2, r6
 80018bc:	4083      	lsls	r3, r0
 80018be:	4313      	orrs	r3, r2
 80018c0:	f8c5 3088 	str.w	r3, [r5, #136]	; 0x88
 80018c4:	e717      	b.n	80016f6 <HAL_RCCEx_PeriphCLKConfig+0x56a>
 80018c6:	f7fe fe97 	bl	80005f8 <HAL_GetTick>
 80018ca:	1b00      	subs	r0, r0, r4
 80018cc:	2864      	cmp	r0, #100	; 0x64
 80018ce:	f67f af5e 	bls.w	800178e <HAL_RCCEx_PeriphCLKConfig+0x602>
 80018d2:	e4b8      	b.n	8001246 <HAL_RCCEx_PeriphCLKConfig+0xba>
 80018d4:	b002      	add	sp, #8
 80018d6:	e8bd 87f0 	ldmia.w	sp!, {r4, r5, r6, r7, r8, r9, sl, pc}
 80018da:	bf00      	nop
 80018dc:	40023800 	andmi	r3, r2, r0, lsl #16

080018e0 <HAL_TIM_Base_MspInit>:
 80018e0:	4770      	bx	lr

080018e2 <HAL_TIM_Base_Start_IT>:
 80018e2:	6803      	ldr	r3, [r0, #0]
 80018e4:	68da      	ldr	r2, [r3, #12]
 80018e6:	f042 0201 	orr.w	r2, r2, #1
 80018ea:	60da      	str	r2, [r3, #12]
 80018ec:	681a      	ldr	r2, [r3, #0]
 80018ee:	f042 0201 	orr.w	r2, r2, #1
 80018f2:	601a      	str	r2, [r3, #0]
 80018f4:	2000      	movs	r0, #0
 80018f6:	4770      	bx	lr

080018f8 <TIM_Base_SetConfig>:
 80018f8:	4a2e      	ldr	r2, [pc, #184]	; (80019b4 <TIM_Base_SetConfig+0xbc>)
 80018fa:	6803      	ldr	r3, [r0, #0]
 80018fc:	4290      	cmp	r0, r2
 80018fe:	d012      	beq.n	8001926 <TIM_Base_SetConfig+0x2e>
 8001900:	f1b0 4f80 	cmp.w	r0, #1073741824	; 0x40000000
 8001904:	d00f      	beq.n	8001926 <TIM_Base_SetConfig+0x2e>
 8001906:	f5a2 427c 	sub.w	r2, r2, #64512	; 0xfc00
 800190a:	4290      	cmp	r0, r2
 800190c:	d00b      	beq.n	8001926 <TIM_Base_SetConfig+0x2e>
 800190e:	f502 6280 	add.w	r2, r2, #1024	; 0x400
 8001912:	4290      	cmp	r0, r2
 8001914:	d007      	beq.n	8001926 <TIM_Base_SetConfig+0x2e>
 8001916:	f502 6280 	add.w	r2, r2, #1024	; 0x400
 800191a:	4290      	cmp	r0, r2
 800191c:	d003      	beq.n	8001926 <TIM_Base_SetConfig+0x2e>
 800191e:	f502 4278 	add.w	r2, r2, #63488	; 0xf800
 8001922:	4290      	cmp	r0, r2
 8001924:	d118      	bne.n	8001958 <TIM_Base_SetConfig+0x60>
 8001926:	684a      	ldr	r2, [r1, #4]
 8001928:	f023 0370 	bic.w	r3, r3, #112	; 0x70
 800192c:	4313      	orrs	r3, r2
 800192e:	4a21      	ldr	r2, [pc, #132]	; (80019b4 <TIM_Base_SetConfig+0xbc>)
 8001930:	4290      	cmp	r0, r2
 8001932:	d037      	beq.n	80019a4 <TIM_Base_SetConfig+0xac>
 8001934:	f1b0 4f80 	cmp.w	r0, #1073741824	; 0x40000000
 8001938:	d034      	beq.n	80019a4 <TIM_Base_SetConfig+0xac>
 800193a:	4a1f      	ldr	r2, [pc, #124]	; (80019b8 <TIM_Base_SetConfig+0xc0>)
 800193c:	4290      	cmp	r0, r2
 800193e:	d031      	beq.n	80019a4 <TIM_Base_SetConfig+0xac>
 8001940:	f502 6280 	add.w	r2, r2, #1024	; 0x400
 8001944:	4290      	cmp	r0, r2
 8001946:	d02d      	beq.n	80019a4 <TIM_Base_SetConfig+0xac>
 8001948:	f502 6280 	add.w	r2, r2, #1024	; 0x400
 800194c:	4290      	cmp	r0, r2
 800194e:	d029      	beq.n	80019a4 <TIM_Base_SetConfig+0xac>
 8001950:	f502 4278 	add.w	r2, r2, #63488	; 0xf800
 8001954:	4290      	cmp	r0, r2
 8001956:	d025      	beq.n	80019a4 <TIM_Base_SetConfig+0xac>
 8001958:	4a18      	ldr	r2, [pc, #96]	; (80019bc <TIM_Base_SetConfig+0xc4>)
 800195a:	4290      	cmp	r0, r2
 800195c:	d022      	beq.n	80019a4 <TIM_Base_SetConfig+0xac>
 800195e:	f502 6280 	add.w	r2, r2, #1024	; 0x400
 8001962:	4290      	cmp	r0, r2
 8001964:	d01e      	beq.n	80019a4 <TIM_Base_SetConfig+0xac>
 8001966:	f502 6280 	add.w	r2, r2, #1024	; 0x400
 800196a:	4290      	cmp	r0, r2
 800196c:	d01a      	beq.n	80019a4 <TIM_Base_SetConfig+0xac>
 800196e:	f5a2 3298 	sub.w	r2, r2, #77824	; 0x13000
 8001972:	4290      	cmp	r0, r2
 8001974:	d016      	beq.n	80019a4 <TIM_Base_SetConfig+0xac>
 8001976:	f502 6280 	add.w	r2, r2, #1024	; 0x400
 800197a:	4290      	cmp	r0, r2
 800197c:	d012      	beq.n	80019a4 <TIM_Base_SetConfig+0xac>
 800197e:	f502 6280 	add.w	r2, r2, #1024	; 0x400
 8001982:	4290      	cmp	r0, r2
 8001984:	d00e      	beq.n	80019a4 <TIM_Base_SetConfig+0xac>
 8001986:	6003      	str	r3, [r0, #0]
 8001988:	688b      	ldr	r3, [r1, #8]
 800198a:	62c3      	str	r3, [r0, #44]	; 0x2c
 800198c:	680b      	ldr	r3, [r1, #0]
 800198e:	6283      	str	r3, [r0, #40]	; 0x28
 8001990:	4b08      	ldr	r3, [pc, #32]	; (80019b4 <TIM_Base_SetConfig+0xbc>)
 8001992:	4298      	cmp	r0, r3
 8001994:	d00b      	beq.n	80019ae <TIM_Base_SetConfig+0xb6>
 8001996:	f503 6380 	add.w	r3, r3, #1024	; 0x400
 800199a:	4298      	cmp	r0, r3
 800199c:	d007      	beq.n	80019ae <TIM_Base_SetConfig+0xb6>
 800199e:	2301      	movs	r3, #1
 80019a0:	6143      	str	r3, [r0, #20]
 80019a2:	4770      	bx	lr
 80019a4:	68ca      	ldr	r2, [r1, #12]
 80019a6:	f423 7340 	bic.w	r3, r3, #768	; 0x300
 80019aa:	4313      	orrs	r3, r2
 80019ac:	e7eb      	b.n	8001986 <TIM_Base_SetConfig+0x8e>
 80019ae:	690b      	ldr	r3, [r1, #16]
 80019b0:	6303      	str	r3, [r0, #48]	; 0x30
 80019b2:	e7f4      	b.n	800199e <TIM_Base_SetConfig+0xa6>
 80019b4:	40010000 	andmi	r0, r1, r0
 80019b8:	40000400 	andmi	r0, r0, r0, lsl #8
 80019bc:	40014000 	andmi	r4, r1, r0

080019c0 <HAL_TIM_Base_Init>:
 80019c0:	b510      	push	{r4, lr}
 80019c2:	4604      	mov	r4, r0
 80019c4:	b180      	cbz	r0, 80019e8 <HAL_TIM_Base_Init+0x28>
 80019c6:	f890 3039 	ldrb.w	r3, [r0, #57]	; 0x39
 80019ca:	b90b      	cbnz	r3, 80019d0 <HAL_TIM_Base_Init+0x10>
 80019cc:	f7ff ff88 	bl	80018e0 <HAL_TIM_Base_MspInit>
 80019d0:	2302      	movs	r3, #2
 80019d2:	f884 3039 	strb.w	r3, [r4, #57]	; 0x39
 80019d6:	6820      	ldr	r0, [r4, #0]
 80019d8:	1d21      	adds	r1, r4, #4
 80019da:	f7ff ff8d 	bl	80018f8 <TIM_Base_SetConfig>
 80019de:	2301      	movs	r3, #1
 80019e0:	f884 3039 	strb.w	r3, [r4, #57]	; 0x39
 80019e4:	2000      	movs	r0, #0
 80019e6:	bd10      	pop	{r4, pc}
 80019e8:	2001      	movs	r0, #1
 80019ea:	bd10      	pop	{r4, pc}

080019ec <HAL_RCC_OscConfig>:
 80019ec:	6803      	ldr	r3, [r0, #0]
 80019ee:	b573      	push	{r0, r1, r4, r5, r6, lr}
 80019f0:	07de      	lsls	r6, r3, #31
 80019f2:	4604      	mov	r4, r0
 80019f4:	d403      	bmi.n	80019fe <HAL_RCC_OscConfig+0x12>
 80019f6:	6823      	ldr	r3, [r4, #0]
 80019f8:	079d      	lsls	r5, r3, #30
 80019fa:	d470      	bmi.n	8001ade <HAL_RCC_OscConfig+0xf2>
 80019fc:	e0c2      	b.n	8001b84 <HAL_RCC_OscConfig+0x198>
 80019fe:	4ba4      	ldr	r3, [pc, #656]	; (8001c90 <HAL_RCC_OscConfig+0x2a4>)
 8001a00:	689a      	ldr	r2, [r3, #8]
 8001a02:	f002 020c 	and.w	r2, r2, #12
 8001a06:	2a04      	cmp	r2, #4
 8001a08:	d007      	beq.n	8001a1a <HAL_RCC_OscConfig+0x2e>
 8001a0a:	689a      	ldr	r2, [r3, #8]
 8001a0c:	f002 020c 	and.w	r2, r2, #12
 8001a10:	2a08      	cmp	r2, #8
 8001a12:	d10b      	bne.n	8001a2c <HAL_RCC_OscConfig+0x40>
 8001a14:	685b      	ldr	r3, [r3, #4]
 8001a16:	0258      	lsls	r0, r3, #9
 8001a18:	d508      	bpl.n	8001a2c <HAL_RCC_OscConfig+0x40>
 8001a1a:	4b9d      	ldr	r3, [pc, #628]	; (8001c90 <HAL_RCC_OscConfig+0x2a4>)
 8001a1c:	681b      	ldr	r3, [r3, #0]
 8001a1e:	0399      	lsls	r1, r3, #14
 8001a20:	d5e9      	bpl.n	80019f6 <HAL_RCC_OscConfig+0xa>
 8001a22:	6863      	ldr	r3, [r4, #4]
 8001a24:	2b00      	cmp	r3, #0
 8001a26:	d1e6      	bne.n	80019f6 <HAL_RCC_OscConfig+0xa>
 8001a28:	2001      	movs	r0, #1
 8001a2a:	e1b3      	b.n	8001d94 <HAL_RCC_OscConfig+0x3a8>
 8001a2c:	4b98      	ldr	r3, [pc, #608]	; (8001c90 <HAL_RCC_OscConfig+0x2a4>)
 8001a2e:	681a      	ldr	r2, [r3, #0]
 8001a30:	f422 3280 	bic.w	r2, r2, #65536	; 0x10000
 8001a34:	601a      	str	r2, [r3, #0]
 8001a36:	681a      	ldr	r2, [r3, #0]
 8001a38:	f422 2280 	bic.w	r2, r2, #262144	; 0x40000
 8001a3c:	601a      	str	r2, [r3, #0]
 8001a3e:	681a      	ldr	r2, [r3, #0]
 8001a40:	f422 3280 	bic.w	r2, r2, #65536	; 0x10000
 8001a44:	601a      	str	r2, [r3, #0]
 8001a46:	f7fe fdd7 	bl	80005f8 <HAL_GetTick>
 8001a4a:	4605      	mov	r5, r0
 8001a4c:	4b90      	ldr	r3, [pc, #576]	; (8001c90 <HAL_RCC_OscConfig+0x2a4>)
 8001a4e:	681a      	ldr	r2, [r3, #0]
 8001a50:	0392      	lsls	r2, r2, #14
 8001a52:	d507      	bpl.n	8001a64 <HAL_RCC_OscConfig+0x78>
 8001a54:	f7fe fdd0 	bl	80005f8 <HAL_GetTick>
 8001a58:	1b40      	subs	r0, r0, r5
 8001a5a:	f5b0 7ffa 	cmp.w	r0, #500	; 0x1f4
 8001a5e:	d9f5      	bls.n	8001a4c <HAL_RCC_OscConfig+0x60>
 8001a60:	2003      	movs	r0, #3
 8001a62:	e197      	b.n	8001d94 <HAL_RCC_OscConfig+0x3a8>
 8001a64:	681a      	ldr	r2, [r3, #0]
 8001a66:	f422 3280 	bic.w	r2, r2, #65536	; 0x10000
 8001a6a:	601a      	str	r2, [r3, #0]
 8001a6c:	6862      	ldr	r2, [r4, #4]
 8001a6e:	f5b2 3f80 	cmp.w	r2, #65536	; 0x10000
 8001a72:	d103      	bne.n	8001a7c <HAL_RCC_OscConfig+0x90>
 8001a74:	681a      	ldr	r2, [r3, #0]
 8001a76:	f422 2280 	bic.w	r2, r2, #262144	; 0x40000
 8001a7a:	e005      	b.n	8001a88 <HAL_RCC_OscConfig+0x9c>
 8001a7c:	f5b2 2fa0 	cmp.w	r2, #327680	; 0x50000
 8001a80:	d108      	bne.n	8001a94 <HAL_RCC_OscConfig+0xa8>
 8001a82:	681a      	ldr	r2, [r3, #0]
 8001a84:	f442 2280 	orr.w	r2, r2, #262144	; 0x40000
 8001a88:	601a      	str	r2, [r3, #0]
 8001a8a:	681a      	ldr	r2, [r3, #0]
 8001a8c:	f442 3280 	orr.w	r2, r2, #65536	; 0x10000
 8001a90:	601a      	str	r2, [r3, #0]
 8001a92:	e008      	b.n	8001aa6 <HAL_RCC_OscConfig+0xba>
 8001a94:	6819      	ldr	r1, [r3, #0]
 8001a96:	f421 2180 	bic.w	r1, r1, #262144	; 0x40000
 8001a9a:	6019      	str	r1, [r3, #0]
 8001a9c:	6819      	ldr	r1, [r3, #0]
 8001a9e:	f421 3180 	bic.w	r1, r1, #65536	; 0x10000
 8001aa2:	6019      	str	r1, [r3, #0]
 8001aa4:	b16a      	cbz	r2, 8001ac2 <HAL_RCC_OscConfig+0xd6>
 8001aa6:	f7fe fda7 	bl	80005f8 <HAL_GetTick>
 8001aaa:	4605      	mov	r5, r0
 8001aac:	4b78      	ldr	r3, [pc, #480]	; (8001c90 <HAL_RCC_OscConfig+0x2a4>)
 8001aae:	681b      	ldr	r3, [r3, #0]
 8001ab0:	039e      	lsls	r6, r3, #14
 8001ab2:	d4a0      	bmi.n	80019f6 <HAL_RCC_OscConfig+0xa>
 8001ab4:	f7fe fda0 	bl	80005f8 <HAL_GetTick>
 8001ab8:	1b40      	subs	r0, r0, r5
 8001aba:	f5b0 7ffa 	cmp.w	r0, #500	; 0x1f4
 8001abe:	d9f5      	bls.n	8001aac <HAL_RCC_OscConfig+0xc0>
 8001ac0:	e7ce      	b.n	8001a60 <HAL_RCC_OscConfig+0x74>
 8001ac2:	f7fe fd99 	bl	80005f8 <HAL_GetTick>
 8001ac6:	4605      	mov	r5, r0
 8001ac8:	4b71      	ldr	r3, [pc, #452]	; (8001c90 <HAL_RCC_OscConfig+0x2a4>)
 8001aca:	681b      	ldr	r3, [r3, #0]
 8001acc:	0398      	lsls	r0, r3, #14
 8001ace:	d592      	bpl.n	80019f6 <HAL_RCC_OscConfig+0xa>
 8001ad0:	f7fe fd92 	bl	80005f8 <HAL_GetTick>
 8001ad4:	1b40      	subs	r0, r0, r5
 8001ad6:	f5b0 7ffa 	cmp.w	r0, #500	; 0x1f4
 8001ada:	d9f5      	bls.n	8001ac8 <HAL_RCC_OscConfig+0xdc>
 8001adc:	e7c0      	b.n	8001a60 <HAL_RCC_OscConfig+0x74>
 8001ade:	4b6c      	ldr	r3, [pc, #432]	; (8001c90 <HAL_RCC_OscConfig+0x2a4>)
 8001ae0:	689a      	ldr	r2, [r3, #8]
 8001ae2:	f012 0f0c 	tst.w	r2, #12
 8001ae6:	d007      	beq.n	8001af8 <HAL_RCC_OscConfig+0x10c>
 8001ae8:	689a      	ldr	r2, [r3, #8]
 8001aea:	f002 020c 	and.w	r2, r2, #12
 8001aee:	2a08      	cmp	r2, #8
 8001af0:	d116      	bne.n	8001b20 <HAL_RCC_OscConfig+0x134>
 8001af2:	685b      	ldr	r3, [r3, #4]
 8001af4:	0259      	lsls	r1, r3, #9
 8001af6:	d413      	bmi.n	8001b20 <HAL_RCC_OscConfig+0x134>
 8001af8:	4b65      	ldr	r3, [pc, #404]	; (8001c90 <HAL_RCC_OscConfig+0x2a4>)
 8001afa:	681a      	ldr	r2, [r3, #0]
 8001afc:	0792      	lsls	r2, r2, #30
 8001afe:	d502      	bpl.n	8001b06 <HAL_RCC_OscConfig+0x11a>
 8001b00:	68e2      	ldr	r2, [r4, #12]
 8001b02:	2a01      	cmp	r2, #1
 8001b04:	d190      	bne.n	8001a28 <HAL_RCC_OscConfig+0x3c>
 8001b06:	6819      	ldr	r1, [r3, #0]
 8001b08:	20f8      	movs	r0, #248	; 0xf8
 8001b0a:	fa90 f0a0 	rbit	r0, r0
 8001b0e:	6922      	ldr	r2, [r4, #16]
 8001b10:	fab0 f080 	clz	r0, r0
 8001b14:	f021 01f8 	bic.w	r1, r1, #248	; 0xf8
 8001b18:	4082      	lsls	r2, r0
 8001b1a:	430a      	orrs	r2, r1
 8001b1c:	601a      	str	r2, [r3, #0]
 8001b1e:	e031      	b.n	8001b84 <HAL_RCC_OscConfig+0x198>
 8001b20:	68e2      	ldr	r2, [r4, #12]
 8001b22:	4b5b      	ldr	r3, [pc, #364]	; (8001c90 <HAL_RCC_OscConfig+0x2a4>)
 8001b24:	b1ea      	cbz	r2, 8001b62 <HAL_RCC_OscConfig+0x176>
 8001b26:	681a      	ldr	r2, [r3, #0]
 8001b28:	f042 0201 	orr.w	r2, r2, #1
 8001b2c:	601a      	str	r2, [r3, #0]
 8001b2e:	f7fe fd63 	bl	80005f8 <HAL_GetTick>
 8001b32:	4605      	mov	r5, r0
 8001b34:	4856      	ldr	r0, [pc, #344]	; (8001c90 <HAL_RCC_OscConfig+0x2a4>)
 8001b36:	6803      	ldr	r3, [r0, #0]
 8001b38:	079e      	lsls	r6, r3, #30
 8001b3a:	d405      	bmi.n	8001b48 <HAL_RCC_OscConfig+0x15c>
 8001b3c:	f7fe fd5c 	bl	80005f8 <HAL_GetTick>
 8001b40:	1b40      	subs	r0, r0, r5
 8001b42:	2864      	cmp	r0, #100	; 0x64
 8001b44:	d9f6      	bls.n	8001b34 <HAL_RCC_OscConfig+0x148>
 8001b46:	e78b      	b.n	8001a60 <HAL_RCC_OscConfig+0x74>
 8001b48:	6802      	ldr	r2, [r0, #0]
 8001b4a:	21f8      	movs	r1, #248	; 0xf8
 8001b4c:	fa91 f1a1 	rbit	r1, r1
 8001b50:	6923      	ldr	r3, [r4, #16]
 8001b52:	fab1 f181 	clz	r1, r1
 8001b56:	f022 02f8 	bic.w	r2, r2, #248	; 0xf8
 8001b5a:	408b      	lsls	r3, r1
 8001b5c:	4313      	orrs	r3, r2
 8001b5e:	6003      	str	r3, [r0, #0]
 8001b60:	e010      	b.n	8001b84 <HAL_RCC_OscConfig+0x198>
 8001b62:	681a      	ldr	r2, [r3, #0]
 8001b64:	f022 0201 	bic.w	r2, r2, #1
 8001b68:	601a      	str	r2, [r3, #0]
 8001b6a:	f7fe fd45 	bl	80005f8 <HAL_GetTick>
 8001b6e:	4605      	mov	r5, r0
 8001b70:	4b47      	ldr	r3, [pc, #284]	; (8001c90 <HAL_RCC_OscConfig+0x2a4>)
 8001b72:	681b      	ldr	r3, [r3, #0]
 8001b74:	0799      	lsls	r1, r3, #30
 8001b76:	d505      	bpl.n	8001b84 <HAL_RCC_OscConfig+0x198>
 8001b78:	f7fe fd3e 	bl	80005f8 <HAL_GetTick>
 8001b7c:	1b40      	subs	r0, r0, r5
 8001b7e:	2864      	cmp	r0, #100	; 0x64
 8001b80:	d9f6      	bls.n	8001b70 <HAL_RCC_OscConfig+0x184>
 8001b82:	e76d      	b.n	8001a60 <HAL_RCC_OscConfig+0x74>
 8001b84:	6823      	ldr	r3, [r4, #0]
 8001b86:	071a      	lsls	r2, r3, #28
 8001b88:	d403      	bmi.n	8001b92 <HAL_RCC_OscConfig+0x1a6>
 8001b8a:	6823      	ldr	r3, [r4, #0]
 8001b8c:	075b      	lsls	r3, r3, #29
 8001b8e:	d567      	bpl.n	8001c60 <HAL_RCC_OscConfig+0x274>
 8001b90:	e024      	b.n	8001bdc <HAL_RCC_OscConfig+0x1f0>
 8001b92:	6962      	ldr	r2, [r4, #20]
 8001b94:	4b3e      	ldr	r3, [pc, #248]	; (8001c90 <HAL_RCC_OscConfig+0x2a4>)
 8001b96:	b182      	cbz	r2, 8001bba <HAL_RCC_OscConfig+0x1ce>
 8001b98:	6f5a      	ldr	r2, [r3, #116]	; 0x74
 8001b9a:	f042 0201 	orr.w	r2, r2, #1
 8001b9e:	675a      	str	r2, [r3, #116]	; 0x74
 8001ba0:	f7fe fd2a 	bl	80005f8 <HAL_GetTick>
 8001ba4:	4605      	mov	r5, r0
 8001ba6:	4b3a      	ldr	r3, [pc, #232]	; (8001c90 <HAL_RCC_OscConfig+0x2a4>)
 8001ba8:	6f5b      	ldr	r3, [r3, #116]	; 0x74
 8001baa:	079e      	lsls	r6, r3, #30
 8001bac:	d4ed      	bmi.n	8001b8a <HAL_RCC_OscConfig+0x19e>
 8001bae:	f7fe fd23 	bl	80005f8 <HAL_GetTick>
 8001bb2:	1b40      	subs	r0, r0, r5
 8001bb4:	2864      	cmp	r0, #100	; 0x64
 8001bb6:	d9f6      	bls.n	8001ba6 <HAL_RCC_OscConfig+0x1ba>
 8001bb8:	e752      	b.n	8001a60 <HAL_RCC_OscConfig+0x74>
 8001bba:	6f5a      	ldr	r2, [r3, #116]	; 0x74
 8001bbc:	f022 0201 	bic.w	r2, r2, #1
 8001bc0:	675a      	str	r2, [r3, #116]	; 0x74
 8001bc2:	f7fe fd19 	bl	80005f8 <HAL_GetTick>
 8001bc6:	4605      	mov	r5, r0
 8001bc8:	4b31      	ldr	r3, [pc, #196]	; (8001c90 <HAL_RCC_OscConfig+0x2a4>)
 8001bca:	6f5b      	ldr	r3, [r3, #116]	; 0x74
 8001bcc:	0798      	lsls	r0, r3, #30
 8001bce:	d5dc      	bpl.n	8001b8a <HAL_RCC_OscConfig+0x19e>
 8001bd0:	f7fe fd12 	bl	80005f8 <HAL_GetTick>
 8001bd4:	1b40      	subs	r0, r0, r5
 8001bd6:	2864      	cmp	r0, #100	; 0x64
 8001bd8:	d9f6      	bls.n	8001bc8 <HAL_RCC_OscConfig+0x1dc>
 8001bda:	e741      	b.n	8001a60 <HAL_RCC_OscConfig+0x74>
 8001bdc:	2300      	movs	r3, #0
 8001bde:	9301      	str	r3, [sp, #4]
 8001be0:	4b2b      	ldr	r3, [pc, #172]	; (8001c90 <HAL_RCC_OscConfig+0x2a4>)
 8001be2:	6c1a      	ldr	r2, [r3, #64]	; 0x40
 8001be4:	f042 5280 	orr.w	r2, r2, #268435456	; 0x10000000
 8001be8:	641a      	str	r2, [r3, #64]	; 0x40
 8001bea:	6c1b      	ldr	r3, [r3, #64]	; 0x40
 8001bec:	4a29      	ldr	r2, [pc, #164]	; (8001c94 <HAL_RCC_OscConfig+0x2a8>)
 8001bee:	f003 5380 	and.w	r3, r3, #268435456	; 0x10000000
 8001bf2:	9301      	str	r3, [sp, #4]
 8001bf4:	9b01      	ldr	r3, [sp, #4]
 8001bf6:	6813      	ldr	r3, [r2, #0]
 8001bf8:	f443 7380 	orr.w	r3, r3, #256	; 0x100
 8001bfc:	6013      	str	r3, [r2, #0]
 8001bfe:	f7fe fcfb 	bl	80005f8 <HAL_GetTick>
 8001c02:	4605      	mov	r5, r0
 8001c04:	4b23      	ldr	r3, [pc, #140]	; (8001c94 <HAL_RCC_OscConfig+0x2a8>)
 8001c06:	681b      	ldr	r3, [r3, #0]
 8001c08:	05d9      	lsls	r1, r3, #23
 8001c0a:	d52d      	bpl.n	8001c68 <HAL_RCC_OscConfig+0x27c>
 8001c0c:	4b20      	ldr	r3, [pc, #128]	; (8001c90 <HAL_RCC_OscConfig+0x2a4>)
 8001c0e:	6f1a      	ldr	r2, [r3, #112]	; 0x70
 8001c10:	f022 0201 	bic.w	r2, r2, #1
 8001c14:	671a      	str	r2, [r3, #112]	; 0x70
 8001c16:	6f1a      	ldr	r2, [r3, #112]	; 0x70
 8001c18:	f022 0204 	bic.w	r2, r2, #4
 8001c1c:	671a      	str	r2, [r3, #112]	; 0x70
 8001c1e:	6f1a      	ldr	r2, [r3, #112]	; 0x70
 8001c20:	f022 0201 	bic.w	r2, r2, #1
 8001c24:	671a      	str	r2, [r3, #112]	; 0x70
 8001c26:	f7fe fce7 	bl	80005f8 <HAL_GetTick>
 8001c2a:	4605      	mov	r5, r0
 8001c2c:	4b18      	ldr	r3, [pc, #96]	; (8001c90 <HAL_RCC_OscConfig+0x2a4>)
 8001c2e:	6f1a      	ldr	r2, [r3, #112]	; 0x70
 8001c30:	0792      	lsls	r2, r2, #30
 8001c32:	d41f      	bmi.n	8001c74 <HAL_RCC_OscConfig+0x288>
 8001c34:	6f1a      	ldr	r2, [r3, #112]	; 0x70
 8001c36:	f022 0201 	bic.w	r2, r2, #1
 8001c3a:	671a      	str	r2, [r3, #112]	; 0x70
 8001c3c:	68a2      	ldr	r2, [r4, #8]
 8001c3e:	2a01      	cmp	r2, #1
 8001c40:	d120      	bne.n	8001c84 <HAL_RCC_OscConfig+0x298>
 8001c42:	6f1a      	ldr	r2, [r3, #112]	; 0x70
 8001c44:	f022 0204 	bic.w	r2, r2, #4
 8001c48:	671a      	str	r2, [r3, #112]	; 0x70
 8001c4a:	6f1a      	ldr	r2, [r3, #112]	; 0x70
 8001c4c:	f042 0201 	orr.w	r2, r2, #1
 8001c50:	671a      	str	r2, [r3, #112]	; 0x70
 8001c52:	f7fe fcd1 	bl	80005f8 <HAL_GetTick>
 8001c56:	4605      	mov	r5, r0
 8001c58:	4b0d      	ldr	r3, [pc, #52]	; (8001c90 <HAL_RCC_OscConfig+0x2a4>)
 8001c5a:	6f1b      	ldr	r3, [r3, #112]	; 0x70
 8001c5c:	079e      	lsls	r6, r3, #30
 8001c5e:	d525      	bpl.n	8001cac <HAL_RCC_OscConfig+0x2c0>
 8001c60:	69a1      	ldr	r1, [r4, #24]
 8001c62:	2900      	cmp	r1, #0
 8001c64:	d139      	bne.n	8001cda <HAL_RCC_OscConfig+0x2ee>
 8001c66:	e07a      	b.n	8001d5e <HAL_RCC_OscConfig+0x372>
 8001c68:	f7fe fcc6 	bl	80005f8 <HAL_GetTick>
 8001c6c:	1b40      	subs	r0, r0, r5
 8001c6e:	2864      	cmp	r0, #100	; 0x64
 8001c70:	d9c8      	bls.n	8001c04 <HAL_RCC_OscConfig+0x218>
 8001c72:	e6f5      	b.n	8001a60 <HAL_RCC_OscConfig+0x74>
 8001c74:	f7fe fcc0 	bl	80005f8 <HAL_GetTick>
 8001c78:	f241 3388 	movw	r3, #5000	; 0x1388
 8001c7c:	1b40      	subs	r0, r0, r5
 8001c7e:	4298      	cmp	r0, r3
 8001c80:	d9d4      	bls.n	8001c2c <HAL_RCC_OscConfig+0x240>
 8001c82:	e6ed      	b.n	8001a60 <HAL_RCC_OscConfig+0x74>
 8001c84:	2a05      	cmp	r2, #5
 8001c86:	d107      	bne.n	8001c98 <HAL_RCC_OscConfig+0x2ac>
 8001c88:	6f1a      	ldr	r2, [r3, #112]	; 0x70
 8001c8a:	f042 0204 	orr.w	r2, r2, #4
 8001c8e:	e7db      	b.n	8001c48 <HAL_RCC_OscConfig+0x25c>
 8001c90:	40023800 	andmi	r3, r2, r0, lsl #16
 8001c94:	40007000 	andmi	r7, r0, r0
 8001c98:	6f19      	ldr	r1, [r3, #112]	; 0x70
 8001c9a:	f021 0104 	bic.w	r1, r1, #4
 8001c9e:	6719      	str	r1, [r3, #112]	; 0x70
 8001ca0:	6f19      	ldr	r1, [r3, #112]	; 0x70
 8001ca2:	f021 0101 	bic.w	r1, r1, #1
 8001ca6:	6719      	str	r1, [r3, #112]	; 0x70
 8001ca8:	b142      	cbz	r2, 8001cbc <HAL_RCC_OscConfig+0x2d0>
 8001caa:	e7d2      	b.n	8001c52 <HAL_RCC_OscConfig+0x266>
 8001cac:	f7fe fca4 	bl	80005f8 <HAL_GetTick>
 8001cb0:	f241 3388 	movw	r3, #5000	; 0x1388
 8001cb4:	1b40      	subs	r0, r0, r5
 8001cb6:	4298      	cmp	r0, r3
 8001cb8:	d9ce      	bls.n	8001c58 <HAL_RCC_OscConfig+0x26c>
 8001cba:	e6d1      	b.n	8001a60 <HAL_RCC_OscConfig+0x74>
 8001cbc:	f7fe fc9c 	bl	80005f8 <HAL_GetTick>
 8001cc0:	4605      	mov	r5, r0
 8001cc2:	4b35      	ldr	r3, [pc, #212]	; (8001d98 <HAL_RCC_OscConfig+0x3ac>)
 8001cc4:	6f1b      	ldr	r3, [r3, #112]	; 0x70
 8001cc6:	0798      	lsls	r0, r3, #30
 8001cc8:	d5ca      	bpl.n	8001c60 <HAL_RCC_OscConfig+0x274>
 8001cca:	f7fe fc95 	bl	80005f8 <HAL_GetTick>
 8001cce:	f241 3388 	movw	r3, #5000	; 0x1388
 8001cd2:	1b40      	subs	r0, r0, r5
 8001cd4:	4298      	cmp	r0, r3
 8001cd6:	d9f4      	bls.n	8001cc2 <HAL_RCC_OscConfig+0x2d6>
 8001cd8:	e6c2      	b.n	8001a60 <HAL_RCC_OscConfig+0x74>
 8001cda:	4b2f      	ldr	r3, [pc, #188]	; (8001d98 <HAL_RCC_OscConfig+0x3ac>)
 8001cdc:	689a      	ldr	r2, [r3, #8]
 8001cde:	f002 020c 	and.w	r2, r2, #12
 8001ce2:	2a08      	cmp	r2, #8
 8001ce4:	f43f aea0 	beq.w	8001a28 <HAL_RCC_OscConfig+0x3c>
 8001ce8:	681a      	ldr	r2, [r3, #0]
 8001cea:	2902      	cmp	r1, #2
 8001cec:	f022 7280 	bic.w	r2, r2, #16777216	; 0x1000000
 8001cf0:	601a      	str	r2, [r3, #0]
 8001cf2:	d142      	bne.n	8001d7a <HAL_RCC_OscConfig+0x38e>
 8001cf4:	f7fe fc80 	bl	80005f8 <HAL_GetTick>
 8001cf8:	4605      	mov	r5, r0
 8001cfa:	4827      	ldr	r0, [pc, #156]	; (8001d98 <HAL_RCC_OscConfig+0x3ac>)
 8001cfc:	6803      	ldr	r3, [r0, #0]
 8001cfe:	0199      	lsls	r1, r3, #6
 8001d00:	d42f      	bmi.n	8001d62 <HAL_RCC_OscConfig+0x376>
 8001d02:	f647 76c0 	movw	r6, #32704	; 0x7fc0
 8001d06:	fa96 f6a6 	rbit	r6, r6
 8001d0a:	f44f 3540 	mov.w	r5, #196608	; 0x30000
 8001d0e:	fab6 f686 	clz	r6, r6
 8001d12:	fa95 f5a5 	rbit	r5, r5
 8001d16:	f04f 6170 	mov.w	r1, #251658240	; 0xf000000
 8001d1a:	fab5 f585 	clz	r5, r5
 8001d1e:	fa91 f1a1 	rbit	r1, r1
 8001d22:	69e3      	ldr	r3, [r4, #28]
 8001d24:	6a22      	ldr	r2, [r4, #32]
 8001d26:	fab1 f181 	clz	r1, r1
 8001d2a:	431a      	orrs	r2, r3
 8001d2c:	6a63      	ldr	r3, [r4, #36]	; 0x24
 8001d2e:	f042 5200 	orr.w	r2, r2, #536870912	; 0x20000000
 8001d32:	40b3      	lsls	r3, r6
 8001d34:	431a      	orrs	r2, r3
 8001d36:	6aa3      	ldr	r3, [r4, #40]	; 0x28
 8001d38:	085b      	lsrs	r3, r3, #1
 8001d3a:	3b01      	subs	r3, #1
 8001d3c:	40ab      	lsls	r3, r5
 8001d3e:	4313      	orrs	r3, r2
 8001d40:	6ae2      	ldr	r2, [r4, #44]	; 0x2c
 8001d42:	408a      	lsls	r2, r1
 8001d44:	4313      	orrs	r3, r2
 8001d46:	6043      	str	r3, [r0, #4]
 8001d48:	6803      	ldr	r3, [r0, #0]
 8001d4a:	f043 7380 	orr.w	r3, r3, #16777216	; 0x1000000
 8001d4e:	6003      	str	r3, [r0, #0]
 8001d50:	f7fe fc52 	bl	80005f8 <HAL_GetTick>
 8001d54:	4604      	mov	r4, r0
 8001d56:	4b10      	ldr	r3, [pc, #64]	; (8001d98 <HAL_RCC_OscConfig+0x3ac>)
 8001d58:	681b      	ldr	r3, [r3, #0]
 8001d5a:	019a      	lsls	r2, r3, #6
 8001d5c:	d507      	bpl.n	8001d6e <HAL_RCC_OscConfig+0x382>
 8001d5e:	2000      	movs	r0, #0
 8001d60:	e018      	b.n	8001d94 <HAL_RCC_OscConfig+0x3a8>
 8001d62:	f7fe fc49 	bl	80005f8 <HAL_GetTick>
 8001d66:	1b40      	subs	r0, r0, r5
 8001d68:	2864      	cmp	r0, #100	; 0x64
 8001d6a:	d9c6      	bls.n	8001cfa <HAL_RCC_OscConfig+0x30e>
 8001d6c:	e678      	b.n	8001a60 <HAL_RCC_OscConfig+0x74>
 8001d6e:	f7fe fc43 	bl	80005f8 <HAL_GetTick>
 8001d72:	1b00      	subs	r0, r0, r4
 8001d74:	2864      	cmp	r0, #100	; 0x64
 8001d76:	d9ee      	bls.n	8001d56 <HAL_RCC_OscConfig+0x36a>
 8001d78:	e672      	b.n	8001a60 <HAL_RCC_OscConfig+0x74>
 8001d7a:	f7fe fc3d 	bl	80005f8 <HAL_GetTick>
 8001d7e:	4604      	mov	r4, r0
 8001d80:	4b05      	ldr	r3, [pc, #20]	; (8001d98 <HAL_RCC_OscConfig+0x3ac>)
 8001d82:	681b      	ldr	r3, [r3, #0]
 8001d84:	019b      	lsls	r3, r3, #6
 8001d86:	d5ea      	bpl.n	8001d5e <HAL_RCC_OscConfig+0x372>
 8001d88:	f7fe fc36 	bl	80005f8 <HAL_GetTick>
 8001d8c:	1b00      	subs	r0, r0, r4
 8001d8e:	2864      	cmp	r0, #100	; 0x64
 8001d90:	d9f6      	bls.n	8001d80 <HAL_RCC_OscConfig+0x394>
 8001d92:	e665      	b.n	8001a60 <HAL_RCC_OscConfig+0x74>
 8001d94:	b002      	add	sp, #8
 8001d96:	bd70      	pop	{r4, r5, r6, pc}
 8001d98:	40023800 	andmi	r3, r2, r0, lsl #16

08001d9c <HAL_RCC_ClockConfig>:
 8001d9c:	4a72      	ldr	r2, [pc, #456]	; (8001f68 <HAL_RCC_ClockConfig+0x1cc>)
 8001d9e:	6813      	ldr	r3, [r2, #0]
 8001da0:	f003 030f 	and.w	r3, r3, #15
 8001da4:	4299      	cmp	r1, r3
 8001da6:	b570      	push	{r4, r5, r6, lr}
 8001da8:	4604      	mov	r4, r0
 8001daa:	460d      	mov	r5, r1
 8001dac:	d96b      	bls.n	8001e86 <HAL_RCC_ClockConfig+0xea>
 8001dae:	6813      	ldr	r3, [r2, #0]
 8001db0:	f023 030f 	bic.w	r3, r3, #15
 8001db4:	430b      	orrs	r3, r1
 8001db6:	6013      	str	r3, [r2, #0]
 8001db8:	6813      	ldr	r3, [r2, #0]
 8001dba:	f003 030f 	and.w	r3, r3, #15
 8001dbe:	428b      	cmp	r3, r1
 8001dc0:	d001      	beq.n	8001dc6 <HAL_RCC_ClockConfig+0x2a>
 8001dc2:	2001      	movs	r0, #1
 8001dc4:	bd70      	pop	{r4, r5, r6, pc}
 8001dc6:	6801      	ldr	r1, [r0, #0]
 8001dc8:	078b      	lsls	r3, r1, #30
 8001dca:	bf41      	itttt	mi
 8001dcc:	4867      	ldrmi	r0, [pc, #412]	; (8001f6c <HAL_RCC_ClockConfig+0x1d0>)
 8001dce:	6883      	ldrmi	r3, [r0, #8]
 8001dd0:	f023 02f0 	bicmi.w	r2, r3, #240	; 0xf0
 8001dd4:	68a3      	ldrmi	r3, [r4, #8]
 8001dd6:	bf44      	itt	mi
 8001dd8:	4313      	orrmi	r3, r2
 8001dda:	6083      	strmi	r3, [r0, #8]
 8001ddc:	07ce      	lsls	r6, r1, #31
 8001dde:	d40b      	bmi.n	8001df8 <HAL_RCC_ClockConfig+0x5c>
 8001de0:	6821      	ldr	r1, [r4, #0]
 8001de2:	074d      	lsls	r5, r1, #29
 8001de4:	f140 80af 	bpl.w	8001f46 <HAL_RCC_ClockConfig+0x1aa>
 8001de8:	4860      	ldr	r0, [pc, #384]	; (8001f6c <HAL_RCC_ClockConfig+0x1d0>)
 8001dea:	6883      	ldr	r3, [r0, #8]
 8001dec:	f423 52e0 	bic.w	r2, r3, #7168	; 0x1c00
 8001df0:	68e3      	ldr	r3, [r4, #12]
 8001df2:	4313      	orrs	r3, r2
 8001df4:	6083      	str	r3, [r0, #8]
 8001df6:	e0a6      	b.n	8001f46 <HAL_RCC_ClockConfig+0x1aa>
 8001df8:	6862      	ldr	r2, [r4, #4]
 8001dfa:	4b5c      	ldr	r3, [pc, #368]	; (8001f6c <HAL_RCC_ClockConfig+0x1d0>)
 8001dfc:	2a01      	cmp	r2, #1
 8001dfe:	6819      	ldr	r1, [r3, #0]
 8001e00:	d102      	bne.n	8001e08 <HAL_RCC_ClockConfig+0x6c>
 8001e02:	f411 3f00 	tst.w	r1, #131072	; 0x20000
 8001e06:	e006      	b.n	8001e16 <HAL_RCC_ClockConfig+0x7a>
 8001e08:	2a02      	cmp	r2, #2
 8001e0a:	d102      	bne.n	8001e12 <HAL_RCC_ClockConfig+0x76>
 8001e0c:	f011 7f00 	tst.w	r1, #33554432	; 0x2000000
 8001e10:	e001      	b.n	8001e16 <HAL_RCC_ClockConfig+0x7a>
 8001e12:	f011 0f02 	tst.w	r1, #2
 8001e16:	d0d4      	beq.n	8001dc2 <HAL_RCC_ClockConfig+0x26>
 8001e18:	6899      	ldr	r1, [r3, #8]
 8001e1a:	f021 0103 	bic.w	r1, r1, #3
 8001e1e:	430a      	orrs	r2, r1
 8001e20:	609a      	str	r2, [r3, #8]
 8001e22:	f7fe fbe9 	bl	80005f8 <HAL_GetTick>
 8001e26:	6863      	ldr	r3, [r4, #4]
 8001e28:	2b01      	cmp	r3, #1
 8001e2a:	4605      	mov	r5, r0
 8001e2c:	d10e      	bne.n	8001e4c <HAL_RCC_ClockConfig+0xb0>
 8001e2e:	4b4f      	ldr	r3, [pc, #316]	; (8001f6c <HAL_RCC_ClockConfig+0x1d0>)
 8001e30:	689b      	ldr	r3, [r3, #8]
 8001e32:	f003 030c 	and.w	r3, r3, #12
 8001e36:	2b04      	cmp	r3, #4
 8001e38:	d0d2      	beq.n	8001de0 <HAL_RCC_ClockConfig+0x44>
 8001e3a:	f7fe fbdd 	bl	80005f8 <HAL_GetTick>
 8001e3e:	f241 3388 	movw	r3, #5000	; 0x1388
 8001e42:	1b40      	subs	r0, r0, r5
 8001e44:	4298      	cmp	r0, r3
 8001e46:	d9f2      	bls.n	8001e2e <HAL_RCC_ClockConfig+0x92>
 8001e48:	2003      	movs	r0, #3
 8001e4a:	bd70      	pop	{r4, r5, r6, pc}
 8001e4c:	2b02      	cmp	r3, #2
 8001e4e:	d114      	bne.n	8001e7a <HAL_RCC_ClockConfig+0xde>
 8001e50:	4b46      	ldr	r3, [pc, #280]	; (8001f6c <HAL_RCC_ClockConfig+0x1d0>)
 8001e52:	689b      	ldr	r3, [r3, #8]
 8001e54:	f003 030c 	and.w	r3, r3, #12
 8001e58:	2b08      	cmp	r3, #8
 8001e5a:	d0c1      	beq.n	8001de0 <HAL_RCC_ClockConfig+0x44>
 8001e5c:	f7fe fbcc 	bl	80005f8 <HAL_GetTick>
 8001e60:	f241 3388 	movw	r3, #5000	; 0x1388
 8001e64:	1b40      	subs	r0, r0, r5
 8001e66:	4298      	cmp	r0, r3
 8001e68:	d9f2      	bls.n	8001e50 <HAL_RCC_ClockConfig+0xb4>
 8001e6a:	e7ed      	b.n	8001e48 <HAL_RCC_ClockConfig+0xac>
 8001e6c:	f7fe fbc4 	bl	80005f8 <HAL_GetTick>
 8001e70:	f241 3388 	movw	r3, #5000	; 0x1388
 8001e74:	1b40      	subs	r0, r0, r5
 8001e76:	4298      	cmp	r0, r3
 8001e78:	d8e6      	bhi.n	8001e48 <HAL_RCC_ClockConfig+0xac>
 8001e7a:	4b3c      	ldr	r3, [pc, #240]	; (8001f6c <HAL_RCC_ClockConfig+0x1d0>)
 8001e7c:	689b      	ldr	r3, [r3, #8]
 8001e7e:	f013 0f0c 	tst.w	r3, #12
 8001e82:	d1f3      	bne.n	8001e6c <HAL_RCC_ClockConfig+0xd0>
 8001e84:	e7ac      	b.n	8001de0 <HAL_RCC_ClockConfig+0x44>
 8001e86:	6801      	ldr	r1, [r0, #0]
 8001e88:	0788      	lsls	r0, r1, #30
 8001e8a:	bf41      	itttt	mi
 8001e8c:	4837      	ldrmi	r0, [pc, #220]	; (8001f6c <HAL_RCC_ClockConfig+0x1d0>)
 8001e8e:	6883      	ldrmi	r3, [r0, #8]
 8001e90:	f023 02f0 	bicmi.w	r2, r3, #240	; 0xf0
 8001e94:	68a3      	ldrmi	r3, [r4, #8]
 8001e96:	bf44      	itt	mi
 8001e98:	4313      	orrmi	r3, r2
 8001e9a:	6083      	strmi	r3, [r0, #8]
 8001e9c:	07ca      	lsls	r2, r1, #31
 8001e9e:	d40b      	bmi.n	8001eb8 <HAL_RCC_ClockConfig+0x11c>
 8001ea0:	4a31      	ldr	r2, [pc, #196]	; (8001f68 <HAL_RCC_ClockConfig+0x1cc>)
 8001ea2:	6813      	ldr	r3, [r2, #0]
 8001ea4:	f023 030f 	bic.w	r3, r3, #15
 8001ea8:	432b      	orrs	r3, r5
 8001eaa:	6013      	str	r3, [r2, #0]
 8001eac:	6813      	ldr	r3, [r2, #0]
 8001eae:	f003 030f 	and.w	r3, r3, #15
 8001eb2:	42ab      	cmp	r3, r5
 8001eb4:	d185      	bne.n	8001dc2 <HAL_RCC_ClockConfig+0x26>
 8001eb6:	e793      	b.n	8001de0 <HAL_RCC_ClockConfig+0x44>
 8001eb8:	6862      	ldr	r2, [r4, #4]
 8001eba:	4b2c      	ldr	r3, [pc, #176]	; (8001f6c <HAL_RCC_ClockConfig+0x1d0>)
 8001ebc:	2a01      	cmp	r2, #1
 8001ebe:	6819      	ldr	r1, [r3, #0]
 8001ec0:	d102      	bne.n	8001ec8 <HAL_RCC_ClockConfig+0x12c>
 8001ec2:	f411 3f00 	tst.w	r1, #131072	; 0x20000
 8001ec6:	e006      	b.n	8001ed6 <HAL_RCC_ClockConfig+0x13a>
 8001ec8:	2a02      	cmp	r2, #2
 8001eca:	d102      	bne.n	8001ed2 <HAL_RCC_ClockConfig+0x136>
 8001ecc:	f011 7f00 	tst.w	r1, #33554432	; 0x2000000
 8001ed0:	e001      	b.n	8001ed6 <HAL_RCC_ClockConfig+0x13a>
 8001ed2:	f011 0f02 	tst.w	r1, #2
 8001ed6:	f43f af74 	beq.w	8001dc2 <HAL_RCC_ClockConfig+0x26>
 8001eda:	6899      	ldr	r1, [r3, #8]
 8001edc:	f021 0103 	bic.w	r1, r1, #3
 8001ee0:	430a      	orrs	r2, r1
 8001ee2:	609a      	str	r2, [r3, #8]
 8001ee4:	f7fe fb88 	bl	80005f8 <HAL_GetTick>
 8001ee8:	6863      	ldr	r3, [r4, #4]
 8001eea:	2b01      	cmp	r3, #1
 8001eec:	4606      	mov	r6, r0
 8001eee:	d10d      	bne.n	8001f0c <HAL_RCC_ClockConfig+0x170>
 8001ef0:	4b1e      	ldr	r3, [pc, #120]	; (8001f6c <HAL_RCC_ClockConfig+0x1d0>)
 8001ef2:	689b      	ldr	r3, [r3, #8]
 8001ef4:	f003 030c 	and.w	r3, r3, #12
 8001ef8:	2b04      	cmp	r3, #4
 8001efa:	d0d1      	beq.n	8001ea0 <HAL_RCC_ClockConfig+0x104>
 8001efc:	f7fe fb7c 	bl	80005f8 <HAL_GetTick>
 8001f00:	f241 3388 	movw	r3, #5000	; 0x1388
 8001f04:	1b80      	subs	r0, r0, r6
 8001f06:	4298      	cmp	r0, r3
 8001f08:	d9f2      	bls.n	8001ef0 <HAL_RCC_ClockConfig+0x154>
 8001f0a:	e79d      	b.n	8001e48 <HAL_RCC_ClockConfig+0xac>
 8001f0c:	2b02      	cmp	r3, #2
 8001f0e:	d114      	bne.n	8001f3a <HAL_RCC_ClockConfig+0x19e>
 8001f10:	4b16      	ldr	r3, [pc, #88]	; (8001f6c <HAL_RCC_ClockConfig+0x1d0>)
 8001f12:	689b      	ldr	r3, [r3, #8]
 8001f14:	f003 030c 	and.w	r3, r3, #12
 8001f18:	2b08      	cmp	r3, #8
 8001f1a:	d0c1      	beq.n	8001ea0 <HAL_RCC_ClockConfig+0x104>
 8001f1c:	f7fe fb6c 	bl	80005f8 <HAL_GetTick>
 8001f20:	f241 3388 	movw	r3, #5000	; 0x1388
 8001f24:	1b80      	subs	r0, r0, r6
 8001f26:	4298      	cmp	r0, r3
 8001f28:	d9f2      	bls.n	8001f10 <HAL_RCC_ClockConfig+0x174>
 8001f2a:	e78d      	b.n	8001e48 <HAL_RCC_ClockConfig+0xac>
 8001f2c:	f7fe fb64 	bl	80005f8 <HAL_GetTick>
 8001f30:	f241 3388 	movw	r3, #5000	; 0x1388
 8001f34:	1b80      	subs	r0, r0, r6
 8001f36:	4298      	cmp	r0, r3
 8001f38:	d886      	bhi.n	8001e48 <HAL_RCC_ClockConfig+0xac>
 8001f3a:	4b0c      	ldr	r3, [pc, #48]	; (8001f6c <HAL_RCC_ClockConfig+0x1d0>)
 8001f3c:	689b      	ldr	r3, [r3, #8]
 8001f3e:	f013 0f0c 	tst.w	r3, #12
 8001f42:	d1f3      	bne.n	8001f2c <HAL_RCC_ClockConfig+0x190>
 8001f44:	e7ac      	b.n	8001ea0 <HAL_RCC_ClockConfig+0x104>
 8001f46:	070b      	lsls	r3, r1, #28
 8001f48:	bf41      	itttt	mi
 8001f4a:	4a08      	ldrmi	r2, [pc, #32]	; (8001f6c <HAL_RCC_ClockConfig+0x1d0>)
 8001f4c:	6921      	ldrmi	r1, [r4, #16]
 8001f4e:	6893      	ldrmi	r3, [r2, #8]
 8001f50:	f423 4360 	bicmi.w	r3, r3, #57344	; 0xe000
 8001f54:	bf44      	itt	mi
 8001f56:	ea43 03c1 	orrmi.w	r3, r3, r1, lsl #3
 8001f5a:	6093      	strmi	r3, [r2, #8]
 8001f5c:	200f      	movs	r0, #15
 8001f5e:	f7fe fb27 	bl	80005b0 <HAL_InitTick>
 8001f62:	2000      	movs	r0, #0
 8001f64:	bd70      	pop	{r4, r5, r6, pc}
 8001f66:	bf00      	nop
 8001f68:	40023c00 	andmi	r3, r2, r0, lsl #24
 8001f6c:	40023800 	andmi	r3, r2, r0, lsl #16

08001f70 <HAL_RCC_GetSysClockFreq>:
 8001f70:	b510      	push	{r4, lr}
 8001f72:	4c1c      	ldr	r4, [pc, #112]	; (8001fe4 <HAL_RCC_GetSysClockFreq+0x74>)
 8001f74:	68a3      	ldr	r3, [r4, #8]
 8001f76:	f003 030c 	and.w	r3, r3, #12
 8001f7a:	2b04      	cmp	r3, #4
 8001f7c:	d02e      	beq.n	8001fdc <HAL_RCC_GetSysClockFreq+0x6c>
 8001f7e:	2b08      	cmp	r3, #8
 8001f80:	d12e      	bne.n	8001fe0 <HAL_RCC_GetSysClockFreq+0x70>
 8001f82:	6862      	ldr	r2, [r4, #4]
 8001f84:	f002 033f 	and.w	r3, r2, #63	; 0x3f
 8001f88:	6862      	ldr	r2, [r4, #4]
 8001f8a:	f647 71c0 	movw	r1, #32704	; 0x7fc0
 8001f8e:	f412 0f80 	tst.w	r2, #4194304	; 0x400000
 8001f92:	6862      	ldr	r2, [r4, #4]
 8001f94:	fa91 f1a1 	rbit	r1, r1
 8001f98:	f647 70c0 	movw	r0, #32704	; 0x7fc0
 8001f9c:	ea00 0002 	and.w	r0, r0, r2
 8001fa0:	bf08      	it	eq
 8001fa2:	4a11      	ldreq	r2, [pc, #68]	; (8001fe8 <HAL_RCC_GetSysClockFreq+0x78>)
 8001fa4:	fab1 f181 	clz	r1, r1
 8001fa8:	fa20 f001 	lsr.w	r0, r0, r1
 8001fac:	bf0e      	itee	eq
 8001fae:	fbb2 f2f3 	udiveq	r2, r2, r3
 8001fb2:	490e      	ldrne	r1, [pc, #56]	; (8001fec <HAL_RCC_GetSysClockFreq+0x7c>)
 8001fb4:	fbb1 f2f3 	udivne	r2, r1, r3
 8001fb8:	fb02 f300 	mul.w	r3, r2, r0
 8001fbc:	4a09      	ldr	r2, [pc, #36]	; (8001fe4 <HAL_RCC_GetSysClockFreq+0x74>)
 8001fbe:	6850      	ldr	r0, [r2, #4]
 8001fc0:	f44f 3240 	mov.w	r2, #196608	; 0x30000
 8001fc4:	fa92 f2a2 	rbit	r2, r2
 8001fc8:	f400 3040 	and.w	r0, r0, #196608	; 0x30000
 8001fcc:	fab2 f282 	clz	r2, r2
 8001fd0:	40d0      	lsrs	r0, r2
 8001fd2:	3001      	adds	r0, #1
 8001fd4:	0040      	lsls	r0, r0, #1
 8001fd6:	fbb3 f0f0 	udiv	r0, r3, r0
 8001fda:	bd10      	pop	{r4, pc}
 8001fdc:	4803      	ldr	r0, [pc, #12]	; (8001fec <HAL_RCC_GetSysClockFreq+0x7c>)
 8001fde:	bd10      	pop	{r4, pc}
 8001fe0:	4801      	ldr	r0, [pc, #4]	; (8001fe8 <HAL_RCC_GetSysClockFreq+0x78>)
 8001fe2:	bd10      	pop	{r4, pc}
 8001fe4:	40023800 	andmi	r3, r2, r0, lsl #16
 8001fe8:	00f42400 	rscseq	r2, r4, r0, lsl #8
 8001fec:	017d7840 	cmneq	sp, r0, asr #16

08001ff0 <HAL_RCC_GetHCLKFreq>:
 8001ff0:	b508      	push	{r3, lr}
 8001ff2:	f7ff ffbd 	bl	8001f70 <HAL_RCC_GetSysClockFreq>
 8001ff6:	4b08      	ldr	r3, [pc, #32]	; (8002018 <HAL_RCC_GetHCLKFreq+0x28>)
 8001ff8:	22f0      	movs	r2, #240	; 0xf0
 8001ffa:	689b      	ldr	r3, [r3, #8]
 8001ffc:	fa92 f2a2 	rbit	r2, r2
 8002000:	f003 03f0 	and.w	r3, r3, #240	; 0xf0
 8002004:	fab2 f282 	clz	r2, r2
 8002008:	40d3      	lsrs	r3, r2
 800200a:	4a04      	ldr	r2, [pc, #16]	; (800201c <HAL_RCC_GetHCLKFreq+0x2c>)
 800200c:	5cd3      	ldrb	r3, [r2, r3]
 800200e:	40d8      	lsrs	r0, r3
 8002010:	4b03      	ldr	r3, [pc, #12]	; (8002020 <HAL_RCC_GetHCLKFreq+0x30>)
 8002012:	6018      	str	r0, [r3, #0]
 8002014:	bd08      	pop	{r3, pc}
 8002016:	bf00      	nop
 8002018:	40023800 	andmi	r3, r2, r0, lsl #16
 800201c:	08004b49 	stmdaeq	r0, {r0, r3, r6, r8, r9, fp, lr}
 8002020:	20000004 	andcs	r0, r0, r4

08002024 <HAL_RCC_GetPCLK1Freq>:
 8002024:	b508      	push	{r3, lr}
 8002026:	f7ff ffe3 	bl	8001ff0 <HAL_RCC_GetHCLKFreq>
 800202a:	4b07      	ldr	r3, [pc, #28]	; (8002048 <HAL_RCC_GetPCLK1Freq+0x24>)
 800202c:	f44f 52e0 	mov.w	r2, #7168	; 0x1c00
 8002030:	689b      	ldr	r3, [r3, #8]
 8002032:	fa92 f2a2 	rbit	r2, r2
 8002036:	f403 53e0 	and.w	r3, r3, #7168	; 0x1c00
 800203a:	fab2 f282 	clz	r2, r2
 800203e:	40d3      	lsrs	r3, r2
 8002040:	4a02      	ldr	r2, [pc, #8]	; (800204c <HAL_RCC_GetPCLK1Freq+0x28>)
 8002042:	5cd3      	ldrb	r3, [r2, r3]
 8002044:	40d8      	lsrs	r0, r3
 8002046:	bd08      	pop	{r3, pc}
 8002048:	40023800 	andmi	r3, r2, r0, lsl #16
 800204c:	08004b49 	stmdaeq	r0, {r0, r3, r6, r8, r9, fp, lr}

08002050 <HAL_RCC_GetPCLK2Freq>:
 8002050:	b508      	push	{r3, lr}
 8002052:	f7ff ffcd 	bl	8001ff0 <HAL_RCC_GetHCLKFreq>
 8002056:	4b07      	ldr	r3, [pc, #28]	; (8002074 <HAL_RCC_GetPCLK2Freq+0x24>)
 8002058:	f44f 4260 	mov.w	r2, #57344	; 0xe000
 800205c:	689b      	ldr	r3, [r3, #8]
 800205e:	fa92 f2a2 	rbit	r2, r2
 8002062:	f403 4360 	and.w	r3, r3, #57344	; 0xe000
 8002066:	fab2 f282 	clz	r2, r2
 800206a:	40d3      	lsrs	r3, r2
 800206c:	4a02      	ldr	r2, [pc, #8]	; (8002078 <HAL_RCC_GetPCLK2Freq+0x28>)
 800206e:	5cd3      	ldrb	r3, [r2, r3]
 8002070:	40d8      	lsrs	r0, r3
 8002072:	bd08      	pop	{r3, pc}
 8002074:	40023800 	andmi	r3, r2, r0, lsl #16
 8002078:	08004b49 	stmdaeq	r0, {r0, r3, r6, r8, r9, fp, lr}

0800207c <HAL_SDRAM_MspInit>:
 800207c:	4770      	bx	lr

0800207e <HAL_SDRAM_Init>:
 800207e:	b538      	push	{r3, r4, r5, lr}
 8002080:	460d      	mov	r5, r1
 8002082:	4604      	mov	r4, r0
 8002084:	b1c8      	cbz	r0, 80020ba <HAL_SDRAM_Init+0x3c>
 8002086:	f890 302c 	ldrb.w	r3, [r0, #44]	; 0x2c
 800208a:	f003 02ff 	and.w	r2, r3, #255	; 0xff
 800208e:	b91b      	cbnz	r3, 8002098 <HAL_SDRAM_Init+0x1a>
 8002090:	f880 202d 	strb.w	r2, [r0, #45]	; 0x2d
 8002094:	f7ff fff2 	bl	800207c <HAL_SDRAM_MspInit>
 8002098:	2302      	movs	r3, #2
 800209a:	f884 302c 	strb.w	r3, [r4, #44]	; 0x2c
 800209e:	1d21      	adds	r1, r4, #4
 80020a0:	6820      	ldr	r0, [r4, #0]
 80020a2:	f7fe fbbf 	bl	8000824 <FMC_SDRAM_Init>
 80020a6:	6820      	ldr	r0, [r4, #0]
 80020a8:	6862      	ldr	r2, [r4, #4]
 80020aa:	4629      	mov	r1, r5
 80020ac:	f7fe fbfd 	bl	80008aa <FMC_SDRAM_Timing_Init>
 80020b0:	2301      	movs	r3, #1
 80020b2:	f884 302c 	strb.w	r3, [r4, #44]	; 0x2c
 80020b6:	2000      	movs	r0, #0
 80020b8:	bd38      	pop	{r3, r4, r5, pc}
 80020ba:	2001      	movs	r0, #1
 80020bc:	bd38      	pop	{r3, r4, r5, pc}

080020be <HAL_SDRAM_SendCommand>:
 80020be:	b538      	push	{r3, r4, r5, lr}
 80020c0:	4604      	mov	r4, r0
 80020c2:	f890 002c 	ldrb.w	r0, [r0, #44]	; 0x2c
 80020c6:	b2c0      	uxtb	r0, r0
 80020c8:	2802      	cmp	r0, #2
 80020ca:	460d      	mov	r5, r1
 80020cc:	d00d      	beq.n	80020ea <HAL_SDRAM_SendCommand+0x2c>
 80020ce:	2302      	movs	r3, #2
 80020d0:	f884 302c 	strb.w	r3, [r4, #44]	; 0x2c
 80020d4:	6820      	ldr	r0, [r4, #0]
 80020d6:	f7fe fc33 	bl	8000940 <FMC_SDRAM_SendCommand>
 80020da:	682b      	ldr	r3, [r5, #0]
 80020dc:	2b02      	cmp	r3, #2
 80020de:	bf0c      	ite	eq
 80020e0:	2305      	moveq	r3, #5
 80020e2:	2301      	movne	r3, #1
 80020e4:	f884 302c 	strb.w	r3, [r4, #44]	; 0x2c
 80020e8:	2000      	movs	r0, #0
 80020ea:	bd38      	pop	{r3, r4, r5, pc}

080020ec <HAL_SDRAM_ProgramRefreshRate>:
 80020ec:	b510      	push	{r4, lr}
 80020ee:	4604      	mov	r4, r0
 80020f0:	f890 002c 	ldrb.w	r0, [r0, #44]	; 0x2c
 80020f4:	b2c0      	uxtb	r0, r0
 80020f6:	2802      	cmp	r0, #2
 80020f8:	d009      	beq.n	800210e <HAL_SDRAM_ProgramRefreshRate+0x22>
 80020fa:	2302      	movs	r3, #2
 80020fc:	f884 302c 	strb.w	r3, [r4, #44]	; 0x2c
 8002100:	6820      	ldr	r0, [r4, #0]
 8002102:	f7fe fc43 	bl	800098c <FMC_SDRAM_ProgramRefreshRate>
 8002106:	2301      	movs	r3, #1
 8002108:	f884 302c 	strb.w	r3, [r4, #44]	; 0x2c
 800210c:	2000      	movs	r0, #0
 800210e:	bd10      	pop	{r4, pc}

08002110 <HAL_GPIO_Init>:
 8002110:	e92d 41f3 	stmdb	sp!, {r0, r1, r4, r5, r6, r7, r8, lr}
 8002114:	680f      	ldr	r7, [r1, #0]
 8002116:	2200      	movs	r2, #0
 8002118:	2301      	movs	r3, #1
 800211a:	4093      	lsls	r3, r2
 800211c:	ea03 0507 	and.w	r5, r3, r7
 8002120:	429d      	cmp	r5, r3
 8002122:	f040 80d8 	bne.w	80022d6 <HAL_GPIO_Init+0x1c6>
 8002126:	684c      	ldr	r4, [r1, #4]
 8002128:	f024 0c10 	bic.w	ip, r4, #16
 800212c:	f1bc 0f02 	cmp.w	ip, #2
 8002130:	d114      	bne.n	800215c <HAL_GPIO_Init+0x4c>
 8002132:	ea4f 0ed2 	mov.w	lr, r2, lsr #3
 8002136:	eb00 0e8e 	add.w	lr, r0, lr, lsl #2
 800213a:	f002 0607 	and.w	r6, r2, #7
 800213e:	f8de 3020 	ldr.w	r3, [lr, #32]
 8002142:	00b6      	lsls	r6, r6, #2
 8002144:	f04f 080f 	mov.w	r8, #15
 8002148:	fa08 f806 	lsl.w	r8, r8, r6
 800214c:	ea23 0808 	bic.w	r8, r3, r8
 8002150:	690b      	ldr	r3, [r1, #16]
 8002152:	40b3      	lsls	r3, r6
 8002154:	ea48 0303 	orr.w	r3, r8, r3
 8002158:	f8ce 3020 	str.w	r3, [lr, #32]
 800215c:	ea4f 0e42 	mov.w	lr, r2, lsl #1
 8002160:	2303      	movs	r3, #3
 8002162:	6806      	ldr	r6, [r0, #0]
 8002164:	fa03 f30e 	lsl.w	r3, r3, lr
 8002168:	43db      	mvns	r3, r3
 800216a:	ea03 0806 	and.w	r8, r3, r6
 800216e:	f004 0603 	and.w	r6, r4, #3
 8002172:	fa06 f60e 	lsl.w	r6, r6, lr
 8002176:	f10c 3cff 	add.w	ip, ip, #4294967295	; 0xffffffff
 800217a:	ea48 0606 	orr.w	r6, r8, r6
 800217e:	f1bc 0f01 	cmp.w	ip, #1
 8002182:	6006      	str	r6, [r0, #0]
 8002184:	d811      	bhi.n	80021aa <HAL_GPIO_Init+0x9a>
 8002186:	6886      	ldr	r6, [r0, #8]
 8002188:	ea03 0c06 	and.w	ip, r3, r6
 800218c:	68ce      	ldr	r6, [r1, #12]
 800218e:	fa06 f60e 	lsl.w	r6, r6, lr
 8002192:	ea4c 0606 	orr.w	r6, ip, r6
 8002196:	6086      	str	r6, [r0, #8]
 8002198:	6846      	ldr	r6, [r0, #4]
 800219a:	ea26 0c05 	bic.w	ip, r6, r5
 800219e:	f3c4 1600 	ubfx	r6, r4, #4, #1
 80021a2:	4096      	lsls	r6, r2
 80021a4:	ea4c 0606 	orr.w	r6, ip, r6
 80021a8:	6046      	str	r6, [r0, #4]
 80021aa:	68c6      	ldr	r6, [r0, #12]
 80021ac:	ea03 0c06 	and.w	ip, r3, r6
 80021b0:	688b      	ldr	r3, [r1, #8]
 80021b2:	fa03 f60e 	lsl.w	r6, r3, lr
 80021b6:	ea4c 0306 	orr.w	r3, ip, r6
 80021ba:	60c3      	str	r3, [r0, #12]
 80021bc:	00e3      	lsls	r3, r4, #3
 80021be:	f140 808a 	bpl.w	80022d6 <HAL_GPIO_Init+0x1c6>
 80021c2:	4e48      	ldr	r6, [pc, #288]	; (80022e4 <HAL_GPIO_Init+0x1d4>)
 80021c4:	2300      	movs	r3, #0
 80021c6:	9301      	str	r3, [sp, #4]
 80021c8:	f8d6 e044 	ldr.w	lr, [r6, #68]	; 0x44
 80021cc:	f44e 4e80 	orr.w	lr, lr, #16384	; 0x4000
 80021d0:	f8c6 e044 	str.w	lr, [r6, #68]	; 0x44
 80021d4:	6c76      	ldr	r6, [r6, #68]	; 0x44
 80021d6:	f406 4680 	and.w	r6, r6, #16384	; 0x4000
 80021da:	9601      	str	r6, [sp, #4]
 80021dc:	9e01      	ldr	r6, [sp, #4]
 80021de:	f022 0603 	bic.w	r6, r2, #3
 80021e2:	f106 4680 	add.w	r6, r6, #1073741824	; 0x40000000
 80021e6:	f506 369c 	add.w	r6, r6, #79872	; 0x13800
 80021ea:	f002 0c03 	and.w	ip, r2, #3
 80021ee:	f8d6 8008 	ldr.w	r8, [r6, #8]
 80021f2:	ea4f 0c8c 	mov.w	ip, ip, lsl #2
 80021f6:	f04f 0e0f 	mov.w	lr, #15
 80021fa:	fa0e fe0c 	lsl.w	lr, lr, ip
 80021fe:	ea28 0e0e 	bic.w	lr, r8, lr
 8002202:	f8df 80e8 	ldr.w	r8, [pc, #232]	; 80022ec <HAL_GPIO_Init+0x1dc>
 8002206:	4540      	cmp	r0, r8
 8002208:	d037      	beq.n	800227a <HAL_GPIO_Init+0x16a>
 800220a:	f103 4380 	add.w	r3, r3, #1073741824	; 0x40000000
 800220e:	f503 3301 	add.w	r3, r3, #132096	; 0x20400
 8002212:	4298      	cmp	r0, r3
 8002214:	d022      	beq.n	800225c <HAL_GPIO_Init+0x14c>
 8002216:	f503 6380 	add.w	r3, r3, #1024	; 0x400
 800221a:	4298      	cmp	r0, r3
 800221c:	d020      	beq.n	8002260 <HAL_GPIO_Init+0x150>
 800221e:	f503 6380 	add.w	r3, r3, #1024	; 0x400
 8002222:	4298      	cmp	r0, r3
 8002224:	d01e      	beq.n	8002264 <HAL_GPIO_Init+0x154>
 8002226:	f503 6380 	add.w	r3, r3, #1024	; 0x400
 800222a:	4298      	cmp	r0, r3
 800222c:	d01c      	beq.n	8002268 <HAL_GPIO_Init+0x158>
 800222e:	f503 6380 	add.w	r3, r3, #1024	; 0x400
 8002232:	4298      	cmp	r0, r3
 8002234:	d01a      	beq.n	800226c <HAL_GPIO_Init+0x15c>
 8002236:	f503 6380 	add.w	r3, r3, #1024	; 0x400
 800223a:	4298      	cmp	r0, r3
 800223c:	d018      	beq.n	8002270 <HAL_GPIO_Init+0x160>
 800223e:	f503 6380 	add.w	r3, r3, #1024	; 0x400
 8002242:	4298      	cmp	r0, r3
 8002244:	d016      	beq.n	8002274 <HAL_GPIO_Init+0x164>
 8002246:	f503 6380 	add.w	r3, r3, #1024	; 0x400
 800224a:	4298      	cmp	r0, r3
 800224c:	d014      	beq.n	8002278 <HAL_GPIO_Init+0x168>
 800224e:	f503 6380 	add.w	r3, r3, #1024	; 0x400
 8002252:	4298      	cmp	r0, r3
 8002254:	bf0c      	ite	eq
 8002256:	2309      	moveq	r3, #9
 8002258:	230a      	movne	r3, #10
 800225a:	e00e      	b.n	800227a <HAL_GPIO_Init+0x16a>
 800225c:	2301      	movs	r3, #1
 800225e:	e00c      	b.n	800227a <HAL_GPIO_Init+0x16a>
 8002260:	2302      	movs	r3, #2
 8002262:	e00a      	b.n	800227a <HAL_GPIO_Init+0x16a>
 8002264:	2303      	movs	r3, #3
 8002266:	e008      	b.n	800227a <HAL_GPIO_Init+0x16a>
 8002268:	2304      	movs	r3, #4
 800226a:	e006      	b.n	800227a <HAL_GPIO_Init+0x16a>
 800226c:	2305      	movs	r3, #5
 800226e:	e004      	b.n	800227a <HAL_GPIO_Init+0x16a>
 8002270:	2306      	movs	r3, #6
 8002272:	e002      	b.n	800227a <HAL_GPIO_Init+0x16a>
 8002274:	2307      	movs	r3, #7
 8002276:	e000      	b.n	800227a <HAL_GPIO_Init+0x16a>
 8002278:	2308      	movs	r3, #8
 800227a:	fa03 f30c 	lsl.w	r3, r3, ip
 800227e:	ea43 030e 	orr.w	r3, r3, lr
 8002282:	f8df e064 	ldr.w	lr, [pc, #100]	; 80022e8 <HAL_GPIO_Init+0x1d8>
 8002286:	60b3      	str	r3, [r6, #8]
 8002288:	f8de 3000 	ldr.w	r3, [lr]
 800228c:	43ee      	mvns	r6, r5
 800228e:	f414 3f80 	tst.w	r4, #65536	; 0x10000
 8002292:	bf14      	ite	ne
 8002294:	432b      	orrne	r3, r5
 8002296:	4033      	andeq	r3, r6
 8002298:	f8ce 3000 	str.w	r3, [lr]
 800229c:	f8de 3004 	ldr.w	r3, [lr, #4]
 80022a0:	f8df e044 	ldr.w	lr, [pc, #68]	; 80022e8 <HAL_GPIO_Init+0x1d8>
 80022a4:	f414 3f00 	tst.w	r4, #131072	; 0x20000
 80022a8:	bf14      	ite	ne
 80022aa:	432b      	orrne	r3, r5
 80022ac:	4033      	andeq	r3, r6
 80022ae:	f8ce 3004 	str.w	r3, [lr, #4]
 80022b2:	f8de 3008 	ldr.w	r3, [lr, #8]
 80022b6:	f414 1f80 	tst.w	r4, #1048576	; 0x100000
 80022ba:	bf14      	ite	ne
 80022bc:	432b      	orrne	r3, r5
 80022be:	4033      	andeq	r3, r6
 80022c0:	f8ce 3008 	str.w	r3, [lr, #8]
 80022c4:	f8de 300c 	ldr.w	r3, [lr, #12]
 80022c8:	02a4      	lsls	r4, r4, #10
 80022ca:	bf54      	ite	pl
 80022cc:	ea06 0503 	andpl.w	r5, r6, r3
 80022d0:	431d      	orrmi	r5, r3
 80022d2:	4b05      	ldr	r3, [pc, #20]	; (80022e8 <HAL_GPIO_Init+0x1d8>)
 80022d4:	60dd      	str	r5, [r3, #12]
 80022d6:	3201      	adds	r2, #1
 80022d8:	2a10      	cmp	r2, #16
 80022da:	f47f af1d 	bne.w	8002118 <HAL_GPIO_Init+0x8>
 80022de:	b002      	add	sp, #8
 80022e0:	e8bd 81f0 	ldmia.w	sp!, {r4, r5, r6, r7, r8, pc}
 80022e4:	40023800 	andmi	r3, r2, r0, lsl #16
 80022e8:	40013c00 	andmi	r3, r1, r0, lsl #24
 80022ec:	40020000 	andmi	r0, r2, r0

080022f0 <HAL_GPIO_WritePin>:
 80022f0:	b902      	cbnz	r2, 80022f4 <HAL_GPIO_WritePin+0x4>
 80022f2:	0409      	lsls	r1, r1, #16
 80022f4:	6181      	str	r1, [r0, #24]
 80022f6:	4770      	bx	lr

080022f8 <HAL_DCMI_ErrorCallback>:
 80022f8:	4770      	bx	lr

080022fa <HAL_DCMI_LineEventCallback>:
 80022fa:	4770      	bx	lr

080022fc <HAL_DCMI_VsyncEventCallback>:
 80022fc:	4770      	bx	lr

080022fe <HAL_DCMI_IRQHandler>:
 80022fe:	6803      	ldr	r3, [r0, #0]
 8002300:	689a      	ldr	r2, [r3, #8]
 8002302:	0752      	lsls	r2, r2, #29
 8002304:	b510      	push	{r4, lr}
 8002306:	4604      	mov	r4, r0
 8002308:	d517      	bpl.n	800233a <HAL_DCMI_IRQHandler+0x3c>
 800230a:	691a      	ldr	r2, [r3, #16]
 800230c:	0750      	lsls	r0, r2, #29
 800230e:	d514      	bpl.n	800233a <HAL_DCMI_IRQHandler+0x3c>
 8002310:	68da      	ldr	r2, [r3, #12]
 8002312:	6ca0      	ldr	r0, [r4, #72]	; 0x48
 8002314:	f022 0204 	bic.w	r2, r2, #4
 8002318:	60da      	str	r2, [r3, #12]
 800231a:	2204      	movs	r2, #4
 800231c:	615a      	str	r2, [r3, #20]
 800231e:	6ce3      	ldr	r3, [r4, #76]	; 0x4c
 8002320:	f043 0302 	orr.w	r3, r3, #2
 8002324:	64e3      	str	r3, [r4, #76]	; 0x4c
 8002326:	2300      	movs	r3, #0
 8002328:	f884 2035 	strb.w	r2, [r4, #53]	; 0x35
 800232c:	f884 3034 	strb.w	r3, [r4, #52]	; 0x34
 8002330:	f7fe f968 	bl	8000604 <HAL_DMA_Abort>
 8002334:	4620      	mov	r0, r4
 8002336:	f7ff ffdf 	bl	80022f8 <HAL_DCMI_ErrorCallback>
 800233a:	6823      	ldr	r3, [r4, #0]
 800233c:	689a      	ldr	r2, [r3, #8]
 800233e:	0791      	lsls	r1, r2, #30
 8002340:	d518      	bpl.n	8002374 <HAL_DCMI_IRQHandler+0x76>
 8002342:	691a      	ldr	r2, [r3, #16]
 8002344:	0792      	lsls	r2, r2, #30
 8002346:	d515      	bpl.n	8002374 <HAL_DCMI_IRQHandler+0x76>
 8002348:	68da      	ldr	r2, [r3, #12]
 800234a:	6ca0      	ldr	r0, [r4, #72]	; 0x48
 800234c:	f022 0202 	bic.w	r2, r2, #2
 8002350:	60da      	str	r2, [r3, #12]
 8002352:	2202      	movs	r2, #2
 8002354:	615a      	str	r2, [r3, #20]
 8002356:	6ce3      	ldr	r3, [r4, #76]	; 0x4c
 8002358:	f043 0301 	orr.w	r3, r3, #1
 800235c:	64e3      	str	r3, [r4, #76]	; 0x4c
 800235e:	2304      	movs	r3, #4
 8002360:	f884 3035 	strb.w	r3, [r4, #53]	; 0x35
 8002364:	2300      	movs	r3, #0
 8002366:	f884 3034 	strb.w	r3, [r4, #52]	; 0x34
 800236a:	f7fe f94b 	bl	8000604 <HAL_DMA_Abort>
 800236e:	4620      	mov	r0, r4
 8002370:	f7ff ffc2 	bl	80022f8 <HAL_DCMI_ErrorCallback>
 8002374:	6823      	ldr	r3, [r4, #0]
 8002376:	689a      	ldr	r2, [r3, #8]
 8002378:	06d0      	lsls	r0, r2, #27
 800237a:	d50a      	bpl.n	8002392 <HAL_DCMI_IRQHandler+0x94>
 800237c:	691a      	ldr	r2, [r3, #16]
 800237e:	06d1      	lsls	r1, r2, #27
 8002380:	d507      	bpl.n	8002392 <HAL_DCMI_IRQHandler+0x94>
 8002382:	2210      	movs	r2, #16
 8002384:	615a      	str	r2, [r3, #20]
 8002386:	2300      	movs	r3, #0
 8002388:	f884 3034 	strb.w	r3, [r4, #52]	; 0x34
 800238c:	4620      	mov	r0, r4
 800238e:	f7ff ffb4 	bl	80022fa <HAL_DCMI_LineEventCallback>
 8002392:	6823      	ldr	r3, [r4, #0]
 8002394:	689a      	ldr	r2, [r3, #8]
 8002396:	0712      	lsls	r2, r2, #28
 8002398:	d50e      	bpl.n	80023b8 <HAL_DCMI_IRQHandler+0xba>
 800239a:	691a      	ldr	r2, [r3, #16]
 800239c:	0710      	lsls	r0, r2, #28
 800239e:	d50b      	bpl.n	80023b8 <HAL_DCMI_IRQHandler+0xba>
 80023a0:	68da      	ldr	r2, [r3, #12]
 80023a2:	f022 0208 	bic.w	r2, r2, #8
 80023a6:	60da      	str	r2, [r3, #12]
 80023a8:	2208      	movs	r2, #8
 80023aa:	615a      	str	r2, [r3, #20]
 80023ac:	2300      	movs	r3, #0
 80023ae:	f884 3034 	strb.w	r3, [r4, #52]	; 0x34
 80023b2:	4620      	mov	r0, r4
 80023b4:	f7ff ffa2 	bl	80022fc <HAL_DCMI_VsyncEventCallback>
 80023b8:	6823      	ldr	r3, [r4, #0]
 80023ba:	689a      	ldr	r2, [r3, #8]
 80023bc:	07d1      	lsls	r1, r2, #31
 80023be:	d50e      	bpl.n	80023de <HAL_DCMI_IRQHandler+0xe0>
 80023c0:	691a      	ldr	r2, [r3, #16]
 80023c2:	07d2      	lsls	r2, r2, #31
 80023c4:	d50b      	bpl.n	80023de <HAL_DCMI_IRQHandler+0xe0>
 80023c6:	68da      	ldr	r2, [r3, #12]
 80023c8:	f022 0201 	bic.w	r2, r2, #1
 80023cc:	60da      	str	r2, [r3, #12]
 80023ce:	2201      	movs	r2, #1
 80023d0:	615a      	str	r2, [r3, #20]
 80023d2:	2300      	movs	r3, #0
 80023d4:	f884 3034 	strb.w	r3, [r4, #52]	; 0x34
 80023d8:	4620      	mov	r0, r4
 80023da:	f000 fe7f 	bl	80030dc <HAL_DCMI_FrameEventCallback>
 80023de:	bd10      	pop	{r4, pc}

080023e0 <HAL_MspInit>:
 80023e0:	4770      	bx	lr

080023e2 <_ZN4CLCDD1Ev>:
 80023e2:	4770      	bx	lr

080023e4 <_ZN4CLCD9get_widthEv>:
 80023e4:	f44f 70f0 	mov.w	r0, #480	; 0x1e0
 80023e8:	4770      	bx	lr

080023ea <_ZN4CLCD10get_heightEv>:
 80023ea:	f44f 7088 	mov.w	r0, #272	; 0x110
 80023ee:	4770      	bx	lr

080023f0 <_ZN4CLCD20LayerInit_FullscreenEv>:
 80023f0:	e92d 4ff0 	stmdb	sp!, {r4, r5, r6, r7, r8, r9, sl, fp, lr}
 80023f4:	b091      	sub	sp, #68	; 0x44
 80023f6:	2400      	movs	r4, #0
 80023f8:	f8d0 20c0 	ldr.w	r2, [r0, #192]	; 0xc0
 80023fc:	920c      	str	r2, [sp, #48]	; 0x30
 80023fe:	f100 0818 	add.w	r8, r0, #24
 8002402:	f44f 76f0 	mov.w	r6, #480	; 0x1e0
 8002406:	f44f 7588 	mov.w	r5, #272	; 0x110
 800240a:	2302      	movs	r3, #2
 800240c:	4607      	mov	r7, r0
 800240e:	f04f 0bff 	mov.w	fp, #255	; 0xff
 8002412:	f44f 6ac0 	mov.w	sl, #1536	; 0x600
 8002416:	f04f 0907 	mov.w	r9, #7
 800241a:	a903      	add	r1, sp, #12
 800241c:	4622      	mov	r2, r4
 800241e:	4640      	mov	r0, r8
 8002420:	9307      	str	r3, [sp, #28]
 8002422:	9301      	str	r3, [sp, #4]
 8002424:	9403      	str	r4, [sp, #12]
 8002426:	9604      	str	r6, [sp, #16]
 8002428:	9405      	str	r4, [sp, #20]
 800242a:	9506      	str	r5, [sp, #24]
 800242c:	f8cd b020 	str.w	fp, [sp, #32]
 8002430:	9409      	str	r4, [sp, #36]	; 0x24
 8002432:	f88d 403c 	strb.w	r4, [sp, #60]	; 0x3c
 8002436:	f88d 403d 	strb.w	r4, [sp, #61]	; 0x3d
 800243a:	f88d 403e 	strb.w	r4, [sp, #62]	; 0x3e
 800243e:	f8cd a028 	str.w	sl, [sp, #40]	; 0x28
 8002442:	f8cd 902c 	str.w	r9, [sp, #44]	; 0x2c
 8002446:	960d      	str	r6, [sp, #52]	; 0x34
 8002448:	950e      	str	r5, [sp, #56]	; 0x38
 800244a:	f7fe fdc9 	bl	8000fe0 <HAL_LTDC_ConfigLayer>
 800244e:	9b01      	ldr	r3, [sp, #4]
 8002450:	9307      	str	r3, [sp, #28]
 8002452:	f8d7 30c0 	ldr.w	r3, [r7, #192]	; 0xc0
 8002456:	9403      	str	r4, [sp, #12]
 8002458:	f503 337f 	add.w	r3, r3, #261120	; 0x3fc00
 800245c:	4640      	mov	r0, r8
 800245e:	a903      	add	r1, sp, #12
 8002460:	2201      	movs	r2, #1
 8002462:	9604      	str	r6, [sp, #16]
 8002464:	9405      	str	r4, [sp, #20]
 8002466:	9506      	str	r5, [sp, #24]
 8002468:	930c      	str	r3, [sp, #48]	; 0x30
 800246a:	f8cd b020 	str.w	fp, [sp, #32]
 800246e:	9409      	str	r4, [sp, #36]	; 0x24
 8002470:	f88d 403c 	strb.w	r4, [sp, #60]	; 0x3c
 8002474:	f88d 403d 	strb.w	r4, [sp, #61]	; 0x3d
 8002478:	f88d 403e 	strb.w	r4, [sp, #62]	; 0x3e
 800247c:	f8cd a028 	str.w	sl, [sp, #40]	; 0x28
 8002480:	f8cd 902c 	str.w	r9, [sp, #44]	; 0x2c
 8002484:	960d      	str	r6, [sp, #52]	; 0x34
 8002486:	950e      	str	r5, [sp, #56]	; 0x38
 8002488:	f7fe fdaa 	bl	8000fe0 <HAL_LTDC_ConfigLayer>
 800248c:	b011      	add	sp, #68	; 0x44
 800248e:	e8bd 8ff0 	ldmia.w	sp!, {r4, r5, r6, r7, r8, r9, sl, fp, pc}

08002492 <_ZN4CLCD10SetLayer_1Ev>:
 8002492:	f8d0 30c0 	ldr.w	r3, [r0, #192]	; 0xc0
 8002496:	6003      	str	r3, [r0, #0]
 8002498:	2300      	movs	r3, #0
 800249a:	6043      	str	r3, [r0, #4]
 800249c:	4770      	bx	lr

0800249e <_ZN4CLCD10SetLayer_2Ev>:
 800249e:	f8d0 30c0 	ldr.w	r3, [r0, #192]	; 0xc0
 80024a2:	f503 337f 	add.w	r3, r3, #261120	; 0x3fc00
 80024a6:	6003      	str	r3, [r0, #0]
 80024a8:	2301      	movs	r3, #1
 80024aa:	6043      	str	r3, [r0, #4]
 80024ac:	4770      	bx	lr

080024ae <_ZN4CLCD9FillLayerEt>:
 80024ae:	6802      	ldr	r2, [r0, #0]
 80024b0:	2300      	movs	r3, #0
 80024b2:	5299      	strh	r1, [r3, r2]
 80024b4:	3302      	adds	r3, #2
 80024b6:	f5b3 3f7f 	cmp.w	r3, #261120	; 0x3fc00
 80024ba:	d1fa      	bne.n	80024b2 <_ZN4CLCD9FillLayerEt+0x4>
 80024bc:	4770      	bx	lr

080024be <_ZN4CLCD15SetTransparencyEh>:
 80024be:	6842      	ldr	r2, [r0, #4]
 80024c0:	3018      	adds	r0, #24
 80024c2:	b102      	cbz	r2, 80024c6 <_ZN4CLCD15SetTransparencyEh+0x8>
 80024c4:	2201      	movs	r2, #1
 80024c6:	f7fe bdb4 	b.w	8001032 <HAL_LTDC_SetAlpha>

080024ca <_ZN4CLCD14SetCursor2DrawEtt>:
 80024ca:	f240 13df 	movw	r3, #479	; 0x1df
 80024ce:	4299      	cmp	r1, r3
 80024d0:	bf28      	it	cs
 80024d2:	4619      	movcs	r1, r3
 80024d4:	f240 130f 	movw	r3, #271	; 0x10f
 80024d8:	429a      	cmp	r2, r3
 80024da:	bf28      	it	cs
 80024dc:	461a      	movcs	r2, r3
 80024de:	f44f 73f0 	mov.w	r3, #480	; 0x1e0
 80024e2:	81c1      	strh	r1, [r0, #14]
 80024e4:	8202      	strh	r2, [r0, #16]
 80024e6:	fb03 1202 	mla	r2, r3, r2, r1
 80024ea:	6801      	ldr	r1, [r0, #0]
 80024ec:	eb01 0242 	add.w	r2, r1, r2, lsl #1
 80024f0:	6142      	str	r2, [r0, #20]
 80024f2:	4770      	bx	lr

080024f4 <_ZN4CLCD9DrawPixelEt>:
 80024f4:	6943      	ldr	r3, [r0, #20]
 80024f6:	8019      	strh	r1, [r3, #0]
 80024f8:	7b03      	ldrb	r3, [r0, #12]
 80024fa:	2b01      	cmp	r3, #1
 80024fc:	d10f      	bne.n	800251e <_ZN4CLCD9DrawPixelEt+0x2a>
 80024fe:	89c3      	ldrh	r3, [r0, #14]
 8002500:	3301      	adds	r3, #1
 8002502:	b29b      	uxth	r3, r3
 8002504:	f5b3 7ff0 	cmp.w	r3, #480	; 0x1e0
 8002508:	d319      	bcc.n	800253e <_ZN4CLCD9DrawPixelEt+0x4a>
 800250a:	8a03      	ldrh	r3, [r0, #16]
 800250c:	3301      	adds	r3, #1
 800250e:	b29b      	uxth	r3, r3
 8002510:	2200      	movs	r2, #0
 8002512:	f5b3 7f88 	cmp.w	r3, #272	; 0x110
 8002516:	81c2      	strh	r2, [r0, #14]
 8002518:	d307      	bcc.n	800252a <_ZN4CLCD9DrawPixelEt+0x36>
 800251a:	8202      	strh	r2, [r0, #16]
 800251c:	e012      	b.n	8002544 <_ZN4CLCD9DrawPixelEt+0x50>
 800251e:	8a03      	ldrh	r3, [r0, #16]
 8002520:	3301      	adds	r3, #1
 8002522:	b29b      	uxth	r3, r3
 8002524:	f5b3 7f88 	cmp.w	r3, #272	; 0x110
 8002528:	d201      	bcs.n	800252e <_ZN4CLCD9DrawPixelEt+0x3a>
 800252a:	8203      	strh	r3, [r0, #16]
 800252c:	e00a      	b.n	8002544 <_ZN4CLCD9DrawPixelEt+0x50>
 800252e:	89c3      	ldrh	r3, [r0, #14]
 8002530:	3301      	adds	r3, #1
 8002532:	b29b      	uxth	r3, r3
 8002534:	2200      	movs	r2, #0
 8002536:	f5b3 7ff0 	cmp.w	r3, #480	; 0x1e0
 800253a:	8202      	strh	r2, [r0, #16]
 800253c:	d201      	bcs.n	8002542 <_ZN4CLCD9DrawPixelEt+0x4e>
 800253e:	81c3      	strh	r3, [r0, #14]
 8002540:	e000      	b.n	8002544 <_ZN4CLCD9DrawPixelEt+0x50>
 8002542:	81c2      	strh	r2, [r0, #14]
 8002544:	89c3      	ldrh	r3, [r0, #14]
 8002546:	8a01      	ldrh	r1, [r0, #16]
 8002548:	f44f 72f0 	mov.w	r2, #480	; 0x1e0
 800254c:	fb02 3201 	mla	r2, r2, r1, r3
 8002550:	6803      	ldr	r3, [r0, #0]
 8002552:	eb03 0342 	add.w	r3, r3, r2, lsl #1
 8002556:	6143      	str	r3, [r0, #20]
 8002558:	4770      	bx	lr
 800255a:	0000      	movs	r0, r0

0800255c <_ZN4CLCD9DrawPixelEhhh>:
 800255c:	0892      	lsrs	r2, r2, #2
 800255e:	0152      	lsls	r2, r2, #5
 8002560:	ea42 03d3 	orr.w	r3, r2, r3, lsr #3
 8002564:	08c9      	lsrs	r1, r1, #3
 8002566:	4802      	ldr	r0, [pc, #8]	; (8002570 <_ZN4CLCD9DrawPixelEhhh+0x14>)
 8002568:	ea43 21c1 	orr.w	r1, r3, r1, lsl #11
 800256c:	f7ff bfc2 	b.w	80024f4 <_ZN4CLCD9DrawPixelEt>
 8002570:	20003f14 	andcs	r3, r0, r4, lsl pc

08002574 <_ZN4CLCD9DrawPixelEiihhh>:
 8002574:	b570      	push	{r4, r5, r6, lr}
 8002576:	f89d 4010 	ldrb.w	r4, [sp, #16]
 800257a:	f89d 6014 	ldrb.w	r6, [sp, #20]
 800257e:	10a4      	asrs	r4, r4, #2
 8002580:	0164      	lsls	r4, r4, #5
 8002582:	ea44 04d6 	orr.w	r4, r4, r6, lsr #3
 8002586:	08db      	lsrs	r3, r3, #3
 8002588:	4605      	mov	r5, r0
 800258a:	ea44 24c3 	orr.w	r4, r4, r3, lsl #11
 800258e:	b289      	uxth	r1, r1
 8002590:	b292      	uxth	r2, r2
 8002592:	f7ff ff9a 	bl	80024ca <_ZN4CLCD14SetCursor2DrawEtt>
 8002596:	4628      	mov	r0, r5
 8002598:	4621      	mov	r1, r4
 800259a:	e8bd 4070 	ldmia.w	sp!, {r4, r5, r6, lr}
 800259e:	f7ff bfa9 	b.w	80024f4 <_ZN4CLCD9DrawPixelEt>

080025a2 <_ZN4CLCD8DrawLineEiiiihhh>:
 80025a2:	e92d 4ff0 	stmdb	sp!, {r4, r5, r6, r7, r8, r9, sl, fp, lr}
 80025a6:	b085      	sub	sp, #20
 80025a8:	461f      	mov	r7, r3
 80025aa:	f89d 303c 	ldrb.w	r3, [sp, #60]	; 0x3c
 80025ae:	9301      	str	r3, [sp, #4]
 80025b0:	4616      	mov	r6, r2
 80025b2:	f89d 3040 	ldrb.w	r3, [sp, #64]	; 0x40
 80025b6:	9a0e      	ldr	r2, [sp, #56]	; 0x38
 80025b8:	9302      	str	r3, [sp, #8]
 80025ba:	1bcc      	subs	r4, r1, r7
 80025bc:	f89d 3044 	ldrb.w	r3, [sp, #68]	; 0x44
 80025c0:	9303      	str	r3, [sp, #12]
 80025c2:	2c00      	cmp	r4, #0
 80025c4:	eba6 0302 	sub.w	r3, r6, r2
 80025c8:	bfb8      	it	lt
 80025ca:	4264      	neglt	r4, r4
 80025cc:	2b00      	cmp	r3, #0
 80025ce:	bfb8      	it	lt
 80025d0:	425b      	neglt	r3, r3
 80025d2:	42a3      	cmp	r3, r4
 80025d4:	460d      	mov	r5, r1
 80025d6:	bfc1      	itttt	gt
 80025d8:	4621      	movgt	r1, r4
 80025da:	461c      	movgt	r4, r3
 80025dc:	460b      	movgt	r3, r1
 80025de:	4639      	movgt	r1, r7
 80025e0:	bfc1      	itttt	gt
 80025e2:	4617      	movgt	r7, r2
 80025e4:	460a      	movgt	r2, r1
 80025e6:	4629      	movgt	r1, r5
 80025e8:	4635      	movgt	r5, r6
 80025ea:	bfc6      	itte	gt
 80025ec:	f04f 0901 	movgt.w	r9, #1
 80025f0:	460e      	movgt	r6, r1
 80025f2:	f04f 0900 	movle.w	r9, #0
 80025f6:	42bd      	cmp	r5, r7
 80025f8:	bfc8      	it	gt
 80025fa:	4631      	movgt	r1, r6
 80025fc:	ea4f 0a43 	mov.w	sl, r3, lsl #1
 8002600:	bfc2      	ittt	gt
 8002602:	4616      	movgt	r6, r2
 8002604:	460a      	movgt	r2, r1
 8002606:	4629      	movgt	r1, r5
 8002608:	ebc4 0b0a 	rsb	fp, r4, sl
 800260c:	bfc8      	it	gt
 800260e:	463d      	movgt	r5, r7
 8002610:	eba3 0404 	sub.w	r4, r3, r4
 8002614:	bfc8      	it	gt
 8002616:	460f      	movgt	r7, r1
 8002618:	4296      	cmp	r6, r2
 800261a:	bfcc      	ite	gt
 800261c:	f04f 32ff 	movgt.w	r2, #4294967295	; 0xffffffff
 8002620:	2201      	movle	r2, #1
 8002622:	4680      	mov	r8, r0
 8002624:	9200      	str	r2, [sp, #0]
 8002626:	0064      	lsls	r4, r4, #1
 8002628:	42bd      	cmp	r5, r7
 800262a:	da1b      	bge.n	8002664 <_ZN4CLCD8DrawLineEiiiihhh+0xc2>
 800262c:	f1bb 0f00 	cmp.w	fp, #0
 8002630:	bfc8      	it	gt
 8002632:	9b00      	ldrgt	r3, [sp, #0]
 8002634:	f105 0501 	add.w	r5, r5, #1
 8002638:	bfca      	itet	gt
 800263a:	18f6      	addgt	r6, r6, r3
 800263c:	44d3      	addle	fp, sl
 800263e:	44a3      	addgt	fp, r4
 8002640:	b2b3      	uxth	r3, r6
 8002642:	b2aa      	uxth	r2, r5
 8002644:	4640      	mov	r0, r8
 8002646:	f1b9 0f00 	cmp.w	r9, #0
 800264a:	d001      	beq.n	8002650 <_ZN4CLCD8DrawLineEiiiihhh+0xae>
 800264c:	4619      	mov	r1, r3
 800264e:	e001      	b.n	8002654 <_ZN4CLCD8DrawLineEiiiihhh+0xb2>
 8002650:	4611      	mov	r1, r2
 8002652:	461a      	mov	r2, r3
 8002654:	f7ff ff39 	bl	80024ca <_ZN4CLCD14SetCursor2DrawEtt>
 8002658:	a901      	add	r1, sp, #4
 800265a:	4640      	mov	r0, r8
 800265c:	c90e      	ldmia	r1, {r1, r2, r3}
 800265e:	f7ff ff7d 	bl	800255c <_ZN4CLCD9DrawPixelEhhh>
 8002662:	e7e1      	b.n	8002628 <_ZN4CLCD8DrawLineEiiiihhh+0x86>
 8002664:	b005      	add	sp, #20
 8002666:	e8bd 8ff0 	ldmia.w	sp!, {r4, r5, r6, r7, r8, r9, sl, fp, pc}

0800266a <_ZN4CLCD13DrawRectangleEiiiihhhb>:
 800266a:	e92d 4ff0 	stmdb	sp!, {r4, r5, r6, r7, r8, r9, sl, fp, lr}
 800266e:	b089      	sub	sp, #36	; 0x24
 8002670:	4699      	mov	r9, r3
 8002672:	f89d 304c 	ldrb.w	r3, [sp, #76]	; 0x4c
 8002676:	9304      	str	r3, [sp, #16]
 8002678:	f89d 3050 	ldrb.w	r3, [sp, #80]	; 0x50
 800267c:	9305      	str	r3, [sp, #20]
 800267e:	f89d 3054 	ldrb.w	r3, [sp, #84]	; 0x54
 8002682:	9306      	str	r3, [sp, #24]
 8002684:	4617      	mov	r7, r2
 8002686:	2302      	movs	r3, #2
 8002688:	f89d 6058 	ldrb.w	r6, [sp, #88]	; 0x58
 800268c:	fb99 f2f3 	sdiv	r2, r9, r3
 8002690:	4252      	negs	r2, r2
 8002692:	9203      	str	r2, [sp, #12]
 8002694:	4684      	mov	ip, r0
 8002696:	9a12      	ldr	r2, [sp, #72]	; 0x48
 8002698:	fb92 f3f3 	sdiv	r3, r2, r3
 800269c:	4688      	mov	r8, r1
 800269e:	f1c3 0b00 	rsb	fp, r3, #0
 80026a2:	2500      	movs	r5, #0
 80026a4:	9b12      	ldr	r3, [sp, #72]	; 0x48
 80026a6:	429d      	cmp	r5, r3
 80026a8:	da25      	bge.n	80026f6 <_ZN4CLCD13DrawRectangleEiiiihhhb+0x8c>
 80026aa:	eb0b 0307 	add.w	r3, fp, r7
 80026ae:	442b      	add	r3, r5
 80026b0:	19ea      	adds	r2, r5, r7
 80026b2:	2e00      	cmp	r6, #0
 80026b4:	bf08      	it	eq
 80026b6:	4613      	moveq	r3, r2
 80026b8:	ea23 7ae3 	bic.w	sl, r3, r3, asr #31
 80026bc:	2400      	movs	r4, #0
 80026be:	454c      	cmp	r4, r9
 80026c0:	da17      	bge.n	80026f2 <_ZN4CLCD13DrawRectangleEiiiihhhb+0x88>
 80026c2:	eb04 0108 	add.w	r1, r4, r8
 80026c6:	b11e      	cbz	r6, 80026d0 <_ZN4CLCD13DrawRectangleEiiiihhhb+0x66>
 80026c8:	9b03      	ldr	r3, [sp, #12]
 80026ca:	eb03 0108 	add.w	r1, r3, r8
 80026ce:	4421      	add	r1, r4
 80026d0:	9b05      	ldr	r3, [sp, #20]
 80026d2:	9300      	str	r3, [sp, #0]
 80026d4:	9b06      	ldr	r3, [sp, #24]
 80026d6:	9301      	str	r3, [sp, #4]
 80026d8:	4660      	mov	r0, ip
 80026da:	ea21 71e1 	bic.w	r1, r1, r1, asr #31
 80026de:	4652      	mov	r2, sl
 80026e0:	9b04      	ldr	r3, [sp, #16]
 80026e2:	f8cd c01c 	str.w	ip, [sp, #28]
 80026e6:	3401      	adds	r4, #1
 80026e8:	f7ff ff44 	bl	8002574 <_ZN4CLCD9DrawPixelEiihhh>
 80026ec:	f8dd c01c 	ldr.w	ip, [sp, #28]
 80026f0:	e7e5      	b.n	80026be <_ZN4CLCD13DrawRectangleEiiiihhhb+0x54>
 80026f2:	3501      	adds	r5, #1
 80026f4:	e7d6      	b.n	80026a4 <_ZN4CLCD13DrawRectangleEiiiihhhb+0x3a>
 80026f6:	b009      	add	sp, #36	; 0x24
 80026f8:	e8bd 8ff0 	ldmia.w	sp!, {r4, r5, r6, r7, r8, r9, sl, fp, pc}

080026fc <_ZN4CLCD8GetPixelEv>:
 80026fc:	6943      	ldr	r3, [r0, #20]
 80026fe:	8818      	ldrh	r0, [r3, #0]
 8002700:	b280      	uxth	r0, r0
 8002702:	4770      	bx	lr

08002704 <_ZN4CLCD7RefreshEv>:
 8002704:	b538      	push	{r3, r4, r5, lr}
 8002706:	6845      	ldr	r5, [r0, #4]
 8002708:	4604      	mov	r4, r0
 800270a:	b93d      	cbnz	r5, 800271c <_ZN4CLCD7RefreshEv+0x18>
 800270c:	f7ff fec7 	bl	800249e <_ZN4CLCD10SetLayer_2Ev>
 8002710:	4620      	mov	r0, r4
 8002712:	4629      	mov	r1, r5
 8002714:	e8bd 4038 	ldmia.w	sp!, {r3, r4, r5, lr}
 8002718:	f7ff bed1 	b.w	80024be <_ZN4CLCD15SetTransparencyEh>
 800271c:	21ff      	movs	r1, #255	; 0xff
 800271e:	f7ff fece 	bl	80024be <_ZN4CLCD15SetTransparencyEh>
 8002722:	f8d4 30c0 	ldr.w	r3, [r4, #192]	; 0xc0
 8002726:	6023      	str	r3, [r4, #0]
 8002728:	2300      	movs	r3, #0
 800272a:	6063      	str	r3, [r4, #4]
 800272c:	bd38      	pop	{r3, r4, r5, pc}
 800272e:	0000      	movs	r0, r0

08002730 <_ZN4CLCD23lcd_480x272_ClockConfigEv>:
 8002730:	4805      	ldr	r0, [pc, #20]	; (8002748 <_ZN4CLCD23lcd_480x272_ClockConfigEv+0x18>)
 8002732:	2308      	movs	r3, #8
 8002734:	6003      	str	r3, [r0, #0]
 8002736:	23c0      	movs	r3, #192	; 0xc0
 8002738:	6143      	str	r3, [r0, #20]
 800273a:	2305      	movs	r3, #5
 800273c:	61c3      	str	r3, [r0, #28]
 800273e:	f44f 3380 	mov.w	r3, #65536	; 0x10000
 8002742:	62c3      	str	r3, [r0, #44]	; 0x2c
 8002744:	f7fe bd22 	b.w	800118c <HAL_RCCEx_PeriphCLKConfig>
 8002748:	20003e90 	mulcs	r0, r0, lr

0800274c <_ZN4CLCD19lcd_480x272_MspInitEv>:
 800274c:	b5f0      	push	{r4, r5, r6, r7, lr}
 800274e:	b08f      	sub	sp, #60	; 0x3c
 8002750:	4b4e      	ldr	r3, [pc, #312]	; (800288c <_ZN4CLCD19lcd_480x272_MspInitEv+0x140>)
 8002752:	4e4f      	ldr	r6, [pc, #316]	; (8002890 <_ZN4CLCD19lcd_480x272_MspInitEv+0x144>)
 8002754:	484f      	ldr	r0, [pc, #316]	; (8002894 <_ZN4CLCD19lcd_480x272_MspInitEv+0x148>)
 8002756:	2200      	movs	r2, #0
 8002758:	9200      	str	r2, [sp, #0]
 800275a:	6c59      	ldr	r1, [r3, #68]	; 0x44
 800275c:	f041 6180 	orr.w	r1, r1, #67108864	; 0x4000000
 8002760:	6459      	str	r1, [r3, #68]	; 0x44
 8002762:	6c59      	ldr	r1, [r3, #68]	; 0x44
 8002764:	f001 6180 	and.w	r1, r1, #67108864	; 0x4000000
 8002768:	9100      	str	r1, [sp, #0]
 800276a:	9900      	ldr	r1, [sp, #0]
 800276c:	9201      	str	r2, [sp, #4]
 800276e:	6b19      	ldr	r1, [r3, #48]	; 0x30
 8002770:	f441 0100 	orr.w	r1, r1, #8388608	; 0x800000
 8002774:	6319      	str	r1, [r3, #48]	; 0x30
 8002776:	6b19      	ldr	r1, [r3, #48]	; 0x30
 8002778:	f401 0100 	and.w	r1, r1, #8388608	; 0x800000
 800277c:	9101      	str	r1, [sp, #4]
 800277e:	9901      	ldr	r1, [sp, #4]
 8002780:	9202      	str	r2, [sp, #8]
 8002782:	6b19      	ldr	r1, [r3, #48]	; 0x30
 8002784:	f041 0110 	orr.w	r1, r1, #16
 8002788:	6319      	str	r1, [r3, #48]	; 0x30
 800278a:	6b19      	ldr	r1, [r3, #48]	; 0x30
 800278c:	f001 0110 	and.w	r1, r1, #16
 8002790:	9102      	str	r1, [sp, #8]
 8002792:	9902      	ldr	r1, [sp, #8]
 8002794:	9203      	str	r2, [sp, #12]
 8002796:	6b19      	ldr	r1, [r3, #48]	; 0x30
 8002798:	f041 0140 	orr.w	r1, r1, #64	; 0x40
 800279c:	6319      	str	r1, [r3, #48]	; 0x30
 800279e:	6b19      	ldr	r1, [r3, #48]	; 0x30
 80027a0:	f001 0140 	and.w	r1, r1, #64	; 0x40
 80027a4:	9103      	str	r1, [sp, #12]
 80027a6:	9903      	ldr	r1, [sp, #12]
 80027a8:	9204      	str	r2, [sp, #16]
 80027aa:	6b19      	ldr	r1, [r3, #48]	; 0x30
 80027ac:	f441 7180 	orr.w	r1, r1, #256	; 0x100
 80027b0:	6319      	str	r1, [r3, #48]	; 0x30
 80027b2:	6b19      	ldr	r1, [r3, #48]	; 0x30
 80027b4:	f401 7180 	and.w	r1, r1, #256	; 0x100
 80027b8:	9104      	str	r1, [sp, #16]
 80027ba:	9904      	ldr	r1, [sp, #16]
 80027bc:	9205      	str	r2, [sp, #20]
 80027be:	6b19      	ldr	r1, [r3, #48]	; 0x30
 80027c0:	f441 7100 	orr.w	r1, r1, #512	; 0x200
 80027c4:	6319      	str	r1, [r3, #48]	; 0x30
 80027c6:	6b19      	ldr	r1, [r3, #48]	; 0x30
 80027c8:	f401 7100 	and.w	r1, r1, #512	; 0x200
 80027cc:	9105      	str	r1, [sp, #20]
 80027ce:	9905      	ldr	r1, [sp, #20]
 80027d0:	9206      	str	r2, [sp, #24]
 80027d2:	6b19      	ldr	r1, [r3, #48]	; 0x30
 80027d4:	f441 6180 	orr.w	r1, r1, #1024	; 0x400
 80027d8:	6319      	str	r1, [r3, #48]	; 0x30
 80027da:	6b19      	ldr	r1, [r3, #48]	; 0x30
 80027dc:	f401 6180 	and.w	r1, r1, #1024	; 0x400
 80027e0:	9106      	str	r1, [sp, #24]
 80027e2:	9906      	ldr	r1, [sp, #24]
 80027e4:	9207      	str	r2, [sp, #28]
 80027e6:	6b19      	ldr	r1, [r3, #48]	; 0x30
 80027e8:	f441 7180 	orr.w	r1, r1, #256	; 0x100
 80027ec:	6319      	str	r1, [r3, #48]	; 0x30
 80027ee:	6b19      	ldr	r1, [r3, #48]	; 0x30
 80027f0:	f401 7180 	and.w	r1, r1, #256	; 0x100
 80027f4:	9107      	str	r1, [sp, #28]
 80027f6:	9907      	ldr	r1, [sp, #28]
 80027f8:	9208      	str	r2, [sp, #32]
 80027fa:	6b19      	ldr	r1, [r3, #48]	; 0x30
 80027fc:	f441 6180 	orr.w	r1, r1, #1024	; 0x400
 8002800:	6319      	str	r1, [r3, #48]	; 0x30
 8002802:	6b1b      	ldr	r3, [r3, #48]	; 0x30
 8002804:	920b      	str	r2, [sp, #44]	; 0x2c
 8002806:	f403 6380 	and.w	r3, r3, #1024	; 0x400
 800280a:	9308      	str	r3, [sp, #32]
 800280c:	2402      	movs	r4, #2
 800280e:	250e      	movs	r5, #14
 8002810:	9b08      	ldr	r3, [sp, #32]
 8002812:	940a      	str	r4, [sp, #40]	; 0x28
 8002814:	2310      	movs	r3, #16
 8002816:	a909      	add	r1, sp, #36	; 0x24
 8002818:	9309      	str	r3, [sp, #36]	; 0x24
 800281a:	940c      	str	r4, [sp, #48]	; 0x30
 800281c:	950d      	str	r5, [sp, #52]	; 0x34
 800281e:	f44f 5780 	mov.w	r7, #4096	; 0x1000
 8002822:	f7ff fc75 	bl	8002110 <HAL_GPIO_Init>
 8002826:	2309      	movs	r3, #9
 8002828:	a909      	add	r1, sp, #36	; 0x24
 800282a:	481b      	ldr	r0, [pc, #108]	; (8002898 <_ZN4CLCD19lcd_480x272_MspInitEv+0x14c>)
 800282c:	940a      	str	r4, [sp, #40]	; 0x28
 800282e:	930d      	str	r3, [sp, #52]	; 0x34
 8002830:	9709      	str	r7, [sp, #36]	; 0x24
 8002832:	f7ff fc6d 	bl	8002110 <HAL_GPIO_Init>
 8002836:	f44f 4367 	mov.w	r3, #59136	; 0xe700
 800283a:	4630      	mov	r0, r6
 800283c:	a909      	add	r1, sp, #36	; 0x24
 800283e:	9309      	str	r3, [sp, #36]	; 0x24
 8002840:	940a      	str	r4, [sp, #40]	; 0x28
 8002842:	950d      	str	r5, [sp, #52]	; 0x34
 8002844:	f7ff fc64 	bl	8002110 <HAL_GPIO_Init>
 8002848:	f64e 73ff 	movw	r3, #61439	; 0xefff
 800284c:	a909      	add	r1, sp, #36	; 0x24
 800284e:	4813      	ldr	r0, [pc, #76]	; (800289c <_ZN4CLCD19lcd_480x272_MspInitEv+0x150>)
 8002850:	9309      	str	r3, [sp, #36]	; 0x24
 8002852:	940a      	str	r4, [sp, #40]	; 0x28
 8002854:	950d      	str	r5, [sp, #52]	; 0x34
 8002856:	f7ff fc5b 	bl	8002110 <HAL_GPIO_Init>
 800285a:	940a      	str	r4, [sp, #40]	; 0x28
 800285c:	4c10      	ldr	r4, [pc, #64]	; (80028a0 <_ZN4CLCD19lcd_480x272_MspInitEv+0x154>)
 800285e:	950d      	str	r5, [sp, #52]	; 0x34
 8002860:	23f7      	movs	r3, #247	; 0xf7
 8002862:	4620      	mov	r0, r4
 8002864:	a909      	add	r1, sp, #36	; 0x24
 8002866:	9309      	str	r3, [sp, #36]	; 0x24
 8002868:	2501      	movs	r5, #1
 800286a:	f7ff fc51 	bl	8002110 <HAL_GPIO_Init>
 800286e:	4630      	mov	r0, r6
 8002870:	a909      	add	r1, sp, #36	; 0x24
 8002872:	9709      	str	r7, [sp, #36]	; 0x24
 8002874:	950a      	str	r5, [sp, #40]	; 0x28
 8002876:	f7ff fc4b 	bl	8002110 <HAL_GPIO_Init>
 800287a:	2308      	movs	r3, #8
 800287c:	4620      	mov	r0, r4
 800287e:	a909      	add	r1, sp, #36	; 0x24
 8002880:	9309      	str	r3, [sp, #36]	; 0x24
 8002882:	950a      	str	r5, [sp, #40]	; 0x28
 8002884:	f7ff fc44 	bl	8002110 <HAL_GPIO_Init>
 8002888:	b00f      	add	sp, #60	; 0x3c
 800288a:	bdf0      	pop	{r4, r5, r6, r7, pc}
 800288c:	40023800 	andmi	r3, r2, r0, lsl #16
 8002890:	40022000 	andmi	r2, r2, r0
 8002894:	40021000 	andmi	r1, r2, r0
 8002898:	40021800 	andmi	r1, r2, r0, lsl #16
 800289c:	40022400 	andmi	r2, r2, r0, lsl #8
 80028a0:	40022800 	andmi	r2, r2, r0, lsl #16

080028a4 <_ZN4CLCD16lcd_480x272_initEv>:
 80028a4:	b538      	push	{r3, r4, r5, lr}
 80028a6:	2328      	movs	r3, #40	; 0x28
 80028a8:	62c3      	str	r3, [r0, #44]	; 0x2c
 80028aa:	2309      	movs	r3, #9
 80028ac:	6303      	str	r3, [r0, #48]	; 0x30
 80028ae:	2335      	movs	r3, #53	; 0x35
 80028b0:	6343      	str	r3, [r0, #52]	; 0x34
 80028b2:	230b      	movs	r3, #11
 80028b4:	6383      	str	r3, [r0, #56]	; 0x38
 80028b6:	f240 131b 	movw	r3, #283	; 0x11b
 80028ba:	6403      	str	r3, [r0, #64]	; 0x40
 80028bc:	f240 2315 	movw	r3, #533	; 0x215
 80028c0:	63c3      	str	r3, [r0, #60]	; 0x3c
 80028c2:	f240 131d 	movw	r3, #285	; 0x11d
 80028c6:	6483      	str	r3, [r0, #72]	; 0x48
 80028c8:	f240 2335 	movw	r3, #565	; 0x235
 80028cc:	4604      	mov	r4, r0
 80028ce:	6443      	str	r3, [r0, #68]	; 0x44
 80028d0:	f7ff ff2e 	bl	8002730 <_ZN4CLCD23lcd_480x272_ClockConfigEv>
 80028d4:	f44f 73f0 	mov.w	r3, #480	; 0x1e0
 80028d8:	67a3      	str	r3, [r4, #120]	; 0x78
 80028da:	f44f 7388 	mov.w	r3, #272	; 0x110
 80028de:	67e3      	str	r3, [r4, #124]	; 0x7c
 80028e0:	4625      	mov	r5, r4
 80028e2:	2300      	movs	r3, #0
 80028e4:	f884 304c 	strb.w	r3, [r4, #76]	; 0x4c
 80028e8:	f884 304d 	strb.w	r3, [r4, #77]	; 0x4d
 80028ec:	f884 304e 	strb.w	r3, [r4, #78]	; 0x4e
 80028f0:	61e3      	str	r3, [r4, #28]
 80028f2:	6223      	str	r3, [r4, #32]
 80028f4:	6263      	str	r3, [r4, #36]	; 0x24
 80028f6:	62a3      	str	r3, [r4, #40]	; 0x28
 80028f8:	4b0c      	ldr	r3, [pc, #48]	; (800292c <_ZN4CLCD16lcd_480x272_initEv+0x88>)
 80028fa:	f845 3f18 	str.w	r3, [r5, #24]!
 80028fe:	4628      	mov	r0, r5
 8002900:	f7fe fbb7 	bl	8001072 <HAL_LTDC_GetState>
 8002904:	b910      	cbnz	r0, 800290c <_ZN4CLCD16lcd_480x272_initEv+0x68>
 8002906:	4620      	mov	r0, r4
 8002908:	f7ff ff20 	bl	800274c <_ZN4CLCD19lcd_480x272_MspInitEv>
 800290c:	4628      	mov	r0, r5
 800290e:	f7fe faf3 	bl	8000ef8 <HAL_LTDC_Init>
 8002912:	4807      	ldr	r0, [pc, #28]	; (8002930 <_ZN4CLCD16lcd_480x272_initEv+0x8c>)
 8002914:	f44f 5180 	mov.w	r1, #4096	; 0x1000
 8002918:	2201      	movs	r2, #1
 800291a:	f7ff fce9 	bl	80022f0 <HAL_GPIO_WritePin>
 800291e:	4805      	ldr	r0, [pc, #20]	; (8002934 <_ZN4CLCD16lcd_480x272_initEv+0x90>)
 8002920:	2108      	movs	r1, #8
 8002922:	2201      	movs	r2, #1
 8002924:	e8bd 4038 	ldmia.w	sp!, {r3, r4, r5, lr}
 8002928:	f7ff bce2 	b.w	80022f0 <HAL_GPIO_WritePin>
 800292c:	40016800 	andmi	r6, r1, r0, lsl #16
 8002930:	40022000 	andmi	r2, r2, r0
 8002934:	40022800 	andmi	r2, r2, r0, lsl #16

08002938 <_ZN4CLCD4initEPm>:
 8002938:	b538      	push	{r3, r4, r5, lr}
 800293a:	4604      	mov	r4, r0
 800293c:	2301      	movs	r3, #1
 800293e:	f8c0 10c0 	str.w	r1, [r0, #192]	; 0xc0
 8002942:	7303      	strb	r3, [r0, #12]
 8002944:	f7ff ffae 	bl	80028a4 <_ZN4CLCD16lcd_480x272_initEv>
 8002948:	f8d4 30c0 	ldr.w	r3, [r4, #192]	; 0xc0
 800294c:	2500      	movs	r5, #0
 800294e:	e884 0028 	stmia.w	r4, {r3, r5}
 8002952:	4620      	mov	r0, r4
 8002954:	81e5      	strh	r5, [r4, #14]
 8002956:	8225      	strh	r5, [r4, #16]
 8002958:	6165      	str	r5, [r4, #20]
 800295a:	60a5      	str	r5, [r4, #8]
 800295c:	f7ff fd48 	bl	80023f0 <_ZN4CLCD20LayerInit_FullscreenEv>
 8002960:	f8d4 30c0 	ldr.w	r3, [r4, #192]	; 0xc0
 8002964:	4629      	mov	r1, r5
 8002966:	e884 0028 	stmia.w	r4, {r3, r5}
 800296a:	4620      	mov	r0, r4
 800296c:	f7ff fd9f 	bl	80024ae <_ZN4CLCD9FillLayerEt>
 8002970:	4620      	mov	r0, r4
 8002972:	f7ff fd94 	bl	800249e <_ZN4CLCD10SetLayer_2Ev>
 8002976:	4620      	mov	r0, r4
 8002978:	4629      	mov	r1, r5
 800297a:	f7ff fd98 	bl	80024ae <_ZN4CLCD9FillLayerEt>
 800297e:	f8d4 30c0 	ldr.w	r3, [r4, #192]	; 0xc0
 8002982:	e884 0028 	stmia.w	r4, {r3, r5}
 8002986:	bd38      	pop	{r3, r4, r5, pc}

08002988 <_GLOBAL__sub_I_lcd>:
 8002988:	4802      	ldr	r0, [pc, #8]	; (8002994 <_GLOBAL__sub_I_lcd+0xc>)
 800298a:	4903      	ldr	r1, [pc, #12]	; (8002998 <_GLOBAL__sub_I_lcd+0x10>)
 800298c:	4a03      	ldr	r2, [pc, #12]	; (800299c <_GLOBAL__sub_I_lcd+0x14>)
 800298e:	f002 b83f 	b.w	8004a10 <__aeabi_atexit>
 8002992:	bf00      	nop
 8002994:	20003f14 	andcs	r3, r0, r4, lsl pc
 8002998:	080023e3 	stmdaeq	r0, {r0, r1, r5, r6, r7, r8, r9, sp}
 800299c:	20000000 	andcs	r0, r0, r0

080029a0 <_ZN6CSDRamD1Ev>:
 80029a0:	4770      	bx	lr

080029a2 <_ZN6CSDRam8allocateEj>:
 80029a2:	6e03      	ldr	r3, [r0, #96]	; 0x60
 80029a4:	eb03 0181 	add.w	r1, r3, r1, lsl #2
 80029a8:	6601      	str	r1, [r0, #96]	; 0x60
 80029aa:	4618      	mov	r0, r3
 80029ac:	4770      	bx	lr
 80029ae:	0000      	movs	r0, r0

080029b0 <_ZN6CSDRam27ram_initialization_sequenceEm>:
 80029b0:	e92d 43f7 	stmdb	sp!, {r0, r1, r2, r4, r5, r6, r7, r8, r9, lr}
 80029b4:	2300      	movs	r3, #0
 80029b6:	2201      	movs	r2, #1
 80029b8:	f100 0650 	add.w	r6, r0, #80	; 0x50
 80029bc:	4689      	mov	r9, r1
 80029be:	2110      	movs	r1, #16
 80029c0:	6502      	str	r2, [r0, #80]	; 0x50
 80029c2:	6541      	str	r1, [r0, #84]	; 0x54
 80029c4:	6582      	str	r2, [r0, #88]	; 0x58
 80029c6:	65c3      	str	r3, [r0, #92]	; 0x5c
 80029c8:	4631      	mov	r1, r6
 80029ca:	f64f 72ff 	movw	r2, #65535	; 0xffff
 80029ce:	4604      	mov	r4, r0
 80029d0:	9301      	str	r3, [sp, #4]
 80029d2:	f7ff fb74 	bl	80020be <HAL_SDRAM_SendCommand>
 80029d6:	4d1b      	ldr	r5, [pc, #108]	; (8002a44 <_ZN6CSDRam27ram_initialization_sequenceEm+0x94>)
 80029d8:	3d01      	subs	r5, #1
 80029da:	d001      	beq.n	80029e0 <_ZN6CSDRam27ram_initialization_sequenceEm+0x30>
 80029dc:	bf00      	nop
 80029de:	e7fb      	b.n	80029d8 <_ZN6CSDRam27ram_initialization_sequenceEm+0x28>
 80029e0:	2710      	movs	r7, #16
 80029e2:	2302      	movs	r3, #2
 80029e4:	f04f 0801 	mov.w	r8, #1
 80029e8:	6523      	str	r3, [r4, #80]	; 0x50
 80029ea:	4631      	mov	r1, r6
 80029ec:	6567      	str	r7, [r4, #84]	; 0x54
 80029ee:	f8c4 8058 	str.w	r8, [r4, #88]	; 0x58
 80029f2:	65e5      	str	r5, [r4, #92]	; 0x5c
 80029f4:	4620      	mov	r0, r4
 80029f6:	f64f 72ff 	movw	r2, #65535	; 0xffff
 80029fa:	f7ff fb60 	bl	80020be <HAL_SDRAM_SendCommand>
 80029fe:	2303      	movs	r3, #3
 8002a00:	6523      	str	r3, [r4, #80]	; 0x50
 8002a02:	2308      	movs	r3, #8
 8002a04:	65a3      	str	r3, [r4, #88]	; 0x58
 8002a06:	4631      	mov	r1, r6
 8002a08:	6567      	str	r7, [r4, #84]	; 0x54
 8002a0a:	65e5      	str	r5, [r4, #92]	; 0x5c
 8002a0c:	4620      	mov	r0, r4
 8002a0e:	f64f 72ff 	movw	r2, #65535	; 0xffff
 8002a12:	f7ff fb54 	bl	80020be <HAL_SDRAM_SendCommand>
 8002a16:	f44f 7308 	mov.w	r3, #544	; 0x220
 8002a1a:	9301      	str	r3, [sp, #4]
 8002a1c:	2304      	movs	r3, #4
 8002a1e:	6523      	str	r3, [r4, #80]	; 0x50
 8002a20:	9b01      	ldr	r3, [sp, #4]
 8002a22:	65e3      	str	r3, [r4, #92]	; 0x5c
 8002a24:	4631      	mov	r1, r6
 8002a26:	f64f 72ff 	movw	r2, #65535	; 0xffff
 8002a2a:	6567      	str	r7, [r4, #84]	; 0x54
 8002a2c:	f8c4 8058 	str.w	r8, [r4, #88]	; 0x58
 8002a30:	4620      	mov	r0, r4
 8002a32:	f7ff fb44 	bl	80020be <HAL_SDRAM_SendCommand>
 8002a36:	4620      	mov	r0, r4
 8002a38:	4649      	mov	r1, r9
 8002a3a:	f7ff fb57 	bl	80020ec <HAL_SDRAM_ProgramRefreshRate>
 8002a3e:	b003      	add	sp, #12
 8002a40:	e8bd 83f0 	ldmia.w	sp!, {r4, r5, r6, r7, r8, r9, pc}
 8002a44:	00034bc1 	andeq	r4, r3, r1, asr #23

08002a48 <_ZN6CSDRam8msp_initEv>:
 8002a48:	b510      	push	{r4, lr}
 8002a4a:	b08c      	sub	sp, #48	; 0x30
 8002a4c:	4b3d      	ldr	r3, [pc, #244]	; (8002b44 <_ZN6CSDRam8msp_initEv+0xfc>)
 8002a4e:	483e      	ldr	r0, [pc, #248]	; (8002b48 <_ZN6CSDRam8msp_initEv+0x100>)
 8002a50:	2200      	movs	r2, #0
 8002a52:	9200      	str	r2, [sp, #0]
 8002a54:	6b99      	ldr	r1, [r3, #56]	; 0x38
 8002a56:	f041 0101 	orr.w	r1, r1, #1
 8002a5a:	6399      	str	r1, [r3, #56]	; 0x38
 8002a5c:	6b99      	ldr	r1, [r3, #56]	; 0x38
 8002a5e:	f001 0101 	and.w	r1, r1, #1
 8002a62:	9100      	str	r1, [sp, #0]
 8002a64:	9900      	ldr	r1, [sp, #0]
 8002a66:	9201      	str	r2, [sp, #4]
 8002a68:	6b19      	ldr	r1, [r3, #48]	; 0x30
 8002a6a:	f041 0104 	orr.w	r1, r1, #4
 8002a6e:	6319      	str	r1, [r3, #48]	; 0x30
 8002a70:	6b19      	ldr	r1, [r3, #48]	; 0x30
 8002a72:	f001 0104 	and.w	r1, r1, #4
 8002a76:	9101      	str	r1, [sp, #4]
 8002a78:	9901      	ldr	r1, [sp, #4]
 8002a7a:	9202      	str	r2, [sp, #8]
 8002a7c:	6b19      	ldr	r1, [r3, #48]	; 0x30
 8002a7e:	f041 0108 	orr.w	r1, r1, #8
 8002a82:	6319      	str	r1, [r3, #48]	; 0x30
 8002a84:	6b19      	ldr	r1, [r3, #48]	; 0x30
 8002a86:	f001 0108 	and.w	r1, r1, #8
 8002a8a:	9102      	str	r1, [sp, #8]
 8002a8c:	9902      	ldr	r1, [sp, #8]
 8002a8e:	9203      	str	r2, [sp, #12]
 8002a90:	6b19      	ldr	r1, [r3, #48]	; 0x30
 8002a92:	f041 0110 	orr.w	r1, r1, #16
 8002a96:	6319      	str	r1, [r3, #48]	; 0x30
 8002a98:	6b19      	ldr	r1, [r3, #48]	; 0x30
 8002a9a:	f001 0110 	and.w	r1, r1, #16
 8002a9e:	9103      	str	r1, [sp, #12]
 8002aa0:	9903      	ldr	r1, [sp, #12]
 8002aa2:	9204      	str	r2, [sp, #16]
 8002aa4:	6b19      	ldr	r1, [r3, #48]	; 0x30
 8002aa6:	f041 0120 	orr.w	r1, r1, #32
 8002aaa:	6319      	str	r1, [r3, #48]	; 0x30
 8002aac:	6b19      	ldr	r1, [r3, #48]	; 0x30
 8002aae:	f001 0120 	and.w	r1, r1, #32
 8002ab2:	9104      	str	r1, [sp, #16]
 8002ab4:	9904      	ldr	r1, [sp, #16]
 8002ab6:	9205      	str	r2, [sp, #20]
 8002ab8:	6b19      	ldr	r1, [r3, #48]	; 0x30
 8002aba:	f041 0140 	orr.w	r1, r1, #64	; 0x40
 8002abe:	6319      	str	r1, [r3, #48]	; 0x30
 8002ac0:	6b19      	ldr	r1, [r3, #48]	; 0x30
 8002ac2:	f001 0140 	and.w	r1, r1, #64	; 0x40
 8002ac6:	9105      	str	r1, [sp, #20]
 8002ac8:	9905      	ldr	r1, [sp, #20]
 8002aca:	9206      	str	r2, [sp, #24]
 8002acc:	6b1a      	ldr	r2, [r3, #48]	; 0x30
 8002ace:	f042 0280 	orr.w	r2, r2, #128	; 0x80
 8002ad2:	631a      	str	r2, [r3, #48]	; 0x30
 8002ad4:	6b1b      	ldr	r3, [r3, #48]	; 0x30
 8002ad6:	f003 0380 	and.w	r3, r3, #128	; 0x80
 8002ada:	9306      	str	r3, [sp, #24]
 8002adc:	9b06      	ldr	r3, [sp, #24]
 8002ade:	2302      	movs	r3, #2
 8002ae0:	ac0c      	add	r4, sp, #48	; 0x30
 8002ae2:	9308      	str	r3, [sp, #32]
 8002ae4:	930a      	str	r3, [sp, #40]	; 0x28
 8002ae6:	230c      	movs	r3, #12
 8002ae8:	930b      	str	r3, [sp, #44]	; 0x2c
 8002aea:	2308      	movs	r3, #8
 8002aec:	f844 3d14 	str.w	r3, [r4, #-20]!
 8002af0:	2201      	movs	r2, #1
 8002af2:	4621      	mov	r1, r4
 8002af4:	9209      	str	r2, [sp, #36]	; 0x24
 8002af6:	f7ff fb0b 	bl	8002110 <HAL_GPIO_Init>
 8002afa:	f24c 730b 	movw	r3, #50955	; 0xc70b
 8002afe:	4621      	mov	r1, r4
 8002b00:	4812      	ldr	r0, [pc, #72]	; (8002b4c <_ZN6CSDRam8msp_initEv+0x104>)
 8002b02:	9307      	str	r3, [sp, #28]
 8002b04:	f7ff fb04 	bl	8002110 <HAL_GPIO_Init>
 8002b08:	f64f 7383 	movw	r3, #65411	; 0xff83
 8002b0c:	4621      	mov	r1, r4
 8002b0e:	4810      	ldr	r0, [pc, #64]	; (8002b50 <_ZN6CSDRam8msp_initEv+0x108>)
 8002b10:	9307      	str	r3, [sp, #28]
 8002b12:	f7ff fafd 	bl	8002110 <HAL_GPIO_Init>
 8002b16:	f64f 033f 	movw	r3, #63551	; 0xf83f
 8002b1a:	4621      	mov	r1, r4
 8002b1c:	480d      	ldr	r0, [pc, #52]	; (8002b54 <_ZN6CSDRam8msp_initEv+0x10c>)
 8002b1e:	9307      	str	r3, [sp, #28]
 8002b20:	f7ff faf6 	bl	8002110 <HAL_GPIO_Init>
 8002b24:	f248 1333 	movw	r3, #33075	; 0x8133
 8002b28:	4621      	mov	r1, r4
 8002b2a:	480b      	ldr	r0, [pc, #44]	; (8002b58 <_ZN6CSDRam8msp_initEv+0x110>)
 8002b2c:	9307      	str	r3, [sp, #28]
 8002b2e:	f7ff faef 	bl	8002110 <HAL_GPIO_Init>
 8002b32:	2328      	movs	r3, #40	; 0x28
 8002b34:	4809      	ldr	r0, [pc, #36]	; (8002b5c <_ZN6CSDRam8msp_initEv+0x114>)
 8002b36:	9307      	str	r3, [sp, #28]
 8002b38:	4621      	mov	r1, r4
 8002b3a:	f7ff fae9 	bl	8002110 <HAL_GPIO_Init>
 8002b3e:	b00c      	add	sp, #48	; 0x30
 8002b40:	bd10      	pop	{r4, pc}
 8002b42:	bf00      	nop
 8002b44:	40023800 	andmi	r3, r2, r0, lsl #16
 8002b48:	40020800 	andmi	r0, r2, r0, lsl #16
 8002b4c:	40020c00 	andmi	r0, r2, r0, lsl #24
 8002b50:	40021000 	andmi	r1, r2, r0
 8002b54:	40021400 	andmi	r1, r2, r0, lsl #8
 8002b58:	40021800 	andmi	r1, r2, r0, lsl #16
 8002b5c:	40021c00 	andmi	r1, r2, r0, lsl #24

08002b60 <_ZN6CSDRam8ram_initEv>:
 8002b60:	2204      	movs	r2, #4
 8002b62:	b510      	push	{r4, lr}
 8002b64:	63c2      	str	r2, [r0, #60]	; 0x3c
 8002b66:	60c2      	str	r2, [r0, #12]
 8002b68:	2210      	movs	r2, #16
 8002b6a:	6102      	str	r2, [r0, #16]
 8002b6c:	2240      	movs	r2, #64	; 0x40
 8002b6e:	6142      	str	r2, [r0, #20]
 8002b70:	4b13      	ldr	r3, [pc, #76]	; (8002bc0 <_ZN6CSDRam8ram_initEv+0x60>)
 8002b72:	6003      	str	r3, [r0, #0]
 8002b74:	f44f 7280 	mov.w	r2, #256	; 0x100
 8002b78:	2302      	movs	r3, #2
 8002b7a:	6182      	str	r2, [r0, #24]
 8002b7c:	f44f 6200 	mov.w	r2, #2048	; 0x800
 8002b80:	2107      	movs	r1, #7
 8002b82:	6343      	str	r3, [r0, #52]	; 0x34
 8002b84:	6443      	str	r3, [r0, #68]	; 0x44
 8002b86:	6483      	str	r3, [r0, #72]	; 0x48
 8002b88:	64c3      	str	r3, [r0, #76]	; 0x4c
 8002b8a:	6202      	str	r2, [r0, #32]
 8002b8c:	2300      	movs	r3, #0
 8002b8e:	f44f 5280 	mov.w	r2, #4096	; 0x1000
 8002b92:	4604      	mov	r4, r0
 8002b94:	6381      	str	r1, [r0, #56]	; 0x38
 8002b96:	6401      	str	r1, [r0, #64]	; 0x40
 8002b98:	6043      	str	r3, [r0, #4]
 8002b9a:	6083      	str	r3, [r0, #8]
 8002b9c:	61c3      	str	r3, [r0, #28]
 8002b9e:	6242      	str	r2, [r0, #36]	; 0x24
 8002ba0:	6283      	str	r3, [r0, #40]	; 0x28
 8002ba2:	f7ff ff51 	bl	8002a48 <_ZN6CSDRam8msp_initEv>
 8002ba6:	f104 0134 	add.w	r1, r4, #52	; 0x34
 8002baa:	4620      	mov	r0, r4
 8002bac:	f7ff fa67 	bl	800207e <HAL_SDRAM_Init>
 8002bb0:	4620      	mov	r0, r4
 8002bb2:	f240 6103 	movw	r1, #1539	; 0x603
 8002bb6:	e8bd 4010 	ldmia.w	sp!, {r4, lr}
 8002bba:	f7ff bef9 	b.w	80029b0 <_ZN6CSDRam27ram_initialization_sequenceEm>
 8002bbe:	bf00      	nop
 8002bc0:	a0000140 	andge	r0, r0, r0, asr #2

08002bc4 <_ZN6CSDRam4initEb>:
 8002bc4:	b538      	push	{r3, r4, r5, lr}
 8002bc6:	460d      	mov	r5, r1
 8002bc8:	4604      	mov	r4, r0
 8002bca:	f7ff ffc9 	bl	8002b60 <_ZN6CSDRam8ram_initEv>
 8002bce:	4816      	ldr	r0, [pc, #88]	; (8002c28 <_ZN6CSDRam4initEb+0x64>)
 8002bd0:	b1c5      	cbz	r5, 8002c04 <_ZN6CSDRam4initEb+0x40>
 8002bd2:	4b16      	ldr	r3, [pc, #88]	; (8002c2c <_ZN6CSDRam4initEb+0x68>)
 8002bd4:	221b      	movs	r2, #27
 8002bd6:	4350      	muls	r0, r2
 8002bd8:	3037      	adds	r0, #55	; 0x37
 8002bda:	f843 0f04 	str.w	r0, [r3, #4]!
 8002bde:	4a14      	ldr	r2, [pc, #80]	; (8002c30 <_ZN6CSDRam4initEb+0x6c>)
 8002be0:	4293      	cmp	r3, r2
 8002be2:	d1f7      	bne.n	8002bd4 <_ZN6CSDRam4initEb+0x10>
 8002be4:	4b10      	ldr	r3, [pc, #64]	; (8002c28 <_ZN6CSDRam4initEb+0x64>)
 8002be6:	f04f 4240 	mov.w	r2, #3221225472	; 0xc0000000
 8002bea:	2001      	movs	r0, #1
 8002bec:	211b      	movs	r1, #27
 8002bee:	434b      	muls	r3, r1
 8002bf0:	f852 1b04 	ldr.w	r1, [r2], #4
 8002bf4:	3337      	adds	r3, #55	; 0x37
 8002bf6:	428b      	cmp	r3, r1
 8002bf8:	bf18      	it	ne
 8002bfa:	2000      	movne	r0, #0
 8002bfc:	f112 5f7e 	cmn.w	r2, #1065353216	; 0x3f800000
 8002c00:	d1f4      	bne.n	8002bec <_ZN6CSDRam4initEb+0x28>
 8002c02:	e006      	b.n	8002c12 <_ZN6CSDRam4initEb+0x4e>
 8002c04:	f04f 4340 	mov.w	r3, #3221225472	; 0xc0000000
 8002c08:	6018      	str	r0, [r3, #0]
 8002c0a:	681b      	ldr	r3, [r3, #0]
 8002c0c:	1a1b      	subs	r3, r3, r0
 8002c0e:	4258      	negs	r0, r3
 8002c10:	4158      	adcs	r0, r3
 8002c12:	4b06      	ldr	r3, [pc, #24]	; (8002c2c <_ZN6CSDRam4initEb+0x68>)
 8002c14:	2200      	movs	r2, #0
 8002c16:	f843 2f04 	str.w	r2, [r3, #4]!
 8002c1a:	4a05      	ldr	r2, [pc, #20]	; (8002c30 <_ZN6CSDRam4initEb+0x6c>)
 8002c1c:	4293      	cmp	r3, r2
 8002c1e:	d1f9      	bne.n	8002c14 <_ZN6CSDRam4initEb+0x50>
 8002c20:	f04f 4340 	mov.w	r3, #3221225472	; 0xc0000000
 8002c24:	6623      	str	r3, [r4, #96]	; 0x60
 8002c26:	bd38      	pop	{r3, r4, r5, pc}
 8002c28:	cafe1234 	bgt	7f87500 <_Min_Stack_Size+0x7f87100>
 8002c2c:	bffffffc 	svclt	0x00fffffc
 8002c30:	c07ffffc 	ldrshtgt	pc, [pc], #-252	; <UNPREDICTABLE>

08002c34 <_GLOBAL__sub_I_sdram>:
 8002c34:	4802      	ldr	r0, [pc, #8]	; (8002c40 <_GLOBAL__sub_I_sdram+0xc>)
 8002c36:	4903      	ldr	r1, [pc, #12]	; (8002c44 <_GLOBAL__sub_I_sdram+0x10>)
 8002c38:	4a03      	ldr	r2, [pc, #12]	; (8002c48 <_GLOBAL__sub_I_sdram+0x14>)
 8002c3a:	f001 bee9 	b.w	8004a10 <__aeabi_atexit>
 8002c3e:	bf00      	nop
 8002c40:	20003fd8 	ldrdcs	r3, [r0], -r8
 8002c44:	080029a1 	stmdaeq	r0, {r0, r5, r7, r8, fp, sp}
 8002c48:	20000000 	andcs	r0, r0, r0

08002c4c <_ZN6FT5336C1Ev>:
 8002c4c:	4770      	bx	lr

08002c4e <_ZN6FT5336D1Ev>:
 8002c4e:	4770      	bx	lr

08002c50 <_ZN6FT533618get_detected_countEv>:
 8002c50:	6840      	ldr	r0, [r0, #4]
 8002c52:	4770      	bx	lr

08002c54 <_ZN6FT533612detect_touchEv>:
 8002c54:	6800      	ldr	r0, [r0, #0]
 8002c56:	b508      	push	{r3, lr}
 8002c58:	6803      	ldr	r3, [r0, #0]
 8002c5a:	2170      	movs	r1, #112	; 0x70
 8002c5c:	69db      	ldr	r3, [r3, #28]
 8002c5e:	2202      	movs	r2, #2
 8002c60:	4798      	blx	r3
 8002c62:	f000 000f 	and.w	r0, r0, #15
 8002c66:	2806      	cmp	r0, #6
 8002c68:	bf28      	it	cs
 8002c6a:	2000      	movcs	r0, #0
 8002c6c:	bd08      	pop	{r3, pc}

08002c6e <_ZN6FT533612clear_resultEv>:
 8002c6e:	f100 023c 	add.w	r2, r0, #60	; 0x3c
 8002c72:	2300      	movs	r3, #0
 8002c74:	6083      	str	r3, [r0, #8]
 8002c76:	60c3      	str	r3, [r0, #12]
 8002c78:	7403      	strb	r3, [r0, #16]
 8002c7a:	300c      	adds	r0, #12
 8002c7c:	4290      	cmp	r0, r2
 8002c7e:	d1f8      	bne.n	8002c72 <_ZN6FT533612clear_resultEv+0x4>
 8002c80:	4770      	bx	lr
 8002c82:	0000      	movs	r0, r0

08002c84 <_ZN6FT53364initEP14CI2C_Interface>:
 8002c84:	b510      	push	{r4, lr}
 8002c86:	4604      	mov	r4, r0
 8002c88:	6001      	str	r1, [r0, #0]
 8002c8a:	21c8      	movs	r1, #200	; 0xc8
 8002c8c:	4809      	ldr	r0, [pc, #36]	; (8002cb4 <_ZN6FT53364initEP14CI2C_Interface+0x30>)
 8002c8e:	f000 fb15 	bl	80032bc <_ZN6CTimer8delay_msEj>
 8002c92:	4620      	mov	r0, r4
 8002c94:	f7ff ffeb 	bl	8002c6e <_ZN6FT533612clear_resultEv>
 8002c98:	6820      	ldr	r0, [r4, #0]
 8002c9a:	2300      	movs	r3, #0
 8002c9c:	6063      	str	r3, [r4, #4]
 8002c9e:	6803      	ldr	r3, [r0, #0]
 8002ca0:	2170      	movs	r1, #112	; 0x70
 8002ca2:	69db      	ldr	r3, [r3, #28]
 8002ca4:	22a8      	movs	r2, #168	; 0xa8
 8002ca6:	4798      	blx	r3
 8002ca8:	3851      	subs	r0, #81	; 0x51
 8002caa:	bf18      	it	ne
 8002cac:	f04f 30ff 	movne.w	r0, #4294967295	; 0xffffffff
 8002cb0:	bd10      	pop	{r4, pc}
 8002cb2:	bf00      	nop
 8002cb4:	2000436c 	andcs	r4, r0, ip, ror #6

08002cb8 <_ZN6FT533616get_touch_resultEj>:
 8002cb8:	e92d 43f8 	stmdb	sp!, {r3, r4, r5, r6, r7, r8, r9, lr}
 8002cbc:	4613      	mov	r3, r2
 8002cbe:	2b09      	cmp	r3, #9
 8002cc0:	460f      	mov	r7, r1
 8002cc2:	bf9e      	ittt	ls
 8002cc4:	491f      	ldrls	r1, [pc, #124]	; (8002d44 <_ZN6FT533616get_touch_resultEj+0x8c>)
 8002cc6:	f811 9003 	ldrbls.w	r9, [r1, r3]
 8002cca:	491f      	ldrls	r1, [pc, #124]	; (8002d48 <_ZN6FT533616get_touch_resultEj+0x90>)
 8002ccc:	f04f 0201 	mov.w	r2, #1
 8002cd0:	bf98      	it	ls
 8002cd2:	f811 8003 	ldrbls.w	r8, [r1, r3]
 8002cd6:	7202      	strb	r2, [r0, #8]
 8002cd8:	bf9f      	itttt	ls
 8002cda:	491c      	ldrls	r1, [pc, #112]	; (8002d4c <_ZN6FT533616get_touch_resultEj+0x94>)
 8002cdc:	4a1c      	ldrls	r2, [pc, #112]	; (8002d50 <_ZN6FT533616get_touch_resultEj+0x98>)
 8002cde:	5ccd      	ldrbls	r5, [r1, r3]
 8002ce0:	5cd2      	ldrbls	r2, [r2, r3]
 8002ce2:	4606      	mov	r6, r0
 8002ce4:	6838      	ldr	r0, [r7, #0]
 8002ce6:	6803      	ldr	r3, [r0, #0]
 8002ce8:	bf84      	itt	hi
 8002cea:	2500      	movhi	r5, #0
 8002cec:	462a      	movhi	r2, r5
 8002cee:	69db      	ldr	r3, [r3, #28]
 8002cf0:	f04f 0170 	mov.w	r1, #112	; 0x70
 8002cf4:	bf84      	itt	hi
 8002cf6:	46a8      	movhi	r8, r5
 8002cf8:	46a9      	movhi	r9, r5
 8002cfa:	4798      	blx	r3
 8002cfc:	4604      	mov	r4, r0
 8002cfe:	6838      	ldr	r0, [r7, #0]
 8002d00:	6803      	ldr	r3, [r0, #0]
 8002d02:	464a      	mov	r2, r9
 8002d04:	69db      	ldr	r3, [r3, #28]
 8002d06:	2170      	movs	r1, #112	; 0x70
 8002d08:	4798      	blx	r3
 8002d0a:	f000 000f 	and.w	r0, r0, #15
 8002d0e:	ea44 2400 	orr.w	r4, r4, r0, lsl #8
 8002d12:	6838      	ldr	r0, [r7, #0]
 8002d14:	6803      	ldr	r3, [r0, #0]
 8002d16:	b224      	sxth	r4, r4
 8002d18:	6034      	str	r4, [r6, #0]
 8002d1a:	4642      	mov	r2, r8
 8002d1c:	69db      	ldr	r3, [r3, #28]
 8002d1e:	2170      	movs	r1, #112	; 0x70
 8002d20:	4798      	blx	r3
 8002d22:	4604      	mov	r4, r0
 8002d24:	6838      	ldr	r0, [r7, #0]
 8002d26:	6803      	ldr	r3, [r0, #0]
 8002d28:	2170      	movs	r1, #112	; 0x70
 8002d2a:	69db      	ldr	r3, [r3, #28]
 8002d2c:	462a      	mov	r2, r5
 8002d2e:	4798      	blx	r3
 8002d30:	f000 000f 	and.w	r0, r0, #15
 8002d34:	ea44 2400 	orr.w	r4, r4, r0, lsl #8
 8002d38:	b224      	sxth	r4, r4
 8002d3a:	6074      	str	r4, [r6, #4]
 8002d3c:	4630      	mov	r0, r6
 8002d3e:	e8bd 83f8 	ldmia.w	sp!, {r3, r4, r5, r6, r7, r8, r9, pc}
 8002d42:	bf00      	nop
 8002d44:	08004b63 	stmdaeq	r0, {r0, r1, r5, r6, r8, r9, fp, lr}
 8002d48:	08004b6d 	stmdaeq	r0, {r0, r2, r3, r5, r6, r8, r9, fp, lr}
 8002d4c:	08004b77 	stmdaeq	r0, {r0, r1, r2, r4, r5, r6, r8, r9, fp, lr}
 8002d50:	08004b59 	stmdaeq	r0, {r0, r3, r4, r6, r8, r9, fp, lr}

08002d54 <_ZN6FT53364readEv>:
 8002d54:	e92d 41ff 	stmdb	sp!, {r0, r1, r2, r3, r4, r5, r6, r7, r8, lr}
 8002d58:	4606      	mov	r6, r0
 8002d5a:	f7ff ff88 	bl	8002c6e <_ZN6FT533612clear_resultEv>
 8002d5e:	4630      	mov	r0, r6
 8002d60:	f7ff ff78 	bl	8002c54 <_ZN6FT533612detect_touchEv>
 8002d64:	2500      	movs	r5, #0
 8002d66:	4680      	mov	r8, r0
 8002d68:	6070      	str	r0, [r6, #4]
 8002d6a:	4545      	cmp	r5, r8
 8002d6c:	d20e      	bcs.n	8002d8c <_ZN6FT53364readEv+0x38>
 8002d6e:	462a      	mov	r2, r5
 8002d70:	4668      	mov	r0, sp
 8002d72:	4631      	mov	r1, r6
 8002d74:	f7ff ffa0 	bl	8002cb8 <_ZN6FT533616get_touch_resultEj>
 8002d78:	e89d 0007 	ldmia.w	sp, {r0, r1, r2}
 8002d7c:	240c      	movs	r4, #12
 8002d7e:	fb04 6405 	mla	r4, r4, r5, r6
 8002d82:	3408      	adds	r4, #8
 8002d84:	e884 0007 	stmia.w	r4, {r0, r1, r2}
 8002d88:	3501      	adds	r5, #1
 8002d8a:	e7ee      	b.n	8002d6a <_ZN6FT53364readEv+0x16>
 8002d8c:	b004      	add	sp, #16
 8002d8e:	e8bd 81f0 	ldmia.w	sp!, {r4, r5, r6, r7, r8, pc}

08002d92 <_ZN4TI2CILh5ELh7ELh6ELj20ELh5EE5delayEv.isra.2>:
 8002d92:	2314      	movs	r3, #20
 8002d94:	bf00      	nop
 8002d96:	3b01      	subs	r3, #1
 8002d98:	f013 03ff 	ands.w	r3, r3, #255	; 0xff
 8002d9c:	d1fa      	bne.n	8002d94 <_ZN4TI2CILh5ELh7ELh6ELj20ELh5EE5delayEv.isra.2+0x2>
 8002d9e:	4770      	bx	lr

08002da0 <_ZN5TGpioILh5ELh6ELh1EE8set_modeEh>:
 8002da0:	b9b1      	cbnz	r1, 8002dd0 <_ZN5TGpioILh5ELh6ELh1EE8set_modeEh+0x30>
 8002da2:	6803      	ldr	r3, [r0, #0]
 8002da4:	689a      	ldr	r2, [r3, #8]
 8002da6:	f422 5240 	bic.w	r2, r2, #12288	; 0x3000
 8002daa:	609a      	str	r2, [r3, #8]
 8002dac:	689a      	ldr	r2, [r3, #8]
 8002dae:	f442 5240 	orr.w	r2, r2, #12288	; 0x3000
 8002db2:	609a      	str	r2, [r3, #8]
 8002db4:	685a      	ldr	r2, [r3, #4]
 8002db6:	f022 0240 	bic.w	r2, r2, #64	; 0x40
 8002dba:	605a      	str	r2, [r3, #4]
 8002dbc:	685a      	ldr	r2, [r3, #4]
 8002dbe:	605a      	str	r2, [r3, #4]
 8002dc0:	681a      	ldr	r2, [r3, #0]
 8002dc2:	f422 5240 	bic.w	r2, r2, #12288	; 0x3000
 8002dc6:	601a      	str	r2, [r3, #0]
 8002dc8:	681a      	ldr	r2, [r3, #0]
 8002dca:	f442 5280 	orr.w	r2, r2, #4096	; 0x1000
 8002dce:	e043      	b.n	8002e58 <_ZN5TGpioILh5ELh6ELh1EE8set_modeEh+0xb8>
 8002dd0:	2901      	cmp	r1, #1
 8002dd2:	d10e      	bne.n	8002df2 <_ZN5TGpioILh5ELh6ELh1EE8set_modeEh+0x52>
 8002dd4:	6803      	ldr	r3, [r0, #0]
 8002dd6:	689a      	ldr	r2, [r3, #8]
 8002dd8:	f422 5240 	bic.w	r2, r2, #12288	; 0x3000
 8002ddc:	609a      	str	r2, [r3, #8]
 8002dde:	689a      	ldr	r2, [r3, #8]
 8002de0:	f442 5240 	orr.w	r2, r2, #12288	; 0x3000
 8002de4:	609a      	str	r2, [r3, #8]
 8002de6:	681a      	ldr	r2, [r3, #0]
 8002de8:	f422 5240 	bic.w	r2, r2, #12288	; 0x3000
 8002dec:	601a      	str	r2, [r3, #0]
 8002dee:	681a      	ldr	r2, [r3, #0]
 8002df0:	e032      	b.n	8002e58 <_ZN5TGpioILh5ELh6ELh1EE8set_modeEh+0xb8>
 8002df2:	2902      	cmp	r1, #2
 8002df4:	d113      	bne.n	8002e1e <_ZN5TGpioILh5ELh6ELh1EE8set_modeEh+0x7e>
 8002df6:	6803      	ldr	r3, [r0, #0]
 8002df8:	689a      	ldr	r2, [r3, #8]
 8002dfa:	f422 5240 	bic.w	r2, r2, #12288	; 0x3000
 8002dfe:	609a      	str	r2, [r3, #8]
 8002e00:	689a      	ldr	r2, [r3, #8]
 8002e02:	f442 5240 	orr.w	r2, r2, #12288	; 0x3000
 8002e06:	609a      	str	r2, [r3, #8]
 8002e08:	681a      	ldr	r2, [r3, #0]
 8002e0a:	f422 5240 	bic.w	r2, r2, #12288	; 0x3000
 8002e0e:	601a      	str	r2, [r3, #0]
 8002e10:	681a      	ldr	r2, [r3, #0]
 8002e12:	601a      	str	r2, [r3, #0]
 8002e14:	68da      	ldr	r2, [r3, #12]
 8002e16:	f442 5280 	orr.w	r2, r2, #4096	; 0x1000
 8002e1a:	60da      	str	r2, [r3, #12]
 8002e1c:	4770      	bx	lr
 8002e1e:	2903      	cmp	r1, #3
 8002e20:	d110      	bne.n	8002e44 <_ZN5TGpioILh5ELh6ELh1EE8set_modeEh+0xa4>
 8002e22:	6803      	ldr	r3, [r0, #0]
 8002e24:	689a      	ldr	r2, [r3, #8]
 8002e26:	f422 5240 	bic.w	r2, r2, #12288	; 0x3000
 8002e2a:	609a      	str	r2, [r3, #8]
 8002e2c:	689a      	ldr	r2, [r3, #8]
 8002e2e:	f442 5240 	orr.w	r2, r2, #12288	; 0x3000
 8002e32:	609a      	str	r2, [r3, #8]
 8002e34:	681a      	ldr	r2, [r3, #0]
 8002e36:	f422 5240 	bic.w	r2, r2, #12288	; 0x3000
 8002e3a:	601a      	str	r2, [r3, #0]
 8002e3c:	681a      	ldr	r2, [r3, #0]
 8002e3e:	f442 5200 	orr.w	r2, r2, #8192	; 0x2000
 8002e42:	e009      	b.n	8002e58 <_ZN5TGpioILh5ELh6ELh1EE8set_modeEh+0xb8>
 8002e44:	2904      	cmp	r1, #4
 8002e46:	d108      	bne.n	8002e5a <_ZN5TGpioILh5ELh6ELh1EE8set_modeEh+0xba>
 8002e48:	6803      	ldr	r3, [r0, #0]
 8002e4a:	681a      	ldr	r2, [r3, #0]
 8002e4c:	f422 5240 	bic.w	r2, r2, #12288	; 0x3000
 8002e50:	601a      	str	r2, [r3, #0]
 8002e52:	681a      	ldr	r2, [r3, #0]
 8002e54:	f442 5240 	orr.w	r2, r2, #12288	; 0x3000
 8002e58:	601a      	str	r2, [r3, #0]
 8002e5a:	4770      	bx	lr

08002e5c <_ZN5TGpioILh5ELh7ELh1EE8set_modeEh>:
 8002e5c:	b9b1      	cbnz	r1, 8002e8c <_ZN5TGpioILh5ELh7ELh1EE8set_modeEh+0x30>
 8002e5e:	6803      	ldr	r3, [r0, #0]
 8002e60:	689a      	ldr	r2, [r3, #8]
 8002e62:	f422 4240 	bic.w	r2, r2, #49152	; 0xc000
 8002e66:	609a      	str	r2, [r3, #8]
 8002e68:	689a      	ldr	r2, [r3, #8]
 8002e6a:	f442 4240 	orr.w	r2, r2, #49152	; 0xc000
 8002e6e:	609a      	str	r2, [r3, #8]
 8002e70:	685a      	ldr	r2, [r3, #4]
 8002e72:	f022 0280 	bic.w	r2, r2, #128	; 0x80
 8002e76:	605a      	str	r2, [r3, #4]
 8002e78:	685a      	ldr	r2, [r3, #4]
 8002e7a:	605a      	str	r2, [r3, #4]
 8002e7c:	681a      	ldr	r2, [r3, #0]
 8002e7e:	f422 4240 	bic.w	r2, r2, #49152	; 0xc000
 8002e82:	601a      	str	r2, [r3, #0]
 8002e84:	681a      	ldr	r2, [r3, #0]
 8002e86:	f442 4280 	orr.w	r2, r2, #16384	; 0x4000
 8002e8a:	e043      	b.n	8002f14 <_ZN5TGpioILh5ELh7ELh1EE8set_modeEh+0xb8>
 8002e8c:	2901      	cmp	r1, #1
 8002e8e:	d10e      	bne.n	8002eae <_ZN5TGpioILh5ELh7ELh1EE8set_modeEh+0x52>
 8002e90:	6803      	ldr	r3, [r0, #0]
 8002e92:	689a      	ldr	r2, [r3, #8]
 8002e94:	f422 4240 	bic.w	r2, r2, #49152	; 0xc000
 8002e98:	609a      	str	r2, [r3, #8]
 8002e9a:	689a      	ldr	r2, [r3, #8]
 8002e9c:	f442 4240 	orr.w	r2, r2, #49152	; 0xc000
 8002ea0:	609a      	str	r2, [r3, #8]
 8002ea2:	681a      	ldr	r2, [r3, #0]
 8002ea4:	f422 4240 	bic.w	r2, r2, #49152	; 0xc000
 8002ea8:	601a      	str	r2, [r3, #0]
 8002eaa:	681a      	ldr	r2, [r3, #0]
 8002eac:	e032      	b.n	8002f14 <_ZN5TGpioILh5ELh7ELh1EE8set_modeEh+0xb8>
 8002eae:	2902      	cmp	r1, #2
 8002eb0:	d113      	bne.n	8002eda <_ZN5TGpioILh5ELh7ELh1EE8set_modeEh+0x7e>
 8002eb2:	6803      	ldr	r3, [r0, #0]
 8002eb4:	689a      	ldr	r2, [r3, #8]
 8002eb6:	f422 4240 	bic.w	r2, r2, #49152	; 0xc000
 8002eba:	609a      	str	r2, [r3, #8]
 8002ebc:	689a      	ldr	r2, [r3, #8]
 8002ebe:	f442 4240 	orr.w	r2, r2, #49152	; 0xc000
 8002ec2:	609a      	str	r2, [r3, #8]
 8002ec4:	681a      	ldr	r2, [r3, #0]
 8002ec6:	f422 4240 	bic.w	r2, r2, #49152	; 0xc000
 8002eca:	601a      	str	r2, [r3, #0]
 8002ecc:	681a      	ldr	r2, [r3, #0]
 8002ece:	601a      	str	r2, [r3, #0]
 8002ed0:	68da      	ldr	r2, [r3, #12]
 8002ed2:	f442 4280 	orr.w	r2, r2, #16384	; 0x4000
 8002ed6:	60da      	str	r2, [r3, #12]
 8002ed8:	4770      	bx	lr
 8002eda:	2903      	cmp	r1, #3
 8002edc:	d110      	bne.n	8002f00 <_ZN5TGpioILh5ELh7ELh1EE8set_modeEh+0xa4>
 8002ede:	6803      	ldr	r3, [r0, #0]
 8002ee0:	689a      	ldr	r2, [r3, #8]
 8002ee2:	f422 4240 	bic.w	r2, r2, #49152	; 0xc000
 8002ee6:	609a      	str	r2, [r3, #8]
 8002ee8:	689a      	ldr	r2, [r3, #8]
 8002eea:	f442 4240 	orr.w	r2, r2, #49152	; 0xc000
 8002eee:	609a      	str	r2, [r3, #8]
 8002ef0:	681a      	ldr	r2, [r3, #0]
 8002ef2:	f422 4240 	bic.w	r2, r2, #49152	; 0xc000
 8002ef6:	601a      	str	r2, [r3, #0]
 8002ef8:	681a      	ldr	r2, [r3, #0]
 8002efa:	f442 4200 	orr.w	r2, r2, #32768	; 0x8000
 8002efe:	e009      	b.n	8002f14 <_ZN5TGpioILh5ELh7ELh1EE8set_modeEh+0xb8>
 8002f00:	2904      	cmp	r1, #4
 8002f02:	d108      	bne.n	8002f16 <_ZN5TGpioILh5ELh7ELh1EE8set_modeEh+0xba>
 8002f04:	6803      	ldr	r3, [r0, #0]
 8002f06:	681a      	ldr	r2, [r3, #0]
 8002f08:	f422 4240 	bic.w	r2, r2, #49152	; 0xc000
 8002f0c:	601a      	str	r2, [r3, #0]
 8002f0e:	681a      	ldr	r2, [r3, #0]
 8002f10:	f442 4240 	orr.w	r2, r2, #49152	; 0xc000
 8002f14:	601a      	str	r2, [r3, #0]
 8002f16:	4770      	bx	lr

08002f18 <_ZN4TI2CILh5ELh7ELh6ELj20ELh5EE5startEv>:
 8002f18:	b538      	push	{r3, r4, r5, lr}
 8002f1a:	f100 0508 	add.w	r5, r0, #8
 8002f1e:	4604      	mov	r4, r0
 8002f20:	3404      	adds	r4, #4
 8002f22:	4628      	mov	r0, r5
 8002f24:	2101      	movs	r1, #1
 8002f26:	f7ff ff3b 	bl	8002da0 <_ZN5TGpioILh5ELh6ELh1EE8set_modeEh>
 8002f2a:	4620      	mov	r0, r4
 8002f2c:	2101      	movs	r1, #1
 8002f2e:	f7ff ff95 	bl	8002e5c <_ZN5TGpioILh5ELh7ELh1EE8set_modeEh>
 8002f32:	4628      	mov	r0, r5
 8002f34:	2101      	movs	r1, #1
 8002f36:	f7ff ff33 	bl	8002da0 <_ZN5TGpioILh5ELh6ELh1EE8set_modeEh>
 8002f3a:	4620      	mov	r0, r4
 8002f3c:	2100      	movs	r1, #0
 8002f3e:	f7ff ff8d 	bl	8002e5c <_ZN5TGpioILh5ELh7ELh1EE8set_modeEh>
 8002f42:	4628      	mov	r0, r5
 8002f44:	2100      	movs	r1, #0
 8002f46:	f7ff ff2b 	bl	8002da0 <_ZN5TGpioILh5ELh6ELh1EE8set_modeEh>
 8002f4a:	4620      	mov	r0, r4
 8002f4c:	2101      	movs	r1, #1
 8002f4e:	f7ff ff85 	bl	8002e5c <_ZN5TGpioILh5ELh7ELh1EE8set_modeEh>
 8002f52:	e8bd 4038 	ldmia.w	sp!, {r3, r4, r5, lr}
 8002f56:	f7ff bf1c 	b.w	8002d92 <_ZN4TI2CILh5ELh7ELh6ELj20ELh5EE5delayEv.isra.2>

08002f5a <_ZN4TI2CILh5ELh7ELh6ELj20ELh5EE4stopEv>:
 8002f5a:	b538      	push	{r3, r4, r5, lr}
 8002f5c:	f100 0508 	add.w	r5, r0, #8
 8002f60:	4604      	mov	r4, r0
 8002f62:	3404      	adds	r4, #4
 8002f64:	4628      	mov	r0, r5
 8002f66:	2100      	movs	r1, #0
 8002f68:	f7ff ff1a 	bl	8002da0 <_ZN5TGpioILh5ELh6ELh1EE8set_modeEh>
 8002f6c:	4620      	mov	r0, r4
 8002f6e:	2100      	movs	r1, #0
 8002f70:	f7ff ff74 	bl	8002e5c <_ZN5TGpioILh5ELh7ELh1EE8set_modeEh>
 8002f74:	4628      	mov	r0, r5
 8002f76:	2101      	movs	r1, #1
 8002f78:	f7ff ff12 	bl	8002da0 <_ZN5TGpioILh5ELh6ELh1EE8set_modeEh>
 8002f7c:	4620      	mov	r0, r4
 8002f7e:	2100      	movs	r1, #0
 8002f80:	f7ff ff6c 	bl	8002e5c <_ZN5TGpioILh5ELh7ELh1EE8set_modeEh>
 8002f84:	4628      	mov	r0, r5
 8002f86:	2101      	movs	r1, #1
 8002f88:	f7ff ff0a 	bl	8002da0 <_ZN5TGpioILh5ELh6ELh1EE8set_modeEh>
 8002f8c:	4620      	mov	r0, r4
 8002f8e:	2101      	movs	r1, #1
 8002f90:	f7ff ff64 	bl	8002e5c <_ZN5TGpioILh5ELh7ELh1EE8set_modeEh>
 8002f94:	e8bd 4038 	ldmia.w	sp!, {r3, r4, r5, lr}
 8002f98:	f7ff befb 	b.w	8002d92 <_ZN4TI2CILh5ELh7ELh6ELj20ELh5EE5delayEv.isra.2>

08002f9c <_ZN4TI2CILh5ELh7ELh6ELj20ELh5EE5writeEh>:
 8002f9c:	e92d 41f0 	stmdb	sp!, {r4, r5, r6, r7, r8, lr}
 8002fa0:	4607      	mov	r7, r0
 8002fa2:	460e      	mov	r6, r1
 8002fa4:	2408      	movs	r4, #8
 8002fa6:	f107 0508 	add.w	r5, r7, #8
 8002faa:	2100      	movs	r1, #0
 8002fac:	4628      	mov	r0, r5
 8002fae:	f7ff fef7 	bl	8002da0 <_ZN5TGpioILh5ELh6ELh1EE8set_modeEh>
 8002fb2:	f107 0804 	add.w	r8, r7, #4
 8002fb6:	f7ff feec 	bl	8002d92 <_ZN4TI2CILh5ELh7ELh6ELj20ELh5EE5delayEv.isra.2>
 8002fba:	f016 0f80 	tst.w	r6, #128	; 0x80
 8002fbe:	bf14      	ite	ne
 8002fc0:	2101      	movne	r1, #1
 8002fc2:	2100      	moveq	r1, #0
 8002fc4:	4640      	mov	r0, r8
 8002fc6:	f7ff ff49 	bl	8002e5c <_ZN5TGpioILh5ELh7ELh1EE8set_modeEh>
 8002fca:	3c01      	subs	r4, #1
 8002fcc:	f7ff fee1 	bl	8002d92 <_ZN4TI2CILh5ELh7ELh6ELj20ELh5EE5delayEv.isra.2>
 8002fd0:	4628      	mov	r0, r5
 8002fd2:	2101      	movs	r1, #1
 8002fd4:	f7ff fee4 	bl	8002da0 <_ZN5TGpioILh5ELh6ELh1EE8set_modeEh>
 8002fd8:	0076      	lsls	r6, r6, #1
 8002fda:	f7ff feda 	bl	8002d92 <_ZN4TI2CILh5ELh7ELh6ELj20ELh5EE5delayEv.isra.2>
 8002fde:	f014 04ff 	ands.w	r4, r4, #255	; 0xff
 8002fe2:	b2f6      	uxtb	r6, r6
 8002fe4:	d1df      	bne.n	8002fa6 <_ZN4TI2CILh5ELh7ELh6ELj20ELh5EE5writeEh+0xa>
 8002fe6:	4628      	mov	r0, r5
 8002fe8:	4621      	mov	r1, r4
 8002fea:	f7ff fed9 	bl	8002da0 <_ZN5TGpioILh5ELh6ELh1EE8set_modeEh>
 8002fee:	f7ff fed0 	bl	8002d92 <_ZN4TI2CILh5ELh7ELh6ELj20ELh5EE5delayEv.isra.2>
 8002ff2:	4640      	mov	r0, r8
 8002ff4:	2101      	movs	r1, #1
 8002ff6:	f7ff ff31 	bl	8002e5c <_ZN5TGpioILh5ELh7ELh1EE8set_modeEh>
 8002ffa:	f7ff feca 	bl	8002d92 <_ZN4TI2CILh5ELh7ELh6ELj20ELh5EE5delayEv.isra.2>
 8002ffe:	4628      	mov	r0, r5
 8003000:	2101      	movs	r1, #1
 8003002:	f7ff fecd 	bl	8002da0 <_ZN5TGpioILh5ELh6ELh1EE8set_modeEh>
 8003006:	f7ff fec4 	bl	8002d92 <_ZN4TI2CILh5ELh7ELh6ELj20ELh5EE5delayEv.isra.2>
 800300a:	687b      	ldr	r3, [r7, #4]
 800300c:	691e      	ldr	r6, [r3, #16]
 800300e:	4628      	mov	r0, r5
 8003010:	4621      	mov	r1, r4
 8003012:	f7ff fec5 	bl	8002da0 <_ZN5TGpioILh5ELh6ELh1EE8set_modeEh>
 8003016:	f7ff febc 	bl	8002d92 <_ZN4TI2CILh5ELh7ELh6ELj20ELh5EE5delayEv.isra.2>
 800301a:	f086 0080 	eor.w	r0, r6, #128	; 0x80
 800301e:	f3c0 10c0 	ubfx	r0, r0, #7, #1
 8003022:	e8bd 81f0 	ldmia.w	sp!, {r4, r5, r6, r7, r8, pc}

08003026 <_ZN4TI2CILh5ELh7ELh6ELj20ELh5EE4readEh>:
 8003026:	e92d 43f8 	stmdb	sp!, {r3, r4, r5, r6, r7, r8, r9, lr}
 800302a:	4680      	mov	r8, r0
 800302c:	1d07      	adds	r7, r0, #4
 800302e:	4638      	mov	r0, r7
 8003030:	4689      	mov	r9, r1
 8003032:	f108 0608 	add.w	r6, r8, #8
 8003036:	2101      	movs	r1, #1
 8003038:	f7ff ff10 	bl	8002e5c <_ZN5TGpioILh5ELh7ELh1EE8set_modeEh>
 800303c:	4630      	mov	r0, r6
 800303e:	2100      	movs	r1, #0
 8003040:	f7ff feae 	bl	8002da0 <_ZN5TGpioILh5ELh6ELh1EE8set_modeEh>
 8003044:	f7ff fea5 	bl	8002d92 <_ZN4TI2CILh5ELh7ELh6ELj20ELh5EE5delayEv.isra.2>
 8003048:	2508      	movs	r5, #8
 800304a:	2400      	movs	r4, #0
 800304c:	4630      	mov	r0, r6
 800304e:	2101      	movs	r1, #1
 8003050:	f7ff fea6 	bl	8002da0 <_ZN5TGpioILh5ELh6ELh1EE8set_modeEh>
 8003054:	f7ff fe9d 	bl	8002d92 <_ZN4TI2CILh5ELh7ELh6ELj20ELh5EE5delayEv.isra.2>
 8003058:	f8d8 3004 	ldr.w	r3, [r8, #4]
 800305c:	691b      	ldr	r3, [r3, #16]
 800305e:	0064      	lsls	r4, r4, #1
 8003060:	061b      	lsls	r3, r3, #24
 8003062:	4630      	mov	r0, r6
 8003064:	f04f 0100 	mov.w	r1, #0
 8003068:	b2e4      	uxtb	r4, r4
 800306a:	f105 35ff 	add.w	r5, r5, #4294967295	; 0xffffffff
 800306e:	bf48      	it	mi
 8003070:	f044 0401 	orrmi.w	r4, r4, #1
 8003074:	f7ff fe94 	bl	8002da0 <_ZN5TGpioILh5ELh6ELh1EE8set_modeEh>
 8003078:	f7ff fe8b 	bl	8002d92 <_ZN4TI2CILh5ELh7ELh6ELj20ELh5EE5delayEv.isra.2>
 800307c:	f015 05ff 	ands.w	r5, r5, #255	; 0xff
 8003080:	d1e4      	bne.n	800304c <_ZN4TI2CILh5ELh7ELh6ELj20ELh5EE4readEh+0x26>
 8003082:	4638      	mov	r0, r7
 8003084:	f1b9 0f00 	cmp.w	r9, #0
 8003088:	d001      	beq.n	800308e <_ZN4TI2CILh5ELh7ELh6ELj20ELh5EE4readEh+0x68>
 800308a:	4629      	mov	r1, r5
 800308c:	e000      	b.n	8003090 <_ZN4TI2CILh5ELh7ELh6ELj20ELh5EE4readEh+0x6a>
 800308e:	2101      	movs	r1, #1
 8003090:	f7ff fee4 	bl	8002e5c <_ZN5TGpioILh5ELh7ELh1EE8set_modeEh>
 8003094:	f7ff fe7d 	bl	8002d92 <_ZN4TI2CILh5ELh7ELh6ELj20ELh5EE5delayEv.isra.2>
 8003098:	4630      	mov	r0, r6
 800309a:	2101      	movs	r1, #1
 800309c:	f7ff fe80 	bl	8002da0 <_ZN5TGpioILh5ELh6ELh1EE8set_modeEh>
 80030a0:	f7ff fe77 	bl	8002d92 <_ZN4TI2CILh5ELh7ELh6ELj20ELh5EE5delayEv.isra.2>
 80030a4:	4630      	mov	r0, r6
 80030a6:	2100      	movs	r1, #0
 80030a8:	f7ff fe7a 	bl	8002da0 <_ZN5TGpioILh5ELh6ELh1EE8set_modeEh>
 80030ac:	f7ff fe71 	bl	8002d92 <_ZN4TI2CILh5ELh7ELh6ELj20ELh5EE5delayEv.isra.2>
 80030b0:	4638      	mov	r0, r7
 80030b2:	2101      	movs	r1, #1
 80030b4:	f7ff fed2 	bl	8002e5c <_ZN5TGpioILh5ELh7ELh1EE8set_modeEh>
 80030b8:	f7ff fe6b 	bl	8002d92 <_ZN4TI2CILh5ELh7ELh6ELj20ELh5EE5delayEv.isra.2>
 80030bc:	4620      	mov	r0, r4
 80030be:	e8bd 83f8 	ldmia.w	sp!, {r3, r4, r5, r6, r7, r8, r9, pc}
 80030c2:	0000      	movs	r0, r0

080030c4 <DMA2_Stream1_IRQHandler>:
 80030c4:	4801      	ldr	r0, [pc, #4]	; (80030cc <DMA2_Stream1_IRQHandler+0x8>)
 80030c6:	f7fd bac3 	b.w	8000650 <HAL_DMA_IRQHandler>
 80030ca:	bf00      	nop
 80030cc:	20004040 	andcs	r4, r0, r0, asr #32

080030d0 <DCMI_IRQHandler>:
 80030d0:	4801      	ldr	r0, [pc, #4]	; (80030d8 <DCMI_IRQHandler+0x8>)
 80030d2:	f7ff b914 	b.w	80022fe <HAL_DCMI_IRQHandler>
 80030d6:	bf00      	nop
 80030d8:	20004098 	mulcs	r0, r8, r0

080030dc <HAL_DCMI_FrameEventCallback>:
 80030dc:	4b01      	ldr	r3, [pc, #4]	; (80030e4 <HAL_DCMI_FrameEventCallback+0x8>)
 80030de:	2201      	movs	r2, #1
 80030e0:	601a      	str	r2, [r3, #0]
 80030e2:	4770      	bx	lr
 80030e4:	2000403c 	andcs	r4, r0, ip, lsr r0

080030e8 <_ZN5TGpioILh5ELh6ELh1EEC1Ev>:
 80030e8:	b510      	push	{r4, lr}
 80030ea:	b08c      	sub	sp, #48	; 0x30
 80030ec:	4b3c      	ldr	r3, [pc, #240]	; (80031e0 <_ZN5TGpioILh5ELh6ELh1EEC1Ev+0xf8>)
 80030ee:	2200      	movs	r2, #0
 80030f0:	9201      	str	r2, [sp, #4]
 80030f2:	6b19      	ldr	r1, [r3, #48]	; 0x30
 80030f4:	f041 0101 	orr.w	r1, r1, #1
 80030f8:	6319      	str	r1, [r3, #48]	; 0x30
 80030fa:	6b19      	ldr	r1, [r3, #48]	; 0x30
 80030fc:	f001 0101 	and.w	r1, r1, #1
 8003100:	9101      	str	r1, [sp, #4]
 8003102:	9901      	ldr	r1, [sp, #4]
 8003104:	9202      	str	r2, [sp, #8]
 8003106:	6b19      	ldr	r1, [r3, #48]	; 0x30
 8003108:	f041 0102 	orr.w	r1, r1, #2
 800310c:	6319      	str	r1, [r3, #48]	; 0x30
 800310e:	6b19      	ldr	r1, [r3, #48]	; 0x30
 8003110:	f001 0102 	and.w	r1, r1, #2
 8003114:	9102      	str	r1, [sp, #8]
 8003116:	9902      	ldr	r1, [sp, #8]
 8003118:	9203      	str	r2, [sp, #12]
 800311a:	6b19      	ldr	r1, [r3, #48]	; 0x30
 800311c:	f041 0104 	orr.w	r1, r1, #4
 8003120:	6319      	str	r1, [r3, #48]	; 0x30
 8003122:	6b19      	ldr	r1, [r3, #48]	; 0x30
 8003124:	f001 0104 	and.w	r1, r1, #4
 8003128:	9103      	str	r1, [sp, #12]
 800312a:	9903      	ldr	r1, [sp, #12]
 800312c:	9204      	str	r2, [sp, #16]
 800312e:	6b19      	ldr	r1, [r3, #48]	; 0x30
 8003130:	f041 0108 	orr.w	r1, r1, #8
 8003134:	6319      	str	r1, [r3, #48]	; 0x30
 8003136:	6b19      	ldr	r1, [r3, #48]	; 0x30
 8003138:	f001 0108 	and.w	r1, r1, #8
 800313c:	9104      	str	r1, [sp, #16]
 800313e:	9904      	ldr	r1, [sp, #16]
 8003140:	9205      	str	r2, [sp, #20]
 8003142:	6b19      	ldr	r1, [r3, #48]	; 0x30
 8003144:	f041 0110 	orr.w	r1, r1, #16
 8003148:	6319      	str	r1, [r3, #48]	; 0x30
 800314a:	6b19      	ldr	r1, [r3, #48]	; 0x30
 800314c:	f001 0110 	and.w	r1, r1, #16
 8003150:	9105      	str	r1, [sp, #20]
 8003152:	9905      	ldr	r1, [sp, #20]
 8003154:	9206      	str	r2, [sp, #24]
 8003156:	6b19      	ldr	r1, [r3, #48]	; 0x30
 8003158:	f041 0120 	orr.w	r1, r1, #32
 800315c:	6319      	str	r1, [r3, #48]	; 0x30
 800315e:	6b19      	ldr	r1, [r3, #48]	; 0x30
 8003160:	f001 0120 	and.w	r1, r1, #32
 8003164:	9106      	str	r1, [sp, #24]
 8003166:	9906      	ldr	r1, [sp, #24]
 8003168:	9207      	str	r2, [sp, #28]
 800316a:	6b19      	ldr	r1, [r3, #48]	; 0x30
 800316c:	f041 0140 	orr.w	r1, r1, #64	; 0x40
 8003170:	6319      	str	r1, [r3, #48]	; 0x30
 8003172:	6b19      	ldr	r1, [r3, #48]	; 0x30
 8003174:	f001 0140 	and.w	r1, r1, #64	; 0x40
 8003178:	9107      	str	r1, [sp, #28]
 800317a:	9907      	ldr	r1, [sp, #28]
 800317c:	9208      	str	r2, [sp, #32]
 800317e:	6b19      	ldr	r1, [r3, #48]	; 0x30
 8003180:	f041 0180 	orr.w	r1, r1, #128	; 0x80
 8003184:	6319      	str	r1, [r3, #48]	; 0x30
 8003186:	6b19      	ldr	r1, [r3, #48]	; 0x30
 8003188:	f001 0180 	and.w	r1, r1, #128	; 0x80
 800318c:	9108      	str	r1, [sp, #32]
 800318e:	9908      	ldr	r1, [sp, #32]
 8003190:	9209      	str	r2, [sp, #36]	; 0x24
 8003192:	6b19      	ldr	r1, [r3, #48]	; 0x30
 8003194:	f441 7180 	orr.w	r1, r1, #256	; 0x100
 8003198:	6319      	str	r1, [r3, #48]	; 0x30
 800319a:	6b19      	ldr	r1, [r3, #48]	; 0x30
 800319c:	f401 7180 	and.w	r1, r1, #256	; 0x100
 80031a0:	9109      	str	r1, [sp, #36]	; 0x24
 80031a2:	9909      	ldr	r1, [sp, #36]	; 0x24
 80031a4:	920a      	str	r2, [sp, #40]	; 0x28
 80031a6:	6b19      	ldr	r1, [r3, #48]	; 0x30
 80031a8:	f441 7100 	orr.w	r1, r1, #512	; 0x200
 80031ac:	6319      	str	r1, [r3, #48]	; 0x30
 80031ae:	6b19      	ldr	r1, [r3, #48]	; 0x30
 80031b0:	f401 7100 	and.w	r1, r1, #512	; 0x200
 80031b4:	910a      	str	r1, [sp, #40]	; 0x28
 80031b6:	990a      	ldr	r1, [sp, #40]	; 0x28
 80031b8:	920b      	str	r2, [sp, #44]	; 0x2c
 80031ba:	6b1a      	ldr	r2, [r3, #48]	; 0x30
 80031bc:	f442 6280 	orr.w	r2, r2, #1024	; 0x400
 80031c0:	631a      	str	r2, [r3, #48]	; 0x30
 80031c2:	6b1b      	ldr	r3, [r3, #48]	; 0x30
 80031c4:	f403 6380 	and.w	r3, r3, #1024	; 0x400
 80031c8:	930b      	str	r3, [sp, #44]	; 0x2c
 80031ca:	9b0b      	ldr	r3, [sp, #44]	; 0x2c
 80031cc:	4b05      	ldr	r3, [pc, #20]	; (80031e4 <_ZN5TGpioILh5ELh6ELh1EEC1Ev+0xfc>)
 80031ce:	6003      	str	r3, [r0, #0]
 80031d0:	2101      	movs	r1, #1
 80031d2:	4604      	mov	r4, r0
 80031d4:	f7ff fde4 	bl	8002da0 <_ZN5TGpioILh5ELh6ELh1EE8set_modeEh>
 80031d8:	4620      	mov	r0, r4
 80031da:	b00c      	add	sp, #48	; 0x30
 80031dc:	bd10      	pop	{r4, pc}
 80031de:	bf00      	nop
 80031e0:	40023800 	andmi	r3, r2, r0, lsl #16
 80031e4:	40021400 	andmi	r1, r2, r0, lsl #8

080031e8 <_ZN6CTimerD1Ev>:
 80031e8:	4770      	bx	lr
 80031ea:	0000      	movs	r0, r0

080031ec <_ZN6CTimer8add_taskEP7CThreadjb>:
 80031ec:	b5f0      	push	{r4, r5, r6, r7, lr}
 80031ee:	b672      	cpsid	i
 80031f0:	2500      	movs	r5, #0
 80031f2:	f04f 30ff 	mov.w	r0, #4294967295	; 0xffffffff
 80031f6:	2614      	movs	r6, #20
 80031f8:	4c0d      	ldr	r4, [pc, #52]	; (8003230 <_ZN6CTimer8add_taskEP7CThreadjb+0x44>)
 80031fa:	436e      	muls	r6, r5
 80031fc:	19a7      	adds	r7, r4, r6
 80031fe:	59a6      	ldr	r6, [r4, r6]
 8003200:	b91e      	cbnz	r6, 800320a <_ZN6CTimer8add_taskEP7CThreadjb+0x1e>
 8003202:	687e      	ldr	r6, [r7, #4]
 8003204:	2e00      	cmp	r6, #0
 8003206:	bf08      	it	eq
 8003208:	4628      	moveq	r0, r5
 800320a:	3501      	adds	r5, #1
 800320c:	2d20      	cmp	r5, #32
 800320e:	d1f2      	bne.n	80031f6 <_ZN6CTimer8add_taskEP7CThreadjb+0xa>
 8003210:	1c45      	adds	r5, r0, #1
 8003212:	d00a      	beq.n	800322a <_ZN6CTimer8add_taskEP7CThreadjb+0x3e>
 8003214:	2514      	movs	r5, #20
 8003216:	b2c6      	uxtb	r6, r0
 8003218:	436e      	muls	r6, r5
 800321a:	19a5      	adds	r5, r4, r6
 800321c:	2700      	movs	r7, #0
 800321e:	51a7      	str	r7, [r4, r6]
 8003220:	6069      	str	r1, [r5, #4]
 8003222:	60aa      	str	r2, [r5, #8]
 8003224:	60ea      	str	r2, [r5, #12]
 8003226:	742f      	strb	r7, [r5, #16]
 8003228:	746b      	strb	r3, [r5, #17]
 800322a:	b662      	cpsie	i
 800322c:	bdf0      	pop	{r4, r5, r6, r7, pc}
 800322e:	bf00      	nop
 8003230:	200040ec 	andcs	r4, r0, ip, ror #1

08003234 <_ZN6CTimer14test_and_clearEh>:
 8003234:	b672      	cpsid	i
 8003236:	4b07      	ldr	r3, [pc, #28]	; (8003254 <_ZN6CTimer14test_and_clearEh+0x20>)
 8003238:	2214      	movs	r2, #20
 800323a:	fb02 3101 	mla	r1, r2, r1, r3
 800323e:	7c0b      	ldrb	r3, [r1, #16]
 8003240:	f003 00ff 	and.w	r0, r3, #255	; 0xff
 8003244:	b11b      	cbz	r3, 800324e <_ZN6CTimer14test_and_clearEh+0x1a>
 8003246:	7c08      	ldrb	r0, [r1, #16]
 8003248:	2300      	movs	r3, #0
 800324a:	b2c0      	uxtb	r0, r0
 800324c:	740b      	strb	r3, [r1, #16]
 800324e:	b662      	cpsie	i
 8003250:	4770      	bx	lr
 8003252:	bf00      	nop
 8003254:	200040ec 	andcs	r4, r0, ip, ror #1

08003258 <_ZN6CTimer4mainEv>:
 8003258:	e92d 41f0 	stmdb	sp!, {r4, r5, r6, r7, r8, lr}
 800325c:	4607      	mov	r7, r0
 800325e:	2400      	movs	r4, #0
 8003260:	4e0f      	ldr	r6, [pc, #60]	; (80032a0 <_ZN6CTimer4mainEv+0x48>)
 8003262:	2514      	movs	r5, #20
 8003264:	4365      	muls	r5, r4
 8003266:	1973      	adds	r3, r6, r5
 8003268:	3310      	adds	r3, #16
 800326a:	46b0      	mov	r8, r6
 800326c:	785b      	ldrb	r3, [r3, #1]
 800326e:	b18b      	cbz	r3, 8003294 <_ZN6CTimer4mainEv+0x3c>
 8003270:	4638      	mov	r0, r7
 8003272:	4621      	mov	r1, r4
 8003274:	f7ff ffde 	bl	8003234 <_ZN6CTimer14test_and_clearEh>
 8003278:	b160      	cbz	r0, 8003294 <_ZN6CTimer4mainEv+0x3c>
 800327a:	5973      	ldr	r3, [r6, r5]
 800327c:	b10b      	cbz	r3, 8003282 <_ZN6CTimer4mainEv+0x2a>
 800327e:	5973      	ldr	r3, [r6, r5]
 8003280:	4798      	blx	r3
 8003282:	2314      	movs	r3, #20
 8003284:	fb03 8304 	mla	r3, r3, r4, r8
 8003288:	685a      	ldr	r2, [r3, #4]
 800328a:	b11a      	cbz	r2, 8003294 <_ZN6CTimer4mainEv+0x3c>
 800328c:	6858      	ldr	r0, [r3, #4]
 800328e:	6803      	ldr	r3, [r0, #0]
 8003290:	689b      	ldr	r3, [r3, #8]
 8003292:	4798      	blx	r3
 8003294:	3401      	adds	r4, #1
 8003296:	b2e4      	uxtb	r4, r4
 8003298:	2c20      	cmp	r4, #32
 800329a:	bf28      	it	cs
 800329c:	2400      	movcs	r4, #0
 800329e:	e7df      	b.n	8003260 <_ZN6CTimer4mainEv+0x8>
 80032a0:	200040ec 	andcs	r4, r0, ip, ror #1

080032a4 <_ZN6CTimer8get_timeEv>:
 80032a4:	b082      	sub	sp, #8
 80032a6:	b672      	cpsid	i
 80032a8:	4b03      	ldr	r3, [pc, #12]	; (80032b8 <_ZN6CTimer8get_timeEv+0x14>)
 80032aa:	681b      	ldr	r3, [r3, #0]
 80032ac:	9301      	str	r3, [sp, #4]
 80032ae:	b662      	cpsie	i
 80032b0:	9801      	ldr	r0, [sp, #4]
 80032b2:	b002      	add	sp, #8
 80032b4:	4770      	bx	lr
 80032b6:	bf00      	nop
 80032b8:	200040e8 	andcs	r4, r0, r8, ror #1

080032bc <_ZN6CTimer8delay_msEj>:
 80032bc:	b537      	push	{r0, r1, r2, r4, r5, lr}
 80032be:	460c      	mov	r4, r1
 80032c0:	4605      	mov	r5, r0
 80032c2:	f7ff ffef 	bl	80032a4 <_ZN6CTimer8get_timeEv>
 80032c6:	4420      	add	r0, r4
 80032c8:	9001      	str	r0, [sp, #4]
 80032ca:	4628      	mov	r0, r5
 80032cc:	f7ff ffea 	bl	80032a4 <_ZN6CTimer8get_timeEv>
 80032d0:	9b01      	ldr	r3, [sp, #4]
 80032d2:	4298      	cmp	r0, r3
 80032d4:	d201      	bcs.n	80032da <_ZN6CTimer8delay_msEj+0x1e>
 80032d6:	bf00      	nop
 80032d8:	e7f7      	b.n	80032ca <_ZN6CTimer8delay_msEj+0xe>
 80032da:	b003      	add	sp, #12
 80032dc:	bd30      	pop	{r4, r5, pc}

080032de <_ZN6CTimer5resetEv>:
 80032de:	b510      	push	{r4, lr}
 80032e0:	4604      	mov	r4, r0
 80032e2:	f7ff ffdf 	bl	80032a4 <_ZN6CTimer8get_timeEv>
 80032e6:	6020      	str	r0, [r4, #0]
 80032e8:	bd10      	pop	{r4, pc}

080032ea <_ZN6CTimer12elapsed_timeEv>:
 80032ea:	b510      	push	{r4, lr}
 80032ec:	4604      	mov	r4, r0
 80032ee:	f7ff ffd9 	bl	80032a4 <_ZN6CTimer8get_timeEv>
 80032f2:	6823      	ldr	r3, [r4, #0]
 80032f4:	1ac0      	subs	r0, r0, r3
 80032f6:	bd10      	pop	{r4, pc}

080032f8 <TIM2_IRQHandler>:
 80032f8:	b538      	push	{r3, r4, r5, lr}
 80032fa:	f04f 4380 	mov.w	r3, #1073741824	; 0x40000000
 80032fe:	691a      	ldr	r2, [r3, #16]
 8003300:	07d2      	lsls	r2, r2, #31
 8003302:	d533      	bpl.n	800336c <TIM2_IRQHandler+0x74>
 8003304:	f64f 72fe 	movw	r2, #65534	; 0xfffe
 8003308:	611a      	str	r2, [r3, #16]
 800330a:	2400      	movs	r4, #0
 800330c:	4918      	ldr	r1, [pc, #96]	; (8003370 <TIM2_IRQHandler+0x78>)
 800330e:	2314      	movs	r3, #20
 8003310:	fb03 1304 	mla	r3, r3, r4, r1
 8003314:	f103 0208 	add.w	r2, r3, #8
 8003318:	6850      	ldr	r0, [r2, #4]
 800331a:	460d      	mov	r5, r1
 800331c:	b118      	cbz	r0, 8003326 <TIM2_IRQHandler+0x2e>
 800331e:	6853      	ldr	r3, [r2, #4]
 8003320:	3b01      	subs	r3, #1
 8003322:	6053      	str	r3, [r2, #4]
 8003324:	e01b      	b.n	800335e <TIM2_IRQHandler+0x66>
 8003326:	6898      	ldr	r0, [r3, #8]
 8003328:	6050      	str	r0, [r2, #4]
 800332a:	7c1a      	ldrb	r2, [r3, #16]
 800332c:	2aff      	cmp	r2, #255	; 0xff
 800332e:	bf1f      	itttt	ne
 8003330:	7c1a      	ldrbne	r2, [r3, #16]
 8003332:	3201      	addne	r2, #1
 8003334:	b2d2      	uxtbne	r2, r2
 8003336:	741a      	strbne	r2, [r3, #16]
 8003338:	2314      	movs	r3, #20
 800333a:	4363      	muls	r3, r4
 800333c:	18ca      	adds	r2, r1, r3
 800333e:	3210      	adds	r2, #16
 8003340:	7852      	ldrb	r2, [r2, #1]
 8003342:	b962      	cbnz	r2, 800335e <TIM2_IRQHandler+0x66>
 8003344:	58ca      	ldr	r2, [r1, r3]
 8003346:	b10a      	cbz	r2, 800334c <TIM2_IRQHandler+0x54>
 8003348:	58cb      	ldr	r3, [r1, r3]
 800334a:	4798      	blx	r3
 800334c:	2314      	movs	r3, #20
 800334e:	fb03 5304 	mla	r3, r3, r4, r5
 8003352:	685a      	ldr	r2, [r3, #4]
 8003354:	b11a      	cbz	r2, 800335e <TIM2_IRQHandler+0x66>
 8003356:	6858      	ldr	r0, [r3, #4]
 8003358:	6803      	ldr	r3, [r0, #0]
 800335a:	689b      	ldr	r3, [r3, #8]
 800335c:	4798      	blx	r3
 800335e:	3401      	adds	r4, #1
 8003360:	2c20      	cmp	r4, #32
 8003362:	d1d3      	bne.n	800330c <TIM2_IRQHandler+0x14>
 8003364:	4a03      	ldr	r2, [pc, #12]	; (8003374 <TIM2_IRQHandler+0x7c>)
 8003366:	6813      	ldr	r3, [r2, #0]
 8003368:	3301      	adds	r3, #1
 800336a:	6013      	str	r3, [r2, #0]
 800336c:	bd38      	pop	{r3, r4, r5, pc}
 800336e:	bf00      	nop
 8003370:	200040ec 	andcs	r4, r0, ip, ror #1
 8003374:	200040e8 	andcs	r4, r0, r8, ror #1

08003378 <_ZN6CTimer12timer_2_initEm>:
 8003378:	b510      	push	{r4, lr}
 800337a:	b092      	sub	sp, #72	; 0x48
 800337c:	460c      	mov	r4, r1
 800337e:	f7fe fe51 	bl	8002024 <HAL_RCC_GetPCLK1Freq>
 8003382:	2c00      	cmp	r4, #0
 8003384:	ea4f 0340 	mov.w	r3, r0, lsl #1
 8003388:	bf08      	it	eq
 800338a:	2401      	moveq	r4, #1
 800338c:	42a0      	cmp	r0, r4
 800338e:	ee07 3a90 	vmov	s15, r3
 8003392:	bf28      	it	cs
 8003394:	4620      	movcs	r0, r4
 8003396:	eeb8 7a67 	vcvt.f32.u32	s14, s15
 800339a:	ee07 0a90 	vmov	s15, r0
 800339e:	eef8 7a67 	vcvt.f32.u32	s15, s15
 80033a2:	2400      	movs	r4, #0
 80033a4:	eec7 7a27 	vdiv.f32	s15, s14, s15
 80033a8:	4b1c      	ldr	r3, [pc, #112]	; (800341c <_ZN6CTimer12timer_2_initEm+0xa4>)
 80033aa:	9402      	str	r4, [sp, #8]
 80033ac:	6c19      	ldr	r1, [r3, #64]	; 0x40
 80033ae:	f041 0101 	orr.w	r1, r1, #1
 80033b2:	6419      	str	r1, [r3, #64]	; 0x40
 80033b4:	6c1b      	ldr	r3, [r3, #64]	; 0x40
 80033b6:	9407      	str	r4, [sp, #28]
 80033b8:	f003 0301 	and.w	r3, r3, #1
 80033bc:	9302      	str	r3, [sp, #8]
 80033be:	9b02      	ldr	r3, [sp, #8]
 80033c0:	9405      	str	r4, [sp, #20]
 80033c2:	f04f 4380 	mov.w	r3, #1073741824	; 0x40000000
 80033c6:	9303      	str	r3, [sp, #12]
 80033c8:	eebc 7ae7 	vcvt.u32.f32	s14, s15
 80033cc:	a803      	add	r0, sp, #12
 80033ce:	ee17 2a10 	vmov	r2, s14
 80033d2:	0c12      	lsrs	r2, r2, #16
 80033d4:	1c53      	adds	r3, r2, #1
 80033d6:	ee07 3a10 	vmov	s14, r3
 80033da:	eeb8 7ac7 	vcvt.f32.s32	s14, s14
 80033de:	9204      	str	r2, [sp, #16]
 80033e0:	eec7 7a87 	vdiv.f32	s15, s15, s14
 80033e4:	9408      	str	r4, [sp, #32]
 80033e6:	eeb7 7a00 	vmov.f32	s14, #112	; 0x3f800000  1.0
 80033ea:	ee77 7ac7 	vsub.f32	s15, s15, s14
 80033ee:	eefc 7ae7 	vcvt.u32.f32	s15, s15
 80033f2:	edcd 7a01 	vstr	s15, [sp, #4]
 80033f6:	f8bd 3004 	ldrh.w	r3, [sp, #4]
 80033fa:	9306      	str	r3, [sp, #24]
 80033fc:	f7fe fae0 	bl	80019c0 <HAL_TIM_Base_Init>
 8003400:	2103      	movs	r1, #3
 8003402:	4622      	mov	r2, r4
 8003404:	201c      	movs	r0, #28
 8003406:	f7fd fe49 	bl	800109c <HAL_NVIC_SetPriority>
 800340a:	201c      	movs	r0, #28
 800340c:	f7fd fe76 	bl	80010fc <HAL_NVIC_EnableIRQ>
 8003410:	a803      	add	r0, sp, #12
 8003412:	f7fe fa66 	bl	80018e2 <HAL_TIM_Base_Start_IT>
 8003416:	b012      	add	sp, #72	; 0x48
 8003418:	bd10      	pop	{r4, pc}
 800341a:	bf00      	nop
 800341c:	40023800 	andmi	r3, r2, r0, lsl #16

08003420 <_ZN6CTimer4initEv>:
 8003420:	b538      	push	{r3, r4, r5, lr}
 8003422:	2400      	movs	r4, #0
 8003424:	4d0d      	ldr	r5, [pc, #52]	; (800345c <_ZN6CTimer4initEv+0x3c>)
 8003426:	2114      	movs	r1, #20
 8003428:	4361      	muls	r1, r4
 800342a:	186a      	adds	r2, r5, r1
 800342c:	2300      	movs	r3, #0
 800342e:	3401      	adds	r4, #1
 8003430:	506b      	str	r3, [r5, r1]
 8003432:	2c20      	cmp	r4, #32
 8003434:	f44f 717a 	mov.w	r1, #1000	; 0x3e8
 8003438:	6053      	str	r3, [r2, #4]
 800343a:	6091      	str	r1, [r2, #8]
 800343c:	60d3      	str	r3, [r2, #12]
 800343e:	7413      	strb	r3, [r2, #16]
 8003440:	7453      	strb	r3, [r2, #17]
 8003442:	d1ef      	bne.n	8003424 <_ZN6CTimer4initEv+0x4>
 8003444:	4a06      	ldr	r2, [pc, #24]	; (8003460 <_ZN6CTimer4initEv+0x40>)
 8003446:	6013      	str	r3, [r2, #0]
 8003448:	4a06      	ldr	r2, [pc, #24]	; (8003464 <_ZN6CTimer4initEv+0x44>)
 800344a:	6003      	str	r3, [r0, #0]
 800344c:	6c13      	ldr	r3, [r2, #64]	; 0x40
 800344e:	f043 0301 	orr.w	r3, r3, #1
 8003452:	6413      	str	r3, [r2, #64]	; 0x40
 8003454:	f7ff ff90 	bl	8003378 <_ZN6CTimer12timer_2_initEm>
 8003458:	b662      	cpsie	i
 800345a:	bd38      	pop	{r3, r4, r5, pc}
 800345c:	200040ec 	andcs	r4, r0, ip, ror #1
 8003460:	200040e8 	andcs	r4, r0, r8, ror #1
 8003464:	40023800 	andmi	r3, r2, r0, lsl #16

08003468 <_GLOBAL__sub_I_timer>:
 8003468:	4802      	ldr	r0, [pc, #8]	; (8003474 <_GLOBAL__sub_I_timer+0xc>)
 800346a:	4903      	ldr	r1, [pc, #12]	; (8003478 <_GLOBAL__sub_I_timer+0x10>)
 800346c:	4a03      	ldr	r2, [pc, #12]	; (800347c <_GLOBAL__sub_I_timer+0x14>)
 800346e:	f001 bacf 	b.w	8004a10 <__aeabi_atexit>
 8003472:	bf00      	nop
 8003474:	2000436c 	andcs	r4, r0, ip, ror #6
 8003478:	080031e9 	stmdaeq	r0, {r0, r3, r5, r6, r7, r8, ip, sp}
 800347c:	20000000 	andcs	r0, r0, r0

08003480 <_ZN7CKernelD1Ev>:
 8003480:	4770      	bx	lr
 8003482:	0000      	movs	r0, r0

08003484 <scheduler>:
 8003484:	b570      	push	{r4, r5, r6, lr}
 8003486:	2200      	movs	r2, #0
 8003488:	4611      	mov	r1, r2
 800348a:	4b10      	ldr	r3, [pc, #64]	; (80034cc <scheduler+0x48>)
 800348c:	0110      	lsls	r0, r2, #4
 800348e:	181c      	adds	r4, r3, r0
 8003490:	68a5      	ldr	r5, [r4, #8]
 8003492:	f015 0f02 	tst.w	r5, #2
 8003496:	461d      	mov	r5, r3
 8003498:	d108      	bne.n	80034ac <scheduler+0x28>
 800349a:	68a4      	ldr	r4, [r4, #8]
 800349c:	07e4      	lsls	r4, r4, #31
 800349e:	d505      	bpl.n	80034ac <scheduler+0x28>
 80034a0:	010c      	lsls	r4, r1, #4
 80034a2:	581e      	ldr	r6, [r3, r0]
 80034a4:	591c      	ldr	r4, [r3, r4]
 80034a6:	42a6      	cmp	r6, r4
 80034a8:	bf38      	it	cc
 80034aa:	4611      	movcc	r1, r2
 80034ac:	581c      	ldr	r4, [r3, r0]
 80034ae:	b114      	cbz	r4, 80034b6 <scheduler+0x32>
 80034b0:	581c      	ldr	r4, [r3, r0]
 80034b2:	3c01      	subs	r4, #1
 80034b4:	501c      	str	r4, [r3, r0]
 80034b6:	3201      	adds	r2, #1
 80034b8:	2a20      	cmp	r2, #32
 80034ba:	d1e6      	bne.n	800348a <scheduler+0x6>
 80034bc:	010b      	lsls	r3, r1, #4
 80034be:	18ea      	adds	r2, r5, r3
 80034c0:	6852      	ldr	r2, [r2, #4]
 80034c2:	50ea      	str	r2, [r5, r3]
 80034c4:	4b02      	ldr	r3, [pc, #8]	; (80034d0 <scheduler+0x4c>)
 80034c6:	6019      	str	r1, [r3, #0]
 80034c8:	bd70      	pop	{r4, r5, r6, pc}
 80034ca:	bf00      	nop
 80034cc:	20004370 	andcs	r4, r0, r0, ror r3
 80034d0:	20004574 	andcs	r4, r0, r4, ror r5

080034d4 <SysTick_Handler>:
 80034d4:	e92d 0ff0 	stmdb	sp!, {r4, r5, r6, r7, r8, r9, sl, fp}
 80034d8:	f3ef 8208 	mrs	r2, MSP
 80034dc:	4d0e      	ldr	r5, [pc, #56]	; (8003518 <SysTick_Handler+0x44>)
 80034de:	4c0f      	ldr	r4, [pc, #60]	; (800351c <SysTick_Handler+0x48>)
 80034e0:	6829      	ldr	r1, [r5, #0]
 80034e2:	f64f 73ff 	movw	r3, #65535	; 0xffff
 80034e6:	4299      	cmp	r1, r3
 80034e8:	bf1b      	ittet	ne
 80034ea:	682b      	ldrne	r3, [r5, #0]
 80034ec:	eb04 1303 	addne.w	r3, r4, r3, lsl #4
 80034f0:	2300      	moveq	r3, #0
 80034f2:	60da      	strne	r2, [r3, #12]
 80034f4:	bf0c      	ite	eq
 80034f6:	602b      	streq	r3, [r5, #0]
 80034f8:	3308      	addne	r3, #8
 80034fa:	f7ff ffc3 	bl	8003484 <scheduler>
 80034fe:	682b      	ldr	r3, [r5, #0]
 8003500:	eb04 1403 	add.w	r4, r4, r3, lsl #4
 8003504:	3408      	adds	r4, #8
 8003506:	6862      	ldr	r2, [r4, #4]
 8003508:	f06f 0306 	mvn.w	r3, #6
 800350c:	469e      	mov	lr, r3
 800350e:	f382 8808 	msr	MSP, r2
 8003512:	e8bd 0ff0 	ldmia.w	sp!, {r4, r5, r6, r7, r8, r9, sl, fp}
 8003516:	4770      	bx	lr
 8003518:	20004574 	andcs	r4, r0, r4, ror r5
 800351c:	20004370 	andcs	r4, r0, r0, ror r3

08003520 <_GLOBAL__sub_I_os>:
 8003520:	4802      	ldr	r0, [pc, #8]	; (800352c <_GLOBAL__sub_I_os+0xc>)
 8003522:	4903      	ldr	r1, [pc, #12]	; (8003530 <_GLOBAL__sub_I_os+0x10>)
 8003524:	4a03      	ldr	r2, [pc, #12]	; (8003534 <_GLOBAL__sub_I_os+0x14>)
 8003526:	f001 ba73 	b.w	8004a10 <__aeabi_atexit>
 800352a:	bf00      	nop
 800352c:	20004570 	andcs	r4, r0, r0, ror r5
 8003530:	08003481 	stmdaeq	r0, {r0, r7, sl, ip, sp}
 8003534:	20000000 	andcs	r0, r0, r0

08003538 <_ZN4TI2CILh5ELh7ELh6ELj20ELh5EE9write_regEhhh>:
 8003538:	e92d 41f0 	stmdb	sp!, {r4, r5, r6, r7, r8, lr}
 800353c:	461d      	mov	r5, r3
 800353e:	6803      	ldr	r3, [r0, #0]
 8003540:	4604      	mov	r4, r0
 8003542:	681b      	ldr	r3, [r3, #0]
 8003544:	4616      	mov	r6, r2
 8003546:	460f      	mov	r7, r1
 8003548:	4798      	blx	r3
 800354a:	6823      	ldr	r3, [r4, #0]
 800354c:	4639      	mov	r1, r7
 800354e:	689b      	ldr	r3, [r3, #8]
 8003550:	4620      	mov	r0, r4
 8003552:	4798      	blx	r3
 8003554:	6823      	ldr	r3, [r4, #0]
 8003556:	4631      	mov	r1, r6
 8003558:	689b      	ldr	r3, [r3, #8]
 800355a:	4620      	mov	r0, r4
 800355c:	4798      	blx	r3
 800355e:	6823      	ldr	r3, [r4, #0]
 8003560:	4620      	mov	r0, r4
 8003562:	689a      	ldr	r2, [r3, #8]
 8003564:	4629      	mov	r1, r5
 8003566:	4790      	blx	r2
 8003568:	6823      	ldr	r3, [r4, #0]
 800356a:	4620      	mov	r0, r4
 800356c:	685b      	ldr	r3, [r3, #4]
 800356e:	e8bd 41f0 	ldmia.w	sp!, {r4, r5, r6, r7, r8, lr}
 8003572:	4718      	bx	r3

08003574 <_ZN4TI2CILh5ELh7ELh6ELj20ELh5EE15write_reg_16bitEhhj>:
 8003574:	e92d 41f0 	stmdb	sp!, {r4, r5, r6, r7, r8, lr}
 8003578:	461d      	mov	r5, r3
 800357a:	6803      	ldr	r3, [r0, #0]
 800357c:	4604      	mov	r4, r0
 800357e:	681b      	ldr	r3, [r3, #0]
 8003580:	4616      	mov	r6, r2
 8003582:	460f      	mov	r7, r1
 8003584:	4798      	blx	r3
 8003586:	6823      	ldr	r3, [r4, #0]
 8003588:	4639      	mov	r1, r7
 800358a:	689b      	ldr	r3, [r3, #8]
 800358c:	4620      	mov	r0, r4
 800358e:	4798      	blx	r3
 8003590:	6823      	ldr	r3, [r4, #0]
 8003592:	4631      	mov	r1, r6
 8003594:	689b      	ldr	r3, [r3, #8]
 8003596:	4620      	mov	r0, r4
 8003598:	4798      	blx	r3
 800359a:	6823      	ldr	r3, [r4, #0]
 800359c:	f3c5 2107 	ubfx	r1, r5, #8, #8
 80035a0:	689b      	ldr	r3, [r3, #8]
 80035a2:	4620      	mov	r0, r4
 80035a4:	4798      	blx	r3
 80035a6:	6823      	ldr	r3, [r4, #0]
 80035a8:	4620      	mov	r0, r4
 80035aa:	689b      	ldr	r3, [r3, #8]
 80035ac:	b2e9      	uxtb	r1, r5
 80035ae:	4798      	blx	r3
 80035b0:	6823      	ldr	r3, [r4, #0]
 80035b2:	4620      	mov	r0, r4
 80035b4:	685b      	ldr	r3, [r3, #4]
 80035b6:	e8bd 41f0 	ldmia.w	sp!, {r4, r5, r6, r7, r8, lr}
 80035ba:	4718      	bx	r3

080035bc <_ZN4TI2CILh5ELh7ELh6ELj20ELh5EE15write_reg_multiEhhPhj>:
 80035bc:	e92d 41f0 	stmdb	sp!, {r4, r5, r6, r7, r8, lr}
 80035c0:	461d      	mov	r5, r3
 80035c2:	6803      	ldr	r3, [r0, #0]
 80035c4:	9e06      	ldr	r6, [sp, #24]
 80035c6:	681b      	ldr	r3, [r3, #0]
 80035c8:	4604      	mov	r4, r0
 80035ca:	4617      	mov	r7, r2
 80035cc:	4688      	mov	r8, r1
 80035ce:	4798      	blx	r3
 80035d0:	6823      	ldr	r3, [r4, #0]
 80035d2:	4641      	mov	r1, r8
 80035d4:	689b      	ldr	r3, [r3, #8]
 80035d6:	4620      	mov	r0, r4
 80035d8:	4798      	blx	r3
 80035da:	6823      	ldr	r3, [r4, #0]
 80035dc:	4620      	mov	r0, r4
 80035de:	689b      	ldr	r3, [r3, #8]
 80035e0:	4639      	mov	r1, r7
 80035e2:	4798      	blx	r3
 80035e4:	442e      	add	r6, r5
 80035e6:	42b5      	cmp	r5, r6
 80035e8:	6823      	ldr	r3, [r4, #0]
 80035ea:	d005      	beq.n	80035f8 <_ZN4TI2CILh5ELh7ELh6ELj20ELh5EE15write_reg_multiEhhPhj+0x3c>
 80035ec:	689b      	ldr	r3, [r3, #8]
 80035ee:	f815 1b01 	ldrb.w	r1, [r5], #1
 80035f2:	4620      	mov	r0, r4
 80035f4:	4798      	blx	r3
 80035f6:	e7f6      	b.n	80035e6 <_ZN4TI2CILh5ELh7ELh6ELj20ELh5EE15write_reg_multiEhhPhj+0x2a>
 80035f8:	4620      	mov	r0, r4
 80035fa:	685b      	ldr	r3, [r3, #4]
 80035fc:	e8bd 41f0 	ldmia.w	sp!, {r4, r5, r6, r7, r8, lr}
 8003600:	4718      	bx	r3

08003602 <_ZN4TI2CILh5ELh7ELh6ELj20ELh5EE8read_regEhh>:
 8003602:	6803      	ldr	r3, [r0, #0]
 8003604:	b570      	push	{r4, r5, r6, lr}
 8003606:	4604      	mov	r4, r0
 8003608:	681b      	ldr	r3, [r3, #0]
 800360a:	4616      	mov	r6, r2
 800360c:	460d      	mov	r5, r1
 800360e:	4798      	blx	r3
 8003610:	6823      	ldr	r3, [r4, #0]
 8003612:	4629      	mov	r1, r5
 8003614:	689b      	ldr	r3, [r3, #8]
 8003616:	4620      	mov	r0, r4
 8003618:	4798      	blx	r3
 800361a:	6823      	ldr	r3, [r4, #0]
 800361c:	4631      	mov	r1, r6
 800361e:	689b      	ldr	r3, [r3, #8]
 8003620:	4620      	mov	r0, r4
 8003622:	4798      	blx	r3
 8003624:	6823      	ldr	r3, [r4, #0]
 8003626:	4620      	mov	r0, r4
 8003628:	681b      	ldr	r3, [r3, #0]
 800362a:	4798      	blx	r3
 800362c:	6823      	ldr	r3, [r4, #0]
 800362e:	f045 0101 	orr.w	r1, r5, #1
 8003632:	689b      	ldr	r3, [r3, #8]
 8003634:	4620      	mov	r0, r4
 8003636:	4798      	blx	r3
 8003638:	6823      	ldr	r3, [r4, #0]
 800363a:	2100      	movs	r1, #0
 800363c:	68db      	ldr	r3, [r3, #12]
 800363e:	4620      	mov	r0, r4
 8003640:	4798      	blx	r3
 8003642:	6823      	ldr	r3, [r4, #0]
 8003644:	4605      	mov	r5, r0
 8003646:	685b      	ldr	r3, [r3, #4]
 8003648:	4620      	mov	r0, r4
 800364a:	4798      	blx	r3
 800364c:	4628      	mov	r0, r5
 800364e:	bd70      	pop	{r4, r5, r6, pc}

08003650 <_ZN4TI2CILh5ELh7ELh6ELj20ELh5EE14read_reg_16bitEhh>:
 8003650:	6803      	ldr	r3, [r0, #0]
 8003652:	b570      	push	{r4, r5, r6, lr}
 8003654:	4604      	mov	r4, r0
 8003656:	681b      	ldr	r3, [r3, #0]
 8003658:	4616      	mov	r6, r2
 800365a:	460d      	mov	r5, r1
 800365c:	4798      	blx	r3
 800365e:	6823      	ldr	r3, [r4, #0]
 8003660:	4629      	mov	r1, r5
 8003662:	689b      	ldr	r3, [r3, #8]
 8003664:	4620      	mov	r0, r4
 8003666:	4798      	blx	r3
 8003668:	6823      	ldr	r3, [r4, #0]
 800366a:	4631      	mov	r1, r6
 800366c:	689b      	ldr	r3, [r3, #8]
 800366e:	4620      	mov	r0, r4
 8003670:	4798      	blx	r3
 8003672:	6823      	ldr	r3, [r4, #0]
 8003674:	4620      	mov	r0, r4
 8003676:	681b      	ldr	r3, [r3, #0]
 8003678:	4798      	blx	r3
 800367a:	6823      	ldr	r3, [r4, #0]
 800367c:	f045 0101 	orr.w	r1, r5, #1
 8003680:	689b      	ldr	r3, [r3, #8]
 8003682:	4620      	mov	r0, r4
 8003684:	4798      	blx	r3
 8003686:	6823      	ldr	r3, [r4, #0]
 8003688:	4620      	mov	r0, r4
 800368a:	68db      	ldr	r3, [r3, #12]
 800368c:	2101      	movs	r1, #1
 800368e:	4798      	blx	r3
 8003690:	6823      	ldr	r3, [r4, #0]
 8003692:	2100      	movs	r1, #0
 8003694:	0205      	lsls	r5, r0, #8
 8003696:	68db      	ldr	r3, [r3, #12]
 8003698:	4620      	mov	r0, r4
 800369a:	4798      	blx	r3
 800369c:	6823      	ldr	r3, [r4, #0]
 800369e:	4305      	orrs	r5, r0
 80036a0:	685b      	ldr	r3, [r3, #4]
 80036a2:	4620      	mov	r0, r4
 80036a4:	4798      	blx	r3
 80036a6:	4628      	mov	r0, r5
 80036a8:	bd70      	pop	{r4, r5, r6, pc}

080036aa <_ZN4TI2CILh5ELh7ELh6ELj20ELh5EE14read_reg_multiEhhPhj>:
 80036aa:	e92d 41f0 	stmdb	sp!, {r4, r5, r6, r7, r8, lr}
 80036ae:	461d      	mov	r5, r3
 80036b0:	6803      	ldr	r3, [r0, #0]
 80036b2:	9e06      	ldr	r6, [sp, #24]
 80036b4:	681b      	ldr	r3, [r3, #0]
 80036b6:	4604      	mov	r4, r0
 80036b8:	4690      	mov	r8, r2
 80036ba:	460f      	mov	r7, r1
 80036bc:	4798      	blx	r3
 80036be:	6823      	ldr	r3, [r4, #0]
 80036c0:	4639      	mov	r1, r7
 80036c2:	689b      	ldr	r3, [r3, #8]
 80036c4:	4620      	mov	r0, r4
 80036c6:	4798      	blx	r3
 80036c8:	6823      	ldr	r3, [r4, #0]
 80036ca:	4641      	mov	r1, r8
 80036cc:	689b      	ldr	r3, [r3, #8]
 80036ce:	4620      	mov	r0, r4
 80036d0:	4798      	blx	r3
 80036d2:	6823      	ldr	r3, [r4, #0]
 80036d4:	4620      	mov	r0, r4
 80036d6:	681b      	ldr	r3, [r3, #0]
 80036d8:	4798      	blx	r3
 80036da:	6823      	ldr	r3, [r4, #0]
 80036dc:	4620      	mov	r0, r4
 80036de:	689b      	ldr	r3, [r3, #8]
 80036e0:	f047 0101 	orr.w	r1, r7, #1
 80036e4:	4798      	blx	r3
 80036e6:	442e      	add	r6, r5
 80036e8:	42b5      	cmp	r5, r6
 80036ea:	6823      	ldr	r3, [r4, #0]
 80036ec:	d006      	beq.n	80036fc <_ZN4TI2CILh5ELh7ELh6ELj20ELh5EE14read_reg_multiEhhPhj+0x52>
 80036ee:	68db      	ldr	r3, [r3, #12]
 80036f0:	4620      	mov	r0, r4
 80036f2:	2101      	movs	r1, #1
 80036f4:	4798      	blx	r3
 80036f6:	f805 0b01 	strb.w	r0, [r5], #1
 80036fa:	e7f5      	b.n	80036e8 <_ZN4TI2CILh5ELh7ELh6ELj20ELh5EE14read_reg_multiEhhPhj+0x3e>
 80036fc:	4620      	mov	r0, r4
 80036fe:	685b      	ldr	r3, [r3, #4]
 8003700:	e8bd 41f0 	ldmia.w	sp!, {r4, r5, r6, r7, r8, lr}
 8003704:	4718      	bx	r3
 8003706:	0000      	movs	r0, r0

08003708 <_ZN5TGpioILh5ELh7ELh1EEC1Ev>:
 8003708:	b510      	push	{r4, lr}
 800370a:	b08c      	sub	sp, #48	; 0x30
 800370c:	4b3c      	ldr	r3, [pc, #240]	; (8003800 <_ZN5TGpioILh5ELh7ELh1EEC1Ev+0xf8>)
 800370e:	2200      	movs	r2, #0
 8003710:	9201      	str	r2, [sp, #4]
 8003712:	6b19      	ldr	r1, [r3, #48]	; 0x30
 8003714:	f041 0101 	orr.w	r1, r1, #1
 8003718:	6319      	str	r1, [r3, #48]	; 0x30
 800371a:	6b19      	ldr	r1, [r3, #48]	; 0x30
 800371c:	f001 0101 	and.w	r1, r1, #1
 8003720:	9101      	str	r1, [sp, #4]
 8003722:	9901      	ldr	r1, [sp, #4]
 8003724:	9202      	str	r2, [sp, #8]
 8003726:	6b19      	ldr	r1, [r3, #48]	; 0x30
 8003728:	f041 0102 	orr.w	r1, r1, #2
 800372c:	6319      	str	r1, [r3, #48]	; 0x30
 800372e:	6b19      	ldr	r1, [r3, #48]	; 0x30
 8003730:	f001 0102 	and.w	r1, r1, #2
 8003734:	9102      	str	r1, [sp, #8]
 8003736:	9902      	ldr	r1, [sp, #8]
 8003738:	9203      	str	r2, [sp, #12]
 800373a:	6b19      	ldr	r1, [r3, #48]	; 0x30
 800373c:	f041 0104 	orr.w	r1, r1, #4
 8003740:	6319      	str	r1, [r3, #48]	; 0x30
 8003742:	6b19      	ldr	r1, [r3, #48]	; 0x30
 8003744:	f001 0104 	and.w	r1, r1, #4
 8003748:	9103      	str	r1, [sp, #12]
 800374a:	9903      	ldr	r1, [sp, #12]
 800374c:	9204      	str	r2, [sp, #16]
 800374e:	6b19      	ldr	r1, [r3, #48]	; 0x30
 8003750:	f041 0108 	orr.w	r1, r1, #8
 8003754:	6319      	str	r1, [r3, #48]	; 0x30
 8003756:	6b19      	ldr	r1, [r3, #48]	; 0x30
 8003758:	f001 0108 	and.w	r1, r1, #8
 800375c:	9104      	str	r1, [sp, #16]
 800375e:	9904      	ldr	r1, [sp, #16]
 8003760:	9205      	str	r2, [sp, #20]
 8003762:	6b19      	ldr	r1, [r3, #48]	; 0x30
 8003764:	f041 0110 	orr.w	r1, r1, #16
 8003768:	6319      	str	r1, [r3, #48]	; 0x30
 800376a:	6b19      	ldr	r1, [r3, #48]	; 0x30
 800376c:	f001 0110 	and.w	r1, r1, #16
 8003770:	9105      	str	r1, [sp, #20]
 8003772:	9905      	ldr	r1, [sp, #20]
 8003774:	9206      	str	r2, [sp, #24]
 8003776:	6b19      	ldr	r1, [r3, #48]	; 0x30
 8003778:	f041 0120 	orr.w	r1, r1, #32
 800377c:	6319      	str	r1, [r3, #48]	; 0x30
 800377e:	6b19      	ldr	r1, [r3, #48]	; 0x30
 8003780:	f001 0120 	and.w	r1, r1, #32
 8003784:	9106      	str	r1, [sp, #24]
 8003786:	9906      	ldr	r1, [sp, #24]
 8003788:	9207      	str	r2, [sp, #28]
 800378a:	6b19      	ldr	r1, [r3, #48]	; 0x30
 800378c:	f041 0140 	orr.w	r1, r1, #64	; 0x40
 8003790:	6319      	str	r1, [r3, #48]	; 0x30
 8003792:	6b19      	ldr	r1, [r3, #48]	; 0x30
 8003794:	f001 0140 	and.w	r1, r1, #64	; 0x40
 8003798:	9107      	str	r1, [sp, #28]
 800379a:	9907      	ldr	r1, [sp, #28]
 800379c:	9208      	str	r2, [sp, #32]
 800379e:	6b19      	ldr	r1, [r3, #48]	; 0x30
 80037a0:	f041 0180 	orr.w	r1, r1, #128	; 0x80
 80037a4:	6319      	str	r1, [r3, #48]	; 0x30
 80037a6:	6b19      	ldr	r1, [r3, #48]	; 0x30
 80037a8:	f001 0180 	and.w	r1, r1, #128	; 0x80
 80037ac:	9108      	str	r1, [sp, #32]
 80037ae:	9908      	ldr	r1, [sp, #32]
 80037b0:	9209      	str	r2, [sp, #36]	; 0x24
 80037b2:	6b19      	ldr	r1, [r3, #48]	; 0x30
 80037b4:	f441 7180 	orr.w	r1, r1, #256	; 0x100
 80037b8:	6319      	str	r1, [r3, #48]	; 0x30
 80037ba:	6b19      	ldr	r1, [r3, #48]	; 0x30
 80037bc:	f401 7180 	and.w	r1, r1, #256	; 0x100
 80037c0:	9109      	str	r1, [sp, #36]	; 0x24
 80037c2:	9909      	ldr	r1, [sp, #36]	; 0x24
 80037c4:	920a      	str	r2, [sp, #40]	; 0x28
 80037c6:	6b19      	ldr	r1, [r3, #48]	; 0x30
 80037c8:	f441 7100 	orr.w	r1, r1, #512	; 0x200
 80037cc:	6319      	str	r1, [r3, #48]	; 0x30
 80037ce:	6b19      	ldr	r1, [r3, #48]	; 0x30
 80037d0:	f401 7100 	and.w	r1, r1, #512	; 0x200
 80037d4:	910a      	str	r1, [sp, #40]	; 0x28
 80037d6:	990a      	ldr	r1, [sp, #40]	; 0x28
 80037d8:	920b      	str	r2, [sp, #44]	; 0x2c
 80037da:	6b1a      	ldr	r2, [r3, #48]	; 0x30
 80037dc:	f442 6280 	orr.w	r2, r2, #1024	; 0x400
 80037e0:	631a      	str	r2, [r3, #48]	; 0x30
 80037e2:	6b1b      	ldr	r3, [r3, #48]	; 0x30
 80037e4:	f403 6380 	and.w	r3, r3, #1024	; 0x400
 80037e8:	930b      	str	r3, [sp, #44]	; 0x2c
 80037ea:	9b0b      	ldr	r3, [sp, #44]	; 0x2c
 80037ec:	4b05      	ldr	r3, [pc, #20]	; (8003804 <_ZN5TGpioILh5ELh7ELh1EEC1Ev+0xfc>)
 80037ee:	6003      	str	r3, [r0, #0]
 80037f0:	2101      	movs	r1, #1
 80037f2:	4604      	mov	r4, r0
 80037f4:	f7ff fb32 	bl	8002e5c <_ZN5TGpioILh5ELh7ELh1EE8set_modeEh>
 80037f8:	4620      	mov	r0, r4
 80037fa:	b00c      	add	sp, #48	; 0x30
 80037fc:	bd10      	pop	{r4, pc}
 80037fe:	bf00      	nop
 8003800:	40023800 	andmi	r3, r2, r0, lsl #16
 8003804:	40021400 	andmi	r1, r2, r0, lsl #8

08003808 <_GLOBAL__sub_I_i2c>:
 8003808:	b510      	push	{r4, lr}
 800380a:	4c0b      	ldr	r4, [pc, #44]	; (8003838 <_GLOBAL__sub_I_i2c+0x30>)
 800380c:	4b0b      	ldr	r3, [pc, #44]	; (800383c <_GLOBAL__sub_I_i2c+0x34>)
 800380e:	4620      	mov	r0, r4
 8003810:	f840 3b04 	str.w	r3, [r0], #4
 8003814:	f7ff ff78 	bl	8003708 <_ZN5TGpioILh5ELh7ELh1EEC1Ev>
 8003818:	f104 0008 	add.w	r0, r4, #8
 800381c:	f7ff fc64 	bl	80030e8 <_ZN5TGpioILh5ELh6ELh1EEC1Ev>
 8003820:	6862      	ldr	r2, [r4, #4]
 8003822:	6953      	ldr	r3, [r2, #20]
 8003824:	f023 0380 	bic.w	r3, r3, #128	; 0x80
 8003828:	6153      	str	r3, [r2, #20]
 800382a:	68a2      	ldr	r2, [r4, #8]
 800382c:	6953      	ldr	r3, [r2, #20]
 800382e:	f023 0340 	bic.w	r3, r3, #64	; 0x40
 8003832:	6153      	str	r3, [r2, #20]
 8003834:	bd10      	pop	{r4, pc}
 8003836:	bf00      	nop
 8003838:	20004578 	andcs	r4, r0, r8, ror r5
 800383c:	08004b90 	stmdaeq	r0, {r4, r7, r8, r9, fp, lr}

08003840 <_ZN4CMemD1Ev>:
 8003840:	4770      	bx	lr

08003842 <_ZdlPv>:
 8003842:	4770      	bx	lr

08003844 <_GLOBAL__sub_I_mem>:
 8003844:	4803      	ldr	r0, [pc, #12]	; (8003854 <_GLOBAL__sub_I_mem+0x10>)
 8003846:	4b04      	ldr	r3, [pc, #16]	; (8003858 <_GLOBAL__sub_I_mem+0x14>)
 8003848:	4904      	ldr	r1, [pc, #16]	; (800385c <_GLOBAL__sub_I_mem+0x18>)
 800384a:	4a05      	ldr	r2, [pc, #20]	; (8003860 <_GLOBAL__sub_I_mem+0x1c>)
 800384c:	6003      	str	r3, [r0, #0]
 800384e:	f001 b8df 	b.w	8004a10 <__aeabi_atexit>
 8003852:	bf00      	nop
 8003854:	20004584 	andcs	r4, r0, r4, lsl #11
 8003858:	2000476c 	andcs	r4, r0, ip, ror #14
 800385c:	08003841 	stmdaeq	r0, {r0, r6, fp, ip, sp}
 8003860:	20000000 	andcs	r0, r0, r0

08003864 <_ZN3CFMD1Ev>:
 8003864:	4770      	bx	lr
 8003866:	0000      	movs	r0, r0

08003868 <_GLOBAL__sub_I_fm>:
 8003868:	4804      	ldr	r0, [pc, #16]	; (800387c <_GLOBAL__sub_I_fm+0x14>)
 800386a:	4905      	ldr	r1, [pc, #20]	; (8003880 <_GLOBAL__sub_I_fm+0x18>)
 800386c:	2201      	movs	r2, #1
 800386e:	2302      	movs	r3, #2
 8003870:	e880 000c 	stmia.w	r0, {r2, r3}
 8003874:	4a03      	ldr	r2, [pc, #12]	; (8003884 <_GLOBAL__sub_I_fm+0x1c>)
 8003876:	f001 b8cb 	b.w	8004a10 <__aeabi_atexit>
 800387a:	bf00      	nop
 800387c:	20004588 	andcs	r4, r0, r8, lsl #11
 8003880:	08003865 	stmdaeq	r0, {r0, r2, r5, r6, fp, ip, sp}
 8003884:	20000000 	andcs	r0, r0, r0

08003888 <_ZN9CTerminalD1Ev>:
 8003888:	b510      	push	{r4, lr}
 800388a:	4604      	mov	r4, r0
 800388c:	f001 f85e 	bl	800494c <_ZN6CUSARTD1Ev>
 8003890:	4620      	mov	r0, r4
 8003892:	bd10      	pop	{r4, pc}

08003894 <_ZN9CTerminal4putsEPc>:
 8003894:	b538      	push	{r3, r4, r5, lr}
 8003896:	4605      	mov	r5, r0
 8003898:	1e4c      	subs	r4, r1, #1
 800389a:	f814 1f01 	ldrb.w	r1, [r4, #1]!
 800389e:	b119      	cbz	r1, 80038a8 <_ZN9CTerminal4putsEPc+0x14>
 80038a0:	4628      	mov	r0, r5
 80038a2:	f001 f8ab 	bl	80049fc <_ZN6CUSART8put_charEc>
 80038a6:	e7f8      	b.n	800389a <_ZN9CTerminal4putsEPc+0x6>
 80038a8:	bd38      	pop	{r3, r4, r5, pc}

080038aa <_ZN9CTerminal4putiEl>:
 80038aa:	b530      	push	{r4, r5, lr}
 80038ac:	b085      	sub	sp, #20
 80038ae:	1e0b      	subs	r3, r1, #0
 80038b0:	f04f 0200 	mov.w	r2, #0
 80038b4:	bfba      	itte	lt
 80038b6:	425b      	neglt	r3, r3
 80038b8:	2401      	movlt	r4, #1
 80038ba:	4614      	movge	r4, r2
 80038bc:	f88d 200f 	strb.w	r2, [sp, #15]
 80038c0:	210a      	movs	r1, #10
 80038c2:	220a      	movs	r2, #10
 80038c4:	fb93 f5f2 	sdiv	r5, r3, r2
 80038c8:	fb02 3315 	mls	r3, r2, r5, r3
 80038cc:	aa04      	add	r2, sp, #16
 80038ce:	440a      	add	r2, r1
 80038d0:	3330      	adds	r3, #48	; 0x30
 80038d2:	f802 3c0c 	strb.w	r3, [r2, #-12]
 80038d6:	1e4a      	subs	r2, r1, #1
 80038d8:	b2d2      	uxtb	r2, r2
 80038da:	462b      	mov	r3, r5
 80038dc:	b10d      	cbz	r5, 80038e2 <_ZN9CTerminal4putiEl+0x38>
 80038de:	4611      	mov	r1, r2
 80038e0:	e7ef      	b.n	80038c2 <_ZN9CTerminal4putiEl+0x18>
 80038e2:	b12c      	cbz	r4, 80038f0 <_ZN9CTerminal4putiEl+0x46>
 80038e4:	ab04      	add	r3, sp, #16
 80038e6:	4413      	add	r3, r2
 80038e8:	212d      	movs	r1, #45	; 0x2d
 80038ea:	f803 1c0c 	strb.w	r1, [r3, #-12]
 80038ee:	4611      	mov	r1, r2
 80038f0:	ab01      	add	r3, sp, #4
 80038f2:	4419      	add	r1, r3
 80038f4:	f7ff ffce 	bl	8003894 <_ZN9CTerminal4putsEPc>
 80038f8:	b005      	add	sp, #20
 80038fa:	bd30      	pop	{r4, r5, pc}

080038fc <_ZN9CTerminal5putuiEm>:
 80038fc:	b51f      	push	{r0, r1, r2, r3, r4, lr}
 80038fe:	2300      	movs	r3, #0
 8003900:	f88d 300f 	strb.w	r3, [sp, #15]
 8003904:	220a      	movs	r2, #10
 8003906:	230a      	movs	r3, #10
 8003908:	fbb1 f4f3 	udiv	r4, r1, r3
 800390c:	fb03 1314 	mls	r3, r3, r4, r1
 8003910:	a904      	add	r1, sp, #16
 8003912:	4411      	add	r1, r2
 8003914:	3330      	adds	r3, #48	; 0x30
 8003916:	f801 3c0c 	strb.w	r3, [r1, #-12]
 800391a:	1e53      	subs	r3, r2, #1
 800391c:	b2db      	uxtb	r3, r3
 800391e:	4621      	mov	r1, r4
 8003920:	b10c      	cbz	r4, 8003926 <_ZN9CTerminal5putuiEm+0x2a>
 8003922:	461a      	mov	r2, r3
 8003924:	e7ef      	b.n	8003906 <_ZN9CTerminal5putuiEm+0xa>
 8003926:	ab01      	add	r3, sp, #4
 8003928:	1899      	adds	r1, r3, r2
 800392a:	f7ff ffb3 	bl	8003894 <_ZN9CTerminal4putsEPc>
 800392e:	b004      	add	sp, #16
 8003930:	bd10      	pop	{r4, pc}

08003932 <_ZN9CTerminal4putxEm>:
