
bin/main.elf:     file format elf32-littlearm


Disassembly of section .isr_vector:

08000000 <InterruptVector>:
 8000000:	2004ffff 	strdcs	pc, [r4], -pc	; <UNPREDICTABLE>
 8000004:	08000329 	stmdaeq	r0, {r0, r3, r5, r8, r9}
 8000008:	0800030d 	stmdaeq	r0, {r0, r2, r3, r8, r9}
 800000c:	0800031f 	stmdaeq	r0, {r0, r1, r2, r3, r4, r8, r9}
 8000010:	0800030d 	stmdaeq	r0, {r0, r2, r3, r8, r9}
 8000014:	0800030d 	stmdaeq	r0, {r0, r2, r3, r8, r9}
 8000018:	0800030d 	stmdaeq	r0, {r0, r2, r3, r8, r9}
 800001c:	00000000 	andeq	r0, r0, r0
 8000020:	00000000 	andeq	r0, r0, r0
 8000024:	00000000 	andeq	r0, r0, r0
 8000028:	00000000 	andeq	r0, r0, r0
 800002c:	0800030d 	stmdaeq	r0, {r0, r2, r3, r8, r9}
 8000030:	0800030d 	stmdaeq	r0, {r0, r2, r3, r8, r9}
 8000034:	00000000 	andeq	r0, r0, r0
 8000038:	0800030d 	stmdaeq	r0, {r0, r2, r3, r8, r9}
 800003c:	08002f41 	stmdaeq	r0, {r0, r6, r8, r9, sl, fp, sp}
 8000040:	0800030d 	stmdaeq	r0, {r0, r2, r3, r8, r9}
 8000044:	0800030d 	stmdaeq	r0, {r0, r2, r3, r8, r9}
 8000048:	0800030d 	stmdaeq	r0, {r0, r2, r3, r8, r9}
 800004c:	0800030d 	stmdaeq	r0, {r0, r2, r3, r8, r9}
 8000050:	0800030d 	stmdaeq	r0, {r0, r2, r3, r8, r9}
 8000054:	0800030d 	stmdaeq	r0, {r0, r2, r3, r8, r9}
 8000058:	0800030d 	stmdaeq	r0, {r0, r2, r3, r8, r9}
 800005c:	0800030d 	stmdaeq	r0, {r0, r2, r3, r8, r9}
 8000060:	0800030d 	stmdaeq	r0, {r0, r2, r3, r8, r9}
 8000064:	0800030d 	stmdaeq	r0, {r0, r2, r3, r8, r9}
 8000068:	0800030d 	stmdaeq	r0, {r0, r2, r3, r8, r9}
 800006c:	0800030d 	stmdaeq	r0, {r0, r2, r3, r8, r9}
 8000070:	0800030d 	stmdaeq	r0, {r0, r2, r3, r8, r9}
 8000074:	0800030d 	stmdaeq	r0, {r0, r2, r3, r8, r9}
 8000078:	0800030d 	stmdaeq	r0, {r0, r2, r3, r8, r9}
 800007c:	0800030d 	stmdaeq	r0, {r0, r2, r3, r8, r9}
 8000080:	0800030d 	stmdaeq	r0, {r0, r2, r3, r8, r9}
 8000084:	0800030d 	stmdaeq	r0, {r0, r2, r3, r8, r9}
 8000088:	0800030d 	stmdaeq	r0, {r0, r2, r3, r8, r9}
 800008c:	0800030d 	stmdaeq	r0, {r0, r2, r3, r8, r9}
 8000090:	0800030d 	stmdaeq	r0, {r0, r2, r3, r8, r9}
 8000094:	0800030d 	stmdaeq	r0, {r0, r2, r3, r8, r9}
 8000098:	0800030d 	stmdaeq	r0, {r0, r2, r3, r8, r9}
 800009c:	0800030d 	stmdaeq	r0, {r0, r2, r3, r8, r9}
 80000a0:	0800030d 	stmdaeq	r0, {r0, r2, r3, r8, r9}
 80000a4:	0800030d 	stmdaeq	r0, {r0, r2, r3, r8, r9}
 80000a8:	0800030d 	stmdaeq	r0, {r0, r2, r3, r8, r9}
 80000ac:	0800030d 	stmdaeq	r0, {r0, r2, r3, r8, r9}
 80000b0:	0800309d 	stmdaeq	r0, {r0, r2, r3, r4, r7, ip, sp}
 80000b4:	0800030d 	stmdaeq	r0, {r0, r2, r3, r8, r9}
 80000b8:	0800030d 	stmdaeq	r0, {r0, r2, r3, r8, r9}
 80000bc:	0800030d 	stmdaeq	r0, {r0, r2, r3, r8, r9}
 80000c0:	0800030d 	stmdaeq	r0, {r0, r2, r3, r8, r9}
 80000c4:	0800030d 	stmdaeq	r0, {r0, r2, r3, r8, r9}
 80000c8:	0800030d 	stmdaeq	r0, {r0, r2, r3, r8, r9}
 80000cc:	0800030d 	stmdaeq	r0, {r0, r2, r3, r8, r9}
 80000d0:	0800030d 	stmdaeq	r0, {r0, r2, r3, r8, r9}
 80000d4:	0800030d 	stmdaeq	r0, {r0, r2, r3, r8, r9}
 80000d8:	0800030d 	stmdaeq	r0, {r0, r2, r3, r8, r9}
 80000dc:	0800030d 	stmdaeq	r0, {r0, r2, r3, r8, r9}
 80000e0:	0800030d 	stmdaeq	r0, {r0, r2, r3, r8, r9}
 80000e4:	0800030d 	stmdaeq	r0, {r0, r2, r3, r8, r9}
 80000e8:	0800030d 	stmdaeq	r0, {r0, r2, r3, r8, r9}
 80000ec:	0800030d 	stmdaeq	r0, {r0, r2, r3, r8, r9}
 80000f0:	0800030d 	stmdaeq	r0, {r0, r2, r3, r8, r9}
 80000f4:	0800030d 	stmdaeq	r0, {r0, r2, r3, r8, r9}
 80000f8:	0800030d 	stmdaeq	r0, {r0, r2, r3, r8, r9}
 80000fc:	0800030d 	stmdaeq	r0, {r0, r2, r3, r8, r9}
 8000100:	0800030d 	stmdaeq	r0, {r0, r2, r3, r8, r9}
 8000104:	0800030d 	stmdaeq	r0, {r0, r2, r3, r8, r9}
 8000108:	0800030d 	stmdaeq	r0, {r0, r2, r3, r8, r9}
 800010c:	0800030d 	stmdaeq	r0, {r0, r2, r3, r8, r9}
 8000110:	0800030d 	stmdaeq	r0, {r0, r2, r3, r8, r9}
 8000114:	0800030d 	stmdaeq	r0, {r0, r2, r3, r8, r9}
 8000118:	0800030d 	stmdaeq	r0, {r0, r2, r3, r8, r9}
 800011c:	0800030d 	stmdaeq	r0, {r0, r2, r3, r8, r9}
 8000120:	0800030d 	stmdaeq	r0, {r0, r2, r3, r8, r9}
 8000124:	08003671 	stmdaeq	r0, {r0, r4, r5, r6, r9, sl, ip, sp}
 8000128:	0800030d 	stmdaeq	r0, {r0, r2, r3, r8, r9}
 800012c:	0800030d 	stmdaeq	r0, {r0, r2, r3, r8, r9}
 8000130:	0800030d 	stmdaeq	r0, {r0, r2, r3, r8, r9}
 8000134:	0800030d 	stmdaeq	r0, {r0, r2, r3, r8, r9}
 8000138:	0800030d 	stmdaeq	r0, {r0, r2, r3, r8, r9}
 800013c:	0800030d 	stmdaeq	r0, {r0, r2, r3, r8, r9}
 8000140:	0800030d 	stmdaeq	r0, {r0, r2, r3, r8, r9}
 8000144:	0800030d 	stmdaeq	r0, {r0, r2, r3, r8, r9}
 8000148:	0800030d 	stmdaeq	r0, {r0, r2, r3, r8, r9}
 800014c:	0800030d 	stmdaeq	r0, {r0, r2, r3, r8, r9}
 8000150:	0800030d 	stmdaeq	r0, {r0, r2, r3, r8, r9}
 8000154:	0800030d 	stmdaeq	r0, {r0, r2, r3, r8, r9}
 8000158:	0800030d 	stmdaeq	r0, {r0, r2, r3, r8, r9}
 800015c:	0800030d 	stmdaeq	r0, {r0, r2, r3, r8, r9}
 8000160:	0800030d 	stmdaeq	r0, {r0, r2, r3, r8, r9}
 8000164:	0800030d 	stmdaeq	r0, {r0, r2, r3, r8, r9}
 8000168:	0800030d 	stmdaeq	r0, {r0, r2, r3, r8, r9}
 800016c:	0800030d 	stmdaeq	r0, {r0, r2, r3, r8, r9}
 8000170:	0800030d 	stmdaeq	r0, {r0, r2, r3, r8, r9}
 8000174:	0800030d 	stmdaeq	r0, {r0, r2, r3, r8, r9}
 8000178:	0800367d 	stmdaeq	r0, {r0, r2, r3, r4, r5, r6, r9, sl, ip, sp}
 800017c:	00000000 	andeq	r0, r0, r0
 8000180:	0800030d 	stmdaeq	r0, {r0, r2, r3, r8, r9}
 8000184:	0800030d 	stmdaeq	r0, {r0, r2, r3, r8, r9}
 8000188:	0800030d 	stmdaeq	r0, {r0, r2, r3, r8, r9}
 800018c:	0800030d 	stmdaeq	r0, {r0, r2, r3, r8, r9}
 8000190:	0800030d 	stmdaeq	r0, {r0, r2, r3, r8, r9}
 8000194:	0800030d 	stmdaeq	r0, {r0, r2, r3, r8, r9}
 8000198:	0800030d 	stmdaeq	r0, {r0, r2, r3, r8, r9}
 800019c:	0800030d 	stmdaeq	r0, {r0, r2, r3, r8, r9}
 80001a0:	0800030d 	stmdaeq	r0, {r0, r2, r3, r8, r9}
 80001a4:	0800030d 	stmdaeq	r0, {r0, r2, r3, r8, r9}
 80001a8:	0800030d 	stmdaeq	r0, {r0, r2, r3, r8, r9}
 80001ac:	0800030d 	stmdaeq	r0, {r0, r2, r3, r8, r9}
 80001b0:	0800030d 	stmdaeq	r0, {r0, r2, r3, r8, r9}
 80001b4:	0800030d 	stmdaeq	r0, {r0, r2, r3, r8, r9}
 80001b8:	0800030d 	stmdaeq	r0, {r0, r2, r3, r8, r9}
 80001bc:	0800030d 	stmdaeq	r0, {r0, r2, r3, r8, r9}
 80001c0:	0800030d 	stmdaeq	r0, {r0, r2, r3, r8, r9}
 80001c4:	0800030d 	stmdaeq	r0, {r0, r2, r3, r8, r9}

Disassembly of section .text:

080001c8 <deregister_tm_clones>:
 80001c8:	4b04      	ldr	r3, [pc, #16]	; (80001dc <deregister_tm_clones+0x14>)
 80001ca:	4805      	ldr	r0, [pc, #20]	; (80001e0 <deregister_tm_clones+0x18>)
 80001cc:	1a1b      	subs	r3, r3, r0
 80001ce:	2b06      	cmp	r3, #6
 80001d0:	d902      	bls.n	80001d8 <deregister_tm_clones+0x10>
 80001d2:	4b04      	ldr	r3, [pc, #16]	; (80001e4 <deregister_tm_clones+0x1c>)
 80001d4:	b103      	cbz	r3, 80001d8 <deregister_tm_clones+0x10>
 80001d6:	4718      	bx	r3
 80001d8:	4770      	bx	lr
 80001da:	bf00      	nop
 80001dc:	20000433 	andcs	r0, r0, r3, lsr r4
 80001e0:	20000430 	andcs	r0, r0, r0, lsr r4
 80001e4:	00000000 	andeq	r0, r0, r0

080001e8 <register_tm_clones>:
 80001e8:	4905      	ldr	r1, [pc, #20]	; (8000200 <register_tm_clones+0x18>)
 80001ea:	4806      	ldr	r0, [pc, #24]	; (8000204 <register_tm_clones+0x1c>)
 80001ec:	1a09      	subs	r1, r1, r0
 80001ee:	1089      	asrs	r1, r1, #2
 80001f0:	eb01 71d1 	add.w	r1, r1, r1, lsr #31
 80001f4:	1049      	asrs	r1, r1, #1
 80001f6:	d002      	beq.n	80001fe <register_tm_clones+0x16>
 80001f8:	4b03      	ldr	r3, [pc, #12]	; (8000208 <register_tm_clones+0x20>)
 80001fa:	b103      	cbz	r3, 80001fe <register_tm_clones+0x16>
 80001fc:	4718      	bx	r3
 80001fe:	4770      	bx	lr
 8000200:	20000430 	andcs	r0, r0, r0, lsr r4
 8000204:	20000430 	andcs	r0, r0, r0, lsr r4
 8000208:	00000000 	andeq	r0, r0, r0

0800020c <__do_global_dtors_aux>:
 800020c:	b510      	push	{r4, lr}
 800020e:	4c06      	ldr	r4, [pc, #24]	; (8000228 <__do_global_dtors_aux+0x1c>)
 8000210:	7823      	ldrb	r3, [r4, #0]
 8000212:	b943      	cbnz	r3, 8000226 <__do_global_dtors_aux+0x1a>
 8000214:	f7ff ffd8 	bl	80001c8 <deregister_tm_clones>
 8000218:	4b04      	ldr	r3, [pc, #16]	; (800022c <__do_global_dtors_aux+0x20>)
 800021a:	b113      	cbz	r3, 8000222 <__do_global_dtors_aux+0x16>
 800021c:	4804      	ldr	r0, [pc, #16]	; (8000230 <__do_global_dtors_aux+0x24>)
 800021e:	f3af 8000 	nop.w
 8000222:	2301      	movs	r3, #1
 8000224:	7023      	strb	r3, [r4, #0]
 8000226:	bd10      	pop	{r4, pc}
 8000228:	20000430 	andcs	r0, r0, r0, lsr r4
 800022c:	00000000 	andeq	r0, r0, r0
 8000230:	08005bb0 	stmdaeq	r0, {r4, r5, r7, r8, r9, fp, ip, lr}

08000234 <frame_dummy>:
 8000234:	b508      	push	{r3, lr}
 8000236:	4b08      	ldr	r3, [pc, #32]	; (8000258 <frame_dummy+0x24>)
 8000238:	b11b      	cbz	r3, 8000242 <frame_dummy+0xe>
 800023a:	4808      	ldr	r0, [pc, #32]	; (800025c <frame_dummy+0x28>)
 800023c:	4908      	ldr	r1, [pc, #32]	; (8000260 <frame_dummy+0x2c>)
 800023e:	f3af 8000 	nop.w
 8000242:	4808      	ldr	r0, [pc, #32]	; (8000264 <frame_dummy+0x30>)
 8000244:	6803      	ldr	r3, [r0, #0]
 8000246:	b913      	cbnz	r3, 800024e <frame_dummy+0x1a>
 8000248:	e8bd 4008 	ldmia.w	sp!, {r3, lr}
 800024c:	e7cc      	b.n	80001e8 <register_tm_clones>
 800024e:	4b06      	ldr	r3, [pc, #24]	; (8000268 <frame_dummy+0x34>)
 8000250:	2b00      	cmp	r3, #0
 8000252:	d0f9      	beq.n	8000248 <frame_dummy+0x14>
 8000254:	4798      	blx	r3
 8000256:	e7f7      	b.n	8000248 <frame_dummy+0x14>
 8000258:	00000000 	andeq	r0, r0, r0
 800025c:	08005bb0 	stmdaeq	r0, {r4, r5, r7, r8, r9, fp, ip, lr}
 8000260:	20000434 	andcs	r0, r0, r4, lsr r4
 8000264:	20000430 	andcs	r0, r0, r0, lsr r4
 8000268:	00000000 	andeq	r0, r0, r0

0800026c <__aeabi_d2f>:
 800026c:	ea4f 0241 	mov.w	r2, r1, lsl #1
 8000270:	f1b2 43e0 	subs.w	r3, r2, #1879048192	; 0x70000000
 8000274:	bf24      	itt	cs
 8000276:	f5b3 1c00 	subscs.w	ip, r3, #2097152	; 0x200000
 800027a:	f1dc 5cfe 	rsbscs	ip, ip, #532676608	; 0x1fc00000
 800027e:	d90d      	bls.n	800029c <__aeabi_d2f+0x30>
 8000280:	f001 4c00 	and.w	ip, r1, #2147483648	; 0x80000000
 8000284:	ea4f 02c0 	mov.w	r2, r0, lsl #3
 8000288:	ea4c 7050 	orr.w	r0, ip, r0, lsr #29
 800028c:	f1b2 4f00 	cmp.w	r2, #2147483648	; 0x80000000
 8000290:	eb40 0083 	adc.w	r0, r0, r3, lsl #2
 8000294:	bf08      	it	eq
 8000296:	f020 0001 	biceq.w	r0, r0, #1
 800029a:	4770      	bx	lr
 800029c:	f011 4f80 	tst.w	r1, #1073741824	; 0x40000000
 80002a0:	d121      	bne.n	80002e6 <__aeabi_d2f+0x7a>
 80002a2:	f113 7238 	adds.w	r2, r3, #48234496	; 0x2e00000
 80002a6:	bfbc      	itt	lt
 80002a8:	f001 4000 	andlt.w	r0, r1, #2147483648	; 0x80000000
 80002ac:	4770      	bxlt	lr
 80002ae:	f441 1180 	orr.w	r1, r1, #1048576	; 0x100000
 80002b2:	ea4f 5252 	mov.w	r2, r2, lsr #21
 80002b6:	f1c2 0218 	rsb	r2, r2, #24
 80002ba:	f1c2 0c20 	rsb	ip, r2, #32
 80002be:	fa10 f30c 	lsls.w	r3, r0, ip
 80002c2:	fa20 f002 	lsr.w	r0, r0, r2
 80002c6:	bf18      	it	ne
 80002c8:	f040 0001 	orrne.w	r0, r0, #1
 80002cc:	ea4f 23c1 	mov.w	r3, r1, lsl #11
 80002d0:	ea4f 23d3 	mov.w	r3, r3, lsr #11
 80002d4:	fa03 fc0c 	lsl.w	ip, r3, ip
 80002d8:	ea40 000c 	orr.w	r0, r0, ip
 80002dc:	fa23 f302 	lsr.w	r3, r3, r2
 80002e0:	ea4f 0343 	mov.w	r3, r3, lsl #1
 80002e4:	e7cc      	b.n	8000280 <__aeabi_d2f+0x14>
 80002e6:	ea7f 5362 	mvns.w	r3, r2, asr #21
 80002ea:	d107      	bne.n	80002fc <__aeabi_d2f+0x90>
 80002ec:	ea50 3301 	orrs.w	r3, r0, r1, lsl #12
 80002f0:	bf1e      	ittt	ne
 80002f2:	f04f 40fe 	movne.w	r0, #2130706432	; 0x7f000000
 80002f6:	f440 0040 	orrne.w	r0, r0, #12582912	; 0xc00000
 80002fa:	4770      	bxne	lr
 80002fc:	f001 4000 	and.w	r0, r1, #2147483648	; 0x80000000
 8000300:	f040 40fe 	orr.w	r0, r0, #2130706432	; 0x7f000000
 8000304:	f440 0000 	orr.w	r0, r0, #8388608	; 0x800000
 8000308:	4770      	bx	lr
 800030a:	bf00      	nop

0800030c <Default_Handler>:
 800030c:	4668      	mov	r0, sp
 800030e:	f020 0107 	bic.w	r1, r0, #7
 8000312:	468d      	mov	sp, r1
 8000314:	b501      	push	{r0, lr}
 8000316:	e8bd 4001 	ldmia.w	sp!, {r0, lr}
 800031a:	4685      	mov	sp, r0
 800031c:	4770      	bx	lr

0800031e <HardFault_Handler>:
 800031e:	4668      	mov	r0, sp
 8000320:	f020 0107 	bic.w	r1, r0, #7
 8000324:	468d      	mov	sp, r1
 8000326:	e7fe      	b.n	8000326 <HardFault_Handler+0x8>

08000328 <Reset_Handler>:
 8000328:	4919      	ldr	r1, [pc, #100]	; (8000390 <Reset_Handler+0x68>)
 800032a:	4b1a      	ldr	r3, [pc, #104]	; (8000394 <Reset_Handler+0x6c>)
 800032c:	1a5b      	subs	r3, r3, r1
 800032e:	089b      	lsrs	r3, r3, #2
 8000330:	2200      	movs	r2, #0
 8000332:	429a      	cmp	r2, r3
 8000334:	d006      	beq.n	8000344 <Reset_Handler+0x1c>
 8000336:	4818      	ldr	r0, [pc, #96]	; (8000398 <Reset_Handler+0x70>)
 8000338:	f850 0022 	ldr.w	r0, [r0, r2, lsl #2]
 800033c:	f841 0022 	str.w	r0, [r1, r2, lsl #2]
 8000340:	3201      	adds	r2, #1
 8000342:	e7f6      	b.n	8000332 <Reset_Handler+0xa>
 8000344:	4b15      	ldr	r3, [pc, #84]	; (800039c <Reset_Handler+0x74>)
 8000346:	4a16      	ldr	r2, [pc, #88]	; (80003a0 <Reset_Handler+0x78>)
 8000348:	4293      	cmp	r3, r2
 800034a:	d003      	beq.n	8000354 <Reset_Handler+0x2c>
 800034c:	2200      	movs	r2, #0
 800034e:	f843 2b04 	str.w	r2, [r3], #4
 8000352:	e7f8      	b.n	8000346 <Reset_Handler+0x1e>
 8000354:	4a13      	ldr	r2, [pc, #76]	; (80003a4 <Reset_Handler+0x7c>)
 8000356:	4c14      	ldr	r4, [pc, #80]	; (80003a8 <Reset_Handler+0x80>)
 8000358:	f8d2 3088 	ldr.w	r3, [r2, #136]	; 0x88
 800035c:	f443 0370 	orr.w	r3, r3, #15728640	; 0xf00000
 8000360:	f8c2 3088 	str.w	r3, [r2, #136]	; 0x88
 8000364:	f8d2 3234 	ldr.w	r3, [r2, #564]	; 0x234
 8000368:	f023 4340 	bic.w	r3, r3, #3221225472	; 0xc0000000
 800036c:	f8c2 3234 	str.w	r3, [r2, #564]	; 0x234
 8000370:	4b0e      	ldr	r3, [pc, #56]	; (80003ac <Reset_Handler+0x84>)
 8000372:	1ae4      	subs	r4, r4, r3
 8000374:	10a4      	asrs	r4, r4, #2
 8000376:	2500      	movs	r5, #0
 8000378:	461e      	mov	r6, r3
 800037a:	42a5      	cmp	r5, r4
 800037c:	d004      	beq.n	8000388 <Reset_Handler+0x60>
 800037e:	f856 3025 	ldr.w	r3, [r6, r5, lsl #2]
 8000382:	4798      	blx	r3
 8000384:	3501      	adds	r5, #1
 8000386:	e7f8      	b.n	800037a <Reset_Handler+0x52>
 8000388:	f000 f812 	bl	80003b0 <SystemInit>
 800038c:	f004 bde2 	b.w	8004f54 <main>
 8000390:	20000000 	andcs	r0, r0, r0
 8000394:	20000430 	andcs	r0, r0, r0, lsr r4
 8000398:	08005ea8 	stmdaeq	r0, {r3, r5, r7, r9, sl, fp, ip, lr}
 800039c:	20000430 	andcs	r0, r0, r0, lsr r4
 80003a0:	20000b54 	andcs	r0, r0, r4, asr fp
 80003a4:	e000ed00 	and	lr, r0, r0, lsl #26
 80003a8:	08005ea4 	stmdaeq	r0, {r2, r5, r7, r9, sl, fp, ip, lr}
 80003ac:	08005e7c 	stmdaeq	r0, {r2, r3, r4, r5, r6, r9, sl, fp, ip, lr}

080003b0 <SystemInit>:
 80003b0:	490f      	ldr	r1, [pc, #60]	; (80003f0 <SystemInit+0x40>)
 80003b2:	f8d1 3088 	ldr.w	r3, [r1, #136]	; 0x88
 80003b6:	f443 0370 	orr.w	r3, r3, #15728640	; 0xf00000
 80003ba:	f8c1 3088 	str.w	r3, [r1, #136]	; 0x88
 80003be:	4b0d      	ldr	r3, [pc, #52]	; (80003f4 <SystemInit+0x44>)
 80003c0:	681a      	ldr	r2, [r3, #0]
 80003c2:	2000      	movs	r0, #0
 80003c4:	f042 0201 	orr.w	r2, r2, #1
 80003c8:	601a      	str	r2, [r3, #0]
 80003ca:	6098      	str	r0, [r3, #8]
 80003cc:	681a      	ldr	r2, [r3, #0]
 80003ce:	f022 7284 	bic.w	r2, r2, #17301504	; 0x1080000
 80003d2:	f422 3280 	bic.w	r2, r2, #65536	; 0x10000
 80003d6:	601a      	str	r2, [r3, #0]
 80003d8:	4a07      	ldr	r2, [pc, #28]	; (80003f8 <SystemInit+0x48>)
 80003da:	605a      	str	r2, [r3, #4]
 80003dc:	681a      	ldr	r2, [r3, #0]
 80003de:	f422 2280 	bic.w	r2, r2, #262144	; 0x40000
 80003e2:	601a      	str	r2, [r3, #0]
 80003e4:	60d8      	str	r0, [r3, #12]
 80003e6:	f04f 6300 	mov.w	r3, #134217728	; 0x8000000
 80003ea:	608b      	str	r3, [r1, #8]
 80003ec:	4770      	bx	lr
 80003ee:	bf00      	nop
 80003f0:	e000ed00 	and	lr, r0, r0, lsl #26
 80003f4:	40023800 	andmi	r3, r2, r0, lsl #16
 80003f8:	24003010 	strcs	r3, [r0], #-16

080003fc <core_mpu_config>:
 80003fc:	b530      	push	{r4, r5, lr}
 80003fe:	4c18      	ldr	r4, [pc, #96]	; (8000460 <core_mpu_config+0x64>)
 8000400:	4d18      	ldr	r5, [pc, #96]	; (8000464 <core_mpu_config+0x68>)
 8000402:	6a63      	ldr	r3, [r4, #36]	; 0x24
 8000404:	f423 3380 	bic.w	r3, r3, #65536	; 0x10000
 8000408:	6263      	str	r3, [r4, #36]	; 0x24
 800040a:	686b      	ldr	r3, [r5, #4]
 800040c:	b085      	sub	sp, #20
 800040e:	f023 0301 	bic.w	r3, r3, #1
 8000412:	606b      	str	r3, [r5, #4]
 8000414:	4b14      	ldr	r3, [pc, #80]	; (8000468 <core_mpu_config+0x6c>)
 8000416:	9301      	str	r3, [sp, #4]
 8000418:	2311      	movs	r3, #17
 800041a:	f88d 3008 	strb.w	r3, [sp, #8]
 800041e:	2303      	movs	r3, #3
 8000420:	2201      	movs	r2, #1
 8000422:	f88d 300b 	strb.w	r3, [sp, #11]
 8000426:	4668      	mov	r0, sp
 8000428:	2300      	movs	r3, #0
 800042a:	f88d 300f 	strb.w	r3, [sp, #15]
 800042e:	f88d 300d 	strb.w	r3, [sp, #13]
 8000432:	f88d 3001 	strb.w	r3, [sp, #1]
 8000436:	f88d 300a 	strb.w	r3, [sp, #10]
 800043a:	f88d 3009 	strb.w	r3, [sp, #9]
 800043e:	f88d 300c 	strb.w	r3, [sp, #12]
 8000442:	f88d 2000 	strb.w	r2, [sp]
 8000446:	f88d 200e 	strb.w	r2, [sp, #14]
 800044a:	f000 ff59 	bl	8001300 <HAL_MPU_ConfigRegion>
 800044e:	2305      	movs	r3, #5
 8000450:	606b      	str	r3, [r5, #4]
 8000452:	6a63      	ldr	r3, [r4, #36]	; 0x24
 8000454:	f443 3380 	orr.w	r3, r3, #65536	; 0x10000
 8000458:	6263      	str	r3, [r4, #36]	; 0x24
 800045a:	b005      	add	sp, #20
 800045c:	bd30      	pop	{r4, r5, pc}
 800045e:	bf00      	nop
 8000460:	e000ed00 	and	lr, r0, r0, lsl #26
 8000464:	e000ed90 	mul	r0, r0, sp
 8000468:	20010000 	andcs	r0, r1, r0

0800046c <core_cpu_cache_enable>:
 800046c:	b530      	push	{r4, r5, lr}
 800046e:	f3bf 8f4f 	dsb	sy
 8000472:	f3bf 8f6f 	isb	sy
 8000476:	4b30      	ldr	r3, [pc, #192]	; (8000538 <core_cpu_cache_enable+0xcc>)
 8000478:	2200      	movs	r2, #0
 800047a:	f8c3 2250 	str.w	r2, [r3, #592]	; 0x250
 800047e:	f3bf 8f4f 	dsb	sy
 8000482:	f3bf 8f6f 	isb	sy
 8000486:	6959      	ldr	r1, [r3, #20]
 8000488:	f441 2180 	orr.w	r1, r1, #262144	; 0x40000
 800048c:	6159      	str	r1, [r3, #20]
 800048e:	f3bf 8f4f 	dsb	sy
 8000492:	f3bf 8f4f 	dsb	sy
 8000496:	f3bf 8f6f 	isb	sy
 800049a:	f8c3 2250 	str.w	r2, [r3, #592]	; 0x250
 800049e:	6959      	ldr	r1, [r3, #20]
 80004a0:	f441 3100 	orr.w	r1, r1, #131072	; 0x20000
 80004a4:	6159      	str	r1, [r3, #20]
 80004a6:	f3bf 8f4f 	dsb	sy
 80004aa:	f3bf 8f6f 	isb	sy
 80004ae:	f8c3 2084 	str.w	r2, [r3, #132]	; 0x84
 80004b2:	f3bf 8f4f 	dsb	sy
 80004b6:	f8d3 2080 	ldr.w	r2, [r3, #128]	; 0x80
 80004ba:	f3c2 334e 	ubfx	r3, r2, #13, #15
 80004be:	f3c2 02c9 	ubfx	r2, r2, #3, #10
 80004c2:	0159      	lsls	r1, r3, #5
 80004c4:	f643 74e0 	movw	r4, #16352	; 0x3fe0
 80004c8:	400c      	ands	r4, r1
 80004ca:	4611      	mov	r1, r2
 80004cc:	481a      	ldr	r0, [pc, #104]	; (8000538 <core_cpu_cache_enable+0xcc>)
 80004ce:	ea44 7581 	orr.w	r5, r4, r1, lsl #30
 80004d2:	f111 31ff 	adds.w	r1, r1, #4294967295	; 0xffffffff
 80004d6:	f8c0 5260 	str.w	r5, [r0, #608]	; 0x260
 80004da:	d2f7      	bcs.n	80004cc <core_cpu_cache_enable+0x60>
 80004dc:	f113 33ff 	adds.w	r3, r3, #4294967295	; 0xffffffff
 80004e0:	d2ef      	bcs.n	80004c2 <core_cpu_cache_enable+0x56>
 80004e2:	f3bf 8f4f 	dsb	sy
 80004e6:	f3bf 8f6f 	isb	sy
 80004ea:	2300      	movs	r3, #0
 80004ec:	f8c0 3084 	str.w	r3, [r0, #132]	; 0x84
 80004f0:	f3bf 8f4f 	dsb	sy
 80004f4:	f8d0 2080 	ldr.w	r2, [r0, #128]	; 0x80
 80004f8:	f3c2 334e 	ubfx	r3, r2, #13, #15
 80004fc:	f3c2 02c9 	ubfx	r2, r2, #3, #10
 8000500:	0159      	lsls	r1, r3, #5
 8000502:	f643 74e0 	movw	r4, #16352	; 0x3fe0
 8000506:	400c      	ands	r4, r1
 8000508:	4611      	mov	r1, r2
 800050a:	480b      	ldr	r0, [pc, #44]	; (8000538 <core_cpu_cache_enable+0xcc>)
 800050c:	ea44 7581 	orr.w	r5, r4, r1, lsl #30
 8000510:	f111 31ff 	adds.w	r1, r1, #4294967295	; 0xffffffff
 8000514:	f8c0 5260 	str.w	r5, [r0, #608]	; 0x260
 8000518:	d2f7      	bcs.n	800050a <core_cpu_cache_enable+0x9e>
 800051a:	f113 33ff 	adds.w	r3, r3, #4294967295	; 0xffffffff
 800051e:	d2ef      	bcs.n	8000500 <core_cpu_cache_enable+0x94>
 8000520:	f3bf 8f4f 	dsb	sy
 8000524:	6943      	ldr	r3, [r0, #20]
 8000526:	f443 3380 	orr.w	r3, r3, #65536	; 0x10000
 800052a:	6143      	str	r3, [r0, #20]
 800052c:	f3bf 8f4f 	dsb	sy
 8000530:	f3bf 8f6f 	isb	sy
 8000534:	bd30      	pop	{r4, r5, pc}
 8000536:	bf00      	nop
 8000538:	e000ed00 	and	lr, r0, r0, lsl #26

0800053c <core_SystemClock_Config_216>:
 800053c:	b510      	push	{r4, lr}
 800053e:	b092      	sub	sp, #72	; 0x48
 8000540:	2301      	movs	r3, #1
 8000542:	9306      	str	r3, [sp, #24]
 8000544:	f44f 3380 	mov.w	r3, #65536	; 0x10000
 8000548:	9307      	str	r3, [sp, #28]
 800054a:	f44f 0380 	mov.w	r3, #4194304	; 0x400000
 800054e:	930d      	str	r3, [sp, #52]	; 0x34
 8000550:	2319      	movs	r3, #25
 8000552:	930e      	str	r3, [sp, #56]	; 0x38
 8000554:	f44f 73d8 	mov.w	r3, #432	; 0x1b0
 8000558:	2402      	movs	r4, #2
 800055a:	930f      	str	r3, [sp, #60]	; 0x3c
 800055c:	a806      	add	r0, sp, #24
 800055e:	2309      	movs	r3, #9
 8000560:	940c      	str	r4, [sp, #48]	; 0x30
 8000562:	9410      	str	r4, [sp, #64]	; 0x40
 8000564:	9311      	str	r3, [sp, #68]	; 0x44
 8000566:	f000 fef1 	bl	800134c <HAL_RCC_OscConfig>
 800056a:	b100      	cbz	r0, 800056e <core_SystemClock_Config_216+0x32>
 800056c:	e7fe      	b.n	800056c <core_SystemClock_Config_216+0x30>
 800056e:	f001 fa35 	bl	80019dc <HAL_PWREx_EnableOverDrive>
 8000572:	b100      	cbz	r0, 8000576 <core_SystemClock_Config_216+0x3a>
 8000574:	e7fe      	b.n	8000574 <core_SystemClock_Config_216+0x38>
 8000576:	230f      	movs	r3, #15
 8000578:	9301      	str	r3, [sp, #4]
 800057a:	f44f 53a0 	mov.w	r3, #5120	; 0x1400
 800057e:	9003      	str	r0, [sp, #12]
 8000580:	9304      	str	r3, [sp, #16]
 8000582:	a801      	add	r0, sp, #4
 8000584:	f44f 5380 	mov.w	r3, #4096	; 0x1000
 8000588:	2107      	movs	r1, #7
 800058a:	9402      	str	r4, [sp, #8]
 800058c:	9305      	str	r3, [sp, #20]
 800058e:	f001 f8b5 	bl	80016fc <HAL_RCC_ClockConfig>
 8000592:	b100      	cbz	r0, 8000596 <core_SystemClock_Config_216+0x5a>
 8000594:	e7fe      	b.n	8000594 <core_SystemClock_Config_216+0x58>
 8000596:	b012      	add	sp, #72	; 0x48
 8000598:	bd10      	pop	{r4, pc}

0800059a <core_init>:
 800059a:	b508      	push	{r3, lr}
 800059c:	f7ff ff2e 	bl	80003fc <core_mpu_config>
 80005a0:	f7ff ff64 	bl	800046c <core_cpu_cache_enable>
 80005a4:	f000 f816 	bl	80005d4 <HAL_Init>
 80005a8:	e8bd 4008 	ldmia.w	sp!, {r3, lr}
 80005ac:	f7ff bfc6 	b.w	800053c <core_SystemClock_Config_216>

080005b0 <HAL_InitTick>:
 80005b0:	b510      	push	{r4, lr}
 80005b2:	4604      	mov	r4, r0
 80005b4:	f001 f9cc 	bl	8001950 <HAL_RCC_GetHCLKFreq>
 80005b8:	f44f 737a 	mov.w	r3, #1000	; 0x3e8
 80005bc:	fbb0 f0f3 	udiv	r0, r0, r3
 80005c0:	f000 fe88 	bl	80012d4 <HAL_SYSTICK_Config>
 80005c4:	f04f 30ff 	mov.w	r0, #4294967295	; 0xffffffff
 80005c8:	4621      	mov	r1, r4
 80005ca:	2200      	movs	r2, #0
 80005cc:	f000 fe46 	bl	800125c <HAL_NVIC_SetPriority>
 80005d0:	2000      	movs	r0, #0
 80005d2:	bd10      	pop	{r4, pc}

080005d4 <HAL_Init>:
 80005d4:	4a07      	ldr	r2, [pc, #28]	; (80005f4 <HAL_Init+0x20>)
 80005d6:	b508      	push	{r3, lr}
 80005d8:	6813      	ldr	r3, [r2, #0]
 80005da:	f443 7300 	orr.w	r3, r3, #512	; 0x200
 80005de:	6013      	str	r3, [r2, #0]
 80005e0:	2003      	movs	r0, #3
 80005e2:	f000 fe29 	bl	8001238 <HAL_NVIC_SetPriorityGrouping>
 80005e6:	200f      	movs	r0, #15
 80005e8:	f7ff ffe2 	bl	80005b0 <HAL_InitTick>
 80005ec:	f001 fd16 	bl	800201c <HAL_MspInit>
 80005f0:	2000      	movs	r0, #0
 80005f2:	bd08      	pop	{r3, pc}
 80005f4:	40023c00 	andmi	r3, r2, r0, lsl #24

080005f8 <HAL_GetTick>:
 80005f8:	4b01      	ldr	r3, [pc, #4]	; (8000600 <HAL_GetTick+0x8>)
 80005fa:	6818      	ldr	r0, [r3, #0]
 80005fc:	4770      	bx	lr
 80005fe:	bf00      	nop
 8000600:	2000044c 	andcs	r0, r0, ip, asr #8

08000604 <HAL_SDRAM_MspInit>:
 8000604:	4770      	bx	lr

08000606 <HAL_SDRAM_Init>:
 8000606:	b538      	push	{r3, r4, r5, lr}
 8000608:	460d      	mov	r5, r1
 800060a:	4604      	mov	r4, r0
 800060c:	b1c8      	cbz	r0, 8000642 <HAL_SDRAM_Init+0x3c>
 800060e:	f890 302c 	ldrb.w	r3, [r0, #44]	; 0x2c
 8000612:	f003 02ff 	and.w	r2, r3, #255	; 0xff
 8000616:	b91b      	cbnz	r3, 8000620 <HAL_SDRAM_Init+0x1a>
 8000618:	f880 202d 	strb.w	r2, [r0, #45]	; 0x2d
 800061c:	f7ff fff2 	bl	8000604 <HAL_SDRAM_MspInit>
 8000620:	2302      	movs	r3, #2
 8000622:	f884 302c 	strb.w	r3, [r4, #44]	; 0x2c
 8000626:	1d21      	adds	r1, r4, #4
 8000628:	6820      	ldr	r0, [r4, #0]
 800062a:	f001 fa11 	bl	8001a50 <FMC_SDRAM_Init>
 800062e:	6820      	ldr	r0, [r4, #0]
 8000630:	6862      	ldr	r2, [r4, #4]
 8000632:	4629      	mov	r1, r5
 8000634:	f001 fa4f 	bl	8001ad6 <FMC_SDRAM_Timing_Init>
 8000638:	2301      	movs	r3, #1
 800063a:	f884 302c 	strb.w	r3, [r4, #44]	; 0x2c
 800063e:	2000      	movs	r0, #0
 8000640:	bd38      	pop	{r3, r4, r5, pc}
 8000642:	2001      	movs	r0, #1
 8000644:	bd38      	pop	{r3, r4, r5, pc}

08000646 <HAL_SDRAM_SendCommand>:
 8000646:	b538      	push	{r3, r4, r5, lr}
 8000648:	4604      	mov	r4, r0
 800064a:	f890 002c 	ldrb.w	r0, [r0, #44]	; 0x2c
 800064e:	b2c0      	uxtb	r0, r0
 8000650:	2802      	cmp	r0, #2
 8000652:	460d      	mov	r5, r1
 8000654:	d00d      	beq.n	8000672 <HAL_SDRAM_SendCommand+0x2c>
 8000656:	2302      	movs	r3, #2
 8000658:	f884 302c 	strb.w	r3, [r4, #44]	; 0x2c
 800065c:	6820      	ldr	r0, [r4, #0]
 800065e:	f001 fa85 	bl	8001b6c <FMC_SDRAM_SendCommand>
 8000662:	682b      	ldr	r3, [r5, #0]
 8000664:	2b02      	cmp	r3, #2
 8000666:	bf0c      	ite	eq
 8000668:	2305      	moveq	r3, #5
 800066a:	2301      	movne	r3, #1
 800066c:	f884 302c 	strb.w	r3, [r4, #44]	; 0x2c
 8000670:	2000      	movs	r0, #0
 8000672:	bd38      	pop	{r3, r4, r5, pc}

08000674 <HAL_SDRAM_ProgramRefreshRate>:
 8000674:	b510      	push	{r4, lr}
 8000676:	4604      	mov	r4, r0
 8000678:	f890 002c 	ldrb.w	r0, [r0, #44]	; 0x2c
 800067c:	b2c0      	uxtb	r0, r0
 800067e:	2802      	cmp	r0, #2
 8000680:	d009      	beq.n	8000696 <HAL_SDRAM_ProgramRefreshRate+0x22>
 8000682:	2302      	movs	r3, #2
 8000684:	f884 302c 	strb.w	r3, [r4, #44]	; 0x2c
 8000688:	6820      	ldr	r0, [r4, #0]
 800068a:	f001 fa95 	bl	8001bb8 <FMC_SDRAM_ProgramRefreshRate>
 800068e:	2301      	movs	r3, #1
 8000690:	f884 302c 	strb.w	r3, [r4, #44]	; 0x2c
 8000694:	2000      	movs	r0, #0
 8000696:	bd10      	pop	{r4, pc}

08000698 <HAL_RCCEx_PeriphCLKConfig>:
 8000698:	6803      	ldr	r3, [r0, #0]
 800069a:	e92d 47f3 	stmdb	sp!, {r0, r1, r4, r5, r6, r7, r8, r9, sl, lr}
 800069e:	f013 0601 	ands.w	r6, r3, #1
 80006a2:	4604      	mov	r4, r0
 80006a4:	d00b      	beq.n	80006be <HAL_RCCEx_PeriphCLKConfig+0x26>
 80006a6:	4a46      	ldr	r2, [pc, #280]	; (80007c0 <HAL_RCCEx_PeriphCLKConfig+0x128>)
 80006a8:	6891      	ldr	r1, [r2, #8]
 80006aa:	f421 0100 	bic.w	r1, r1, #8388608	; 0x800000
 80006ae:	6091      	str	r1, [r2, #8]
 80006b0:	6b46      	ldr	r6, [r0, #52]	; 0x34
 80006b2:	6891      	ldr	r1, [r2, #8]
 80006b4:	4331      	orrs	r1, r6
 80006b6:	6091      	str	r1, [r2, #8]
 80006b8:	fab6 f686 	clz	r6, r6
 80006bc:	0976      	lsrs	r6, r6, #5
 80006be:	f413 2500 	ands.w	r5, r3, #524288	; 0x80000
 80006c2:	d010      	beq.n	80006e6 <HAL_RCCEx_PeriphCLKConfig+0x4e>
 80006c4:	493e      	ldr	r1, [pc, #248]	; (80007c0 <HAL_RCCEx_PeriphCLKConfig+0x128>)
 80006c6:	6be5      	ldr	r5, [r4, #60]	; 0x3c
 80006c8:	f8d1 208c 	ldr.w	r2, [r1, #140]	; 0x8c
 80006cc:	f422 1240 	bic.w	r2, r2, #3145728	; 0x300000
 80006d0:	432a      	orrs	r2, r5
 80006d2:	f5b5 1f80 	cmp.w	r5, #1048576	; 0x100000
 80006d6:	f8c1 208c 	str.w	r2, [r1, #140]	; 0x8c
 80006da:	bf15      	itete	ne
 80006dc:	fab5 f585 	clzne	r5, r5
 80006e0:	2500      	moveq	r5, #0
 80006e2:	096d      	lsrne	r5, r5, #5
 80006e4:	2601      	moveq	r6, #1
 80006e6:	02d9      	lsls	r1, r3, #11
 80006e8:	d510      	bpl.n	800070c <HAL_RCCEx_PeriphCLKConfig+0x74>
 80006ea:	4835      	ldr	r0, [pc, #212]	; (80007c0 <HAL_RCCEx_PeriphCLKConfig+0x128>)
 80006ec:	6c21      	ldr	r1, [r4, #64]	; 0x40
 80006ee:	f8d0 208c 	ldr.w	r2, [r0, #140]	; 0x8c
 80006f2:	f422 0240 	bic.w	r2, r2, #12582912	; 0xc00000
 80006f6:	430a      	orrs	r2, r1
 80006f8:	f5b1 0f80 	cmp.w	r1, #4194304	; 0x400000
 80006fc:	f8c0 208c 	str.w	r2, [r0, #140]	; 0x8c
 8000700:	d003      	beq.n	800070a <HAL_RCCEx_PeriphCLKConfig+0x72>
 8000702:	2900      	cmp	r1, #0
 8000704:	bf08      	it	eq
 8000706:	2501      	moveq	r5, #1
 8000708:	e000      	b.n	800070c <HAL_RCCEx_PeriphCLKConfig+0x74>
 800070a:	2601      	movs	r6, #1
 800070c:	f013 7f80 	tst.w	r3, #16777216	; 0x1000000
 8000710:	bf18      	it	ne
 8000712:	2601      	movne	r6, #1
 8000714:	069a      	lsls	r2, r3, #26
 8000716:	d560      	bpl.n	80007da <HAL_RCCEx_PeriphCLKConfig+0x142>
 8000718:	2300      	movs	r3, #0
 800071a:	9301      	str	r3, [sp, #4]
 800071c:	4b28      	ldr	r3, [pc, #160]	; (80007c0 <HAL_RCCEx_PeriphCLKConfig+0x128>)
 800071e:	6c1a      	ldr	r2, [r3, #64]	; 0x40
 8000720:	f042 5280 	orr.w	r2, r2, #268435456	; 0x10000000
 8000724:	641a      	str	r2, [r3, #64]	; 0x40
 8000726:	6c1b      	ldr	r3, [r3, #64]	; 0x40
 8000728:	4a26      	ldr	r2, [pc, #152]	; (80007c4 <HAL_RCCEx_PeriphCLKConfig+0x12c>)
 800072a:	f003 5380 	and.w	r3, r3, #268435456	; 0x10000000
 800072e:	9301      	str	r3, [sp, #4]
 8000730:	9b01      	ldr	r3, [sp, #4]
 8000732:	6813      	ldr	r3, [r2, #0]
 8000734:	f443 7380 	orr.w	r3, r3, #256	; 0x100
 8000738:	6013      	str	r3, [r2, #0]
 800073a:	f7ff ff5d 	bl	80005f8 <HAL_GetTick>
 800073e:	4607      	mov	r7, r0
 8000740:	4b20      	ldr	r3, [pc, #128]	; (80007c4 <HAL_RCCEx_PeriphCLKConfig+0x12c>)
 8000742:	681b      	ldr	r3, [r3, #0]
 8000744:	05db      	lsls	r3, r3, #23
 8000746:	d406      	bmi.n	8000756 <HAL_RCCEx_PeriphCLKConfig+0xbe>
 8000748:	f7ff ff56 	bl	80005f8 <HAL_GetTick>
 800074c:	1bc0      	subs	r0, r0, r7
 800074e:	2864      	cmp	r0, #100	; 0x64
 8000750:	d9f6      	bls.n	8000740 <HAL_RCCEx_PeriphCLKConfig+0xa8>
 8000752:	2003      	movs	r0, #3
 8000754:	e344      	b.n	8000de0 <HAL_RCCEx_PeriphCLKConfig+0x748>
 8000756:	4b1a      	ldr	r3, [pc, #104]	; (80007c0 <HAL_RCCEx_PeriphCLKConfig+0x128>)
 8000758:	6b22      	ldr	r2, [r4, #48]	; 0x30
 800075a:	6f19      	ldr	r1, [r3, #112]	; 0x70
 800075c:	404a      	eors	r2, r1
 800075e:	f412 7f40 	tst.w	r2, #768	; 0x300
 8000762:	d03a      	beq.n	80007da <HAL_RCCEx_PeriphCLKConfig+0x142>
 8000764:	6f19      	ldr	r1, [r3, #112]	; 0x70
 8000766:	6f1a      	ldr	r2, [r3, #112]	; 0x70
 8000768:	f442 3280 	orr.w	r2, r2, #65536	; 0x10000
 800076c:	671a      	str	r2, [r3, #112]	; 0x70
 800076e:	6f1a      	ldr	r2, [r3, #112]	; 0x70
 8000770:	f421 7040 	bic.w	r0, r1, #768	; 0x300
 8000774:	f422 3280 	bic.w	r2, r2, #65536	; 0x10000
 8000778:	078f      	lsls	r7, r1, #30
 800077a:	671a      	str	r2, [r3, #112]	; 0x70
 800077c:	6718      	str	r0, [r3, #112]	; 0x70
 800077e:	d40f      	bmi.n	80007a0 <HAL_RCCEx_PeriphCLKConfig+0x108>
 8000780:	6b22      	ldr	r2, [r4, #48]	; 0x30
 8000782:	f402 7340 	and.w	r3, r2, #768	; 0x300
 8000786:	f5b3 7f40 	cmp.w	r3, #768	; 0x300
 800078a:	4b0d      	ldr	r3, [pc, #52]	; (80007c0 <HAL_RCCEx_PeriphCLKConfig+0x128>)
 800078c:	d11c      	bne.n	80007c8 <HAL_RCCEx_PeriphCLKConfig+0x130>
 800078e:	6899      	ldr	r1, [r3, #8]
 8000790:	f022 4070 	bic.w	r0, r2, #4026531840	; 0xf0000000
 8000794:	f420 7040 	bic.w	r0, r0, #768	; 0x300
 8000798:	f421 11f8 	bic.w	r1, r1, #2031616	; 0x1f0000
 800079c:	4301      	orrs	r1, r0
 800079e:	e016      	b.n	80007ce <HAL_RCCEx_PeriphCLKConfig+0x136>
 80007a0:	f7ff ff2a 	bl	80005f8 <HAL_GetTick>
 80007a4:	4607      	mov	r7, r0
 80007a6:	4b06      	ldr	r3, [pc, #24]	; (80007c0 <HAL_RCCEx_PeriphCLKConfig+0x128>)
 80007a8:	6f1b      	ldr	r3, [r3, #112]	; 0x70
 80007aa:	0798      	lsls	r0, r3, #30
 80007ac:	d4e8      	bmi.n	8000780 <HAL_RCCEx_PeriphCLKConfig+0xe8>
 80007ae:	f7ff ff23 	bl	80005f8 <HAL_GetTick>
 80007b2:	f241 3388 	movw	r3, #5000	; 0x1388
 80007b6:	1bc0      	subs	r0, r0, r7
 80007b8:	4298      	cmp	r0, r3
 80007ba:	d9f4      	bls.n	80007a6 <HAL_RCCEx_PeriphCLKConfig+0x10e>
 80007bc:	e7c9      	b.n	8000752 <HAL_RCCEx_PeriphCLKConfig+0xba>
 80007be:	bf00      	nop
 80007c0:	40023800 	andmi	r3, r2, r0, lsl #16
 80007c4:	40007000 	andmi	r7, r0, r0
 80007c8:	6899      	ldr	r1, [r3, #8]
 80007ca:	f421 11f8 	bic.w	r1, r1, #2031616	; 0x1f0000
 80007ce:	6099      	str	r1, [r3, #8]
 80007d0:	6f19      	ldr	r1, [r3, #112]	; 0x70
 80007d2:	f3c2 020b 	ubfx	r2, r2, #0, #12
 80007d6:	430a      	orrs	r2, r1
 80007d8:	671a      	str	r2, [r3, #112]	; 0x70
 80007da:	6823      	ldr	r3, [r4, #0]
 80007dc:	06d9      	lsls	r1, r3, #27
 80007de:	d50c      	bpl.n	80007fa <HAL_RCCEx_PeriphCLKConfig+0x162>
 80007e0:	4a77      	ldr	r2, [pc, #476]	; (80009c0 <HAL_RCCEx_PeriphCLKConfig+0x328>)
 80007e2:	f8d2 108c 	ldr.w	r1, [r2, #140]	; 0x8c
 80007e6:	f021 7180 	bic.w	r1, r1, #16777216	; 0x1000000
 80007ea:	f8c2 108c 	str.w	r1, [r2, #140]	; 0x8c
 80007ee:	f8d2 008c 	ldr.w	r0, [r2, #140]	; 0x8c
 80007f2:	6ba1      	ldr	r1, [r4, #56]	; 0x38
 80007f4:	4301      	orrs	r1, r0
 80007f6:	f8c2 108c 	str.w	r1, [r2, #140]	; 0x8c
 80007fa:	045a      	lsls	r2, r3, #17
 80007fc:	bf41      	itttt	mi
 80007fe:	4870      	ldrmi	r0, [pc, #448]	; (80009c0 <HAL_RCCEx_PeriphCLKConfig+0x328>)
 8000800:	f8d0 2090 	ldrmi.w	r2, [r0, #144]	; 0x90
 8000804:	f422 3140 	bicmi.w	r1, r2, #196608	; 0x30000
 8000808:	6e62      	ldrmi	r2, [r4, #100]	; 0x64
 800080a:	bf44      	itt	mi
 800080c:	430a      	orrmi	r2, r1
 800080e:	f8c0 2090 	strmi.w	r2, [r0, #144]	; 0x90
 8000812:	041f      	lsls	r7, r3, #16
 8000814:	bf41      	itttt	mi
 8000816:	486a      	ldrmi	r0, [pc, #424]	; (80009c0 <HAL_RCCEx_PeriphCLKConfig+0x328>)
 8000818:	f8d0 2090 	ldrmi.w	r2, [r0, #144]	; 0x90
 800081c:	f422 2140 	bicmi.w	r1, r2, #786432	; 0xc0000
 8000820:	6ea2      	ldrmi	r2, [r4, #104]	; 0x68
 8000822:	bf44      	itt	mi
 8000824:	430a      	orrmi	r2, r1
 8000826:	f8c0 2090 	strmi.w	r2, [r0, #144]	; 0x90
 800082a:	03d8      	lsls	r0, r3, #15
 800082c:	bf41      	itttt	mi
 800082e:	4864      	ldrmi	r0, [pc, #400]	; (80009c0 <HAL_RCCEx_PeriphCLKConfig+0x328>)
 8000830:	f8d0 2090 	ldrmi.w	r2, [r0, #144]	; 0x90
 8000834:	f422 1140 	bicmi.w	r1, r2, #3145728	; 0x300000
 8000838:	6ee2      	ldrmi	r2, [r4, #108]	; 0x6c
 800083a:	bf44      	itt	mi
 800083c:	430a      	orrmi	r2, r1
 800083e:	f8c0 2090 	strmi.w	r2, [r0, #144]	; 0x90
 8000842:	0399      	lsls	r1, r3, #14
 8000844:	bf41      	itttt	mi
 8000846:	485e      	ldrmi	r0, [pc, #376]	; (80009c0 <HAL_RCCEx_PeriphCLKConfig+0x328>)
 8000848:	f8d0 2090 	ldrmi.w	r2, [r0, #144]	; 0x90
 800084c:	f422 0140 	bicmi.w	r1, r2, #12582912	; 0xc00000
 8000850:	6f22      	ldrmi	r2, [r4, #112]	; 0x70
 8000852:	bf44      	itt	mi
 8000854:	430a      	orrmi	r2, r1
 8000856:	f8c0 2090 	strmi.w	r2, [r0, #144]	; 0x90
 800085a:	065a      	lsls	r2, r3, #25
 800085c:	bf41      	itttt	mi
 800085e:	4858      	ldrmi	r0, [pc, #352]	; (80009c0 <HAL_RCCEx_PeriphCLKConfig+0x328>)
 8000860:	f8d0 2090 	ldrmi.w	r2, [r0, #144]	; 0x90
 8000864:	f022 0103 	bicmi.w	r1, r2, #3
 8000868:	6c62      	ldrmi	r2, [r4, #68]	; 0x44
 800086a:	bf44      	itt	mi
 800086c:	430a      	orrmi	r2, r1
 800086e:	f8c0 2090 	strmi.w	r2, [r0, #144]	; 0x90
 8000872:	061f      	lsls	r7, r3, #24
 8000874:	bf41      	itttt	mi
 8000876:	4852      	ldrmi	r0, [pc, #328]	; (80009c0 <HAL_RCCEx_PeriphCLKConfig+0x328>)
 8000878:	f8d0 2090 	ldrmi.w	r2, [r0, #144]	; 0x90
 800087c:	f022 010c 	bicmi.w	r1, r2, #12
 8000880:	6ca2      	ldrmi	r2, [r4, #72]	; 0x48
 8000882:	bf44      	itt	mi
 8000884:	430a      	orrmi	r2, r1
 8000886:	f8c0 2090 	strmi.w	r2, [r0, #144]	; 0x90
 800088a:	05d8      	lsls	r0, r3, #23
 800088c:	bf41      	itttt	mi
 800088e:	484c      	ldrmi	r0, [pc, #304]	; (80009c0 <HAL_RCCEx_PeriphCLKConfig+0x328>)
 8000890:	f8d0 2090 	ldrmi.w	r2, [r0, #144]	; 0x90
 8000894:	f022 0130 	bicmi.w	r1, r2, #48	; 0x30
 8000898:	6ce2      	ldrmi	r2, [r4, #76]	; 0x4c
 800089a:	bf44      	itt	mi
 800089c:	430a      	orrmi	r2, r1
 800089e:	f8c0 2090 	strmi.w	r2, [r0, #144]	; 0x90
 80008a2:	0599      	lsls	r1, r3, #22
 80008a4:	bf41      	itttt	mi
 80008a6:	4846      	ldrmi	r0, [pc, #280]	; (80009c0 <HAL_RCCEx_PeriphCLKConfig+0x328>)
 80008a8:	f8d0 2090 	ldrmi.w	r2, [r0, #144]	; 0x90
 80008ac:	f022 01c0 	bicmi.w	r1, r2, #192	; 0xc0
 80008b0:	6d22      	ldrmi	r2, [r4, #80]	; 0x50
 80008b2:	bf44      	itt	mi
 80008b4:	430a      	orrmi	r2, r1
 80008b6:	f8c0 2090 	strmi.w	r2, [r0, #144]	; 0x90
 80008ba:	055a      	lsls	r2, r3, #21
 80008bc:	bf41      	itttt	mi
 80008be:	4840      	ldrmi	r0, [pc, #256]	; (80009c0 <HAL_RCCEx_PeriphCLKConfig+0x328>)
 80008c0:	f8d0 2090 	ldrmi.w	r2, [r0, #144]	; 0x90
 80008c4:	f422 7140 	bicmi.w	r1, r2, #768	; 0x300
 80008c8:	6d62      	ldrmi	r2, [r4, #84]	; 0x54
 80008ca:	bf44      	itt	mi
 80008cc:	430a      	orrmi	r2, r1
 80008ce:	f8c0 2090 	strmi.w	r2, [r0, #144]	; 0x90
 80008d2:	051f      	lsls	r7, r3, #20
 80008d4:	bf41      	itttt	mi
 80008d6:	483a      	ldrmi	r0, [pc, #232]	; (80009c0 <HAL_RCCEx_PeriphCLKConfig+0x328>)
 80008d8:	f8d0 2090 	ldrmi.w	r2, [r0, #144]	; 0x90
 80008dc:	f422 6140 	bicmi.w	r1, r2, #3072	; 0xc00
 80008e0:	6da2      	ldrmi	r2, [r4, #88]	; 0x58
 80008e2:	bf44      	itt	mi
 80008e4:	430a      	orrmi	r2, r1
 80008e6:	f8c0 2090 	strmi.w	r2, [r0, #144]	; 0x90
 80008ea:	04d8      	lsls	r0, r3, #19
 80008ec:	bf41      	itttt	mi
 80008ee:	4834      	ldrmi	r0, [pc, #208]	; (80009c0 <HAL_RCCEx_PeriphCLKConfig+0x328>)
 80008f0:	f8d0 2090 	ldrmi.w	r2, [r0, #144]	; 0x90
 80008f4:	f422 5140 	bicmi.w	r1, r2, #12288	; 0x3000
 80008f8:	6de2      	ldrmi	r2, [r4, #92]	; 0x5c
 80008fa:	bf44      	itt	mi
 80008fc:	430a      	orrmi	r2, r1
 80008fe:	f8c0 2090 	strmi.w	r2, [r0, #144]	; 0x90
 8000902:	0499      	lsls	r1, r3, #18
 8000904:	bf41      	itttt	mi
 8000906:	482e      	ldrmi	r0, [pc, #184]	; (80009c0 <HAL_RCCEx_PeriphCLKConfig+0x328>)
 8000908:	f8d0 2090 	ldrmi.w	r2, [r0, #144]	; 0x90
 800090c:	f422 4140 	bicmi.w	r1, r2, #49152	; 0xc000
 8000910:	6e22      	ldrmi	r2, [r4, #96]	; 0x60
 8000912:	bf44      	itt	mi
 8000914:	430a      	orrmi	r2, r1
 8000916:	f8c0 2090 	strmi.w	r2, [r0, #144]	; 0x90
 800091a:	025a      	lsls	r2, r3, #9
 800091c:	bf41      	itttt	mi
 800091e:	4828      	ldrmi	r0, [pc, #160]	; (80009c0 <HAL_RCCEx_PeriphCLKConfig+0x328>)
 8000920:	f8d0 2090 	ldrmi.w	r2, [r0, #144]	; 0x90
 8000924:	f022 6180 	bicmi.w	r1, r2, #67108864	; 0x4000000
 8000928:	6fa2      	ldrmi	r2, [r4, #120]	; 0x78
 800092a:	bf44      	itt	mi
 800092c:	430a      	orrmi	r2, r1
 800092e:	f8c0 2090 	strmi.w	r2, [r0, #144]	; 0x90
 8000932:	029f      	lsls	r7, r3, #10
 8000934:	d50c      	bpl.n	8000950 <HAL_RCCEx_PeriphCLKConfig+0x2b8>
 8000936:	4822      	ldr	r0, [pc, #136]	; (80009c0 <HAL_RCCEx_PeriphCLKConfig+0x328>)
 8000938:	6fe1      	ldr	r1, [r4, #124]	; 0x7c
 800093a:	f8d0 2090 	ldr.w	r2, [r0, #144]	; 0x90
 800093e:	f022 6200 	bic.w	r2, r2, #134217728	; 0x8000000
 8000942:	430a      	orrs	r2, r1
 8000944:	f1b1 6f00 	cmp.w	r1, #134217728	; 0x8000000
 8000948:	f8c0 2090 	str.w	r2, [r0, #144]	; 0x90
 800094c:	bf08      	it	eq
 800094e:	2501      	moveq	r5, #1
 8000950:	f013 0f08 	tst.w	r3, #8
 8000954:	bf18      	it	ne
 8000956:	2501      	movne	r5, #1
 8000958:	0358      	lsls	r0, r3, #13
 800095a:	bf41      	itttt	mi
 800095c:	4818      	ldrmi	r0, [pc, #96]	; (80009c0 <HAL_RCCEx_PeriphCLKConfig+0x328>)
 800095e:	f8d0 2090 	ldrmi.w	r2, [r0, #144]	; 0x90
 8000962:	f022 7140 	bicmi.w	r1, r2, #50331648	; 0x3000000
 8000966:	6f62      	ldrmi	r2, [r4, #116]	; 0x74
 8000968:	bf44      	itt	mi
 800096a:	430a      	orrmi	r2, r1
 800096c:	f8c0 2090 	strmi.w	r2, [r0, #144]	; 0x90
 8000970:	0219      	lsls	r1, r3, #8
 8000972:	bf41      	itttt	mi
 8000974:	4812      	ldrmi	r0, [pc, #72]	; (80009c0 <HAL_RCCEx_PeriphCLKConfig+0x328>)
 8000976:	f8d0 2090 	ldrmi.w	r2, [r0, #144]	; 0x90
 800097a:	f022 5180 	bicmi.w	r1, r2, #268435456	; 0x10000000
 800097e:	f8d4 2080 	ldrmi.w	r2, [r4, #128]	; 0x80
 8000982:	bf44      	itt	mi
 8000984:	430a      	orrmi	r2, r1
 8000986:	f8c0 2090 	strmi.w	r2, [r0, #144]	; 0x90
 800098a:	2e01      	cmp	r6, #1
 800098c:	d006      	beq.n	800099c <HAL_RCCEx_PeriphCLKConfig+0x304>
 800098e:	f1b3 7f00 	cmp.w	r3, #33554432	; 0x2000000
 8000992:	d003      	beq.n	800099c <HAL_RCCEx_PeriphCLKConfig+0x304>
 8000994:	2d01      	cmp	r5, #1
 8000996:	f040 8185 	bne.w	8000ca4 <HAL_RCCEx_PeriphCLKConfig+0x60c>
 800099a:	e11e      	b.n	8000bda <HAL_RCCEx_PeriphCLKConfig+0x542>
 800099c:	4a08      	ldr	r2, [pc, #32]	; (80009c0 <HAL_RCCEx_PeriphCLKConfig+0x328>)
 800099e:	6813      	ldr	r3, [r2, #0]
 80009a0:	f023 6380 	bic.w	r3, r3, #67108864	; 0x4000000
 80009a4:	6013      	str	r3, [r2, #0]
 80009a6:	f7ff fe27 	bl	80005f8 <HAL_GetTick>
 80009aa:	4607      	mov	r7, r0
 80009ac:	4e04      	ldr	r6, [pc, #16]	; (80009c0 <HAL_RCCEx_PeriphCLKConfig+0x328>)
 80009ae:	6833      	ldr	r3, [r6, #0]
 80009b0:	011a      	lsls	r2, r3, #4
 80009b2:	d507      	bpl.n	80009c4 <HAL_RCCEx_PeriphCLKConfig+0x32c>
 80009b4:	f7ff fe20 	bl	80005f8 <HAL_GetTick>
 80009b8:	1bc0      	subs	r0, r0, r7
 80009ba:	2864      	cmp	r0, #100	; 0x64
 80009bc:	d9f6      	bls.n	80009ac <HAL_RCCEx_PeriphCLKConfig+0x314>
 80009be:	e6c8      	b.n	8000752 <HAL_RCCEx_PeriphCLKConfig+0xba>
 80009c0:	40023800 	andmi	r3, r2, r0, lsl #16
 80009c4:	6820      	ldr	r0, [r4, #0]
 80009c6:	07c3      	lsls	r3, r0, #31
 80009c8:	d53c      	bpl.n	8000a44 <HAL_RCCEx_PeriphCLKConfig+0x3ac>
 80009ca:	6b63      	ldr	r3, [r4, #52]	; 0x34
 80009cc:	bbd3      	cbnz	r3, 8000a44 <HAL_RCCEx_PeriphCLKConfig+0x3ac>
 80009ce:	f8d6 2084 	ldr.w	r2, [r6, #132]	; 0x84
 80009d2:	f44f 3c40 	mov.w	ip, #196608	; 0x30000
 80009d6:	fa9c f8ac 	rbit	r8, ip
 80009da:	f04f 6170 	mov.w	r1, #251658240	; 0xf000000
 80009de:	fab8 f888 	clz	r8, r8
 80009e2:	f8d6 3084 	ldr.w	r3, [r6, #132]	; 0x84
 80009e6:	fa91 fea1 	rbit	lr, r1
 80009ea:	f647 79c0 	movw	r9, #32704	; 0x7fc0
 80009ee:	fabe fe8e 	clz	lr, lr
 80009f2:	fa99 f9a9 	rbit	r9, r9
 80009f6:	fab9 f989 	clz	r9, r9
 80009fa:	fa9c fcac 	rbit	ip, ip
 80009fe:	fabc fc8c 	clz	ip, ip
 8000a02:	fa91 f1a1 	rbit	r1, r1
 8000a06:	f04f 4ae0 	mov.w	sl, #1879048192	; 0x70000000
 8000a0a:	fab1 f181 	clz	r1, r1
 8000a0e:	fa9a faaa 	rbit	sl, sl
 8000a12:	68a7      	ldr	r7, [r4, #8]
 8000a14:	faba fa8a 	clz	sl, sl
 8000a18:	fa07 fa0a 	lsl.w	sl, r7, sl
 8000a1c:	6867      	ldr	r7, [r4, #4]
 8000a1e:	f402 3240 	and.w	r2, r2, #196608	; 0x30000
 8000a22:	fa07 f909 	lsl.w	r9, r7, r9
 8000a26:	fa22 f208 	lsr.w	r2, r2, r8
 8000a2a:	f003 6370 	and.w	r3, r3, #251658240	; 0xf000000
 8000a2e:	ea4a 0709 	orr.w	r7, sl, r9
 8000a32:	fa02 f20c 	lsl.w	r2, r2, ip
 8000a36:	fa23 f30e 	lsr.w	r3, r3, lr
 8000a3a:	433a      	orrs	r2, r7
 8000a3c:	408b      	lsls	r3, r1
 8000a3e:	4313      	orrs	r3, r2
 8000a40:	f8c6 3084 	str.w	r3, [r6, #132]	; 0x84
 8000a44:	0307      	lsls	r7, r0, #12
 8000a46:	d503      	bpl.n	8000a50 <HAL_RCCEx_PeriphCLKConfig+0x3b8>
 8000a48:	6be3      	ldr	r3, [r4, #60]	; 0x3c
 8000a4a:	f5b3 1f80 	cmp.w	r3, #1048576	; 0x100000
 8000a4e:	d005      	beq.n	8000a5c <HAL_RCCEx_PeriphCLKConfig+0x3c4>
 8000a50:	02c6      	lsls	r6, r0, #11
 8000a52:	d548      	bpl.n	8000ae6 <HAL_RCCEx_PeriphCLKConfig+0x44e>
 8000a54:	6c23      	ldr	r3, [r4, #64]	; 0x40
 8000a56:	f5b3 0f80 	cmp.w	r3, #4194304	; 0x400000
 8000a5a:	d144      	bne.n	8000ae6 <HAL_RCCEx_PeriphCLKConfig+0x44e>
 8000a5c:	4ebb      	ldr	r6, [pc, #748]	; (8000d4c <HAL_RCCEx_PeriphCLKConfig+0x6b4>)
 8000a5e:	f44f 3c40 	mov.w	ip, #196608	; 0x30000
 8000a62:	f8d6 2084 	ldr.w	r2, [r6, #132]	; 0x84
 8000a66:	fa9c f8ac 	rbit	r8, ip
 8000a6a:	f04f 41e0 	mov.w	r1, #1879048192	; 0x70000000
 8000a6e:	fab8 f888 	clz	r8, r8
 8000a72:	f8d6 3084 	ldr.w	r3, [r6, #132]	; 0x84
 8000a76:	fa91 fea1 	rbit	lr, r1
 8000a7a:	f647 79c0 	movw	r9, #32704	; 0x7fc0
 8000a7e:	fabe fe8e 	clz	lr, lr
 8000a82:	fa99 f9a9 	rbit	r9, r9
 8000a86:	fab9 f989 	clz	r9, r9
 8000a8a:	fa9c fcac 	rbit	ip, ip
 8000a8e:	f04f 6a70 	mov.w	sl, #251658240	; 0xf000000
 8000a92:	fabc fc8c 	clz	ip, ip
 8000a96:	fa9a faaa 	rbit	sl, sl
 8000a9a:	faba fa8a 	clz	sl, sl
 8000a9e:	fa91 f1a1 	rbit	r1, r1
 8000aa2:	68e7      	ldr	r7, [r4, #12]
 8000aa4:	fab1 f181 	clz	r1, r1
 8000aa8:	fa07 fa0a 	lsl.w	sl, r7, sl
 8000aac:	6867      	ldr	r7, [r4, #4]
 8000aae:	f402 3240 	and.w	r2, r2, #196608	; 0x30000
 8000ab2:	fa07 f909 	lsl.w	r9, r7, r9
 8000ab6:	fa22 f208 	lsr.w	r2, r2, r8
 8000aba:	f003 43e0 	and.w	r3, r3, #1879048192	; 0x70000000
 8000abe:	ea4a 0709 	orr.w	r7, sl, r9
 8000ac2:	fa02 f20c 	lsl.w	r2, r2, ip
 8000ac6:	fa23 f30e 	lsr.w	r3, r3, lr
 8000aca:	433a      	orrs	r2, r7
 8000acc:	408b      	lsls	r3, r1
 8000ace:	4313      	orrs	r3, r2
 8000ad0:	f8c6 3084 	str.w	r3, [r6, #132]	; 0x84
 8000ad4:	f8d6 308c 	ldr.w	r3, [r6, #140]	; 0x8c
 8000ad8:	6a62      	ldr	r2, [r4, #36]	; 0x24
 8000ada:	f023 031f 	bic.w	r3, r3, #31
 8000ade:	3a01      	subs	r2, #1
 8000ae0:	4313      	orrs	r3, r2
 8000ae2:	f8c6 308c 	str.w	r3, [r6, #140]	; 0x8c
 8000ae6:	01c1      	lsls	r1, r0, #7
 8000ae8:	d53b      	bpl.n	8000b62 <HAL_RCCEx_PeriphCLKConfig+0x4ca>
 8000aea:	4e98      	ldr	r6, [pc, #608]	; (8000d4c <HAL_RCCEx_PeriphCLKConfig+0x6b4>)
 8000aec:	f04f 6c70 	mov.w	ip, #251658240	; 0xf000000
 8000af0:	f8d6 2084 	ldr.w	r2, [r6, #132]	; 0x84
 8000af4:	fa9c f8ac 	rbit	r8, ip
 8000af8:	f04f 41e0 	mov.w	r1, #1879048192	; 0x70000000
 8000afc:	fab8 f888 	clz	r8, r8
 8000b00:	f8d6 3084 	ldr.w	r3, [r6, #132]	; 0x84
 8000b04:	fa91 fea1 	rbit	lr, r1
 8000b08:	f647 79c0 	movw	r9, #32704	; 0x7fc0
 8000b0c:	fabe fe8e 	clz	lr, lr
 8000b10:	fa99 f9a9 	rbit	r9, r9
 8000b14:	f44f 3a40 	mov.w	sl, #196608	; 0x30000
 8000b18:	fab9 f989 	clz	r9, r9
 8000b1c:	fa9a faaa 	rbit	sl, sl
 8000b20:	faba fa8a 	clz	sl, sl
 8000b24:	fa9c fcac 	rbit	ip, ip
 8000b28:	fabc fc8c 	clz	ip, ip
 8000b2c:	fa91 f1a1 	rbit	r1, r1
 8000b30:	6927      	ldr	r7, [r4, #16]
 8000b32:	fab1 f181 	clz	r1, r1
 8000b36:	fa07 fa0a 	lsl.w	sl, r7, sl
 8000b3a:	6867      	ldr	r7, [r4, #4]
 8000b3c:	f002 6270 	and.w	r2, r2, #251658240	; 0xf000000
 8000b40:	fa07 f909 	lsl.w	r9, r7, r9
 8000b44:	fa22 f208 	lsr.w	r2, r2, r8
 8000b48:	f003 43e0 	and.w	r3, r3, #1879048192	; 0x70000000
 8000b4c:	ea4a 0709 	orr.w	r7, sl, r9
 8000b50:	fa02 f20c 	lsl.w	r2, r2, ip
 8000b54:	fa23 f30e 	lsr.w	r3, r3, lr
 8000b58:	433a      	orrs	r2, r7
 8000b5a:	408b      	lsls	r3, r1
 8000b5c:	4313      	orrs	r3, r2
 8000b5e:	f8c6 3084 	str.w	r3, [r6, #132]	; 0x84
 8000b62:	0182      	lsls	r2, r0, #6
 8000b64:	d526      	bpl.n	8000bb4 <HAL_RCCEx_PeriphCLKConfig+0x51c>
 8000b66:	f647 76c0 	movw	r6, #32704	; 0x7fc0
 8000b6a:	fa96 f6a6 	rbit	r6, r6
 8000b6e:	f44f 3740 	mov.w	r7, #196608	; 0x30000
 8000b72:	fab6 f686 	clz	r6, r6
 8000b76:	fa97 f7a7 	rbit	r7, r7
 8000b7a:	f04f 6070 	mov.w	r0, #251658240	; 0xf000000
 8000b7e:	fab7 f787 	clz	r7, r7
 8000b82:	fa90 f0a0 	rbit	r0, r0
 8000b86:	f04f 41e0 	mov.w	r1, #1879048192	; 0x70000000
 8000b8a:	fab0 f080 	clz	r0, r0
 8000b8e:	fa91 f1a1 	rbit	r1, r1
 8000b92:	6922      	ldr	r2, [r4, #16]
 8000b94:	fab1 f181 	clz	r1, r1
 8000b98:	fa02 f307 	lsl.w	r3, r2, r7
 8000b9c:	6862      	ldr	r2, [r4, #4]
 8000b9e:	40b2      	lsls	r2, r6
 8000ba0:	431a      	orrs	r2, r3
 8000ba2:	68e3      	ldr	r3, [r4, #12]
 8000ba4:	4083      	lsls	r3, r0
 8000ba6:	431a      	orrs	r2, r3
 8000ba8:	68a3      	ldr	r3, [r4, #8]
 8000baa:	408b      	lsls	r3, r1
 8000bac:	4313      	orrs	r3, r2
 8000bae:	4a67      	ldr	r2, [pc, #412]	; (8000d4c <HAL_RCCEx_PeriphCLKConfig+0x6b4>)
 8000bb0:	f8c2 3084 	str.w	r3, [r2, #132]	; 0x84
 8000bb4:	4a65      	ldr	r2, [pc, #404]	; (8000d4c <HAL_RCCEx_PeriphCLKConfig+0x6b4>)
 8000bb6:	6813      	ldr	r3, [r2, #0]
 8000bb8:	f043 6380 	orr.w	r3, r3, #67108864	; 0x4000000
 8000bbc:	6013      	str	r3, [r2, #0]
 8000bbe:	f7ff fd1b 	bl	80005f8 <HAL_GetTick>
 8000bc2:	4606      	mov	r6, r0
 8000bc4:	4b61      	ldr	r3, [pc, #388]	; (8000d4c <HAL_RCCEx_PeriphCLKConfig+0x6b4>)
 8000bc6:	681b      	ldr	r3, [r3, #0]
 8000bc8:	011b      	lsls	r3, r3, #4
 8000bca:	f53f aee3 	bmi.w	8000994 <HAL_RCCEx_PeriphCLKConfig+0x2fc>
 8000bce:	f7ff fd13 	bl	80005f8 <HAL_GetTick>
 8000bd2:	1b80      	subs	r0, r0, r6
 8000bd4:	2864      	cmp	r0, #100	; 0x64
 8000bd6:	d9f5      	bls.n	8000bc4 <HAL_RCCEx_PeriphCLKConfig+0x52c>
 8000bd8:	e5bb      	b.n	8000752 <HAL_RCCEx_PeriphCLKConfig+0xba>
 8000bda:	4a5c      	ldr	r2, [pc, #368]	; (8000d4c <HAL_RCCEx_PeriphCLKConfig+0x6b4>)
 8000bdc:	6813      	ldr	r3, [r2, #0]
 8000bde:	f023 5380 	bic.w	r3, r3, #268435456	; 0x10000000
 8000be2:	6013      	str	r3, [r2, #0]
 8000be4:	f7ff fd08 	bl	80005f8 <HAL_GetTick>
 8000be8:	4605      	mov	r5, r0
 8000bea:	4b58      	ldr	r3, [pc, #352]	; (8000d4c <HAL_RCCEx_PeriphCLKConfig+0x6b4>)
 8000bec:	681b      	ldr	r3, [r3, #0]
 8000bee:	009f      	lsls	r7, r3, #2
 8000bf0:	d45a      	bmi.n	8000ca8 <HAL_RCCEx_PeriphCLKConfig+0x610>
 8000bf2:	6821      	ldr	r1, [r4, #0]
 8000bf4:	030e      	lsls	r6, r1, #12
 8000bf6:	d45d      	bmi.n	8000cb4 <HAL_RCCEx_PeriphCLKConfig+0x61c>
 8000bf8:	02cd      	lsls	r5, r1, #11
 8000bfa:	d45e      	bmi.n	8000cba <HAL_RCCEx_PeriphCLKConfig+0x622>
 8000bfc:	0288      	lsls	r0, r1, #10
 8000bfe:	f100 80a7 	bmi.w	8000d50 <HAL_RCCEx_PeriphCLKConfig+0x6b8>
 8000c02:	070a      	lsls	r2, r1, #28
 8000c04:	d541      	bpl.n	8000c8a <HAL_RCCEx_PeriphCLKConfig+0x5f2>
 8000c06:	4d51      	ldr	r5, [pc, #324]	; (8000d4c <HAL_RCCEx_PeriphCLKConfig+0x6b4>)
 8000c08:	f04f 6170 	mov.w	r1, #251658240	; 0xf000000
 8000c0c:	f8d5 3088 	ldr.w	r3, [r5, #136]	; 0x88
 8000c10:	fa91 f7a1 	rbit	r7, r1
 8000c14:	f44f 3040 	mov.w	r0, #196608	; 0x30000
 8000c18:	fab7 f787 	clz	r7, r7
 8000c1c:	f8d5 2088 	ldr.w	r2, [r5, #136]	; 0x88
 8000c20:	fa90 fca0 	rbit	ip, r0
 8000c24:	f647 7ec0 	movw	lr, #32704	; 0x7fc0
 8000c28:	fabc fc8c 	clz	ip, ip
 8000c2c:	fa9e feae 	rbit	lr, lr
 8000c30:	fabe fe8e 	clz	lr, lr
 8000c34:	fa90 f0a0 	rbit	r0, r0
 8000c38:	fab0 f080 	clz	r0, r0
 8000c3c:	fa91 f1a1 	rbit	r1, r1
 8000c40:	f04f 48e0 	mov.w	r8, #1879048192	; 0x70000000
 8000c44:	fab1 f181 	clz	r1, r1
 8000c48:	fa98 f8a8 	rbit	r8, r8
 8000c4c:	69e6      	ldr	r6, [r4, #28]
 8000c4e:	fab8 f888 	clz	r8, r8
 8000c52:	fa06 f808 	lsl.w	r8, r6, r8
 8000c56:	6966      	ldr	r6, [r4, #20]
 8000c58:	f402 3240 	and.w	r2, r2, #196608	; 0x30000
 8000c5c:	fa06 f60e 	lsl.w	r6, r6, lr
 8000c60:	fa22 f20c 	lsr.w	r2, r2, ip
 8000c64:	f003 6370 	and.w	r3, r3, #251658240	; 0xf000000
 8000c68:	ea48 0606 	orr.w	r6, r8, r6
 8000c6c:	4082      	lsls	r2, r0
 8000c6e:	40fb      	lsrs	r3, r7
 8000c70:	4332      	orrs	r2, r6
 8000c72:	408b      	lsls	r3, r1
 8000c74:	4313      	orrs	r3, r2
 8000c76:	f8c5 3088 	str.w	r3, [r5, #136]	; 0x88
 8000c7a:	f8d5 308c 	ldr.w	r3, [r5, #140]	; 0x8c
 8000c7e:	f423 3240 	bic.w	r2, r3, #196608	; 0x30000
 8000c82:	6ae3      	ldr	r3, [r4, #44]	; 0x2c
 8000c84:	4313      	orrs	r3, r2
 8000c86:	f8c5 308c 	str.w	r3, [r5, #140]	; 0x8c
 8000c8a:	4a30      	ldr	r2, [pc, #192]	; (8000d4c <HAL_RCCEx_PeriphCLKConfig+0x6b4>)
 8000c8c:	6813      	ldr	r3, [r2, #0]
 8000c8e:	f043 5380 	orr.w	r3, r3, #268435456	; 0x10000000
 8000c92:	6013      	str	r3, [r2, #0]
 8000c94:	f7ff fcb0 	bl	80005f8 <HAL_GetTick>
 8000c98:	4604      	mov	r4, r0
 8000c9a:	4b2c      	ldr	r3, [pc, #176]	; (8000d4c <HAL_RCCEx_PeriphCLKConfig+0x6b4>)
 8000c9c:	681b      	ldr	r3, [r3, #0]
 8000c9e:	009b      	lsls	r3, r3, #2
 8000ca0:	f140 8097 	bpl.w	8000dd2 <HAL_RCCEx_PeriphCLKConfig+0x73a>
 8000ca4:	2000      	movs	r0, #0
 8000ca6:	e09b      	b.n	8000de0 <HAL_RCCEx_PeriphCLKConfig+0x748>
 8000ca8:	f7ff fca6 	bl	80005f8 <HAL_GetTick>
 8000cac:	1b40      	subs	r0, r0, r5
 8000cae:	2864      	cmp	r0, #100	; 0x64
 8000cb0:	d99b      	bls.n	8000bea <HAL_RCCEx_PeriphCLKConfig+0x552>
 8000cb2:	e54e      	b.n	8000752 <HAL_RCCEx_PeriphCLKConfig+0xba>
 8000cb4:	6be3      	ldr	r3, [r4, #60]	; 0x3c
 8000cb6:	b11b      	cbz	r3, 8000cc0 <HAL_RCCEx_PeriphCLKConfig+0x628>
 8000cb8:	e79e      	b.n	8000bf8 <HAL_RCCEx_PeriphCLKConfig+0x560>
 8000cba:	6c23      	ldr	r3, [r4, #64]	; 0x40
 8000cbc:	2b00      	cmp	r3, #0
 8000cbe:	d19d      	bne.n	8000bfc <HAL_RCCEx_PeriphCLKConfig+0x564>
 8000cc0:	4d22      	ldr	r5, [pc, #136]	; (8000d4c <HAL_RCCEx_PeriphCLKConfig+0x6b4>)
 8000cc2:	f44f 3e40 	mov.w	lr, #196608	; 0x30000
 8000cc6:	f8d5 2088 	ldr.w	r2, [r5, #136]	; 0x88
 8000cca:	fa9e f8ae 	rbit	r8, lr
 8000cce:	f04f 40e0 	mov.w	r0, #1879048192	; 0x70000000
 8000cd2:	fab8 f888 	clz	r8, r8
 8000cd6:	f8d5 3088 	ldr.w	r3, [r5, #136]	; 0x88
 8000cda:	fa90 f7a0 	rbit	r7, r0
 8000cde:	f647 7cc0 	movw	ip, #32704	; 0x7fc0
 8000ce2:	fab7 f787 	clz	r7, r7
 8000ce6:	fa9c fcac 	rbit	ip, ip
 8000cea:	fabc fc8c 	clz	ip, ip
 8000cee:	fa9e feae 	rbit	lr, lr
 8000cf2:	f04f 6970 	mov.w	r9, #251658240	; 0xf000000
 8000cf6:	fabe fe8e 	clz	lr, lr
 8000cfa:	fa99 f9a9 	rbit	r9, r9
 8000cfe:	fab9 f989 	clz	r9, r9
 8000d02:	fa90 f0a0 	rbit	r0, r0
 8000d06:	69a6      	ldr	r6, [r4, #24]
 8000d08:	fab0 f080 	clz	r0, r0
 8000d0c:	fa06 f909 	lsl.w	r9, r6, r9
 8000d10:	6966      	ldr	r6, [r4, #20]
 8000d12:	f402 3240 	and.w	r2, r2, #196608	; 0x30000
 8000d16:	fa06 fc0c 	lsl.w	ip, r6, ip
 8000d1a:	fa22 f208 	lsr.w	r2, r2, r8
 8000d1e:	f003 43e0 	and.w	r3, r3, #1879048192	; 0x70000000
 8000d22:	ea49 060c 	orr.w	r6, r9, ip
 8000d26:	fa02 f20e 	lsl.w	r2, r2, lr
 8000d2a:	40fb      	lsrs	r3, r7
 8000d2c:	4332      	orrs	r2, r6
 8000d2e:	4083      	lsls	r3, r0
 8000d30:	4313      	orrs	r3, r2
 8000d32:	f8c5 3088 	str.w	r3, [r5, #136]	; 0x88
 8000d36:	f8d5 308c 	ldr.w	r3, [r5, #140]	; 0x8c
 8000d3a:	6aa2      	ldr	r2, [r4, #40]	; 0x28
 8000d3c:	f423 53f8 	bic.w	r3, r3, #7936	; 0x1f00
 8000d40:	3a01      	subs	r2, #1
 8000d42:	ea43 2302 	orr.w	r3, r3, r2, lsl #8
 8000d46:	f8c5 308c 	str.w	r3, [r5, #140]	; 0x8c
 8000d4a:	e757      	b.n	8000bfc <HAL_RCCEx_PeriphCLKConfig+0x564>
 8000d4c:	40023800 	andmi	r3, r2, r0, lsl #16
 8000d50:	6fe3      	ldr	r3, [r4, #124]	; 0x7c
 8000d52:	f1b3 6f00 	cmp.w	r3, #134217728	; 0x8000000
 8000d56:	f47f af54 	bne.w	8000c02 <HAL_RCCEx_PeriphCLKConfig+0x56a>
 8000d5a:	4d23      	ldr	r5, [pc, #140]	; (8000de8 <HAL_RCCEx_PeriphCLKConfig+0x750>)
 8000d5c:	f04f 6e70 	mov.w	lr, #251658240	; 0xf000000
 8000d60:	f8d5 2088 	ldr.w	r2, [r5, #136]	; 0x88
 8000d64:	fa9e f8ae 	rbit	r8, lr
 8000d68:	f04f 40e0 	mov.w	r0, #1879048192	; 0x70000000
 8000d6c:	fab8 f888 	clz	r8, r8
 8000d70:	f8d5 3088 	ldr.w	r3, [r5, #136]	; 0x88
 8000d74:	fa90 f7a0 	rbit	r7, r0
 8000d78:	f647 7cc0 	movw	ip, #32704	; 0x7fc0
 8000d7c:	fab7 f787 	clz	r7, r7
 8000d80:	fa9c fcac 	rbit	ip, ip
 8000d84:	f44f 3940 	mov.w	r9, #196608	; 0x30000
 8000d88:	fabc fc8c 	clz	ip, ip
 8000d8c:	fa99 f9a9 	rbit	r9, r9
 8000d90:	fab9 f989 	clz	r9, r9
 8000d94:	fa9e feae 	rbit	lr, lr
 8000d98:	fabe fe8e 	clz	lr, lr
 8000d9c:	fa90 f0a0 	rbit	r0, r0
 8000da0:	6a26      	ldr	r6, [r4, #32]
 8000da2:	fab0 f080 	clz	r0, r0
 8000da6:	fa06 f909 	lsl.w	r9, r6, r9
 8000daa:	6966      	ldr	r6, [r4, #20]
 8000dac:	f002 6270 	and.w	r2, r2, #251658240	; 0xf000000
 8000db0:	fa06 fc0c 	lsl.w	ip, r6, ip
 8000db4:	fa22 f208 	lsr.w	r2, r2, r8
 8000db8:	f003 43e0 	and.w	r3, r3, #1879048192	; 0x70000000
 8000dbc:	ea49 060c 	orr.w	r6, r9, ip
 8000dc0:	fa02 f20e 	lsl.w	r2, r2, lr
 8000dc4:	40fb      	lsrs	r3, r7
 8000dc6:	4332      	orrs	r2, r6
 8000dc8:	4083      	lsls	r3, r0
 8000dca:	4313      	orrs	r3, r2
 8000dcc:	f8c5 3088 	str.w	r3, [r5, #136]	; 0x88
 8000dd0:	e717      	b.n	8000c02 <HAL_RCCEx_PeriphCLKConfig+0x56a>
 8000dd2:	f7ff fc11 	bl	80005f8 <HAL_GetTick>
 8000dd6:	1b00      	subs	r0, r0, r4
 8000dd8:	2864      	cmp	r0, #100	; 0x64
 8000dda:	f67f af5e 	bls.w	8000c9a <HAL_RCCEx_PeriphCLKConfig+0x602>
 8000dde:	e4b8      	b.n	8000752 <HAL_RCCEx_PeriphCLKConfig+0xba>
 8000de0:	b002      	add	sp, #8
 8000de2:	e8bd 87f0 	ldmia.w	sp!, {r4, r5, r6, r7, r8, r9, sl, pc}
 8000de6:	bf00      	nop
 8000de8:	40023800 	andmi	r3, r2, r0, lsl #16

08000dec <HAL_UART_MspInit>:
 8000dec:	4770      	bx	lr

08000dee <UART_WaitOnFlagUntilTimeout>:
 8000dee:	e92d 41f0 	stmdb	sp!, {r4, r5, r6, r7, r8, lr}
 8000df2:	4604      	mov	r4, r0
 8000df4:	460e      	mov	r6, r1
 8000df6:	4690      	mov	r8, r2
 8000df8:	461d      	mov	r5, r3
 8000dfa:	f7ff fbfd 	bl	80005f8 <HAL_GetTick>
 8000dfe:	4607      	mov	r7, r0
 8000e00:	f1b8 0f00 	cmp.w	r8, #0
 8000e04:	d136      	bne.n	8000e74 <UART_WaitOnFlagUntilTimeout+0x86>
 8000e06:	6822      	ldr	r2, [r4, #0]
 8000e08:	69d3      	ldr	r3, [r2, #28]
 8000e0a:	4033      	ands	r3, r6
 8000e0c:	42b3      	cmp	r3, r6
 8000e0e:	d00e      	beq.n	8000e2e <UART_WaitOnFlagUntilTimeout+0x40>
 8000e10:	1c69      	adds	r1, r5, #1
 8000e12:	d0f9      	beq.n	8000e08 <UART_WaitOnFlagUntilTimeout+0x1a>
 8000e14:	b17d      	cbz	r5, 8000e36 <UART_WaitOnFlagUntilTimeout+0x48>
 8000e16:	f7ff fbef 	bl	80005f8 <HAL_GetTick>
 8000e1a:	1bc0      	subs	r0, r0, r7
 8000e1c:	42a8      	cmp	r0, r5
 8000e1e:	d3f2      	bcc.n	8000e06 <UART_WaitOnFlagUntilTimeout+0x18>
 8000e20:	e009      	b.n	8000e36 <UART_WaitOnFlagUntilTimeout+0x48>
 8000e22:	1c6b      	adds	r3, r5, #1
 8000e24:	d106      	bne.n	8000e34 <UART_WaitOnFlagUntilTimeout+0x46>
 8000e26:	69d3      	ldr	r3, [r2, #28]
 8000e28:	4033      	ands	r3, r6
 8000e2a:	42b3      	cmp	r3, r6
 8000e2c:	d0f9      	beq.n	8000e22 <UART_WaitOnFlagUntilTimeout+0x34>
 8000e2e:	2000      	movs	r0, #0
 8000e30:	e8bd 81f0 	ldmia.w	sp!, {r4, r5, r6, r7, r8, pc}
 8000e34:	b9cd      	cbnz	r5, 8000e6a <UART_WaitOnFlagUntilTimeout+0x7c>
 8000e36:	6823      	ldr	r3, [r4, #0]
 8000e38:	681a      	ldr	r2, [r3, #0]
 8000e3a:	f022 0280 	bic.w	r2, r2, #128	; 0x80
 8000e3e:	601a      	str	r2, [r3, #0]
 8000e40:	681a      	ldr	r2, [r3, #0]
 8000e42:	f022 0220 	bic.w	r2, r2, #32
 8000e46:	601a      	str	r2, [r3, #0]
 8000e48:	681a      	ldr	r2, [r3, #0]
 8000e4a:	f422 7280 	bic.w	r2, r2, #256	; 0x100
 8000e4e:	601a      	str	r2, [r3, #0]
 8000e50:	689a      	ldr	r2, [r3, #8]
 8000e52:	f022 0201 	bic.w	r2, r2, #1
 8000e56:	609a      	str	r2, [r3, #8]
 8000e58:	2301      	movs	r3, #1
 8000e5a:	f884 3069 	strb.w	r3, [r4, #105]	; 0x69
 8000e5e:	2300      	movs	r3, #0
 8000e60:	f884 3068 	strb.w	r3, [r4, #104]	; 0x68
 8000e64:	2003      	movs	r0, #3
 8000e66:	e8bd 81f0 	ldmia.w	sp!, {r4, r5, r6, r7, r8, pc}
 8000e6a:	f7ff fbc5 	bl	80005f8 <HAL_GetTick>
 8000e6e:	1bc0      	subs	r0, r0, r7
 8000e70:	42a8      	cmp	r0, r5
 8000e72:	d2e0      	bcs.n	8000e36 <UART_WaitOnFlagUntilTimeout+0x48>
 8000e74:	6822      	ldr	r2, [r4, #0]
 8000e76:	e7d6      	b.n	8000e26 <UART_WaitOnFlagUntilTimeout+0x38>

08000e78 <UART_SetConfig>:
 8000e78:	b538      	push	{r3, r4, r5, lr}
 8000e7a:	4604      	mov	r4, r0
 8000e7c:	6805      	ldr	r5, [r0, #0]
 8000e7e:	68a2      	ldr	r2, [r4, #8]
 8000e80:	6921      	ldr	r1, [r4, #16]
 8000e82:	69c3      	ldr	r3, [r0, #28]
 8000e84:	6828      	ldr	r0, [r5, #0]
 8000e86:	4311      	orrs	r1, r2
 8000e88:	6962      	ldr	r2, [r4, #20]
 8000e8a:	430a      	orrs	r2, r1
 8000e8c:	ea42 0103 	orr.w	r1, r2, r3
 8000e90:	4a81      	ldr	r2, [pc, #516]	; (8001098 <UART_SetConfig+0x220>)
 8000e92:	4002      	ands	r2, r0
 8000e94:	430a      	orrs	r2, r1
 8000e96:	602a      	str	r2, [r5, #0]
 8000e98:	686a      	ldr	r2, [r5, #4]
 8000e9a:	6a20      	ldr	r0, [r4, #32]
 8000e9c:	f422 5140 	bic.w	r1, r2, #12288	; 0x3000
 8000ea0:	68e2      	ldr	r2, [r4, #12]
 8000ea2:	430a      	orrs	r2, r1
 8000ea4:	606a      	str	r2, [r5, #4]
 8000ea6:	68aa      	ldr	r2, [r5, #8]
 8000ea8:	69a1      	ldr	r1, [r4, #24]
 8000eaa:	f422 6230 	bic.w	r2, r2, #2816	; 0xb00
 8000eae:	4301      	orrs	r1, r0
 8000eb0:	430a      	orrs	r2, r1
 8000eb2:	60aa      	str	r2, [r5, #8]
 8000eb4:	4a79      	ldr	r2, [pc, #484]	; (800109c <UART_SetConfig+0x224>)
 8000eb6:	4295      	cmp	r5, r2
 8000eb8:	d107      	bne.n	8000eca <UART_SetConfig+0x52>
 8000eba:	f502 3294 	add.w	r2, r2, #75776	; 0x12800
 8000ebe:	4978      	ldr	r1, [pc, #480]	; (80010a0 <UART_SetConfig+0x228>)
 8000ec0:	f8d2 2090 	ldr.w	r2, [r2, #144]	; 0x90
 8000ec4:	f002 0203 	and.w	r2, r2, #3
 8000ec8:	e009      	b.n	8000ede <UART_SetConfig+0x66>
 8000eca:	4a76      	ldr	r2, [pc, #472]	; (80010a4 <UART_SetConfig+0x22c>)
 8000ecc:	4295      	cmp	r5, r2
 8000ece:	d10c      	bne.n	8000eea <UART_SetConfig+0x72>
 8000ed0:	f502 32fa 	add.w	r2, r2, #128000	; 0x1f400
 8000ed4:	4974      	ldr	r1, [pc, #464]	; (80010a8 <UART_SetConfig+0x230>)
 8000ed6:	f8d2 2090 	ldr.w	r2, [r2, #144]	; 0x90
 8000eda:	f002 020c 	and.w	r2, r2, #12
 8000ede:	f5b3 4f00 	cmp.w	r3, #32768	; 0x8000
 8000ee2:	5c8a      	ldrb	r2, [r1, r2]
 8000ee4:	f040 80b1 	bne.w	800104a <UART_SetConfig+0x1d2>
 8000ee8:	e072      	b.n	8000fd0 <UART_SetConfig+0x158>
 8000eea:	4a70      	ldr	r2, [pc, #448]	; (80010ac <UART_SetConfig+0x234>)
 8000eec:	4295      	cmp	r5, r2
 8000eee:	d10d      	bne.n	8000f0c <UART_SetConfig+0x94>
 8000ef0:	f502 32f8 	add.w	r2, r2, #126976	; 0x1f000
 8000ef4:	f8d2 2090 	ldr.w	r2, [r2, #144]	; 0x90
 8000ef8:	f002 0230 	and.w	r2, r2, #48	; 0x30
 8000efc:	2a10      	cmp	r2, #16
 8000efe:	f000 8082 	beq.w	8001006 <UART_SetConfig+0x18e>
 8000f02:	d95d      	bls.n	8000fc0 <UART_SetConfig+0x148>
 8000f04:	2a20      	cmp	r2, #32
 8000f06:	d078      	beq.n	8000ffa <UART_SetConfig+0x182>
 8000f08:	2a30      	cmp	r2, #48	; 0x30
 8000f0a:	e00e      	b.n	8000f2a <UART_SetConfig+0xb2>
 8000f0c:	4a68      	ldr	r2, [pc, #416]	; (80010b0 <UART_SetConfig+0x238>)
 8000f0e:	4295      	cmp	r5, r2
 8000f10:	d10d      	bne.n	8000f2e <UART_SetConfig+0xb6>
 8000f12:	f502 32f6 	add.w	r2, r2, #125952	; 0x1ec00
 8000f16:	f8d2 2090 	ldr.w	r2, [r2, #144]	; 0x90
 8000f1a:	f002 02c0 	and.w	r2, r2, #192	; 0xc0
 8000f1e:	2a40      	cmp	r2, #64	; 0x40
 8000f20:	d071      	beq.n	8001006 <UART_SetConfig+0x18e>
 8000f22:	d94d      	bls.n	8000fc0 <UART_SetConfig+0x148>
 8000f24:	2a80      	cmp	r2, #128	; 0x80
 8000f26:	d068      	beq.n	8000ffa <UART_SetConfig+0x182>
 8000f28:	2ac0      	cmp	r2, #192	; 0xc0
 8000f2a:	d076      	beq.n	800101a <UART_SetConfig+0x1a2>
 8000f2c:	e080      	b.n	8001030 <UART_SetConfig+0x1b8>
 8000f2e:	4a61      	ldr	r2, [pc, #388]	; (80010b4 <UART_SetConfig+0x23c>)
 8000f30:	4295      	cmp	r5, r2
 8000f32:	d10f      	bne.n	8000f54 <UART_SetConfig+0xdc>
 8000f34:	f502 32f4 	add.w	r2, r2, #124928	; 0x1e800
 8000f38:	f8d2 2090 	ldr.w	r2, [r2, #144]	; 0x90
 8000f3c:	f402 7240 	and.w	r2, r2, #768	; 0x300
 8000f40:	f5b2 7f80 	cmp.w	r2, #256	; 0x100
 8000f44:	d05f      	beq.n	8001006 <UART_SetConfig+0x18e>
 8000f46:	d93b      	bls.n	8000fc0 <UART_SetConfig+0x148>
 8000f48:	f5b2 7f00 	cmp.w	r2, #512	; 0x200
 8000f4c:	d055      	beq.n	8000ffa <UART_SetConfig+0x182>
 8000f4e:	f5b2 7f40 	cmp.w	r2, #768	; 0x300
 8000f52:	e7ea      	b.n	8000f2a <UART_SetConfig+0xb2>
 8000f54:	4a58      	ldr	r2, [pc, #352]	; (80010b8 <UART_SetConfig+0x240>)
 8000f56:	4295      	cmp	r5, r2
 8000f58:	d112      	bne.n	8000f80 <UART_SetConfig+0x108>
 8000f5a:	f502 3292 	add.w	r2, r2, #74752	; 0x12400
 8000f5e:	f8d2 2090 	ldr.w	r2, [r2, #144]	; 0x90
 8000f62:	f402 6240 	and.w	r2, r2, #3072	; 0xc00
 8000f66:	f5b2 6f80 	cmp.w	r2, #1024	; 0x400
 8000f6a:	d04c      	beq.n	8001006 <UART_SetConfig+0x18e>
 8000f6c:	d802      	bhi.n	8000f74 <UART_SetConfig+0xfc>
 8000f6e:	2a00      	cmp	r2, #0
 8000f70:	d03d      	beq.n	8000fee <UART_SetConfig+0x176>
 8000f72:	e05d      	b.n	8001030 <UART_SetConfig+0x1b8>
 8000f74:	f5b2 6f00 	cmp.w	r2, #2048	; 0x800
 8000f78:	d03f      	beq.n	8000ffa <UART_SetConfig+0x182>
 8000f7a:	f5b2 6f40 	cmp.w	r2, #3072	; 0xc00
 8000f7e:	e7d4      	b.n	8000f2a <UART_SetConfig+0xb2>
 8000f80:	4a4e      	ldr	r2, [pc, #312]	; (80010bc <UART_SetConfig+0x244>)
 8000f82:	4295      	cmp	r5, r2
 8000f84:	d10f      	bne.n	8000fa6 <UART_SetConfig+0x12e>
 8000f86:	f502 32e0 	add.w	r2, r2, #114688	; 0x1c000
 8000f8a:	f8d2 2090 	ldr.w	r2, [r2, #144]	; 0x90
 8000f8e:	f402 5240 	and.w	r2, r2, #12288	; 0x3000
 8000f92:	f5b2 5f80 	cmp.w	r2, #4096	; 0x1000
 8000f96:	d036      	beq.n	8001006 <UART_SetConfig+0x18e>
 8000f98:	d912      	bls.n	8000fc0 <UART_SetConfig+0x148>
 8000f9a:	f5b2 5f00 	cmp.w	r2, #8192	; 0x2000
 8000f9e:	d02c      	beq.n	8000ffa <UART_SetConfig+0x182>
 8000fa0:	f5b2 5f40 	cmp.w	r2, #12288	; 0x3000
 8000fa4:	e7c1      	b.n	8000f2a <UART_SetConfig+0xb2>
 8000fa6:	4a46      	ldr	r2, [pc, #280]	; (80010c0 <UART_SetConfig+0x248>)
 8000fa8:	4295      	cmp	r5, r2
 8000faa:	d141      	bne.n	8001030 <UART_SetConfig+0x1b8>
 8000fac:	f502 32de 	add.w	r2, r2, #113664	; 0x1bc00
 8000fb0:	f8d2 2090 	ldr.w	r2, [r2, #144]	; 0x90
 8000fb4:	f402 4240 	and.w	r2, r2, #49152	; 0xc000
 8000fb8:	f5b2 4f80 	cmp.w	r2, #16384	; 0x4000
 8000fbc:	d023      	beq.n	8001006 <UART_SetConfig+0x18e>
 8000fbe:	d801      	bhi.n	8000fc4 <UART_SetConfig+0x14c>
 8000fc0:	b17a      	cbz	r2, 8000fe2 <UART_SetConfig+0x16a>
 8000fc2:	e035      	b.n	8001030 <UART_SetConfig+0x1b8>
 8000fc4:	f5b2 4f00 	cmp.w	r2, #32768	; 0x8000
 8000fc8:	d017      	beq.n	8000ffa <UART_SetConfig+0x182>
 8000fca:	f5b2 4f40 	cmp.w	r2, #49152	; 0xc000
 8000fce:	e7ac      	b.n	8000f2a <UART_SetConfig+0xb2>
 8000fd0:	2a08      	cmp	r2, #8
 8000fd2:	d830      	bhi.n	8001036 <UART_SetConfig+0x1be>
 8000fd4:	e8df f002 	tbb	[pc, r2]
 8000fd8:	2f140e08 	svccs	0x00140e08
 8000fdc:	2f2f2f1a 	svccs	0x002f2f1a
 8000fe0:	f5b30024 			; <UNDEFINED> instruction: 0xf5b30024
 8000fe4:	4f00      	ldr	r7, [pc, #0]	; (8000fe8 <UART_SetConfig+0x170>)
 8000fe6:	d139      	bne.n	800105c <UART_SetConfig+0x1e4>
 8000fe8:	f000 fccc 	bl	8001984 <HAL_RCC_GetPCLK1Freq>
 8000fec:	e010      	b.n	8001010 <UART_SetConfig+0x198>
 8000fee:	f5b3 4f00 	cmp.w	r3, #32768	; 0x8000
 8000ff2:	d136      	bne.n	8001062 <UART_SetConfig+0x1ea>
 8000ff4:	f000 fcdc 	bl	80019b0 <HAL_RCC_GetPCLK2Freq>
 8000ff8:	e00a      	b.n	8001010 <UART_SetConfig+0x198>
 8000ffa:	f5b3 4f00 	cmp.w	r3, #32768	; 0x8000
 8000ffe:	d133      	bne.n	8001068 <UART_SetConfig+0x1f0>
 8001000:	6860      	ldr	r0, [r4, #4]
 8001002:	4b30      	ldr	r3, [pc, #192]	; (80010c4 <UART_SetConfig+0x24c>)
 8001004:	e00f      	b.n	8001026 <UART_SetConfig+0x1ae>
 8001006:	f5b3 4f00 	cmp.w	r3, #32768	; 0x8000
 800100a:	d133      	bne.n	8001074 <UART_SetConfig+0x1fc>
 800100c:	f000 fc60 	bl	80018d0 <HAL_RCC_GetSysClockFreq>
 8001010:	0040      	lsls	r0, r0, #1
 8001012:	6863      	ldr	r3, [r4, #4]
 8001014:	fbb0 f3f3 	udiv	r3, r0, r3
 8001018:	e007      	b.n	800102a <UART_SetConfig+0x1b2>
 800101a:	f5b3 4f00 	cmp.w	r3, #32768	; 0x8000
 800101e:	d131      	bne.n	8001084 <UART_SetConfig+0x20c>
 8001020:	6860      	ldr	r0, [r4, #4]
 8001022:	f44f 3380 	mov.w	r3, #65536	; 0x10000
 8001026:	fbb3 f3f0 	udiv	r3, r3, r0
 800102a:	b29b      	uxth	r3, r3
 800102c:	2000      	movs	r0, #0
 800102e:	e004      	b.n	800103a <UART_SetConfig+0x1c2>
 8001030:	f5b3 4f00 	cmp.w	r3, #32768	; 0x8000
 8001034:	d12e      	bne.n	8001094 <UART_SetConfig+0x21c>
 8001036:	2001      	movs	r0, #1
 8001038:	2300      	movs	r3, #0
 800103a:	f023 010f 	bic.w	r1, r3, #15
 800103e:	6822      	ldr	r2, [r4, #0]
 8001040:	f3c3 0342 	ubfx	r3, r3, #1, #3
 8001044:	430b      	orrs	r3, r1
 8001046:	60d3      	str	r3, [r2, #12]
 8001048:	bd38      	pop	{r3, r4, r5, pc}
 800104a:	2a08      	cmp	r2, #8
 800104c:	d822      	bhi.n	8001094 <UART_SetConfig+0x21c>
 800104e:	e8df f002 	tbb	[pc, r2]
 8001052:	210b0805 	tstcs	fp, r5, lsl #16
 8001056:	21212111 			; <UNDEFINED> instruction: 0x21212111
 800105a:	f0000019 			; <UNDEFINED> instruction: 0xf0000019
 800105e:	fc92 e00a 	ldc2	0, cr14, [r2], {10}
 8001062:	f000 fca5 	bl	80019b0 <HAL_RCC_GetPCLK2Freq>
 8001066:	e007      	b.n	8001078 <UART_SetConfig+0x200>
 8001068:	6862      	ldr	r2, [r4, #4]
 800106a:	4b17      	ldr	r3, [pc, #92]	; (80010c8 <UART_SetConfig+0x250>)
 800106c:	fbb3 f3f2 	udiv	r3, r3, r2
 8001070:	b29b      	uxth	r3, r3
 8001072:	e00c      	b.n	800108e <UART_SetConfig+0x216>
 8001074:	f000 fc2c 	bl	80018d0 <HAL_RCC_GetSysClockFreq>
 8001078:	6863      	ldr	r3, [r4, #4]
 800107a:	fbb0 f0f3 	udiv	r0, r0, r3
 800107e:	b280      	uxth	r0, r0
 8001080:	60e8      	str	r0, [r5, #12]
 8001082:	e005      	b.n	8001090 <UART_SetConfig+0x218>
 8001084:	6862      	ldr	r2, [r4, #4]
 8001086:	f44f 4300 	mov.w	r3, #32768	; 0x8000
 800108a:	fbb3 f3f2 	udiv	r3, r3, r2
 800108e:	60eb      	str	r3, [r5, #12]
 8001090:	2000      	movs	r0, #0
 8001092:	bd38      	pop	{r3, r4, r5, pc}
 8001094:	2001      	movs	r0, #1
 8001096:	bd38      	pop	{r3, r4, r5, pc}
 8001098:	efff69f3 	svc	0x00ff69f3
 800109c:	40011000 	andmi	r1, r1, r0
 80010a0:	08005bd5 	stmdaeq	r0, {r0, r2, r4, r6, r7, r8, r9, fp, ip, lr}
 80010a4:	40004400 	andmi	r4, r0, r0, lsl #8
 80010a8:	08005bc8 	stmdaeq	r0, {r3, r6, r7, r8, r9, fp, ip, lr}
 80010ac:	40004800 	andmi	r4, r0, r0, lsl #16
 80010b0:	40004c00 	andmi	r4, r0, r0, lsl #24
 80010b4:	40005000 	andmi	r5, r0, r0
 80010b8:	40011400 	andmi	r1, r1, r0, lsl #8
 80010bc:	40007800 	andmi	r7, r0, r0, lsl #16
 80010c0:	40007c00 	andmi	r7, r0, r0, lsl #24
 80010c4:	01e84800 	mvneq	r4, r0, lsl #16
 80010c8:	00f42400 	rscseq	r2, r4, r0, lsl #8

080010cc <UART_AdvFeatureConfig>:
 80010cc:	6a43      	ldr	r3, [r0, #36]	; 0x24
 80010ce:	07da      	lsls	r2, r3, #31
 80010d0:	b510      	push	{r4, lr}
 80010d2:	bf41      	itttt	mi
 80010d4:	6804      	ldrmi	r4, [r0, #0]
 80010d6:	6862      	ldrmi	r2, [r4, #4]
 80010d8:	f422 3100 	bicmi.w	r1, r2, #131072	; 0x20000
 80010dc:	6a82      	ldrmi	r2, [r0, #40]	; 0x28
 80010de:	bf44      	itt	mi
 80010e0:	430a      	orrmi	r2, r1
 80010e2:	6062      	strmi	r2, [r4, #4]
 80010e4:	079c      	lsls	r4, r3, #30
 80010e6:	bf41      	itttt	mi
 80010e8:	6804      	ldrmi	r4, [r0, #0]
 80010ea:	6862      	ldrmi	r2, [r4, #4]
 80010ec:	f422 3180 	bicmi.w	r1, r2, #65536	; 0x10000
 80010f0:	6ac2      	ldrmi	r2, [r0, #44]	; 0x2c
 80010f2:	bf44      	itt	mi
 80010f4:	430a      	orrmi	r2, r1
 80010f6:	6062      	strmi	r2, [r4, #4]
 80010f8:	0759      	lsls	r1, r3, #29
 80010fa:	bf41      	itttt	mi
 80010fc:	6804      	ldrmi	r4, [r0, #0]
 80010fe:	6862      	ldrmi	r2, [r4, #4]
 8001100:	f422 2180 	bicmi.w	r1, r2, #262144	; 0x40000
 8001104:	6b02      	ldrmi	r2, [r0, #48]	; 0x30
 8001106:	bf44      	itt	mi
 8001108:	430a      	orrmi	r2, r1
 800110a:	6062      	strmi	r2, [r4, #4]
 800110c:	071a      	lsls	r2, r3, #28
 800110e:	bf41      	itttt	mi
 8001110:	6804      	ldrmi	r4, [r0, #0]
 8001112:	6862      	ldrmi	r2, [r4, #4]
 8001114:	f422 4100 	bicmi.w	r1, r2, #32768	; 0x8000
 8001118:	6b42      	ldrmi	r2, [r0, #52]	; 0x34
 800111a:	bf44      	itt	mi
 800111c:	430a      	orrmi	r2, r1
 800111e:	6062      	strmi	r2, [r4, #4]
 8001120:	06dc      	lsls	r4, r3, #27
 8001122:	bf41      	itttt	mi
 8001124:	6804      	ldrmi	r4, [r0, #0]
 8001126:	68a2      	ldrmi	r2, [r4, #8]
 8001128:	f422 5180 	bicmi.w	r1, r2, #4096	; 0x1000
 800112c:	6b82      	ldrmi	r2, [r0, #56]	; 0x38
 800112e:	bf44      	itt	mi
 8001130:	430a      	orrmi	r2, r1
 8001132:	60a2      	strmi	r2, [r4, #8]
 8001134:	0699      	lsls	r1, r3, #26
 8001136:	bf41      	itttt	mi
 8001138:	6804      	ldrmi	r4, [r0, #0]
 800113a:	68a2      	ldrmi	r2, [r4, #8]
 800113c:	f422 5100 	bicmi.w	r1, r2, #8192	; 0x2000
 8001140:	6bc2      	ldrmi	r2, [r0, #60]	; 0x3c
 8001142:	bf44      	itt	mi
 8001144:	430a      	orrmi	r2, r1
 8001146:	60a2      	strmi	r2, [r4, #8]
 8001148:	065a      	lsls	r2, r3, #25
 800114a:	d510      	bpl.n	800116e <UART_AdvFeatureConfig+0xa2>
 800114c:	6801      	ldr	r1, [r0, #0]
 800114e:	6c04      	ldr	r4, [r0, #64]	; 0x40
 8001150:	684a      	ldr	r2, [r1, #4]
 8001152:	f422 1280 	bic.w	r2, r2, #1048576	; 0x100000
 8001156:	4322      	orrs	r2, r4
 8001158:	f5b4 1f80 	cmp.w	r4, #1048576	; 0x100000
 800115c:	604a      	str	r2, [r1, #4]
 800115e:	bf01      	itttt	eq
 8001160:	684a      	ldreq	r2, [r1, #4]
 8001162:	f422 04c0 	biceq.w	r4, r2, #6291456	; 0x600000
 8001166:	6c42      	ldreq	r2, [r0, #68]	; 0x44
 8001168:	4322      	orreq	r2, r4
 800116a:	bf08      	it	eq
 800116c:	604a      	streq	r2, [r1, #4]
 800116e:	061b      	lsls	r3, r3, #24
 8001170:	bf41      	itttt	mi
 8001172:	6801      	ldrmi	r1, [r0, #0]
 8001174:	684b      	ldrmi	r3, [r1, #4]
 8001176:	f423 2200 	bicmi.w	r2, r3, #524288	; 0x80000
 800117a:	6c83      	ldrmi	r3, [r0, #72]	; 0x48
 800117c:	bf44      	itt	mi
 800117e:	4313      	orrmi	r3, r2
 8001180:	604b      	strmi	r3, [r1, #4]
 8001182:	bd10      	pop	{r4, pc}

08001184 <UART_CheckIdleState>:
 8001184:	2200      	movs	r2, #0
 8001186:	6803      	ldr	r3, [r0, #0]
 8001188:	b510      	push	{r4, lr}
 800118a:	66c2      	str	r2, [r0, #108]	; 0x6c
 800118c:	681b      	ldr	r3, [r3, #0]
 800118e:	0719      	lsls	r1, r3, #28
 8001190:	4604      	mov	r4, r0
 8001192:	d404      	bmi.n	800119e <UART_CheckIdleState+0x1a>
 8001194:	6823      	ldr	r3, [r4, #0]
 8001196:	681b      	ldr	r3, [r3, #0]
 8001198:	075b      	lsls	r3, r3, #29
 800119a:	d514      	bpl.n	80011c6 <UART_CheckIdleState+0x42>
 800119c:	e009      	b.n	80011b2 <UART_CheckIdleState+0x2e>
 800119e:	f44f 1100 	mov.w	r1, #2097152	; 0x200000
 80011a2:	f06f 437e 	mvn.w	r3, #4261412864	; 0xfe000000
 80011a6:	f7ff fe22 	bl	8000dee <UART_WaitOnFlagUntilTimeout>
 80011aa:	2800      	cmp	r0, #0
 80011ac:	d0f2      	beq.n	8001194 <UART_CheckIdleState+0x10>
 80011ae:	2003      	movs	r0, #3
 80011b0:	bd10      	pop	{r4, pc}
 80011b2:	4620      	mov	r0, r4
 80011b4:	f44f 0180 	mov.w	r1, #4194304	; 0x400000
 80011b8:	2200      	movs	r2, #0
 80011ba:	f06f 437e 	mvn.w	r3, #4261412864	; 0xfe000000
 80011be:	f7ff fe16 	bl	8000dee <UART_WaitOnFlagUntilTimeout>
 80011c2:	2800      	cmp	r0, #0
 80011c4:	d1f3      	bne.n	80011ae <UART_CheckIdleState+0x2a>
 80011c6:	2301      	movs	r3, #1
 80011c8:	2000      	movs	r0, #0
 80011ca:	f884 3069 	strb.w	r3, [r4, #105]	; 0x69
 80011ce:	f884 0068 	strb.w	r0, [r4, #104]	; 0x68
 80011d2:	bd10      	pop	{r4, pc}

080011d4 <HAL_UART_Init>:
 80011d4:	b510      	push	{r4, lr}
 80011d6:	4604      	mov	r4, r0
 80011d8:	b360      	cbz	r0, 8001234 <HAL_UART_Init+0x60>
 80011da:	f890 3069 	ldrb.w	r3, [r0, #105]	; 0x69
 80011de:	f003 02ff 	and.w	r2, r3, #255	; 0xff
 80011e2:	b91b      	cbnz	r3, 80011ec <HAL_UART_Init+0x18>
 80011e4:	f880 2068 	strb.w	r2, [r0, #104]	; 0x68
 80011e8:	f7ff fe00 	bl	8000dec <HAL_UART_MspInit>
 80011ec:	6822      	ldr	r2, [r4, #0]
 80011ee:	2302      	movs	r3, #2
 80011f0:	f884 3069 	strb.w	r3, [r4, #105]	; 0x69
 80011f4:	6813      	ldr	r3, [r2, #0]
 80011f6:	f023 0301 	bic.w	r3, r3, #1
 80011fa:	6013      	str	r3, [r2, #0]
 80011fc:	4620      	mov	r0, r4
 80011fe:	f7ff fe3b 	bl	8000e78 <UART_SetConfig>
 8001202:	2801      	cmp	r0, #1
 8001204:	d016      	beq.n	8001234 <HAL_UART_Init+0x60>
 8001206:	6a63      	ldr	r3, [r4, #36]	; 0x24
 8001208:	b113      	cbz	r3, 8001210 <HAL_UART_Init+0x3c>
 800120a:	4620      	mov	r0, r4
 800120c:	f7ff ff5e 	bl	80010cc <UART_AdvFeatureConfig>
 8001210:	6823      	ldr	r3, [r4, #0]
 8001212:	685a      	ldr	r2, [r3, #4]
 8001214:	f422 4290 	bic.w	r2, r2, #18432	; 0x4800
 8001218:	605a      	str	r2, [r3, #4]
 800121a:	689a      	ldr	r2, [r3, #8]
 800121c:	f022 022a 	bic.w	r2, r2, #42	; 0x2a
 8001220:	609a      	str	r2, [r3, #8]
 8001222:	681a      	ldr	r2, [r3, #0]
 8001224:	f042 0201 	orr.w	r2, r2, #1
 8001228:	4620      	mov	r0, r4
 800122a:	601a      	str	r2, [r3, #0]
 800122c:	e8bd 4010 	ldmia.w	sp!, {r4, lr}
 8001230:	f7ff bfa8 	b.w	8001184 <UART_CheckIdleState>
 8001234:	2001      	movs	r0, #1
 8001236:	bd10      	pop	{r4, pc}

08001238 <HAL_NVIC_SetPriorityGrouping>:
 8001238:	4a07      	ldr	r2, [pc, #28]	; (8001258 <HAL_NVIC_SetPriorityGrouping+0x20>)
 800123a:	68d3      	ldr	r3, [r2, #12]
 800123c:	f423 63e0 	bic.w	r3, r3, #1792	; 0x700
 8001240:	041b      	lsls	r3, r3, #16
 8001242:	0c1b      	lsrs	r3, r3, #16
 8001244:	f043 63bf 	orr.w	r3, r3, #100139008	; 0x5f80000
 8001248:	f443 3300 	orr.w	r3, r3, #131072	; 0x20000
 800124c:	f000 0007 	and.w	r0, r0, #7
 8001250:	ea43 2300 	orr.w	r3, r3, r0, lsl #8
 8001254:	60d3      	str	r3, [r2, #12]
 8001256:	4770      	bx	lr
 8001258:	e000ed00 	and	lr, r0, r0, lsl #26

0800125c <HAL_NVIC_SetPriority>:
 800125c:	4b15      	ldr	r3, [pc, #84]	; (80012b4 <HAL_NVIC_SetPriority+0x58>)
 800125e:	68db      	ldr	r3, [r3, #12]
 8001260:	f3c3 2302 	ubfx	r3, r3, #8, #3
 8001264:	b570      	push	{r4, r5, r6, lr}
 8001266:	f1c3 0507 	rsb	r5, r3, #7
 800126a:	1d1c      	adds	r4, r3, #4
 800126c:	2d04      	cmp	r5, #4
 800126e:	bf28      	it	cs
 8001270:	2504      	movcs	r5, #4
 8001272:	2c06      	cmp	r4, #6
 8001274:	bf8c      	ite	hi
 8001276:	3b03      	subhi	r3, #3
 8001278:	2300      	movls	r3, #0
 800127a:	2401      	movs	r4, #1
 800127c:	fa04 f603 	lsl.w	r6, r4, r3
 8001280:	40ac      	lsls	r4, r5
 8001282:	3c01      	subs	r4, #1
 8001284:	3e01      	subs	r6, #1
 8001286:	4021      	ands	r1, r4
 8001288:	4099      	lsls	r1, r3
 800128a:	4032      	ands	r2, r6
 800128c:	2800      	cmp	r0, #0
 800128e:	ea42 0201 	orr.w	r2, r2, r1
 8001292:	ea4f 1202 	mov.w	r2, r2, lsl #4
 8001296:	bfaf      	iteee	ge
 8001298:	f100 4060 	addge.w	r0, r0, #3758096384	; 0xe0000000
 800129c:	f000 000f 	andlt.w	r0, r0, #15
 80012a0:	4b05      	ldrlt	r3, [pc, #20]	; (80012b8 <HAL_NVIC_SetPriority+0x5c>)
 80012a2:	b2d2      	uxtblt	r2, r2
 80012a4:	bfa5      	ittet	ge
 80012a6:	f500 4061 	addge.w	r0, r0, #57600	; 0xe100
 80012aa:	b2d2      	uxtbge	r2, r2
 80012ac:	541a      	strblt	r2, [r3, r0]
 80012ae:	f880 2300 	strbge.w	r2, [r0, #768]	; 0x300
 80012b2:	bd70      	pop	{r4, r5, r6, pc}
 80012b4:	e000ed00 	and	lr, r0, r0, lsl #26
 80012b8:	e000ed14 	and	lr, r0, r4, lsl sp

080012bc <HAL_NVIC_EnableIRQ>:
 80012bc:	0941      	lsrs	r1, r0, #5
 80012be:	2301      	movs	r3, #1
 80012c0:	f000 001f 	and.w	r0, r0, #31
 80012c4:	4a02      	ldr	r2, [pc, #8]	; (80012d0 <HAL_NVIC_EnableIRQ+0x14>)
 80012c6:	4083      	lsls	r3, r0
 80012c8:	f842 3021 	str.w	r3, [r2, r1, lsl #2]
 80012cc:	4770      	bx	lr
 80012ce:	bf00      	nop
 80012d0:	e000e100 	and	lr, r0, r0, lsl #2

080012d4 <HAL_SYSTICK_Config>:
 80012d4:	3801      	subs	r0, #1
 80012d6:	f1b0 7f80 	cmp.w	r0, #16777216	; 0x1000000
 80012da:	bf3f      	itttt	cc
 80012dc:	4b06      	ldrcc	r3, [pc, #24]	; (80012f8 <HAL_SYSTICK_Config+0x24>)
 80012de:	4a07      	ldrcc	r2, [pc, #28]	; (80012fc <HAL_SYSTICK_Config+0x28>)
 80012e0:	6058      	strcc	r0, [r3, #4]
 80012e2:	21f0      	movcc	r1, #240	; 0xf0
 80012e4:	bf3f      	itttt	cc
 80012e6:	f882 1023 	strbcc.w	r1, [r2, #35]	; 0x23
 80012ea:	2000      	movcc	r0, #0
 80012ec:	2207      	movcc	r2, #7
 80012ee:	6098      	strcc	r0, [r3, #8]
 80012f0:	bf34      	ite	cc
 80012f2:	601a      	strcc	r2, [r3, #0]
 80012f4:	2001      	movcs	r0, #1
 80012f6:	4770      	bx	lr
 80012f8:	e000e010 	and	lr, r0, r0, lsl r0
 80012fc:	e000ed00 	and	lr, r0, r0, lsl #26

08001300 <HAL_MPU_ConfigRegion>:
 8001300:	4911      	ldr	r1, [pc, #68]	; (8001348 <HAL_MPU_ConfigRegion+0x48>)
 8001302:	7843      	ldrb	r3, [r0, #1]
 8001304:	608b      	str	r3, [r1, #8]
 8001306:	7803      	ldrb	r3, [r0, #0]
 8001308:	b1db      	cbz	r3, 8001342 <HAL_MPU_ConfigRegion+0x42>
 800130a:	6843      	ldr	r3, [r0, #4]
 800130c:	60cb      	str	r3, [r1, #12]
 800130e:	7ac3      	ldrb	r3, [r0, #11]
 8001310:	7b02      	ldrb	r2, [r0, #12]
 8001312:	061b      	lsls	r3, r3, #24
 8001314:	ea43 7302 	orr.w	r3, r3, r2, lsl #28
 8001318:	7802      	ldrb	r2, [r0, #0]
 800131a:	4313      	orrs	r3, r2
 800131c:	7a82      	ldrb	r2, [r0, #10]
 800131e:	ea43 43c2 	orr.w	r3, r3, r2, lsl #19
 8001322:	7b42      	ldrb	r2, [r0, #13]
 8001324:	ea43 4382 	orr.w	r3, r3, r2, lsl #18
 8001328:	7b82      	ldrb	r2, [r0, #14]
 800132a:	ea43 4342 	orr.w	r3, r3, r2, lsl #17
 800132e:	7bc2      	ldrb	r2, [r0, #15]
 8001330:	ea43 4302 	orr.w	r3, r3, r2, lsl #16
 8001334:	7a42      	ldrb	r2, [r0, #9]
 8001336:	ea43 2302 	orr.w	r3, r3, r2, lsl #8
 800133a:	7a02      	ldrb	r2, [r0, #8]
 800133c:	ea43 0342 	orr.w	r3, r3, r2, lsl #1
 8001340:	e000      	b.n	8001344 <HAL_MPU_ConfigRegion+0x44>
 8001342:	60cb      	str	r3, [r1, #12]
 8001344:	610b      	str	r3, [r1, #16]
 8001346:	4770      	bx	lr
 8001348:	e000ed90 	mul	r0, r0, sp

0800134c <HAL_RCC_OscConfig>:
 800134c:	6803      	ldr	r3, [r0, #0]
 800134e:	b573      	push	{r0, r1, r4, r5, r6, lr}
 8001350:	07de      	lsls	r6, r3, #31
 8001352:	4604      	mov	r4, r0
 8001354:	d403      	bmi.n	800135e <HAL_RCC_OscConfig+0x12>
 8001356:	6823      	ldr	r3, [r4, #0]
 8001358:	079d      	lsls	r5, r3, #30
 800135a:	d470      	bmi.n	800143e <HAL_RCC_OscConfig+0xf2>
 800135c:	e0c2      	b.n	80014e4 <HAL_RCC_OscConfig+0x198>
 800135e:	4ba4      	ldr	r3, [pc, #656]	; (80015f0 <HAL_RCC_OscConfig+0x2a4>)
 8001360:	689a      	ldr	r2, [r3, #8]
 8001362:	f002 020c 	and.w	r2, r2, #12
 8001366:	2a04      	cmp	r2, #4
 8001368:	d007      	beq.n	800137a <HAL_RCC_OscConfig+0x2e>
 800136a:	689a      	ldr	r2, [r3, #8]
 800136c:	f002 020c 	and.w	r2, r2, #12
 8001370:	2a08      	cmp	r2, #8
 8001372:	d10b      	bne.n	800138c <HAL_RCC_OscConfig+0x40>
 8001374:	685b      	ldr	r3, [r3, #4]
 8001376:	0258      	lsls	r0, r3, #9
 8001378:	d508      	bpl.n	800138c <HAL_RCC_OscConfig+0x40>
 800137a:	4b9d      	ldr	r3, [pc, #628]	; (80015f0 <HAL_RCC_OscConfig+0x2a4>)
 800137c:	681b      	ldr	r3, [r3, #0]
 800137e:	0399      	lsls	r1, r3, #14
 8001380:	d5e9      	bpl.n	8001356 <HAL_RCC_OscConfig+0xa>
 8001382:	6863      	ldr	r3, [r4, #4]
 8001384:	2b00      	cmp	r3, #0
 8001386:	d1e6      	bne.n	8001356 <HAL_RCC_OscConfig+0xa>
 8001388:	2001      	movs	r0, #1
 800138a:	e1b3      	b.n	80016f4 <HAL_RCC_OscConfig+0x3a8>
 800138c:	4b98      	ldr	r3, [pc, #608]	; (80015f0 <HAL_RCC_OscConfig+0x2a4>)
 800138e:	681a      	ldr	r2, [r3, #0]
 8001390:	f422 3280 	bic.w	r2, r2, #65536	; 0x10000
 8001394:	601a      	str	r2, [r3, #0]
 8001396:	681a      	ldr	r2, [r3, #0]
 8001398:	f422 2280 	bic.w	r2, r2, #262144	; 0x40000
 800139c:	601a      	str	r2, [r3, #0]
 800139e:	681a      	ldr	r2, [r3, #0]
 80013a0:	f422 3280 	bic.w	r2, r2, #65536	; 0x10000
 80013a4:	601a      	str	r2, [r3, #0]
 80013a6:	f7ff f927 	bl	80005f8 <HAL_GetTick>
 80013aa:	4605      	mov	r5, r0
 80013ac:	4b90      	ldr	r3, [pc, #576]	; (80015f0 <HAL_RCC_OscConfig+0x2a4>)
 80013ae:	681a      	ldr	r2, [r3, #0]
 80013b0:	0392      	lsls	r2, r2, #14
 80013b2:	d507      	bpl.n	80013c4 <HAL_RCC_OscConfig+0x78>
 80013b4:	f7ff f920 	bl	80005f8 <HAL_GetTick>
 80013b8:	1b40      	subs	r0, r0, r5
 80013ba:	f5b0 7ffa 	cmp.w	r0, #500	; 0x1f4
 80013be:	d9f5      	bls.n	80013ac <HAL_RCC_OscConfig+0x60>
 80013c0:	2003      	movs	r0, #3
 80013c2:	e197      	b.n	80016f4 <HAL_RCC_OscConfig+0x3a8>
 80013c4:	681a      	ldr	r2, [r3, #0]
 80013c6:	f422 3280 	bic.w	r2, r2, #65536	; 0x10000
 80013ca:	601a      	str	r2, [r3, #0]
 80013cc:	6862      	ldr	r2, [r4, #4]
 80013ce:	f5b2 3f80 	cmp.w	r2, #65536	; 0x10000
 80013d2:	d103      	bne.n	80013dc <HAL_RCC_OscConfig+0x90>
 80013d4:	681a      	ldr	r2, [r3, #0]
 80013d6:	f422 2280 	bic.w	r2, r2, #262144	; 0x40000
 80013da:	e005      	b.n	80013e8 <HAL_RCC_OscConfig+0x9c>
 80013dc:	f5b2 2fa0 	cmp.w	r2, #327680	; 0x50000
 80013e0:	d108      	bne.n	80013f4 <HAL_RCC_OscConfig+0xa8>
 80013e2:	681a      	ldr	r2, [r3, #0]
 80013e4:	f442 2280 	orr.w	r2, r2, #262144	; 0x40000
 80013e8:	601a      	str	r2, [r3, #0]
 80013ea:	681a      	ldr	r2, [r3, #0]
 80013ec:	f442 3280 	orr.w	r2, r2, #65536	; 0x10000
 80013f0:	601a      	str	r2, [r3, #0]
 80013f2:	e008      	b.n	8001406 <HAL_RCC_OscConfig+0xba>
 80013f4:	6819      	ldr	r1, [r3, #0]
 80013f6:	f421 2180 	bic.w	r1, r1, #262144	; 0x40000
 80013fa:	6019      	str	r1, [r3, #0]
 80013fc:	6819      	ldr	r1, [r3, #0]
 80013fe:	f421 3180 	bic.w	r1, r1, #65536	; 0x10000
 8001402:	6019      	str	r1, [r3, #0]
 8001404:	b16a      	cbz	r2, 8001422 <HAL_RCC_OscConfig+0xd6>
 8001406:	f7ff f8f7 	bl	80005f8 <HAL_GetTick>
 800140a:	4605      	mov	r5, r0
 800140c:	4b78      	ldr	r3, [pc, #480]	; (80015f0 <HAL_RCC_OscConfig+0x2a4>)
 800140e:	681b      	ldr	r3, [r3, #0]
 8001410:	039e      	lsls	r6, r3, #14
 8001412:	d4a0      	bmi.n	8001356 <HAL_RCC_OscConfig+0xa>
 8001414:	f7ff f8f0 	bl	80005f8 <HAL_GetTick>
 8001418:	1b40      	subs	r0, r0, r5
 800141a:	f5b0 7ffa 	cmp.w	r0, #500	; 0x1f4
 800141e:	d9f5      	bls.n	800140c <HAL_RCC_OscConfig+0xc0>
 8001420:	e7ce      	b.n	80013c0 <HAL_RCC_OscConfig+0x74>
 8001422:	f7ff f8e9 	bl	80005f8 <HAL_GetTick>
 8001426:	4605      	mov	r5, r0
 8001428:	4b71      	ldr	r3, [pc, #452]	; (80015f0 <HAL_RCC_OscConfig+0x2a4>)
 800142a:	681b      	ldr	r3, [r3, #0]
 800142c:	0398      	lsls	r0, r3, #14
 800142e:	d592      	bpl.n	8001356 <HAL_RCC_OscConfig+0xa>
 8001430:	f7ff f8e2 	bl	80005f8 <HAL_GetTick>
 8001434:	1b40      	subs	r0, r0, r5
 8001436:	f5b0 7ffa 	cmp.w	r0, #500	; 0x1f4
 800143a:	d9f5      	bls.n	8001428 <HAL_RCC_OscConfig+0xdc>
 800143c:	e7c0      	b.n	80013c0 <HAL_RCC_OscConfig+0x74>
 800143e:	4b6c      	ldr	r3, [pc, #432]	; (80015f0 <HAL_RCC_OscConfig+0x2a4>)
 8001440:	689a      	ldr	r2, [r3, #8]
 8001442:	f012 0f0c 	tst.w	r2, #12
 8001446:	d007      	beq.n	8001458 <HAL_RCC_OscConfig+0x10c>
 8001448:	689a      	ldr	r2, [r3, #8]
 800144a:	f002 020c 	and.w	r2, r2, #12
 800144e:	2a08      	cmp	r2, #8
 8001450:	d116      	bne.n	8001480 <HAL_RCC_OscConfig+0x134>
 8001452:	685b      	ldr	r3, [r3, #4]
 8001454:	0259      	lsls	r1, r3, #9
 8001456:	d413      	bmi.n	8001480 <HAL_RCC_OscConfig+0x134>
 8001458:	4b65      	ldr	r3, [pc, #404]	; (80015f0 <HAL_RCC_OscConfig+0x2a4>)
 800145a:	681a      	ldr	r2, [r3, #0]
 800145c:	0792      	lsls	r2, r2, #30
 800145e:	d502      	bpl.n	8001466 <HAL_RCC_OscConfig+0x11a>
 8001460:	68e2      	ldr	r2, [r4, #12]
 8001462:	2a01      	cmp	r2, #1
 8001464:	d190      	bne.n	8001388 <HAL_RCC_OscConfig+0x3c>
 8001466:	6819      	ldr	r1, [r3, #0]
 8001468:	20f8      	movs	r0, #248	; 0xf8
 800146a:	fa90 f0a0 	rbit	r0, r0
 800146e:	6922      	ldr	r2, [r4, #16]
 8001470:	fab0 f080 	clz	r0, r0
 8001474:	f021 01f8 	bic.w	r1, r1, #248	; 0xf8
 8001478:	4082      	lsls	r2, r0
 800147a:	430a      	orrs	r2, r1
 800147c:	601a      	str	r2, [r3, #0]
 800147e:	e031      	b.n	80014e4 <HAL_RCC_OscConfig+0x198>
 8001480:	68e2      	ldr	r2, [r4, #12]
 8001482:	4b5b      	ldr	r3, [pc, #364]	; (80015f0 <HAL_RCC_OscConfig+0x2a4>)
 8001484:	b1ea      	cbz	r2, 80014c2 <HAL_RCC_OscConfig+0x176>
 8001486:	681a      	ldr	r2, [r3, #0]
 8001488:	f042 0201 	orr.w	r2, r2, #1
 800148c:	601a      	str	r2, [r3, #0]
 800148e:	f7ff f8b3 	bl	80005f8 <HAL_GetTick>
 8001492:	4605      	mov	r5, r0
 8001494:	4856      	ldr	r0, [pc, #344]	; (80015f0 <HAL_RCC_OscConfig+0x2a4>)
 8001496:	6803      	ldr	r3, [r0, #0]
 8001498:	079e      	lsls	r6, r3, #30
 800149a:	d405      	bmi.n	80014a8 <HAL_RCC_OscConfig+0x15c>
 800149c:	f7ff f8ac 	bl	80005f8 <HAL_GetTick>
 80014a0:	1b40      	subs	r0, r0, r5
 80014a2:	2864      	cmp	r0, #100	; 0x64
 80014a4:	d9f6      	bls.n	8001494 <HAL_RCC_OscConfig+0x148>
 80014a6:	e78b      	b.n	80013c0 <HAL_RCC_OscConfig+0x74>
 80014a8:	6802      	ldr	r2, [r0, #0]
 80014aa:	21f8      	movs	r1, #248	; 0xf8
 80014ac:	fa91 f1a1 	rbit	r1, r1
 80014b0:	6923      	ldr	r3, [r4, #16]
 80014b2:	fab1 f181 	clz	r1, r1
 80014b6:	f022 02f8 	bic.w	r2, r2, #248	; 0xf8
 80014ba:	408b      	lsls	r3, r1
 80014bc:	4313      	orrs	r3, r2
 80014be:	6003      	str	r3, [r0, #0]
 80014c0:	e010      	b.n	80014e4 <HAL_RCC_OscConfig+0x198>
 80014c2:	681a      	ldr	r2, [r3, #0]
 80014c4:	f022 0201 	bic.w	r2, r2, #1
 80014c8:	601a      	str	r2, [r3, #0]
 80014ca:	f7ff f895 	bl	80005f8 <HAL_GetTick>
 80014ce:	4605      	mov	r5, r0
 80014d0:	4b47      	ldr	r3, [pc, #284]	; (80015f0 <HAL_RCC_OscConfig+0x2a4>)
 80014d2:	681b      	ldr	r3, [r3, #0]
 80014d4:	0799      	lsls	r1, r3, #30
 80014d6:	d505      	bpl.n	80014e4 <HAL_RCC_OscConfig+0x198>
 80014d8:	f7ff f88e 	bl	80005f8 <HAL_GetTick>
 80014dc:	1b40      	subs	r0, r0, r5
 80014de:	2864      	cmp	r0, #100	; 0x64
 80014e0:	d9f6      	bls.n	80014d0 <HAL_RCC_OscConfig+0x184>
 80014e2:	e76d      	b.n	80013c0 <HAL_RCC_OscConfig+0x74>
 80014e4:	6823      	ldr	r3, [r4, #0]
 80014e6:	071a      	lsls	r2, r3, #28
 80014e8:	d403      	bmi.n	80014f2 <HAL_RCC_OscConfig+0x1a6>
 80014ea:	6823      	ldr	r3, [r4, #0]
 80014ec:	075b      	lsls	r3, r3, #29
 80014ee:	d567      	bpl.n	80015c0 <HAL_RCC_OscConfig+0x274>
 80014f0:	e024      	b.n	800153c <HAL_RCC_OscConfig+0x1f0>
 80014f2:	6962      	ldr	r2, [r4, #20]
 80014f4:	4b3e      	ldr	r3, [pc, #248]	; (80015f0 <HAL_RCC_OscConfig+0x2a4>)
 80014f6:	b182      	cbz	r2, 800151a <HAL_RCC_OscConfig+0x1ce>
 80014f8:	6f5a      	ldr	r2, [r3, #116]	; 0x74
 80014fa:	f042 0201 	orr.w	r2, r2, #1
 80014fe:	675a      	str	r2, [r3, #116]	; 0x74
 8001500:	f7ff f87a 	bl	80005f8 <HAL_GetTick>
 8001504:	4605      	mov	r5, r0
 8001506:	4b3a      	ldr	r3, [pc, #232]	; (80015f0 <HAL_RCC_OscConfig+0x2a4>)
 8001508:	6f5b      	ldr	r3, [r3, #116]	; 0x74
 800150a:	079e      	lsls	r6, r3, #30
 800150c:	d4ed      	bmi.n	80014ea <HAL_RCC_OscConfig+0x19e>
 800150e:	f7ff f873 	bl	80005f8 <HAL_GetTick>
 8001512:	1b40      	subs	r0, r0, r5
 8001514:	2864      	cmp	r0, #100	; 0x64
 8001516:	d9f6      	bls.n	8001506 <HAL_RCC_OscConfig+0x1ba>
 8001518:	e752      	b.n	80013c0 <HAL_RCC_OscConfig+0x74>
 800151a:	6f5a      	ldr	r2, [r3, #116]	; 0x74
 800151c:	f022 0201 	bic.w	r2, r2, #1
 8001520:	675a      	str	r2, [r3, #116]	; 0x74
 8001522:	f7ff f869 	bl	80005f8 <HAL_GetTick>
 8001526:	4605      	mov	r5, r0
 8001528:	4b31      	ldr	r3, [pc, #196]	; (80015f0 <HAL_RCC_OscConfig+0x2a4>)
 800152a:	6f5b      	ldr	r3, [r3, #116]	; 0x74
 800152c:	0798      	lsls	r0, r3, #30
 800152e:	d5dc      	bpl.n	80014ea <HAL_RCC_OscConfig+0x19e>
 8001530:	f7ff f862 	bl	80005f8 <HAL_GetTick>
 8001534:	1b40      	subs	r0, r0, r5
 8001536:	2864      	cmp	r0, #100	; 0x64
 8001538:	d9f6      	bls.n	8001528 <HAL_RCC_OscConfig+0x1dc>
 800153a:	e741      	b.n	80013c0 <HAL_RCC_OscConfig+0x74>
 800153c:	2300      	movs	r3, #0
 800153e:	9301      	str	r3, [sp, #4]
 8001540:	4b2b      	ldr	r3, [pc, #172]	; (80015f0 <HAL_RCC_OscConfig+0x2a4>)
 8001542:	6c1a      	ldr	r2, [r3, #64]	; 0x40
 8001544:	f042 5280 	orr.w	r2, r2, #268435456	; 0x10000000
 8001548:	641a      	str	r2, [r3, #64]	; 0x40
 800154a:	6c1b      	ldr	r3, [r3, #64]	; 0x40
 800154c:	4a29      	ldr	r2, [pc, #164]	; (80015f4 <HAL_RCC_OscConfig+0x2a8>)
 800154e:	f003 5380 	and.w	r3, r3, #268435456	; 0x10000000
 8001552:	9301      	str	r3, [sp, #4]
 8001554:	9b01      	ldr	r3, [sp, #4]
 8001556:	6813      	ldr	r3, [r2, #0]
 8001558:	f443 7380 	orr.w	r3, r3, #256	; 0x100
 800155c:	6013      	str	r3, [r2, #0]
 800155e:	f7ff f84b 	bl	80005f8 <HAL_GetTick>
 8001562:	4605      	mov	r5, r0
 8001564:	4b23      	ldr	r3, [pc, #140]	; (80015f4 <HAL_RCC_OscConfig+0x2a8>)
 8001566:	681b      	ldr	r3, [r3, #0]
 8001568:	05d9      	lsls	r1, r3, #23
 800156a:	d52d      	bpl.n	80015c8 <HAL_RCC_OscConfig+0x27c>
 800156c:	4b20      	ldr	r3, [pc, #128]	; (80015f0 <HAL_RCC_OscConfig+0x2a4>)
 800156e:	6f1a      	ldr	r2, [r3, #112]	; 0x70
 8001570:	f022 0201 	bic.w	r2, r2, #1
 8001574:	671a      	str	r2, [r3, #112]	; 0x70
 8001576:	6f1a      	ldr	r2, [r3, #112]	; 0x70
 8001578:	f022 0204 	bic.w	r2, r2, #4
 800157c:	671a      	str	r2, [r3, #112]	; 0x70
 800157e:	6f1a      	ldr	r2, [r3, #112]	; 0x70
 8001580:	f022 0201 	bic.w	r2, r2, #1
 8001584:	671a      	str	r2, [r3, #112]	; 0x70
 8001586:	f7ff f837 	bl	80005f8 <HAL_GetTick>
 800158a:	4605      	mov	r5, r0
 800158c:	4b18      	ldr	r3, [pc, #96]	; (80015f0 <HAL_RCC_OscConfig+0x2a4>)
 800158e:	6f1a      	ldr	r2, [r3, #112]	; 0x70
 8001590:	0792      	lsls	r2, r2, #30
 8001592:	d41f      	bmi.n	80015d4 <HAL_RCC_OscConfig+0x288>
 8001594:	6f1a      	ldr	r2, [r3, #112]	; 0x70
 8001596:	f022 0201 	bic.w	r2, r2, #1
 800159a:	671a      	str	r2, [r3, #112]	; 0x70
 800159c:	68a2      	ldr	r2, [r4, #8]
 800159e:	2a01      	cmp	r2, #1
 80015a0:	d120      	bne.n	80015e4 <HAL_RCC_OscConfig+0x298>
 80015a2:	6f1a      	ldr	r2, [r3, #112]	; 0x70
 80015a4:	f022 0204 	bic.w	r2, r2, #4
 80015a8:	671a      	str	r2, [r3, #112]	; 0x70
 80015aa:	6f1a      	ldr	r2, [r3, #112]	; 0x70
 80015ac:	f042 0201 	orr.w	r2, r2, #1
 80015b0:	671a      	str	r2, [r3, #112]	; 0x70
 80015b2:	f7ff f821 	bl	80005f8 <HAL_GetTick>
 80015b6:	4605      	mov	r5, r0
 80015b8:	4b0d      	ldr	r3, [pc, #52]	; (80015f0 <HAL_RCC_OscConfig+0x2a4>)
 80015ba:	6f1b      	ldr	r3, [r3, #112]	; 0x70
 80015bc:	079e      	lsls	r6, r3, #30
 80015be:	d525      	bpl.n	800160c <HAL_RCC_OscConfig+0x2c0>
 80015c0:	69a1      	ldr	r1, [r4, #24]
 80015c2:	2900      	cmp	r1, #0
 80015c4:	d139      	bne.n	800163a <HAL_RCC_OscConfig+0x2ee>
 80015c6:	e07a      	b.n	80016be <HAL_RCC_OscConfig+0x372>
 80015c8:	f7ff f816 	bl	80005f8 <HAL_GetTick>
 80015cc:	1b40      	subs	r0, r0, r5
 80015ce:	2864      	cmp	r0, #100	; 0x64
 80015d0:	d9c8      	bls.n	8001564 <HAL_RCC_OscConfig+0x218>
 80015d2:	e6f5      	b.n	80013c0 <HAL_RCC_OscConfig+0x74>
 80015d4:	f7ff f810 	bl	80005f8 <HAL_GetTick>
 80015d8:	f241 3388 	movw	r3, #5000	; 0x1388
 80015dc:	1b40      	subs	r0, r0, r5
 80015de:	4298      	cmp	r0, r3
 80015e0:	d9d4      	bls.n	800158c <HAL_RCC_OscConfig+0x240>
 80015e2:	e6ed      	b.n	80013c0 <HAL_RCC_OscConfig+0x74>
 80015e4:	2a05      	cmp	r2, #5
 80015e6:	d107      	bne.n	80015f8 <HAL_RCC_OscConfig+0x2ac>
 80015e8:	6f1a      	ldr	r2, [r3, #112]	; 0x70
 80015ea:	f042 0204 	orr.w	r2, r2, #4
 80015ee:	e7db      	b.n	80015a8 <HAL_RCC_OscConfig+0x25c>
 80015f0:	40023800 	andmi	r3, r2, r0, lsl #16
 80015f4:	40007000 	andmi	r7, r0, r0
 80015f8:	6f19      	ldr	r1, [r3, #112]	; 0x70
 80015fa:	f021 0104 	bic.w	r1, r1, #4
 80015fe:	6719      	str	r1, [r3, #112]	; 0x70
 8001600:	6f19      	ldr	r1, [r3, #112]	; 0x70
 8001602:	f021 0101 	bic.w	r1, r1, #1
 8001606:	6719      	str	r1, [r3, #112]	; 0x70
 8001608:	b142      	cbz	r2, 800161c <HAL_RCC_OscConfig+0x2d0>
 800160a:	e7d2      	b.n	80015b2 <HAL_RCC_OscConfig+0x266>
 800160c:	f7fe fff4 	bl	80005f8 <HAL_GetTick>
 8001610:	f241 3388 	movw	r3, #5000	; 0x1388
 8001614:	1b40      	subs	r0, r0, r5
 8001616:	4298      	cmp	r0, r3
 8001618:	d9ce      	bls.n	80015b8 <HAL_RCC_OscConfig+0x26c>
 800161a:	e6d1      	b.n	80013c0 <HAL_RCC_OscConfig+0x74>
 800161c:	f7fe ffec 	bl	80005f8 <HAL_GetTick>
 8001620:	4605      	mov	r5, r0
 8001622:	4b35      	ldr	r3, [pc, #212]	; (80016f8 <HAL_RCC_OscConfig+0x3ac>)
 8001624:	6f1b      	ldr	r3, [r3, #112]	; 0x70
 8001626:	0798      	lsls	r0, r3, #30
 8001628:	d5ca      	bpl.n	80015c0 <HAL_RCC_OscConfig+0x274>
 800162a:	f7fe ffe5 	bl	80005f8 <HAL_GetTick>
 800162e:	f241 3388 	movw	r3, #5000	; 0x1388
 8001632:	1b40      	subs	r0, r0, r5
 8001634:	4298      	cmp	r0, r3
 8001636:	d9f4      	bls.n	8001622 <HAL_RCC_OscConfig+0x2d6>
 8001638:	e6c2      	b.n	80013c0 <HAL_RCC_OscConfig+0x74>
 800163a:	4b2f      	ldr	r3, [pc, #188]	; (80016f8 <HAL_RCC_OscConfig+0x3ac>)
 800163c:	689a      	ldr	r2, [r3, #8]
 800163e:	f002 020c 	and.w	r2, r2, #12
 8001642:	2a08      	cmp	r2, #8
 8001644:	f43f aea0 	beq.w	8001388 <HAL_RCC_OscConfig+0x3c>
 8001648:	681a      	ldr	r2, [r3, #0]
 800164a:	2902      	cmp	r1, #2
 800164c:	f022 7280 	bic.w	r2, r2, #16777216	; 0x1000000
 8001650:	601a      	str	r2, [r3, #0]
 8001652:	d142      	bne.n	80016da <HAL_RCC_OscConfig+0x38e>
 8001654:	f7fe ffd0 	bl	80005f8 <HAL_GetTick>
 8001658:	4605      	mov	r5, r0
 800165a:	4827      	ldr	r0, [pc, #156]	; (80016f8 <HAL_RCC_OscConfig+0x3ac>)
 800165c:	6803      	ldr	r3, [r0, #0]
 800165e:	0199      	lsls	r1, r3, #6
 8001660:	d42f      	bmi.n	80016c2 <HAL_RCC_OscConfig+0x376>
 8001662:	f647 76c0 	movw	r6, #32704	; 0x7fc0
 8001666:	fa96 f6a6 	rbit	r6, r6
 800166a:	f44f 3540 	mov.w	r5, #196608	; 0x30000
 800166e:	fab6 f686 	clz	r6, r6
 8001672:	fa95 f5a5 	rbit	r5, r5
 8001676:	f04f 6170 	mov.w	r1, #251658240	; 0xf000000
 800167a:	fab5 f585 	clz	r5, r5
 800167e:	fa91 f1a1 	rbit	r1, r1
 8001682:	69e3      	ldr	r3, [r4, #28]
 8001684:	6a22      	ldr	r2, [r4, #32]
 8001686:	fab1 f181 	clz	r1, r1
 800168a:	431a      	orrs	r2, r3
 800168c:	6a63      	ldr	r3, [r4, #36]	; 0x24
 800168e:	f042 5200 	orr.w	r2, r2, #536870912	; 0x20000000
 8001692:	40b3      	lsls	r3, r6
 8001694:	431a      	orrs	r2, r3
 8001696:	6aa3      	ldr	r3, [r4, #40]	; 0x28
 8001698:	085b      	lsrs	r3, r3, #1
 800169a:	3b01      	subs	r3, #1
 800169c:	40ab      	lsls	r3, r5
 800169e:	4313      	orrs	r3, r2
 80016a0:	6ae2      	ldr	r2, [r4, #44]	; 0x2c
 80016a2:	408a      	lsls	r2, r1
 80016a4:	4313      	orrs	r3, r2
 80016a6:	6043      	str	r3, [r0, #4]
 80016a8:	6803      	ldr	r3, [r0, #0]
 80016aa:	f043 7380 	orr.w	r3, r3, #16777216	; 0x1000000
 80016ae:	6003      	str	r3, [r0, #0]
 80016b0:	f7fe ffa2 	bl	80005f8 <HAL_GetTick>
 80016b4:	4604      	mov	r4, r0
 80016b6:	4b10      	ldr	r3, [pc, #64]	; (80016f8 <HAL_RCC_OscConfig+0x3ac>)
 80016b8:	681b      	ldr	r3, [r3, #0]
 80016ba:	019a      	lsls	r2, r3, #6
 80016bc:	d507      	bpl.n	80016ce <HAL_RCC_OscConfig+0x382>
 80016be:	2000      	movs	r0, #0
 80016c0:	e018      	b.n	80016f4 <HAL_RCC_OscConfig+0x3a8>
 80016c2:	f7fe ff99 	bl	80005f8 <HAL_GetTick>
 80016c6:	1b40      	subs	r0, r0, r5
 80016c8:	2864      	cmp	r0, #100	; 0x64
 80016ca:	d9c6      	bls.n	800165a <HAL_RCC_OscConfig+0x30e>
 80016cc:	e678      	b.n	80013c0 <HAL_RCC_OscConfig+0x74>
 80016ce:	f7fe ff93 	bl	80005f8 <HAL_GetTick>
 80016d2:	1b00      	subs	r0, r0, r4
 80016d4:	2864      	cmp	r0, #100	; 0x64
 80016d6:	d9ee      	bls.n	80016b6 <HAL_RCC_OscConfig+0x36a>
 80016d8:	e672      	b.n	80013c0 <HAL_RCC_OscConfig+0x74>
 80016da:	f7fe ff8d 	bl	80005f8 <HAL_GetTick>
 80016de:	4604      	mov	r4, r0
 80016e0:	4b05      	ldr	r3, [pc, #20]	; (80016f8 <HAL_RCC_OscConfig+0x3ac>)
 80016e2:	681b      	ldr	r3, [r3, #0]
 80016e4:	019b      	lsls	r3, r3, #6
 80016e6:	d5ea      	bpl.n	80016be <HAL_RCC_OscConfig+0x372>
 80016e8:	f7fe ff86 	bl	80005f8 <HAL_GetTick>
 80016ec:	1b00      	subs	r0, r0, r4
 80016ee:	2864      	cmp	r0, #100	; 0x64
 80016f0:	d9f6      	bls.n	80016e0 <HAL_RCC_OscConfig+0x394>
 80016f2:	e665      	b.n	80013c0 <HAL_RCC_OscConfig+0x74>
 80016f4:	b002      	add	sp, #8
 80016f6:	bd70      	pop	{r4, r5, r6, pc}
 80016f8:	40023800 	andmi	r3, r2, r0, lsl #16

080016fc <HAL_RCC_ClockConfig>:
 80016fc:	4a72      	ldr	r2, [pc, #456]	; (80018c8 <HAL_RCC_ClockConfig+0x1cc>)
 80016fe:	6813      	ldr	r3, [r2, #0]
 8001700:	f003 030f 	and.w	r3, r3, #15
 8001704:	4299      	cmp	r1, r3
 8001706:	b570      	push	{r4, r5, r6, lr}
 8001708:	4604      	mov	r4, r0
 800170a:	460d      	mov	r5, r1
 800170c:	d96b      	bls.n	80017e6 <HAL_RCC_ClockConfig+0xea>
 800170e:	6813      	ldr	r3, [r2, #0]
 8001710:	f023 030f 	bic.w	r3, r3, #15
 8001714:	430b      	orrs	r3, r1
 8001716:	6013      	str	r3, [r2, #0]
 8001718:	6813      	ldr	r3, [r2, #0]
 800171a:	f003 030f 	and.w	r3, r3, #15
 800171e:	428b      	cmp	r3, r1
 8001720:	d001      	beq.n	8001726 <HAL_RCC_ClockConfig+0x2a>
 8001722:	2001      	movs	r0, #1
 8001724:	bd70      	pop	{r4, r5, r6, pc}
 8001726:	6801      	ldr	r1, [r0, #0]
 8001728:	078b      	lsls	r3, r1, #30
 800172a:	bf41      	itttt	mi
 800172c:	4867      	ldrmi	r0, [pc, #412]	; (80018cc <HAL_RCC_ClockConfig+0x1d0>)
 800172e:	6883      	ldrmi	r3, [r0, #8]
 8001730:	f023 02f0 	bicmi.w	r2, r3, #240	; 0xf0
 8001734:	68a3      	ldrmi	r3, [r4, #8]
 8001736:	bf44      	itt	mi
 8001738:	4313      	orrmi	r3, r2
 800173a:	6083      	strmi	r3, [r0, #8]
 800173c:	07ce      	lsls	r6, r1, #31
 800173e:	d40b      	bmi.n	8001758 <HAL_RCC_ClockConfig+0x5c>
 8001740:	6821      	ldr	r1, [r4, #0]
 8001742:	074d      	lsls	r5, r1, #29
 8001744:	f140 80af 	bpl.w	80018a6 <HAL_RCC_ClockConfig+0x1aa>
 8001748:	4860      	ldr	r0, [pc, #384]	; (80018cc <HAL_RCC_ClockConfig+0x1d0>)
 800174a:	6883      	ldr	r3, [r0, #8]
 800174c:	f423 52e0 	bic.w	r2, r3, #7168	; 0x1c00
 8001750:	68e3      	ldr	r3, [r4, #12]
 8001752:	4313      	orrs	r3, r2
 8001754:	6083      	str	r3, [r0, #8]
 8001756:	e0a6      	b.n	80018a6 <HAL_RCC_ClockConfig+0x1aa>
 8001758:	6862      	ldr	r2, [r4, #4]
 800175a:	4b5c      	ldr	r3, [pc, #368]	; (80018cc <HAL_RCC_ClockConfig+0x1d0>)
 800175c:	2a01      	cmp	r2, #1
 800175e:	6819      	ldr	r1, [r3, #0]
 8001760:	d102      	bne.n	8001768 <HAL_RCC_ClockConfig+0x6c>
 8001762:	f411 3f00 	tst.w	r1, #131072	; 0x20000
 8001766:	e006      	b.n	8001776 <HAL_RCC_ClockConfig+0x7a>
 8001768:	2a02      	cmp	r2, #2
 800176a:	d102      	bne.n	8001772 <HAL_RCC_ClockConfig+0x76>
 800176c:	f011 7f00 	tst.w	r1, #33554432	; 0x2000000
 8001770:	e001      	b.n	8001776 <HAL_RCC_ClockConfig+0x7a>
 8001772:	f011 0f02 	tst.w	r1, #2
 8001776:	d0d4      	beq.n	8001722 <HAL_RCC_ClockConfig+0x26>
 8001778:	6899      	ldr	r1, [r3, #8]
 800177a:	f021 0103 	bic.w	r1, r1, #3
 800177e:	430a      	orrs	r2, r1
 8001780:	609a      	str	r2, [r3, #8]
 8001782:	f7fe ff39 	bl	80005f8 <HAL_GetTick>
 8001786:	6863      	ldr	r3, [r4, #4]
 8001788:	2b01      	cmp	r3, #1
 800178a:	4605      	mov	r5, r0
 800178c:	d10e      	bne.n	80017ac <HAL_RCC_ClockConfig+0xb0>
 800178e:	4b4f      	ldr	r3, [pc, #316]	; (80018cc <HAL_RCC_ClockConfig+0x1d0>)
 8001790:	689b      	ldr	r3, [r3, #8]
 8001792:	f003 030c 	and.w	r3, r3, #12
 8001796:	2b04      	cmp	r3, #4
 8001798:	d0d2      	beq.n	8001740 <HAL_RCC_ClockConfig+0x44>
 800179a:	f7fe ff2d 	bl	80005f8 <HAL_GetTick>
 800179e:	f241 3388 	movw	r3, #5000	; 0x1388
 80017a2:	1b40      	subs	r0, r0, r5
 80017a4:	4298      	cmp	r0, r3
 80017a6:	d9f2      	bls.n	800178e <HAL_RCC_ClockConfig+0x92>
 80017a8:	2003      	movs	r0, #3
 80017aa:	bd70      	pop	{r4, r5, r6, pc}
 80017ac:	2b02      	cmp	r3, #2
 80017ae:	d114      	bne.n	80017da <HAL_RCC_ClockConfig+0xde>
 80017b0:	4b46      	ldr	r3, [pc, #280]	; (80018cc <HAL_RCC_ClockConfig+0x1d0>)
 80017b2:	689b      	ldr	r3, [r3, #8]
 80017b4:	f003 030c 	and.w	r3, r3, #12
 80017b8:	2b08      	cmp	r3, #8
 80017ba:	d0c1      	beq.n	8001740 <HAL_RCC_ClockConfig+0x44>
 80017bc:	f7fe ff1c 	bl	80005f8 <HAL_GetTick>
 80017c0:	f241 3388 	movw	r3, #5000	; 0x1388
 80017c4:	1b40      	subs	r0, r0, r5
 80017c6:	4298      	cmp	r0, r3
 80017c8:	d9f2      	bls.n	80017b0 <HAL_RCC_ClockConfig+0xb4>
 80017ca:	e7ed      	b.n	80017a8 <HAL_RCC_ClockConfig+0xac>
 80017cc:	f7fe ff14 	bl	80005f8 <HAL_GetTick>
 80017d0:	f241 3388 	movw	r3, #5000	; 0x1388
 80017d4:	1b40      	subs	r0, r0, r5
 80017d6:	4298      	cmp	r0, r3
 80017d8:	d8e6      	bhi.n	80017a8 <HAL_RCC_ClockConfig+0xac>
 80017da:	4b3c      	ldr	r3, [pc, #240]	; (80018cc <HAL_RCC_ClockConfig+0x1d0>)
 80017dc:	689b      	ldr	r3, [r3, #8]
 80017de:	f013 0f0c 	tst.w	r3, #12
 80017e2:	d1f3      	bne.n	80017cc <HAL_RCC_ClockConfig+0xd0>
 80017e4:	e7ac      	b.n	8001740 <HAL_RCC_ClockConfig+0x44>
 80017e6:	6801      	ldr	r1, [r0, #0]
 80017e8:	0788      	lsls	r0, r1, #30
 80017ea:	bf41      	itttt	mi
 80017ec:	4837      	ldrmi	r0, [pc, #220]	; (80018cc <HAL_RCC_ClockConfig+0x1d0>)
 80017ee:	6883      	ldrmi	r3, [r0, #8]
 80017f0:	f023 02f0 	bicmi.w	r2, r3, #240	; 0xf0
 80017f4:	68a3      	ldrmi	r3, [r4, #8]
 80017f6:	bf44      	itt	mi
 80017f8:	4313      	orrmi	r3, r2
 80017fa:	6083      	strmi	r3, [r0, #8]
 80017fc:	07ca      	lsls	r2, r1, #31
 80017fe:	d40b      	bmi.n	8001818 <HAL_RCC_ClockConfig+0x11c>
 8001800:	4a31      	ldr	r2, [pc, #196]	; (80018c8 <HAL_RCC_ClockConfig+0x1cc>)
 8001802:	6813      	ldr	r3, [r2, #0]
 8001804:	f023 030f 	bic.w	r3, r3, #15
 8001808:	432b      	orrs	r3, r5
 800180a:	6013      	str	r3, [r2, #0]
 800180c:	6813      	ldr	r3, [r2, #0]
 800180e:	f003 030f 	and.w	r3, r3, #15
 8001812:	42ab      	cmp	r3, r5
 8001814:	d185      	bne.n	8001722 <HAL_RCC_ClockConfig+0x26>
 8001816:	e793      	b.n	8001740 <HAL_RCC_ClockConfig+0x44>
 8001818:	6862      	ldr	r2, [r4, #4]
 800181a:	4b2c      	ldr	r3, [pc, #176]	; (80018cc <HAL_RCC_ClockConfig+0x1d0>)
 800181c:	2a01      	cmp	r2, #1
 800181e:	6819      	ldr	r1, [r3, #0]
 8001820:	d102      	bne.n	8001828 <HAL_RCC_ClockConfig+0x12c>
 8001822:	f411 3f00 	tst.w	r1, #131072	; 0x20000
 8001826:	e006      	b.n	8001836 <HAL_RCC_ClockConfig+0x13a>
 8001828:	2a02      	cmp	r2, #2
 800182a:	d102      	bne.n	8001832 <HAL_RCC_ClockConfig+0x136>
 800182c:	f011 7f00 	tst.w	r1, #33554432	; 0x2000000
 8001830:	e001      	b.n	8001836 <HAL_RCC_ClockConfig+0x13a>
 8001832:	f011 0f02 	tst.w	r1, #2
 8001836:	f43f af74 	beq.w	8001722 <HAL_RCC_ClockConfig+0x26>
 800183a:	6899      	ldr	r1, [r3, #8]
 800183c:	f021 0103 	bic.w	r1, r1, #3
 8001840:	430a      	orrs	r2, r1
 8001842:	609a      	str	r2, [r3, #8]
 8001844:	f7fe fed8 	bl	80005f8 <HAL_GetTick>
 8001848:	6863      	ldr	r3, [r4, #4]
 800184a:	2b01      	cmp	r3, #1
 800184c:	4606      	mov	r6, r0
 800184e:	d10d      	bne.n	800186c <HAL_RCC_ClockConfig+0x170>
 8001850:	4b1e      	ldr	r3, [pc, #120]	; (80018cc <HAL_RCC_ClockConfig+0x1d0>)
 8001852:	689b      	ldr	r3, [r3, #8]
 8001854:	f003 030c 	and.w	r3, r3, #12
 8001858:	2b04      	cmp	r3, #4
 800185a:	d0d1      	beq.n	8001800 <HAL_RCC_ClockConfig+0x104>
 800185c:	f7fe fecc 	bl	80005f8 <HAL_GetTick>
 8001860:	f241 3388 	movw	r3, #5000	; 0x1388
 8001864:	1b80      	subs	r0, r0, r6
 8001866:	4298      	cmp	r0, r3
 8001868:	d9f2      	bls.n	8001850 <HAL_RCC_ClockConfig+0x154>
 800186a:	e79d      	b.n	80017a8 <HAL_RCC_ClockConfig+0xac>
 800186c:	2b02      	cmp	r3, #2
 800186e:	d114      	bne.n	800189a <HAL_RCC_ClockConfig+0x19e>
 8001870:	4b16      	ldr	r3, [pc, #88]	; (80018cc <HAL_RCC_ClockConfig+0x1d0>)
 8001872:	689b      	ldr	r3, [r3, #8]
 8001874:	f003 030c 	and.w	r3, r3, #12
 8001878:	2b08      	cmp	r3, #8
 800187a:	d0c1      	beq.n	8001800 <HAL_RCC_ClockConfig+0x104>
 800187c:	f7fe febc 	bl	80005f8 <HAL_GetTick>
 8001880:	f241 3388 	movw	r3, #5000	; 0x1388
 8001884:	1b80      	subs	r0, r0, r6
 8001886:	4298      	cmp	r0, r3
 8001888:	d9f2      	bls.n	8001870 <HAL_RCC_ClockConfig+0x174>
 800188a:	e78d      	b.n	80017a8 <HAL_RCC_ClockConfig+0xac>
 800188c:	f7fe feb4 	bl	80005f8 <HAL_GetTick>
 8001890:	f241 3388 	movw	r3, #5000	; 0x1388
 8001894:	1b80      	subs	r0, r0, r6
 8001896:	4298      	cmp	r0, r3
 8001898:	d886      	bhi.n	80017a8 <HAL_RCC_ClockConfig+0xac>
 800189a:	4b0c      	ldr	r3, [pc, #48]	; (80018cc <HAL_RCC_ClockConfig+0x1d0>)
 800189c:	689b      	ldr	r3, [r3, #8]
 800189e:	f013 0f0c 	tst.w	r3, #12
 80018a2:	d1f3      	bne.n	800188c <HAL_RCC_ClockConfig+0x190>
 80018a4:	e7ac      	b.n	8001800 <HAL_RCC_ClockConfig+0x104>
 80018a6:	070b      	lsls	r3, r1, #28
 80018a8:	bf41      	itttt	mi
 80018aa:	4a08      	ldrmi	r2, [pc, #32]	; (80018cc <HAL_RCC_ClockConfig+0x1d0>)
 80018ac:	6921      	ldrmi	r1, [r4, #16]
 80018ae:	6893      	ldrmi	r3, [r2, #8]
 80018b0:	f423 4360 	bicmi.w	r3, r3, #57344	; 0xe000
 80018b4:	bf44      	itt	mi
 80018b6:	ea43 03c1 	orrmi.w	r3, r3, r1, lsl #3
 80018ba:	6093      	strmi	r3, [r2, #8]
 80018bc:	200f      	movs	r0, #15
 80018be:	f7fe fe77 	bl	80005b0 <HAL_InitTick>
 80018c2:	2000      	movs	r0, #0
 80018c4:	bd70      	pop	{r4, r5, r6, pc}
 80018c6:	bf00      	nop
 80018c8:	40023c00 	andmi	r3, r2, r0, lsl #24
 80018cc:	40023800 	andmi	r3, r2, r0, lsl #16

080018d0 <HAL_RCC_GetSysClockFreq>:
 80018d0:	b510      	push	{r4, lr}
 80018d2:	4c1c      	ldr	r4, [pc, #112]	; (8001944 <HAL_RCC_GetSysClockFreq+0x74>)
 80018d4:	68a3      	ldr	r3, [r4, #8]
 80018d6:	f003 030c 	and.w	r3, r3, #12
 80018da:	2b04      	cmp	r3, #4
 80018dc:	d02e      	beq.n	800193c <HAL_RCC_GetSysClockFreq+0x6c>
 80018de:	2b08      	cmp	r3, #8
 80018e0:	d12e      	bne.n	8001940 <HAL_RCC_GetSysClockFreq+0x70>
 80018e2:	6862      	ldr	r2, [r4, #4]
 80018e4:	f002 033f 	and.w	r3, r2, #63	; 0x3f
 80018e8:	6862      	ldr	r2, [r4, #4]
 80018ea:	f647 71c0 	movw	r1, #32704	; 0x7fc0
 80018ee:	f412 0f80 	tst.w	r2, #4194304	; 0x400000
 80018f2:	6862      	ldr	r2, [r4, #4]
 80018f4:	fa91 f1a1 	rbit	r1, r1
 80018f8:	f647 70c0 	movw	r0, #32704	; 0x7fc0
 80018fc:	ea00 0002 	and.w	r0, r0, r2
 8001900:	bf08      	it	eq
 8001902:	4a11      	ldreq	r2, [pc, #68]	; (8001948 <HAL_RCC_GetSysClockFreq+0x78>)
 8001904:	fab1 f181 	clz	r1, r1
 8001908:	fa20 f001 	lsr.w	r0, r0, r1
 800190c:	bf0e      	itee	eq
 800190e:	fbb2 f2f3 	udiveq	r2, r2, r3
 8001912:	490e      	ldrne	r1, [pc, #56]	; (800194c <HAL_RCC_GetSysClockFreq+0x7c>)
 8001914:	fbb1 f2f3 	udivne	r2, r1, r3
 8001918:	fb02 f300 	mul.w	r3, r2, r0
 800191c:	4a09      	ldr	r2, [pc, #36]	; (8001944 <HAL_RCC_GetSysClockFreq+0x74>)
 800191e:	6850      	ldr	r0, [r2, #4]
 8001920:	f44f 3240 	mov.w	r2, #196608	; 0x30000
 8001924:	fa92 f2a2 	rbit	r2, r2
 8001928:	f400 3040 	and.w	r0, r0, #196608	; 0x30000
 800192c:	fab2 f282 	clz	r2, r2
 8001930:	40d0      	lsrs	r0, r2
 8001932:	3001      	adds	r0, #1
 8001934:	0040      	lsls	r0, r0, #1
 8001936:	fbb3 f0f0 	udiv	r0, r3, r0
 800193a:	bd10      	pop	{r4, pc}
 800193c:	4803      	ldr	r0, [pc, #12]	; (800194c <HAL_RCC_GetSysClockFreq+0x7c>)
 800193e:	bd10      	pop	{r4, pc}
 8001940:	4801      	ldr	r0, [pc, #4]	; (8001948 <HAL_RCC_GetSysClockFreq+0x78>)
 8001942:	bd10      	pop	{r4, pc}
 8001944:	40023800 	andmi	r3, r2, r0, lsl #16
 8001948:	00f42400 	rscseq	r2, r4, r0, lsl #8
 800194c:	017d7840 	cmneq	sp, r0, asr #16

08001950 <HAL_RCC_GetHCLKFreq>:
 8001950:	b508      	push	{r3, lr}
 8001952:	f7ff ffbd 	bl	80018d0 <HAL_RCC_GetSysClockFreq>
 8001956:	4b08      	ldr	r3, [pc, #32]	; (8001978 <HAL_RCC_GetHCLKFreq+0x28>)
 8001958:	22f0      	movs	r2, #240	; 0xf0
 800195a:	689b      	ldr	r3, [r3, #8]
 800195c:	fa92 f2a2 	rbit	r2, r2
 8001960:	f003 03f0 	and.w	r3, r3, #240	; 0xf0
 8001964:	fab2 f282 	clz	r2, r2
 8001968:	40d3      	lsrs	r3, r2
 800196a:	4a04      	ldr	r2, [pc, #16]	; (800197c <HAL_RCC_GetHCLKFreq+0x2c>)
 800196c:	5cd3      	ldrb	r3, [r2, r3]
 800196e:	40d8      	lsrs	r0, r3
 8001970:	4b03      	ldr	r3, [pc, #12]	; (8001980 <HAL_RCC_GetHCLKFreq+0x30>)
 8001972:	6018      	str	r0, [r3, #0]
 8001974:	bd08      	pop	{r3, pc}
 8001976:	bf00      	nop
 8001978:	40023800 	andmi	r3, r2, r0, lsl #16
 800197c:	08005bd9 	stmdaeq	r0, {r0, r3, r4, r6, r7, r8, r9, fp, ip, lr}
 8001980:	20000004 	andcs	r0, r0, r4

08001984 <HAL_RCC_GetPCLK1Freq>:
 8001984:	b508      	push	{r3, lr}
 8001986:	f7ff ffe3 	bl	8001950 <HAL_RCC_GetHCLKFreq>
 800198a:	4b07      	ldr	r3, [pc, #28]	; (80019a8 <HAL_RCC_GetPCLK1Freq+0x24>)
 800198c:	f44f 52e0 	mov.w	r2, #7168	; 0x1c00
 8001990:	689b      	ldr	r3, [r3, #8]
 8001992:	fa92 f2a2 	rbit	r2, r2
 8001996:	f403 53e0 	and.w	r3, r3, #7168	; 0x1c00
 800199a:	fab2 f282 	clz	r2, r2
 800199e:	40d3      	lsrs	r3, r2
 80019a0:	4a02      	ldr	r2, [pc, #8]	; (80019ac <HAL_RCC_GetPCLK1Freq+0x28>)
 80019a2:	5cd3      	ldrb	r3, [r2, r3]
 80019a4:	40d8      	lsrs	r0, r3
 80019a6:	bd08      	pop	{r3, pc}
 80019a8:	40023800 	andmi	r3, r2, r0, lsl #16
 80019ac:	08005bd9 	stmdaeq	r0, {r0, r3, r4, r6, r7, r8, r9, fp, ip, lr}

080019b0 <HAL_RCC_GetPCLK2Freq>:
 80019b0:	b508      	push	{r3, lr}
 80019b2:	f7ff ffcd 	bl	8001950 <HAL_RCC_GetHCLKFreq>
 80019b6:	4b07      	ldr	r3, [pc, #28]	; (80019d4 <HAL_RCC_GetPCLK2Freq+0x24>)
 80019b8:	f44f 4260 	mov.w	r2, #57344	; 0xe000
 80019bc:	689b      	ldr	r3, [r3, #8]
 80019be:	fa92 f2a2 	rbit	r2, r2
 80019c2:	f403 4360 	and.w	r3, r3, #57344	; 0xe000
 80019c6:	fab2 f282 	clz	r2, r2
 80019ca:	40d3      	lsrs	r3, r2
 80019cc:	4a02      	ldr	r2, [pc, #8]	; (80019d8 <HAL_RCC_GetPCLK2Freq+0x28>)
 80019ce:	5cd3      	ldrb	r3, [r2, r3]
 80019d0:	40d8      	lsrs	r0, r3
 80019d2:	bd08      	pop	{r3, pc}
 80019d4:	40023800 	andmi	r3, r2, r0, lsl #16
 80019d8:	08005bd9 	stmdaeq	r0, {r0, r3, r4, r6, r7, r8, r9, fp, ip, lr}

080019dc <HAL_PWREx_EnableOverDrive>:
 80019dc:	b513      	push	{r0, r1, r4, lr}
 80019de:	2300      	movs	r3, #0
 80019e0:	9301      	str	r3, [sp, #4]
 80019e2:	4b19      	ldr	r3, [pc, #100]	; (8001a48 <HAL_PWREx_EnableOverDrive+0x6c>)
 80019e4:	6c1a      	ldr	r2, [r3, #64]	; 0x40
 80019e6:	f042 5280 	orr.w	r2, r2, #268435456	; 0x10000000
 80019ea:	641a      	str	r2, [r3, #64]	; 0x40
 80019ec:	6c1b      	ldr	r3, [r3, #64]	; 0x40
 80019ee:	4a17      	ldr	r2, [pc, #92]	; (8001a4c <HAL_PWREx_EnableOverDrive+0x70>)
 80019f0:	f003 5380 	and.w	r3, r3, #268435456	; 0x10000000
 80019f4:	9301      	str	r3, [sp, #4]
 80019f6:	9b01      	ldr	r3, [sp, #4]
 80019f8:	6813      	ldr	r3, [r2, #0]
 80019fa:	f443 3380 	orr.w	r3, r3, #65536	; 0x10000
 80019fe:	6013      	str	r3, [r2, #0]
 8001a00:	f7fe fdfa 	bl	80005f8 <HAL_GetTick>
 8001a04:	4604      	mov	r4, r0
 8001a06:	4b11      	ldr	r3, [pc, #68]	; (8001a4c <HAL_PWREx_EnableOverDrive+0x70>)
 8001a08:	685a      	ldr	r2, [r3, #4]
 8001a0a:	03d2      	lsls	r2, r2, #15
 8001a0c:	d407      	bmi.n	8001a1e <HAL_PWREx_EnableOverDrive+0x42>
 8001a0e:	f7fe fdf3 	bl	80005f8 <HAL_GetTick>
 8001a12:	1b00      	subs	r0, r0, r4
 8001a14:	f5b0 7f7a 	cmp.w	r0, #1000	; 0x3e8
 8001a18:	d9f5      	bls.n	8001a06 <HAL_PWREx_EnableOverDrive+0x2a>
 8001a1a:	2003      	movs	r0, #3
 8001a1c:	e012      	b.n	8001a44 <HAL_PWREx_EnableOverDrive+0x68>
 8001a1e:	681a      	ldr	r2, [r3, #0]
 8001a20:	f442 3200 	orr.w	r2, r2, #131072	; 0x20000
 8001a24:	601a      	str	r2, [r3, #0]
 8001a26:	f7fe fde7 	bl	80005f8 <HAL_GetTick>
 8001a2a:	4604      	mov	r4, r0
 8001a2c:	4b07      	ldr	r3, [pc, #28]	; (8001a4c <HAL_PWREx_EnableOverDrive+0x70>)
 8001a2e:	685b      	ldr	r3, [r3, #4]
 8001a30:	039b      	lsls	r3, r3, #14
 8001a32:	d406      	bmi.n	8001a42 <HAL_PWREx_EnableOverDrive+0x66>
 8001a34:	f7fe fde0 	bl	80005f8 <HAL_GetTick>
 8001a38:	1b00      	subs	r0, r0, r4
 8001a3a:	f5b0 7f7a 	cmp.w	r0, #1000	; 0x3e8
 8001a3e:	d9f5      	bls.n	8001a2c <HAL_PWREx_EnableOverDrive+0x50>
 8001a40:	e7eb      	b.n	8001a1a <HAL_PWREx_EnableOverDrive+0x3e>
 8001a42:	2000      	movs	r0, #0
 8001a44:	b002      	add	sp, #8
 8001a46:	bd10      	pop	{r4, pc}
 8001a48:	40023800 	andmi	r3, r2, r0, lsl #16
 8001a4c:	40007000 	andmi	r7, r0, r0

08001a50 <FMC_SDRAM_Init>:
 8001a50:	680b      	ldr	r3, [r1, #0]
 8001a52:	6a0a      	ldr	r2, [r1, #32]
 8001a54:	2b01      	cmp	r3, #1
 8001a56:	e92d 47f0 	stmdb	sp!, {r4, r5, r6, r7, r8, r9, sl, lr}
 8001a5a:	684b      	ldr	r3, [r1, #4]
 8001a5c:	f8d1 e008 	ldr.w	lr, [r1, #8]
 8001a60:	68cf      	ldr	r7, [r1, #12]
 8001a62:	690e      	ldr	r6, [r1, #16]
 8001a64:	694d      	ldr	r5, [r1, #20]
 8001a66:	698c      	ldr	r4, [r1, #24]
 8001a68:	f8d1 a01c 	ldr.w	sl, [r1, #28]
 8001a6c:	f8d1 9024 	ldr.w	r9, [r1, #36]	; 0x24
 8001a70:	6801      	ldr	r1, [r0, #0]
 8001a72:	d013      	beq.n	8001a9c <FMC_SDRAM_Init+0x4c>
 8001a74:	ea4e 0e03 	orr.w	lr, lr, r3
 8001a78:	ea4e 0707 	orr.w	r7, lr, r7
 8001a7c:	433e      	orrs	r6, r7
 8001a7e:	4335      	orrs	r5, r6
 8001a80:	432c      	orrs	r4, r5
 8001a82:	f421 48ff 	bic.w	r8, r1, #32640	; 0x7f80
 8001a86:	ea44 010a 	orr.w	r1, r4, sl
 8001a8a:	430a      	orrs	r2, r1
 8001a8c:	f028 087f 	bic.w	r8, r8, #127	; 0x7f
 8001a90:	ea42 0309 	orr.w	r3, r2, r9
 8001a94:	ea43 0308 	orr.w	r3, r3, r8
 8001a98:	6003      	str	r3, [r0, #0]
 8001a9a:	e019      	b.n	8001ad0 <FMC_SDRAM_Init+0x80>
 8001a9c:	ea42 020a 	orr.w	r2, r2, sl
 8001aa0:	ea4e 0e03 	orr.w	lr, lr, r3
 8001aa4:	f421 4cff 	bic.w	ip, r1, #32640	; 0x7f80
 8001aa8:	ea42 0909 	orr.w	r9, r2, r9
 8001aac:	ea4e 0707 	orr.w	r7, lr, r7
 8001ab0:	6842      	ldr	r2, [r0, #4]
 8001ab2:	f02c 0c7f 	bic.w	ip, ip, #127	; 0x7f
 8001ab6:	433e      	orrs	r6, r7
 8001ab8:	ea49 010c 	orr.w	r1, r9, ip
 8001abc:	4335      	orrs	r5, r6
 8001abe:	f422 4cff 	bic.w	ip, r2, #32640	; 0x7f80
 8001ac2:	f02c 0c7f 	bic.w	ip, ip, #127	; 0x7f
 8001ac6:	432c      	orrs	r4, r5
 8001ac8:	ea44 040c 	orr.w	r4, r4, ip
 8001acc:	6001      	str	r1, [r0, #0]
 8001ace:	6044      	str	r4, [r0, #4]
 8001ad0:	2000      	movs	r0, #0
 8001ad2:	e8bd 87f0 	ldmia.w	sp!, {r4, r5, r6, r7, r8, r9, sl, pc}

08001ad6 <FMC_SDRAM_Timing_Init>:
 8001ad6:	2a01      	cmp	r2, #1
 8001ad8:	e92d 43f0 	stmdb	sp!, {r4, r5, r6, r7, r8, r9, lr}
 8001adc:	68ca      	ldr	r2, [r1, #12]
 8001ade:	680e      	ldr	r6, [r1, #0]
 8001ae0:	684d      	ldr	r5, [r1, #4]
 8001ae2:	688c      	ldr	r4, [r1, #8]
 8001ae4:	f8d1 9010 	ldr.w	r9, [r1, #16]
 8001ae8:	694b      	ldr	r3, [r1, #20]
 8001aea:	f8d1 c018 	ldr.w	ip, [r1, #24]
 8001aee:	d01a      	beq.n	8001b26 <FMC_SDRAM_Timing_Init+0x50>
 8001af0:	6887      	ldr	r7, [r0, #8]
 8001af2:	3e01      	subs	r6, #1
 8001af4:	f007 4770 	and.w	r7, r7, #4026531840	; 0xf0000000
 8001af8:	3d01      	subs	r5, #1
 8001afa:	4337      	orrs	r7, r6
 8001afc:	3c01      	subs	r4, #1
 8001afe:	ea47 1605 	orr.w	r6, r7, r5, lsl #4
 8001b02:	3a01      	subs	r2, #1
 8001b04:	ea46 2504 	orr.w	r5, r6, r4, lsl #8
 8001b08:	ea45 3402 	orr.w	r4, r5, r2, lsl #12
 8001b0c:	f109 32ff 	add.w	r2, r9, #4294967295	; 0xffffffff
 8001b10:	3b01      	subs	r3, #1
 8001b12:	ea44 4102 	orr.w	r1, r4, r2, lsl #16
 8001b16:	ea41 5203 	orr.w	r2, r1, r3, lsl #20
 8001b1a:	f10c 33ff 	add.w	r3, ip, #4294967295	; 0xffffffff
 8001b1e:	ea42 6303 	orr.w	r3, r2, r3, lsl #24
 8001b22:	6083      	str	r3, [r0, #8]
 8001b24:	e01f      	b.n	8001b66 <FMC_SDRAM_Timing_Init+0x90>
 8001b26:	68c1      	ldr	r1, [r0, #12]
 8001b28:	f106 3eff 	add.w	lr, r6, #4294967295	; 0xffffffff
 8001b2c:	f001 4870 	and.w	r8, r1, #4026531840	; 0xf0000000
 8001b30:	1e6f      	subs	r7, r5, #1
 8001b32:	ea4e 0808 	orr.w	r8, lr, r8
 8001b36:	1e66      	subs	r6, r4, #1
 8001b38:	ea48 1e07 	orr.w	lr, r8, r7, lsl #4
 8001b3c:	f109 35ff 	add.w	r5, r9, #4294967295	; 0xffffffff
 8001b40:	ea4e 2706 	orr.w	r7, lr, r6, lsl #8
 8001b44:	ea47 4605 	orr.w	r6, r7, r5, lsl #16
 8001b48:	f10c 35ff 	add.w	r5, ip, #4294967295	; 0xffffffff
 8001b4c:	ea46 6505 	orr.w	r5, r6, r5, lsl #24
 8001b50:	3b01      	subs	r3, #1
 8001b52:	6886      	ldr	r6, [r0, #8]
 8001b54:	60c5      	str	r5, [r0, #12]
 8001b56:	3a01      	subs	r2, #1
 8001b58:	051b      	lsls	r3, r3, #20
 8001b5a:	f006 4670 	and.w	r6, r6, #4026531840	; 0xf0000000
 8001b5e:	ea43 3202 	orr.w	r2, r3, r2, lsl #12
 8001b62:	4332      	orrs	r2, r6
 8001b64:	6082      	str	r2, [r0, #8]
 8001b66:	2000      	movs	r0, #0
 8001b68:	e8bd 83f0 	ldmia.w	sp!, {r4, r5, r6, r7, r8, r9, pc}

08001b6c <FMC_SDRAM_SendCommand>:
 8001b6c:	b573      	push	{r0, r1, r4, r5, r6, lr}
 8001b6e:	2300      	movs	r3, #0
 8001b70:	9301      	str	r3, [sp, #4]
 8001b72:	4604      	mov	r4, r0
 8001b74:	e891 0009 	ldmia.w	r1, {r0, r3}
 8001b78:	4303      	orrs	r3, r0
 8001b7a:	68c8      	ldr	r0, [r1, #12]
 8001b7c:	ea43 2040 	orr.w	r0, r3, r0, lsl #9
 8001b80:	688b      	ldr	r3, [r1, #8]
 8001b82:	3b01      	subs	r3, #1
 8001b84:	ea40 1343 	orr.w	r3, r0, r3, lsl #5
 8001b88:	9301      	str	r3, [sp, #4]
 8001b8a:	9b01      	ldr	r3, [sp, #4]
 8001b8c:	6123      	str	r3, [r4, #16]
 8001b8e:	4615      	mov	r5, r2
 8001b90:	f7fe fd32 	bl	80005f8 <HAL_GetTick>
 8001b94:	4606      	mov	r6, r0
 8001b96:	69a0      	ldr	r0, [r4, #24]
 8001b98:	f010 0020 	ands.w	r0, r0, #32
 8001b9c:	d00a      	beq.n	8001bb4 <FMC_SDRAM_SendCommand+0x48>
 8001b9e:	1c6b      	adds	r3, r5, #1
 8001ba0:	d0f9      	beq.n	8001b96 <FMC_SDRAM_SendCommand+0x2a>
 8001ba2:	b90d      	cbnz	r5, 8001ba8 <FMC_SDRAM_SendCommand+0x3c>
 8001ba4:	2003      	movs	r0, #3
 8001ba6:	e005      	b.n	8001bb4 <FMC_SDRAM_SendCommand+0x48>
 8001ba8:	f7fe fd26 	bl	80005f8 <HAL_GetTick>
 8001bac:	1b80      	subs	r0, r0, r6
 8001bae:	42a8      	cmp	r0, r5
 8001bb0:	d9f1      	bls.n	8001b96 <FMC_SDRAM_SendCommand+0x2a>
 8001bb2:	e7f7      	b.n	8001ba4 <FMC_SDRAM_SendCommand+0x38>
 8001bb4:	b002      	add	sp, #8
 8001bb6:	bd70      	pop	{r4, r5, r6, pc}

08001bb8 <FMC_SDRAM_ProgramRefreshRate>:
 8001bb8:	6943      	ldr	r3, [r0, #20]
 8001bba:	ea43 0141 	orr.w	r1, r3, r1, lsl #1
 8001bbe:	6141      	str	r1, [r0, #20]
 8001bc0:	2000      	movs	r0, #0
 8001bc2:	4770      	bx	lr

08001bc4 <HAL_DCMI_Init>:
 8001bc4:	b510      	push	{r4, lr}
 8001bc6:	4604      	mov	r4, r0
 8001bc8:	2800      	cmp	r0, #0
 8001bca:	d051      	beq.n	8001c70 <HAL_DCMI_Init+0xac>
 8001bcc:	f890 3035 	ldrb.w	r3, [r0, #53]	; 0x35
 8001bd0:	b90b      	cbnz	r3, 8001bd6 <HAL_DCMI_Init+0x12>
 8001bd2:	f000 fa24 	bl	800201e <HAL_DCMI_MspInit>
 8001bd6:	2302      	movs	r3, #2
 8001bd8:	f884 3035 	strb.w	r3, [r4, #53]	; 0x35
 8001bdc:	6823      	ldr	r3, [r4, #0]
 8001bde:	4a25      	ldr	r2, [pc, #148]	; (8001c74 <HAL_DCMI_Init+0xb0>)
 8001be0:	6819      	ldr	r1, [r3, #0]
 8001be2:	6860      	ldr	r0, [r4, #4]
 8001be4:	400a      	ands	r2, r1
 8001be6:	601a      	str	r2, [r3, #0]
 8001be8:	6819      	ldr	r1, [r3, #0]
 8001bea:	6962      	ldr	r2, [r4, #20]
 8001bec:	4301      	orrs	r1, r0
 8001bee:	4311      	orrs	r1, r2
 8001bf0:	68e2      	ldr	r2, [r4, #12]
 8001bf2:	4311      	orrs	r1, r2
 8001bf4:	6922      	ldr	r2, [r4, #16]
 8001bf6:	4311      	orrs	r1, r2
 8001bf8:	68a2      	ldr	r2, [r4, #8]
 8001bfa:	4311      	orrs	r1, r2
 8001bfc:	69a2      	ldr	r2, [r4, #24]
 8001bfe:	4311      	orrs	r1, r2
 8001c00:	6a22      	ldr	r2, [r4, #32]
 8001c02:	4311      	orrs	r1, r2
 8001c04:	6a62      	ldr	r2, [r4, #36]	; 0x24
 8001c06:	4311      	orrs	r1, r2
 8001c08:	6aa2      	ldr	r2, [r4, #40]	; 0x28
 8001c0a:	4311      	orrs	r1, r2
 8001c0c:	6ae2      	ldr	r2, [r4, #44]	; 0x2c
 8001c0e:	4311      	orrs	r1, r2
 8001c10:	6b22      	ldr	r2, [r4, #48]	; 0x30
 8001c12:	2810      	cmp	r0, #16
 8001c14:	ea42 0201 	orr.w	r2, r2, r1
 8001c18:	601a      	str	r2, [r3, #0]
 8001c1a:	d10b      	bne.n	8001c34 <HAL_DCMI_Init+0x70>
 8001c1c:	7fa2      	ldrb	r2, [r4, #30]
 8001c1e:	7f61      	ldrb	r1, [r4, #29]
 8001c20:	0412      	lsls	r2, r2, #16
 8001c22:	ea42 2201 	orr.w	r2, r2, r1, lsl #8
 8001c26:	7f21      	ldrb	r1, [r4, #28]
 8001c28:	430a      	orrs	r2, r1
 8001c2a:	7fe1      	ldrb	r1, [r4, #31]
 8001c2c:	ea42 6201 	orr.w	r2, r2, r1, lsl #24
 8001c30:	4911      	ldr	r1, [pc, #68]	; (8001c78 <HAL_DCMI_Init+0xb4>)
 8001c32:	618a      	str	r2, [r1, #24]
 8001c34:	68da      	ldr	r2, [r3, #12]
 8001c36:	f042 0210 	orr.w	r2, r2, #16
 8001c3a:	60da      	str	r2, [r3, #12]
 8001c3c:	68da      	ldr	r2, [r3, #12]
 8001c3e:	f042 0208 	orr.w	r2, r2, #8
 8001c42:	60da      	str	r2, [r3, #12]
 8001c44:	68da      	ldr	r2, [r3, #12]
 8001c46:	f042 0201 	orr.w	r2, r2, #1
 8001c4a:	60da      	str	r2, [r3, #12]
 8001c4c:	68da      	ldr	r2, [r3, #12]
 8001c4e:	f042 0204 	orr.w	r2, r2, #4
 8001c52:	60da      	str	r2, [r3, #12]
 8001c54:	68da      	ldr	r2, [r3, #12]
 8001c56:	f042 0202 	orr.w	r2, r2, #2
 8001c5a:	60da      	str	r2, [r3, #12]
 8001c5c:	681a      	ldr	r2, [r3, #0]
 8001c5e:	f442 4280 	orr.w	r2, r2, #16384	; 0x4000
 8001c62:	601a      	str	r2, [r3, #0]
 8001c64:	2000      	movs	r0, #0
 8001c66:	2301      	movs	r3, #1
 8001c68:	64e0      	str	r0, [r4, #76]	; 0x4c
 8001c6a:	f884 3035 	strb.w	r3, [r4, #53]	; 0x35
 8001c6e:	bd10      	pop	{r4, pc}
 8001c70:	2001      	movs	r0, #1
 8001c72:	bd10      	pop	{r4, pc}
 8001c74:	ffe0f007 			; <UNDEFINED> instruction: 0xffe0f007
 8001c78:	50050000 	andpl	r0, r5, r0

08001c7c <LTDC_SetConfig>:
 8001c7c:	e92d 43f0 	stmdb	sp!, {r4, r5, r6, r7, r8, r9, lr}
 8001c80:	6807      	ldr	r7, [r0, #0]
 8001c82:	684c      	ldr	r4, [r1, #4]
 8001c84:	68fd      	ldr	r5, [r7, #12]
 8001c86:	f8d1 9018 	ldr.w	r9, [r1, #24]
 8001c8a:	f107 0e84 	add.w	lr, r7, #132	; 0x84
 8001c8e:	01d2      	lsls	r2, r2, #7
 8001c90:	eb0e 0302 	add.w	r3, lr, r2
 8001c94:	f3c5 450b 	ubfx	r5, r5, #16, #12
 8001c98:	6858      	ldr	r0, [r3, #4]
 8001c9a:	f400 4070 	and.w	r0, r0, #61440	; 0xf000
 8001c9e:	6058      	str	r0, [r3, #4]
 8001ca0:	68fe      	ldr	r6, [r7, #12]
 8001ca2:	6808      	ldr	r0, [r1, #0]
 8001ca4:	eb05 0c04 	add.w	ip, r5, r4
 8001ca8:	f3c6 460b 	ubfx	r6, r6, #16, #12
 8001cac:	1c45      	adds	r5, r0, #1
 8001cae:	4435      	add	r5, r6
 8001cb0:	ea45 450c 	orr.w	r5, r5, ip, lsl #16
 8001cb4:	605d      	str	r5, [r3, #4]
 8001cb6:	68fd      	ldr	r5, [r7, #12]
 8001cb8:	68ce      	ldr	r6, [r1, #12]
 8001cba:	f3c5 050a 	ubfx	r5, r5, #0, #11
 8001cbe:	eb05 0c06 	add.w	ip, r5, r6
 8001cc2:	689d      	ldr	r5, [r3, #8]
 8001cc4:	f405 4570 	and.w	r5, r5, #61440	; 0xf000
 8001cc8:	609d      	str	r5, [r3, #8]
 8001cca:	68fe      	ldr	r6, [r7, #12]
 8001ccc:	688f      	ldr	r7, [r1, #8]
 8001cce:	f3c6 060a 	ubfx	r6, r6, #0, #11
 8001cd2:	1c7d      	adds	r5, r7, #1
 8001cd4:	4435      	add	r5, r6
 8001cd6:	ea45 450c 	orr.w	r5, r5, ip, lsl #16
 8001cda:	609d      	str	r5, [r3, #8]
 8001cdc:	691d      	ldr	r5, [r3, #16]
 8001cde:	690f      	ldr	r7, [r1, #16]
 8001ce0:	f025 0507 	bic.w	r5, r5, #7
 8001ce4:	611d      	str	r5, [r3, #16]
 8001ce6:	f04f 0c00 	mov.w	ip, #0
 8001cea:	611f      	str	r7, [r3, #16]
 8001cec:	699e      	ldr	r6, [r3, #24]
 8001cee:	f891 5031 	ldrb.w	r5, [r1, #49]	; 0x31
 8001cf2:	f891 8032 	ldrb.w	r8, [r1, #50]	; 0x32
 8001cf6:	f8c3 c018 	str.w	ip, [r3, #24]
 8001cfa:	f891 6030 	ldrb.w	r6, [r1, #48]	; 0x30
 8001cfe:	ea46 6609 	orr.w	r6, r6, r9, lsl #24
 8001d02:	ea46 2505 	orr.w	r5, r6, r5, lsl #8
 8001d06:	ea45 4508 	orr.w	r5, r5, r8, lsl #16
 8001d0a:	619d      	str	r5, [r3, #24]
 8001d0c:	695d      	ldr	r5, [r3, #20]
 8001d0e:	f025 05ff 	bic.w	r5, r5, #255	; 0xff
 8001d12:	615d      	str	r5, [r3, #20]
 8001d14:	694d      	ldr	r5, [r1, #20]
 8001d16:	615d      	str	r5, [r3, #20]
 8001d18:	69dd      	ldr	r5, [r3, #28]
 8001d1a:	f425 65e0 	bic.w	r5, r5, #1792	; 0x700
 8001d1e:	f025 0507 	bic.w	r5, r5, #7
 8001d22:	61dd      	str	r5, [r3, #28]
 8001d24:	6a0e      	ldr	r6, [r1, #32]
 8001d26:	69cd      	ldr	r5, [r1, #28]
 8001d28:	4335      	orrs	r5, r6
 8001d2a:	61dd      	str	r5, [r3, #28]
 8001d2c:	6a9d      	ldr	r5, [r3, #40]	; 0x28
 8001d2e:	6a4d      	ldr	r5, [r1, #36]	; 0x24
 8001d30:	f8c3 c028 	str.w	ip, [r3, #40]	; 0x28
 8001d34:	629d      	str	r5, [r3, #40]	; 0x28
 8001d36:	b14f      	cbz	r7, 8001d4c <LTDC_SetConfig+0xd0>
 8001d38:	2f01      	cmp	r7, #1
 8001d3a:	d009      	beq.n	8001d50 <LTDC_SetConfig+0xd4>
 8001d3c:	1ebd      	subs	r5, r7, #2
 8001d3e:	2d02      	cmp	r5, #2
 8001d40:	d908      	bls.n	8001d54 <LTDC_SetConfig+0xd8>
 8001d42:	2f07      	cmp	r7, #7
 8001d44:	bf0c      	ite	eq
 8001d46:	2502      	moveq	r5, #2
 8001d48:	2501      	movne	r5, #1
 8001d4a:	e004      	b.n	8001d56 <LTDC_SetConfig+0xda>
 8001d4c:	2504      	movs	r5, #4
 8001d4e:	e002      	b.n	8001d56 <LTDC_SetConfig+0xda>
 8001d50:	2503      	movs	r5, #3
 8001d52:	e000      	b.n	8001d56 <LTDC_SetConfig+0xda>
 8001d54:	2502      	movs	r5, #2
 8001d56:	1a24      	subs	r4, r4, r0
 8001d58:	436c      	muls	r4, r5
 8001d5a:	1ce0      	adds	r0, r4, #3
 8001d5c:	6a8c      	ldr	r4, [r1, #40]	; 0x28
 8001d5e:	6ade      	ldr	r6, [r3, #44]	; 0x2c
 8001d60:	6ac9      	ldr	r1, [r1, #44]	; 0x2c
 8001d62:	436c      	muls	r4, r5
 8001d64:	ea40 4404 	orr.w	r4, r0, r4, lsl #16
 8001d68:	f006 26e0 	and.w	r6, r6, #3758153728	; 0xe000e000
 8001d6c:	62de      	str	r6, [r3, #44]	; 0x2c
 8001d6e:	62dc      	str	r4, [r3, #44]	; 0x2c
 8001d70:	6b18      	ldr	r0, [r3, #48]	; 0x30
 8001d72:	f420 60ff 	bic.w	r0, r0, #2040	; 0x7f8
 8001d76:	f020 0007 	bic.w	r0, r0, #7
 8001d7a:	6318      	str	r0, [r3, #48]	; 0x30
 8001d7c:	6319      	str	r1, [r3, #48]	; 0x30
 8001d7e:	f85e 3002 	ldr.w	r3, [lr, r2]
 8001d82:	f043 0301 	orr.w	r3, r3, #1
 8001d86:	f84e 3002 	str.w	r3, [lr, r2]
 8001d8a:	e8bd 83f0 	ldmia.w	sp!, {r4, r5, r6, r7, r8, r9, pc}

08001d8e <HAL_LTDC_MspInit>:
 8001d8e:	4770      	bx	lr

08001d90 <HAL_LTDC_Init>:
 8001d90:	b538      	push	{r3, r4, r5, lr}
 8001d92:	4604      	mov	r4, r0
 8001d94:	2800      	cmp	r0, #0
 8001d96:	d06a      	beq.n	8001e6e <HAL_LTDC_Init+0xde>
 8001d98:	f890 30a1 	ldrb.w	r3, [r0, #161]	; 0xa1
 8001d9c:	f003 02ff 	and.w	r2, r3, #255	; 0xff
 8001da0:	b91b      	cbnz	r3, 8001daa <HAL_LTDC_Init+0x1a>
 8001da2:	f880 20a0 	strb.w	r2, [r0, #160]	; 0xa0
 8001da6:	f7ff fff2 	bl	8001d8e <HAL_LTDC_MspInit>
 8001daa:	2302      	movs	r3, #2
 8001dac:	f884 30a1 	strb.w	r3, [r4, #161]	; 0xa1
 8001db0:	6823      	ldr	r3, [r4, #0]
 8001db2:	699a      	ldr	r2, [r3, #24]
 8001db4:	f022 4270 	bic.w	r2, r2, #4026531840	; 0xf0000000
 8001db8:	619a      	str	r2, [r3, #24]
 8001dba:	6999      	ldr	r1, [r3, #24]
 8001dbc:	6862      	ldr	r2, [r4, #4]
 8001dbe:	4311      	orrs	r1, r2
 8001dc0:	68a2      	ldr	r2, [r4, #8]
 8001dc2:	4311      	orrs	r1, r2
 8001dc4:	68e2      	ldr	r2, [r4, #12]
 8001dc6:	4311      	orrs	r1, r2
 8001dc8:	6922      	ldr	r2, [r4, #16]
 8001dca:	430a      	orrs	r2, r1
 8001dcc:	619a      	str	r2, [r3, #24]
 8001dce:	6899      	ldr	r1, [r3, #8]
 8001dd0:	4a28      	ldr	r2, [pc, #160]	; (8001e74 <HAL_LTDC_Init+0xe4>)
 8001dd2:	400a      	ands	r2, r1
 8001dd4:	609a      	str	r2, [r3, #8]
 8001dd6:	6899      	ldr	r1, [r3, #8]
 8001dd8:	69a2      	ldr	r2, [r4, #24]
 8001dda:	430a      	orrs	r2, r1
 8001ddc:	6961      	ldr	r1, [r4, #20]
 8001dde:	ea42 4201 	orr.w	r2, r2, r1, lsl #16
 8001de2:	609a      	str	r2, [r3, #8]
 8001de4:	68d9      	ldr	r1, [r3, #12]
 8001de6:	4a23      	ldr	r2, [pc, #140]	; (8001e74 <HAL_LTDC_Init+0xe4>)
 8001de8:	400a      	ands	r2, r1
 8001dea:	60da      	str	r2, [r3, #12]
 8001dec:	68d9      	ldr	r1, [r3, #12]
 8001dee:	6a22      	ldr	r2, [r4, #32]
 8001df0:	430a      	orrs	r2, r1
 8001df2:	69e1      	ldr	r1, [r4, #28]
 8001df4:	ea42 4201 	orr.w	r2, r2, r1, lsl #16
 8001df8:	60da      	str	r2, [r3, #12]
 8001dfa:	6919      	ldr	r1, [r3, #16]
 8001dfc:	4a1d      	ldr	r2, [pc, #116]	; (8001e74 <HAL_LTDC_Init+0xe4>)
 8001dfe:	400a      	ands	r2, r1
 8001e00:	611a      	str	r2, [r3, #16]
 8001e02:	6919      	ldr	r1, [r3, #16]
 8001e04:	6aa2      	ldr	r2, [r4, #40]	; 0x28
 8001e06:	430a      	orrs	r2, r1
 8001e08:	6a61      	ldr	r1, [r4, #36]	; 0x24
 8001e0a:	ea42 4201 	orr.w	r2, r2, r1, lsl #16
 8001e0e:	611a      	str	r2, [r3, #16]
 8001e10:	6959      	ldr	r1, [r3, #20]
 8001e12:	4a18      	ldr	r2, [pc, #96]	; (8001e74 <HAL_LTDC_Init+0xe4>)
 8001e14:	400a      	ands	r2, r1
 8001e16:	615a      	str	r2, [r3, #20]
 8001e18:	6959      	ldr	r1, [r3, #20]
 8001e1a:	6b22      	ldr	r2, [r4, #48]	; 0x30
 8001e1c:	430a      	orrs	r2, r1
 8001e1e:	6ae1      	ldr	r1, [r4, #44]	; 0x2c
 8001e20:	ea42 4201 	orr.w	r2, r2, r1, lsl #16
 8001e24:	615a      	str	r2, [r3, #20]
 8001e26:	6ad9      	ldr	r1, [r3, #44]	; 0x2c
 8001e28:	f894 0036 	ldrb.w	r0, [r4, #54]	; 0x36
 8001e2c:	f894 2035 	ldrb.w	r2, [r4, #53]	; 0x35
 8001e30:	f001 417f 	and.w	r1, r1, #4278190080	; 0xff000000
 8001e34:	62d9      	str	r1, [r3, #44]	; 0x2c
 8001e36:	6ad9      	ldr	r1, [r3, #44]	; 0x2c
 8001e38:	f894 5034 	ldrb.w	r5, [r4, #52]	; 0x34
 8001e3c:	4329      	orrs	r1, r5
 8001e3e:	ea41 2202 	orr.w	r2, r1, r2, lsl #8
 8001e42:	ea42 4200 	orr.w	r2, r2, r0, lsl #16
 8001e46:	62da      	str	r2, [r3, #44]	; 0x2c
 8001e48:	6b5a      	ldr	r2, [r3, #52]	; 0x34
 8001e4a:	f042 0204 	orr.w	r2, r2, #4
 8001e4e:	635a      	str	r2, [r3, #52]	; 0x34
 8001e50:	6b5a      	ldr	r2, [r3, #52]	; 0x34
 8001e52:	f042 0202 	orr.w	r2, r2, #2
 8001e56:	635a      	str	r2, [r3, #52]	; 0x34
 8001e58:	699a      	ldr	r2, [r3, #24]
 8001e5a:	f042 0201 	orr.w	r2, r2, #1
 8001e5e:	619a      	str	r2, [r3, #24]
 8001e60:	2000      	movs	r0, #0
 8001e62:	2301      	movs	r3, #1
 8001e64:	f8c4 00a4 	str.w	r0, [r4, #164]	; 0xa4
 8001e68:	f884 30a1 	strb.w	r3, [r4, #161]	; 0xa1
 8001e6c:	bd38      	pop	{r3, r4, r5, pc}
 8001e6e:	2001      	movs	r0, #1
 8001e70:	bd38      	pop	{r3, r4, r5, pc}
 8001e72:	bf00      	nop
 8001e74:	f000f800 			; <UNDEFINED> instruction: 0xf000f800

08001e78 <HAL_LTDC_ConfigLayer>:
 8001e78:	b5f8      	push	{r3, r4, r5, r6, r7, lr}
 8001e7a:	f890 30a0 	ldrb.w	r3, [r0, #160]	; 0xa0
 8001e7e:	2b01      	cmp	r3, #1
 8001e80:	4606      	mov	r6, r0
 8001e82:	468c      	mov	ip, r1
 8001e84:	4696      	mov	lr, r2
 8001e86:	f04f 0002 	mov.w	r0, #2
 8001e8a:	d01d      	beq.n	8001ec8 <HAL_LTDC_ConfigLayer+0x50>
 8001e8c:	2701      	movs	r7, #1
 8001e8e:	f886 70a0 	strb.w	r7, [r6, #160]	; 0xa0
 8001e92:	f886 00a1 	strb.w	r0, [r6, #161]	; 0xa1
 8001e96:	2434      	movs	r4, #52	; 0x34
 8001e98:	460d      	mov	r5, r1
 8001e9a:	fb04 6402 	mla	r4, r4, r2, r6
 8001e9e:	cd0f      	ldmia	r5!, {r0, r1, r2, r3}
 8001ea0:	3438      	adds	r4, #56	; 0x38
 8001ea2:	c40f      	stmia	r4!, {r0, r1, r2, r3}
 8001ea4:	cd0f      	ldmia	r5!, {r0, r1, r2, r3}
 8001ea6:	c40f      	stmia	r4!, {r0, r1, r2, r3}
 8001ea8:	cd0f      	ldmia	r5!, {r0, r1, r2, r3}
 8001eaa:	c40f      	stmia	r4!, {r0, r1, r2, r3}
 8001eac:	682b      	ldr	r3, [r5, #0]
 8001eae:	6023      	str	r3, [r4, #0]
 8001eb0:	4630      	mov	r0, r6
 8001eb2:	4661      	mov	r1, ip
 8001eb4:	4672      	mov	r2, lr
 8001eb6:	f7ff fee1 	bl	8001c7c <LTDC_SetConfig>
 8001eba:	6833      	ldr	r3, [r6, #0]
 8001ebc:	2000      	movs	r0, #0
 8001ebe:	625f      	str	r7, [r3, #36]	; 0x24
 8001ec0:	f886 70a1 	strb.w	r7, [r6, #161]	; 0xa1
 8001ec4:	f886 00a0 	strb.w	r0, [r6, #160]	; 0xa0
 8001ec8:	bdf8      	pop	{r3, r4, r5, r6, r7, pc}

08001eca <HAL_LTDC_SetAlpha>:
 8001eca:	f890 30a0 	ldrb.w	r3, [r0, #160]	; 0xa0
 8001ece:	2b01      	cmp	r3, #1
 8001ed0:	b570      	push	{r4, r5, r6, lr}
 8001ed2:	f04f 0302 	mov.w	r3, #2
 8001ed6:	4604      	mov	r4, r0
 8001ed8:	d015      	beq.n	8001f06 <HAL_LTDC_SetAlpha+0x3c>
 8001eda:	f880 30a1 	strb.w	r3, [r0, #161]	; 0xa1
 8001ede:	2334      	movs	r3, #52	; 0x34
 8001ee0:	4353      	muls	r3, r2
 8001ee2:	18c6      	adds	r6, r0, r3
 8001ee4:	2501      	movs	r5, #1
 8001ee6:	f880 50a0 	strb.w	r5, [r0, #160]	; 0xa0
 8001eea:	64f1      	str	r1, [r6, #76]	; 0x4c
 8001eec:	f103 0138 	add.w	r1, r3, #56	; 0x38
 8001ef0:	4401      	add	r1, r0
 8001ef2:	f7ff fec3 	bl	8001c7c <LTDC_SetConfig>
 8001ef6:	6823      	ldr	r3, [r4, #0]
 8001ef8:	2000      	movs	r0, #0
 8001efa:	625d      	str	r5, [r3, #36]	; 0x24
 8001efc:	f884 50a1 	strb.w	r5, [r4, #161]	; 0xa1
 8001f00:	f884 00a0 	strb.w	r0, [r4, #160]	; 0xa0
 8001f04:	bd70      	pop	{r4, r5, r6, pc}
 8001f06:	4618      	mov	r0, r3
 8001f08:	bd70      	pop	{r4, r5, r6, pc}

08001f0a <HAL_LTDC_GetState>:
 8001f0a:	f890 00a1 	ldrb.w	r0, [r0, #161]	; 0xa1
 8001f0e:	4770      	bx	lr

08001f10 <HAL_TIM_Base_MspInit>:
 8001f10:	4770      	bx	lr

08001f12 <HAL_TIM_Base_Start_IT>:
 8001f12:	6803      	ldr	r3, [r0, #0]
 8001f14:	68da      	ldr	r2, [r3, #12]
 8001f16:	f042 0201 	orr.w	r2, r2, #1
 8001f1a:	60da      	str	r2, [r3, #12]
 8001f1c:	681a      	ldr	r2, [r3, #0]
 8001f1e:	f042 0201 	orr.w	r2, r2, #1
 8001f22:	601a      	str	r2, [r3, #0]
 8001f24:	2000      	movs	r0, #0
 8001f26:	4770      	bx	lr

08001f28 <TIM_Base_SetConfig>:
 8001f28:	4a2e      	ldr	r2, [pc, #184]	; (8001fe4 <TIM_Base_SetConfig+0xbc>)
 8001f2a:	6803      	ldr	r3, [r0, #0]
 8001f2c:	4290      	cmp	r0, r2
 8001f2e:	d012      	beq.n	8001f56 <TIM_Base_SetConfig+0x2e>
 8001f30:	f1b0 4f80 	cmp.w	r0, #1073741824	; 0x40000000
 8001f34:	d00f      	beq.n	8001f56 <TIM_Base_SetConfig+0x2e>
 8001f36:	f5a2 427c 	sub.w	r2, r2, #64512	; 0xfc00
 8001f3a:	4290      	cmp	r0, r2
 8001f3c:	d00b      	beq.n	8001f56 <TIM_Base_SetConfig+0x2e>
 8001f3e:	f502 6280 	add.w	r2, r2, #1024	; 0x400
 8001f42:	4290      	cmp	r0, r2
 8001f44:	d007      	beq.n	8001f56 <TIM_Base_SetConfig+0x2e>
 8001f46:	f502 6280 	add.w	r2, r2, #1024	; 0x400
 8001f4a:	4290      	cmp	r0, r2
 8001f4c:	d003      	beq.n	8001f56 <TIM_Base_SetConfig+0x2e>
 8001f4e:	f502 4278 	add.w	r2, r2, #63488	; 0xf800
 8001f52:	4290      	cmp	r0, r2
 8001f54:	d118      	bne.n	8001f88 <TIM_Base_SetConfig+0x60>
 8001f56:	684a      	ldr	r2, [r1, #4]
 8001f58:	f023 0370 	bic.w	r3, r3, #112	; 0x70
 8001f5c:	4313      	orrs	r3, r2
 8001f5e:	4a21      	ldr	r2, [pc, #132]	; (8001fe4 <TIM_Base_SetConfig+0xbc>)
 8001f60:	4290      	cmp	r0, r2
 8001f62:	d037      	beq.n	8001fd4 <TIM_Base_SetConfig+0xac>
 8001f64:	f1b0 4f80 	cmp.w	r0, #1073741824	; 0x40000000
 8001f68:	d034      	beq.n	8001fd4 <TIM_Base_SetConfig+0xac>
 8001f6a:	4a1f      	ldr	r2, [pc, #124]	; (8001fe8 <TIM_Base_SetConfig+0xc0>)
 8001f6c:	4290      	cmp	r0, r2
 8001f6e:	d031      	beq.n	8001fd4 <TIM_Base_SetConfig+0xac>
 8001f70:	f502 6280 	add.w	r2, r2, #1024	; 0x400
 8001f74:	4290      	cmp	r0, r2
 8001f76:	d02d      	beq.n	8001fd4 <TIM_Base_SetConfig+0xac>
 8001f78:	f502 6280 	add.w	r2, r2, #1024	; 0x400
 8001f7c:	4290      	cmp	r0, r2
 8001f7e:	d029      	beq.n	8001fd4 <TIM_Base_SetConfig+0xac>
 8001f80:	f502 4278 	add.w	r2, r2, #63488	; 0xf800
 8001f84:	4290      	cmp	r0, r2
 8001f86:	d025      	beq.n	8001fd4 <TIM_Base_SetConfig+0xac>
 8001f88:	4a18      	ldr	r2, [pc, #96]	; (8001fec <TIM_Base_SetConfig+0xc4>)
 8001f8a:	4290      	cmp	r0, r2
 8001f8c:	d022      	beq.n	8001fd4 <TIM_Base_SetConfig+0xac>
 8001f8e:	f502 6280 	add.w	r2, r2, #1024	; 0x400
 8001f92:	4290      	cmp	r0, r2
 8001f94:	d01e      	beq.n	8001fd4 <TIM_Base_SetConfig+0xac>
 8001f96:	f502 6280 	add.w	r2, r2, #1024	; 0x400
 8001f9a:	4290      	cmp	r0, r2
 8001f9c:	d01a      	beq.n	8001fd4 <TIM_Base_SetConfig+0xac>
 8001f9e:	f5a2 3298 	sub.w	r2, r2, #77824	; 0x13000
 8001fa2:	4290      	cmp	r0, r2
 8001fa4:	d016      	beq.n	8001fd4 <TIM_Base_SetConfig+0xac>
 8001fa6:	f502 6280 	add.w	r2, r2, #1024	; 0x400
 8001faa:	4290      	cmp	r0, r2
 8001fac:	d012      	beq.n	8001fd4 <TIM_Base_SetConfig+0xac>
 8001fae:	f502 6280 	add.w	r2, r2, #1024	; 0x400
 8001fb2:	4290      	cmp	r0, r2
 8001fb4:	d00e      	beq.n	8001fd4 <TIM_Base_SetConfig+0xac>
 8001fb6:	6003      	str	r3, [r0, #0]
 8001fb8:	688b      	ldr	r3, [r1, #8]
 8001fba:	62c3      	str	r3, [r0, #44]	; 0x2c
 8001fbc:	680b      	ldr	r3, [r1, #0]
 8001fbe:	6283      	str	r3, [r0, #40]	; 0x28
 8001fc0:	4b08      	ldr	r3, [pc, #32]	; (8001fe4 <TIM_Base_SetConfig+0xbc>)
 8001fc2:	4298      	cmp	r0, r3
 8001fc4:	d00b      	beq.n	8001fde <TIM_Base_SetConfig+0xb6>
 8001fc6:	f503 6380 	add.w	r3, r3, #1024	; 0x400
 8001fca:	4298      	cmp	r0, r3
 8001fcc:	d007      	beq.n	8001fde <TIM_Base_SetConfig+0xb6>
 8001fce:	2301      	movs	r3, #1
 8001fd0:	6143      	str	r3, [r0, #20]
 8001fd2:	4770      	bx	lr
 8001fd4:	68ca      	ldr	r2, [r1, #12]
 8001fd6:	f423 7340 	bic.w	r3, r3, #768	; 0x300
 8001fda:	4313      	orrs	r3, r2
 8001fdc:	e7eb      	b.n	8001fb6 <TIM_Base_SetConfig+0x8e>
 8001fde:	690b      	ldr	r3, [r1, #16]
 8001fe0:	6303      	str	r3, [r0, #48]	; 0x30
 8001fe2:	e7f4      	b.n	8001fce <TIM_Base_SetConfig+0xa6>
 8001fe4:	40010000 	andmi	r0, r1, r0
 8001fe8:	40000400 	andmi	r0, r0, r0, lsl #8
 8001fec:	40014000 	andmi	r4, r1, r0

08001ff0 <HAL_TIM_Base_Init>:
 8001ff0:	b510      	push	{r4, lr}
 8001ff2:	4604      	mov	r4, r0
 8001ff4:	b180      	cbz	r0, 8002018 <HAL_TIM_Base_Init+0x28>
 8001ff6:	f890 3039 	ldrb.w	r3, [r0, #57]	; 0x39
 8001ffa:	b90b      	cbnz	r3, 8002000 <HAL_TIM_Base_Init+0x10>
 8001ffc:	f7ff ff88 	bl	8001f10 <HAL_TIM_Base_MspInit>
 8002000:	2302      	movs	r3, #2
 8002002:	f884 3039 	strb.w	r3, [r4, #57]	; 0x39
 8002006:	6820      	ldr	r0, [r4, #0]
 8002008:	1d21      	adds	r1, r4, #4
 800200a:	f7ff ff8d 	bl	8001f28 <TIM_Base_SetConfig>
 800200e:	2301      	movs	r3, #1
 8002010:	f884 3039 	strb.w	r3, [r4, #57]	; 0x39
 8002014:	2000      	movs	r0, #0
 8002016:	bd10      	pop	{r4, pc}
 8002018:	2001      	movs	r0, #1
 800201a:	bd10      	pop	{r4, pc}

0800201c <HAL_MspInit>:
 800201c:	4770      	bx	lr

0800201e <HAL_DCMI_MspInit>:
 800201e:	4770      	bx	lr

08002020 <HAL_DCMI_Start_DMA>:
 8002020:	b5f7      	push	{r0, r1, r2, r4, r5, r6, r7, lr}
 8002022:	4604      	mov	r4, r0
 8002024:	f890 0034 	ldrb.w	r0, [r0, #52]	; 0x34
 8002028:	2801      	cmp	r0, #1
 800202a:	4616      	mov	r6, r2
 800202c:	f04f 0002 	mov.w	r0, #2
 8002030:	d041      	beq.n	80020b6 <HAL_DCMI_Start_DMA+0x96>
 8002032:	6825      	ldr	r5, [r4, #0]
 8002034:	f884 0035 	strb.w	r0, [r4, #53]	; 0x35
 8002038:	6828      	ldr	r0, [r5, #0]
 800203a:	f8df c088 	ldr.w	ip, [pc, #136]	; 80020c4 <HAL_DCMI_Start_DMA+0xa4>
 800203e:	f020 0002 	bic.w	r0, r0, #2
 8002042:	f04f 0e01 	mov.w	lr, #1
 8002046:	f884 e034 	strb.w	lr, [r4, #52]	; 0x34
 800204a:	6028      	str	r0, [r5, #0]
 800204c:	6828      	ldr	r0, [r5, #0]
 800204e:	4301      	orrs	r1, r0
 8002050:	6ca0      	ldr	r0, [r4, #72]	; 0x48
 8002052:	6029      	str	r1, [r5, #0]
 8002054:	f5b3 3f80 	cmp.w	r3, #65536	; 0x10000
 8002058:	4918      	ldr	r1, [pc, #96]	; (80020bc <HAL_DCMI_Start_DMA+0x9c>)
 800205a:	63c1      	str	r1, [r0, #60]	; 0x3c
 800205c:	f8c0 c048 	str.w	ip, [r0, #72]	; 0x48
 8002060:	d204      	bcs.n	800206c <HAL_DCMI_Start_DMA+0x4c>
 8002062:	f105 0128 	add.w	r1, r5, #40	; 0x28
 8002066:	f000 fa8f 	bl	8002588 <HAL_DMA_Start_IT>
 800206a:	e01e      	b.n	80020aa <HAL_DCMI_Start_DMA+0x8a>
 800206c:	6441      	str	r1, [r0, #68]	; 0x44
 800206e:	f8c4 e038 	str.w	lr, [r4, #56]	; 0x38
 8002072:	6462      	str	r2, [r4, #68]	; 0x44
 8002074:	63e3      	str	r3, [r4, #60]	; 0x3c
 8002076:	6be3      	ldr	r3, [r4, #60]	; 0x3c
 8002078:	f5b3 3f80 	cmp.w	r3, #65536	; 0x10000
 800207c:	d306      	bcc.n	800208c <HAL_DCMI_Start_DMA+0x6c>
 800207e:	6be3      	ldr	r3, [r4, #60]	; 0x3c
 8002080:	085b      	lsrs	r3, r3, #1
 8002082:	63e3      	str	r3, [r4, #60]	; 0x3c
 8002084:	6ba3      	ldr	r3, [r4, #56]	; 0x38
 8002086:	005b      	lsls	r3, r3, #1
 8002088:	63a3      	str	r3, [r4, #56]	; 0x38
 800208a:	e7f4      	b.n	8002076 <HAL_DCMI_Start_DMA+0x56>
 800208c:	6ba3      	ldr	r3, [r4, #56]	; 0x38
 800208e:	3b02      	subs	r3, #2
 8002090:	63a3      	str	r3, [r4, #56]	; 0x38
 8002092:	6ba3      	ldr	r3, [r4, #56]	; 0x38
 8002094:	6423      	str	r3, [r4, #64]	; 0x40
 8002096:	6be3      	ldr	r3, [r4, #60]	; 0x3c
 8002098:	6be2      	ldr	r2, [r4, #60]	; 0x3c
 800209a:	9200      	str	r2, [sp, #0]
 800209c:	f105 0128 	add.w	r1, r5, #40	; 0x28
 80020a0:	4632      	mov	r2, r6
 80020a2:	eb06 0383 	add.w	r3, r6, r3, lsl #2
 80020a6:	f000 f8e1 	bl	800226c <HAL_DMAEx_MultiBufferStart_IT>
 80020aa:	4a05      	ldr	r2, [pc, #20]	; (80020c0 <HAL_DCMI_Start_DMA+0xa0>)
 80020ac:	6813      	ldr	r3, [r2, #0]
 80020ae:	f043 0301 	orr.w	r3, r3, #1
 80020b2:	6013      	str	r3, [r2, #0]
 80020b4:	2000      	movs	r0, #0
 80020b6:	b003      	add	sp, #12
 80020b8:	bdf0      	pop	{r4, r5, r6, r7, pc}
 80020ba:	bf00      	nop
 80020bc:	080020df 	stmdaeq	r0, {r0, r1, r2, r3, r4, r6, r7, sp}
 80020c0:	50050000 	andpl	r0, r5, r0
 80020c4:	080020cb 	stmdaeq	r0, {r0, r1, r3, r6, r7, sp}

080020c8 <HAL_DCMI_ErrorCallback>:
 80020c8:	4770      	bx	lr

080020ca <DCMI_DMAError>:
 80020ca:	b508      	push	{r3, lr}
 80020cc:	6b80      	ldr	r0, [r0, #56]	; 0x38
 80020ce:	2301      	movs	r3, #1
 80020d0:	f880 3035 	strb.w	r3, [r0, #53]	; 0x35
 80020d4:	f7ff fff8 	bl	80020c8 <HAL_DCMI_ErrorCallback>
 80020d8:	bd08      	pop	{r3, pc}

080020da <HAL_DCMI_LineEventCallback>:
 80020da:	4770      	bx	lr

080020dc <HAL_DCMI_VsyncEventCallback>:
 80020dc:	4770      	bx	lr

080020de <DCMI_DMAConvCplt>:
 80020de:	b510      	push	{r4, lr}
 80020e0:	6b84      	ldr	r4, [r0, #56]	; 0x38
 80020e2:	2301      	movs	r3, #1
 80020e4:	f884 3035 	strb.w	r3, [r4, #53]	; 0x35
 80020e8:	6ba3      	ldr	r3, [r4, #56]	; 0x38
 80020ea:	6ca0      	ldr	r0, [r4, #72]	; 0x48
 80020ec:	b1cb      	cbz	r3, 8002122 <DCMI_DMAConvCplt+0x44>
 80020ee:	6803      	ldr	r3, [r0, #0]
 80020f0:	6819      	ldr	r1, [r3, #0]
 80020f2:	6ba2      	ldr	r2, [r4, #56]	; 0x38
 80020f4:	f012 0201 	ands.w	r2, r2, #1
 80020f8:	d106      	bne.n	8002108 <DCMI_DMAConvCplt+0x2a>
 80020fa:	0309      	lsls	r1, r1, #12
 80020fc:	d504      	bpl.n	8002108 <DCMI_DMAConvCplt+0x2a>
 80020fe:	68db      	ldr	r3, [r3, #12]
 8002100:	6be1      	ldr	r1, [r4, #60]	; 0x3c
 8002102:	eb03 01c1 	add.w	r1, r3, r1, lsl #3
 8002106:	e007      	b.n	8002118 <DCMI_DMAConvCplt+0x3a>
 8002108:	681a      	ldr	r2, [r3, #0]
 800210a:	0312      	lsls	r2, r2, #12
 800210c:	d41a      	bmi.n	8002144 <DCMI_DMAConvCplt+0x66>
 800210e:	691b      	ldr	r3, [r3, #16]
 8002110:	6be1      	ldr	r1, [r4, #60]	; 0x3c
 8002112:	2201      	movs	r2, #1
 8002114:	eb03 01c1 	add.w	r1, r3, r1, lsl #3
 8002118:	f000 f8ea 	bl	80022f0 <HAL_DMAEx_ChangeMemory>
 800211c:	6ba3      	ldr	r3, [r4, #56]	; 0x38
 800211e:	3b01      	subs	r3, #1
 8002120:	e00f      	b.n	8002142 <DCMI_DMAConvCplt+0x64>
 8002122:	6803      	ldr	r3, [r0, #0]
 8002124:	681a      	ldr	r2, [r3, #0]
 8002126:	0311      	lsls	r1, r2, #12
 8002128:	d502      	bpl.n	8002130 <DCMI_DMAConvCplt+0x52>
 800212a:	6c62      	ldr	r2, [r4, #68]	; 0x44
 800212c:	60da      	str	r2, [r3, #12]
 800212e:	e009      	b.n	8002144 <DCMI_DMAConvCplt+0x66>
 8002130:	681a      	ldr	r2, [r3, #0]
 8002132:	0312      	lsls	r2, r2, #12
 8002134:	d406      	bmi.n	8002144 <DCMI_DMAConvCplt+0x66>
 8002136:	6be1      	ldr	r1, [r4, #60]	; 0x3c
 8002138:	6c62      	ldr	r2, [r4, #68]	; 0x44
 800213a:	eb02 0281 	add.w	r2, r2, r1, lsl #2
 800213e:	611a      	str	r2, [r3, #16]
 8002140:	6c23      	ldr	r3, [r4, #64]	; 0x40
 8002142:	63a3      	str	r3, [r4, #56]	; 0x38
 8002144:	6823      	ldr	r3, [r4, #0]
 8002146:	689b      	ldr	r3, [r3, #8]
 8002148:	07db      	lsls	r3, r3, #31
 800214a:	d505      	bpl.n	8002158 <DCMI_DMAConvCplt+0x7a>
 800214c:	2300      	movs	r3, #0
 800214e:	f884 3034 	strb.w	r3, [r4, #52]	; 0x34
 8002152:	4620      	mov	r0, r4
 8002154:	f001 fa98 	bl	8003688 <HAL_DCMI_FrameEventCallback>
 8002158:	bd10      	pop	{r4, pc}

0800215a <HAL_DCMI_IRQHandler>:
 800215a:	6803      	ldr	r3, [r0, #0]
 800215c:	689a      	ldr	r2, [r3, #8]
 800215e:	0752      	lsls	r2, r2, #29
 8002160:	b510      	push	{r4, lr}
 8002162:	4604      	mov	r4, r0
 8002164:	d517      	bpl.n	8002196 <HAL_DCMI_IRQHandler+0x3c>
 8002166:	691a      	ldr	r2, [r3, #16]
 8002168:	0750      	lsls	r0, r2, #29
 800216a:	d514      	bpl.n	8002196 <HAL_DCMI_IRQHandler+0x3c>
 800216c:	68da      	ldr	r2, [r3, #12]
 800216e:	6ca0      	ldr	r0, [r4, #72]	; 0x48
 8002170:	f022 0204 	bic.w	r2, r2, #4
 8002174:	60da      	str	r2, [r3, #12]
 8002176:	2204      	movs	r2, #4
 8002178:	615a      	str	r2, [r3, #20]
 800217a:	6ce3      	ldr	r3, [r4, #76]	; 0x4c
 800217c:	f043 0302 	orr.w	r3, r3, #2
 8002180:	64e3      	str	r3, [r4, #76]	; 0x4c
 8002182:	2300      	movs	r3, #0
 8002184:	f884 2035 	strb.w	r2, [r4, #53]	; 0x35
 8002188:	f884 3034 	strb.w	r3, [r4, #52]	; 0x34
 800218c:	f000 fa29 	bl	80025e2 <HAL_DMA_Abort>
 8002190:	4620      	mov	r0, r4
 8002192:	f7ff ff99 	bl	80020c8 <HAL_DCMI_ErrorCallback>
 8002196:	6823      	ldr	r3, [r4, #0]
 8002198:	689a      	ldr	r2, [r3, #8]
 800219a:	0791      	lsls	r1, r2, #30
 800219c:	d518      	bpl.n	80021d0 <HAL_DCMI_IRQHandler+0x76>
 800219e:	691a      	ldr	r2, [r3, #16]
 80021a0:	0792      	lsls	r2, r2, #30
 80021a2:	d515      	bpl.n	80021d0 <HAL_DCMI_IRQHandler+0x76>
 80021a4:	68da      	ldr	r2, [r3, #12]
 80021a6:	6ca0      	ldr	r0, [r4, #72]	; 0x48
 80021a8:	f022 0202 	bic.w	r2, r2, #2
 80021ac:	60da      	str	r2, [r3, #12]
 80021ae:	2202      	movs	r2, #2
 80021b0:	615a      	str	r2, [r3, #20]
 80021b2:	6ce3      	ldr	r3, [r4, #76]	; 0x4c
 80021b4:	f043 0301 	orr.w	r3, r3, #1
 80021b8:	64e3      	str	r3, [r4, #76]	; 0x4c
 80021ba:	2304      	movs	r3, #4
 80021bc:	f884 3035 	strb.w	r3, [r4, #53]	; 0x35
 80021c0:	2300      	movs	r3, #0
 80021c2:	f884 3034 	strb.w	r3, [r4, #52]	; 0x34
 80021c6:	f000 fa0c 	bl	80025e2 <HAL_DMA_Abort>
 80021ca:	4620      	mov	r0, r4
 80021cc:	f7ff ff7c 	bl	80020c8 <HAL_DCMI_ErrorCallback>
 80021d0:	6823      	ldr	r3, [r4, #0]
 80021d2:	689a      	ldr	r2, [r3, #8]
 80021d4:	06d0      	lsls	r0, r2, #27
 80021d6:	d50a      	bpl.n	80021ee <HAL_DCMI_IRQHandler+0x94>
 80021d8:	691a      	ldr	r2, [r3, #16]
 80021da:	06d1      	lsls	r1, r2, #27
 80021dc:	d507      	bpl.n	80021ee <HAL_DCMI_IRQHandler+0x94>
 80021de:	2210      	movs	r2, #16
 80021e0:	615a      	str	r2, [r3, #20]
 80021e2:	2300      	movs	r3, #0
 80021e4:	f884 3034 	strb.w	r3, [r4, #52]	; 0x34
 80021e8:	4620      	mov	r0, r4
 80021ea:	f7ff ff76 	bl	80020da <HAL_DCMI_LineEventCallback>
 80021ee:	6823      	ldr	r3, [r4, #0]
 80021f0:	689a      	ldr	r2, [r3, #8]
 80021f2:	0712      	lsls	r2, r2, #28
 80021f4:	d50e      	bpl.n	8002214 <HAL_DCMI_IRQHandler+0xba>
 80021f6:	691a      	ldr	r2, [r3, #16]
 80021f8:	0710      	lsls	r0, r2, #28
 80021fa:	d50b      	bpl.n	8002214 <HAL_DCMI_IRQHandler+0xba>
 80021fc:	68da      	ldr	r2, [r3, #12]
 80021fe:	f022 0208 	bic.w	r2, r2, #8
 8002202:	60da      	str	r2, [r3, #12]
 8002204:	2208      	movs	r2, #8
 8002206:	615a      	str	r2, [r3, #20]
 8002208:	2300      	movs	r3, #0
 800220a:	f884 3034 	strb.w	r3, [r4, #52]	; 0x34
 800220e:	4620      	mov	r0, r4
 8002210:	f7ff ff64 	bl	80020dc <HAL_DCMI_VsyncEventCallback>
 8002214:	6823      	ldr	r3, [r4, #0]
 8002216:	689a      	ldr	r2, [r3, #8]
 8002218:	07d1      	lsls	r1, r2, #31
 800221a:	d50e      	bpl.n	800223a <HAL_DCMI_IRQHandler+0xe0>
 800221c:	691a      	ldr	r2, [r3, #16]
 800221e:	07d2      	lsls	r2, r2, #31
 8002220:	d50b      	bpl.n	800223a <HAL_DCMI_IRQHandler+0xe0>
 8002222:	68da      	ldr	r2, [r3, #12]
 8002224:	f022 0201 	bic.w	r2, r2, #1
 8002228:	60da      	str	r2, [r3, #12]
 800222a:	2201      	movs	r2, #1
 800222c:	615a      	str	r2, [r3, #20]
 800222e:	2300      	movs	r3, #0
 8002230:	f884 3034 	strb.w	r3, [r4, #52]	; 0x34
 8002234:	4620      	mov	r0, r4
 8002236:	f001 fa27 	bl	8003688 <HAL_DCMI_FrameEventCallback>
 800223a:	bd10      	pop	{r4, pc}

0800223c <HAL_DCMI_DisableCROP>:
 800223c:	f890 3034 	ldrb.w	r3, [r0, #52]	; 0x34
 8002240:	2b01      	cmp	r3, #1
 8002242:	f04f 0302 	mov.w	r3, #2
 8002246:	d00c      	beq.n	8002262 <HAL_DCMI_DisableCROP+0x26>
 8002248:	4a07      	ldr	r2, [pc, #28]	; (8002268 <HAL_DCMI_DisableCROP+0x2c>)
 800224a:	f880 3035 	strb.w	r3, [r0, #53]	; 0x35
 800224e:	6813      	ldr	r3, [r2, #0]
 8002250:	f023 0304 	bic.w	r3, r3, #4
 8002254:	6013      	str	r3, [r2, #0]
 8002256:	2301      	movs	r3, #1
 8002258:	f880 3035 	strb.w	r3, [r0, #53]	; 0x35
 800225c:	2300      	movs	r3, #0
 800225e:	f880 3034 	strb.w	r3, [r0, #52]	; 0x34
 8002262:	4618      	mov	r0, r3
 8002264:	4770      	bx	lr
 8002266:	bf00      	nop
 8002268:	50050000 	andpl	r0, r5, r0

0800226c <HAL_DMAEx_MultiBufferStart_IT>:
 800226c:	b530      	push	{r4, r5, lr}
 800226e:	f890 4034 	ldrb.w	r4, [r0, #52]	; 0x34
 8002272:	2c01      	cmp	r4, #1
 8002274:	d03a      	beq.n	80022ec <HAL_DMAEx_MultiBufferStart_IT+0x80>
 8002276:	2401      	movs	r4, #1
 8002278:	f880 4034 	strb.w	r4, [r0, #52]	; 0x34
 800227c:	6804      	ldr	r4, [r0, #0]
 800227e:	6825      	ldr	r5, [r4, #0]
 8002280:	032d      	lsls	r5, r5, #12
 8002282:	d401      	bmi.n	8002288 <HAL_DMAEx_MultiBufferStart_IT+0x1c>
 8002284:	2512      	movs	r5, #18
 8002286:	e003      	b.n	8002290 <HAL_DMAEx_MultiBufferStart_IT+0x24>
 8002288:	6825      	ldr	r5, [r4, #0]
 800228a:	032d      	lsls	r5, r5, #12
 800228c:	d502      	bpl.n	8002294 <HAL_DMAEx_MultiBufferStart_IT+0x28>
 800228e:	2522      	movs	r5, #34	; 0x22
 8002290:	f880 5035 	strb.w	r5, [r0, #53]	; 0x35
 8002294:	6825      	ldr	r5, [r4, #0]
 8002296:	f025 0501 	bic.w	r5, r5, #1
 800229a:	6025      	str	r5, [r4, #0]
 800229c:	6825      	ldr	r5, [r4, #0]
 800229e:	f445 2580 	orr.w	r5, r5, #262144	; 0x40000
 80022a2:	6025      	str	r5, [r4, #0]
 80022a4:	6123      	str	r3, [r4, #16]
 80022a6:	9b03      	ldr	r3, [sp, #12]
 80022a8:	6063      	str	r3, [r4, #4]
 80022aa:	6883      	ldr	r3, [r0, #8]
 80022ac:	2b40      	cmp	r3, #64	; 0x40
 80022ae:	bf0b      	itete	eq
 80022b0:	60a2      	streq	r2, [r4, #8]
 80022b2:	60a1      	strne	r1, [r4, #8]
 80022b4:	60e1      	streq	r1, [r4, #12]
 80022b6:	60e2      	strne	r2, [r4, #12]
 80022b8:	6823      	ldr	r3, [r4, #0]
 80022ba:	f043 0310 	orr.w	r3, r3, #16
 80022be:	6023      	str	r3, [r4, #0]
 80022c0:	6823      	ldr	r3, [r4, #0]
 80022c2:	f043 0308 	orr.w	r3, r3, #8
 80022c6:	6023      	str	r3, [r4, #0]
 80022c8:	6823      	ldr	r3, [r4, #0]
 80022ca:	f043 0304 	orr.w	r3, r3, #4
 80022ce:	6023      	str	r3, [r4, #0]
 80022d0:	6963      	ldr	r3, [r4, #20]
 80022d2:	f043 0380 	orr.w	r3, r3, #128	; 0x80
 80022d6:	6163      	str	r3, [r4, #20]
 80022d8:	6823      	ldr	r3, [r4, #0]
 80022da:	f043 0302 	orr.w	r3, r3, #2
 80022de:	6023      	str	r3, [r4, #0]
 80022e0:	6823      	ldr	r3, [r4, #0]
 80022e2:	f043 0301 	orr.w	r3, r3, #1
 80022e6:	6023      	str	r3, [r4, #0]
 80022e8:	2000      	movs	r0, #0
 80022ea:	bd30      	pop	{r4, r5, pc}
 80022ec:	2002      	movs	r0, #2
 80022ee:	bd30      	pop	{r4, r5, pc}

080022f0 <HAL_DMAEx_ChangeMemory>:
 80022f0:	6803      	ldr	r3, [r0, #0]
 80022f2:	b90a      	cbnz	r2, 80022f8 <HAL_DMAEx_ChangeMemory+0x8>
 80022f4:	60d9      	str	r1, [r3, #12]
 80022f6:	e000      	b.n	80022fa <HAL_DMAEx_ChangeMemory+0xa>
 80022f8:	6119      	str	r1, [r3, #16]
 80022fa:	2000      	movs	r0, #0
 80022fc:	4770      	bx	lr
 80022fe:	0000      	movs	r0, r0

08002300 <HAL_GPIO_Init>:
 8002300:	e92d 41f3 	stmdb	sp!, {r0, r1, r4, r5, r6, r7, r8, lr}
 8002304:	680f      	ldr	r7, [r1, #0]
 8002306:	2200      	movs	r2, #0
 8002308:	2301      	movs	r3, #1
 800230a:	4093      	lsls	r3, r2
 800230c:	ea03 0507 	and.w	r5, r3, r7
 8002310:	429d      	cmp	r5, r3
 8002312:	f040 80d8 	bne.w	80024c6 <HAL_GPIO_Init+0x1c6>
 8002316:	684c      	ldr	r4, [r1, #4]
 8002318:	f024 0c10 	bic.w	ip, r4, #16
 800231c:	f1bc 0f02 	cmp.w	ip, #2
 8002320:	d114      	bne.n	800234c <HAL_GPIO_Init+0x4c>
 8002322:	ea4f 0ed2 	mov.w	lr, r2, lsr #3
 8002326:	eb00 0e8e 	add.w	lr, r0, lr, lsl #2
 800232a:	f002 0607 	and.w	r6, r2, #7
 800232e:	f8de 3020 	ldr.w	r3, [lr, #32]
 8002332:	00b6      	lsls	r6, r6, #2
 8002334:	f04f 080f 	mov.w	r8, #15
 8002338:	fa08 f806 	lsl.w	r8, r8, r6
 800233c:	ea23 0808 	bic.w	r8, r3, r8
 8002340:	690b      	ldr	r3, [r1, #16]
 8002342:	40b3      	lsls	r3, r6
 8002344:	ea48 0303 	orr.w	r3, r8, r3
 8002348:	f8ce 3020 	str.w	r3, [lr, #32]
 800234c:	ea4f 0e42 	mov.w	lr, r2, lsl #1
 8002350:	2303      	movs	r3, #3
 8002352:	6806      	ldr	r6, [r0, #0]
 8002354:	fa03 f30e 	lsl.w	r3, r3, lr
 8002358:	43db      	mvns	r3, r3
 800235a:	ea03 0806 	and.w	r8, r3, r6
 800235e:	f004 0603 	and.w	r6, r4, #3
 8002362:	fa06 f60e 	lsl.w	r6, r6, lr
 8002366:	f10c 3cff 	add.w	ip, ip, #4294967295	; 0xffffffff
 800236a:	ea48 0606 	orr.w	r6, r8, r6
 800236e:	f1bc 0f01 	cmp.w	ip, #1
 8002372:	6006      	str	r6, [r0, #0]
 8002374:	d811      	bhi.n	800239a <HAL_GPIO_Init+0x9a>
 8002376:	6886      	ldr	r6, [r0, #8]
 8002378:	ea03 0c06 	and.w	ip, r3, r6
 800237c:	68ce      	ldr	r6, [r1, #12]
 800237e:	fa06 f60e 	lsl.w	r6, r6, lr
 8002382:	ea4c 0606 	orr.w	r6, ip, r6
 8002386:	6086      	str	r6, [r0, #8]
 8002388:	6846      	ldr	r6, [r0, #4]
 800238a:	ea26 0c05 	bic.w	ip, r6, r5
 800238e:	f3c4 1600 	ubfx	r6, r4, #4, #1
 8002392:	4096      	lsls	r6, r2
 8002394:	ea4c 0606 	orr.w	r6, ip, r6
 8002398:	6046      	str	r6, [r0, #4]
 800239a:	68c6      	ldr	r6, [r0, #12]
 800239c:	ea03 0c06 	and.w	ip, r3, r6
 80023a0:	688b      	ldr	r3, [r1, #8]
 80023a2:	fa03 f60e 	lsl.w	r6, r3, lr
 80023a6:	ea4c 0306 	orr.w	r3, ip, r6
 80023aa:	60c3      	str	r3, [r0, #12]
 80023ac:	00e3      	lsls	r3, r4, #3
 80023ae:	f140 808a 	bpl.w	80024c6 <HAL_GPIO_Init+0x1c6>
 80023b2:	4e48      	ldr	r6, [pc, #288]	; (80024d4 <HAL_GPIO_Init+0x1d4>)
 80023b4:	2300      	movs	r3, #0
 80023b6:	9301      	str	r3, [sp, #4]
 80023b8:	f8d6 e044 	ldr.w	lr, [r6, #68]	; 0x44
 80023bc:	f44e 4e80 	orr.w	lr, lr, #16384	; 0x4000
 80023c0:	f8c6 e044 	str.w	lr, [r6, #68]	; 0x44
 80023c4:	6c76      	ldr	r6, [r6, #68]	; 0x44
 80023c6:	f406 4680 	and.w	r6, r6, #16384	; 0x4000
 80023ca:	9601      	str	r6, [sp, #4]
 80023cc:	9e01      	ldr	r6, [sp, #4]
 80023ce:	f022 0603 	bic.w	r6, r2, #3
 80023d2:	f106 4680 	add.w	r6, r6, #1073741824	; 0x40000000
 80023d6:	f506 369c 	add.w	r6, r6, #79872	; 0x13800
 80023da:	f002 0c03 	and.w	ip, r2, #3
 80023de:	f8d6 8008 	ldr.w	r8, [r6, #8]
 80023e2:	ea4f 0c8c 	mov.w	ip, ip, lsl #2
 80023e6:	f04f 0e0f 	mov.w	lr, #15
 80023ea:	fa0e fe0c 	lsl.w	lr, lr, ip
 80023ee:	ea28 0e0e 	bic.w	lr, r8, lr
 80023f2:	f8df 80e8 	ldr.w	r8, [pc, #232]	; 80024dc <HAL_GPIO_Init+0x1dc>
 80023f6:	4540      	cmp	r0, r8
 80023f8:	d037      	beq.n	800246a <HAL_GPIO_Init+0x16a>
 80023fa:	f103 4380 	add.w	r3, r3, #1073741824	; 0x40000000
 80023fe:	f503 3301 	add.w	r3, r3, #132096	; 0x20400
 8002402:	4298      	cmp	r0, r3
 8002404:	d022      	beq.n	800244c <HAL_GPIO_Init+0x14c>
 8002406:	f503 6380 	add.w	r3, r3, #1024	; 0x400
 800240a:	4298      	cmp	r0, r3
 800240c:	d020      	beq.n	8002450 <HAL_GPIO_Init+0x150>
 800240e:	f503 6380 	add.w	r3, r3, #1024	; 0x400
 8002412:	4298      	cmp	r0, r3
 8002414:	d01e      	beq.n	8002454 <HAL_GPIO_Init+0x154>
 8002416:	f503 6380 	add.w	r3, r3, #1024	; 0x400
 800241a:	4298      	cmp	r0, r3
 800241c:	d01c      	beq.n	8002458 <HAL_GPIO_Init+0x158>
 800241e:	f503 6380 	add.w	r3, r3, #1024	; 0x400
 8002422:	4298      	cmp	r0, r3
 8002424:	d01a      	beq.n	800245c <HAL_GPIO_Init+0x15c>
 8002426:	f503 6380 	add.w	r3, r3, #1024	; 0x400
 800242a:	4298      	cmp	r0, r3
 800242c:	d018      	beq.n	8002460 <HAL_GPIO_Init+0x160>
 800242e:	f503 6380 	add.w	r3, r3, #1024	; 0x400
 8002432:	4298      	cmp	r0, r3
 8002434:	d016      	beq.n	8002464 <HAL_GPIO_Init+0x164>
 8002436:	f503 6380 	add.w	r3, r3, #1024	; 0x400
 800243a:	4298      	cmp	r0, r3
 800243c:	d014      	beq.n	8002468 <HAL_GPIO_Init+0x168>
 800243e:	f503 6380 	add.w	r3, r3, #1024	; 0x400
 8002442:	4298      	cmp	r0, r3
 8002444:	bf0c      	ite	eq
 8002446:	2309      	moveq	r3, #9
 8002448:	230a      	movne	r3, #10
 800244a:	e00e      	b.n	800246a <HAL_GPIO_Init+0x16a>
 800244c:	2301      	movs	r3, #1
 800244e:	e00c      	b.n	800246a <HAL_GPIO_Init+0x16a>
 8002450:	2302      	movs	r3, #2
 8002452:	e00a      	b.n	800246a <HAL_GPIO_Init+0x16a>
 8002454:	2303      	movs	r3, #3
 8002456:	e008      	b.n	800246a <HAL_GPIO_Init+0x16a>
 8002458:	2304      	movs	r3, #4
 800245a:	e006      	b.n	800246a <HAL_GPIO_Init+0x16a>
 800245c:	2305      	movs	r3, #5
 800245e:	e004      	b.n	800246a <HAL_GPIO_Init+0x16a>
 8002460:	2306      	movs	r3, #6
 8002462:	e002      	b.n	800246a <HAL_GPIO_Init+0x16a>
 8002464:	2307      	movs	r3, #7
 8002466:	e000      	b.n	800246a <HAL_GPIO_Init+0x16a>
 8002468:	2308      	movs	r3, #8
 800246a:	fa03 f30c 	lsl.w	r3, r3, ip
 800246e:	ea43 030e 	orr.w	r3, r3, lr
 8002472:	f8df e064 	ldr.w	lr, [pc, #100]	; 80024d8 <HAL_GPIO_Init+0x1d8>
 8002476:	60b3      	str	r3, [r6, #8]
 8002478:	f8de 3000 	ldr.w	r3, [lr]
 800247c:	43ee      	mvns	r6, r5
 800247e:	f414 3f80 	tst.w	r4, #65536	; 0x10000
 8002482:	bf14      	ite	ne
 8002484:	432b      	orrne	r3, r5
 8002486:	4033      	andeq	r3, r6
 8002488:	f8ce 3000 	str.w	r3, [lr]
 800248c:	f8de 3004 	ldr.w	r3, [lr, #4]
 8002490:	f8df e044 	ldr.w	lr, [pc, #68]	; 80024d8 <HAL_GPIO_Init+0x1d8>
 8002494:	f414 3f00 	tst.w	r4, #131072	; 0x20000
 8002498:	bf14      	ite	ne
 800249a:	432b      	orrne	r3, r5
 800249c:	4033      	andeq	r3, r6
 800249e:	f8ce 3004 	str.w	r3, [lr, #4]
 80024a2:	f8de 3008 	ldr.w	r3, [lr, #8]
 80024a6:	f414 1f80 	tst.w	r4, #1048576	; 0x100000
 80024aa:	bf14      	ite	ne
 80024ac:	432b      	orrne	r3, r5
 80024ae:	4033      	andeq	r3, r6
 80024b0:	f8ce 3008 	str.w	r3, [lr, #8]
 80024b4:	f8de 300c 	ldr.w	r3, [lr, #12]
 80024b8:	02a4      	lsls	r4, r4, #10
 80024ba:	bf54      	ite	pl
 80024bc:	ea06 0503 	andpl.w	r5, r6, r3
 80024c0:	431d      	orrmi	r5, r3
 80024c2:	4b05      	ldr	r3, [pc, #20]	; (80024d8 <HAL_GPIO_Init+0x1d8>)
 80024c4:	60dd      	str	r5, [r3, #12]
 80024c6:	3201      	adds	r2, #1
 80024c8:	2a10      	cmp	r2, #16
 80024ca:	f47f af1d 	bne.w	8002308 <HAL_GPIO_Init+0x8>
 80024ce:	b002      	add	sp, #8
 80024d0:	e8bd 81f0 	ldmia.w	sp!, {r4, r5, r6, r7, r8, pc}
 80024d4:	40023800 	andmi	r3, r2, r0, lsl #16
 80024d8:	40013c00 	andmi	r3, r1, r0, lsl #24
 80024dc:	40020000 	andmi	r0, r2, r0

080024e0 <HAL_GPIO_WritePin>:
 80024e0:	b902      	cbnz	r2, 80024e4 <HAL_GPIO_WritePin+0x4>
 80024e2:	0409      	lsls	r1, r1, #16
 80024e4:	6181      	str	r1, [r0, #24]
 80024e6:	4770      	bx	lr

080024e8 <DMA_CalcBaseAndBitshift>:
 80024e8:	6803      	ldr	r3, [r0, #0]
 80024ea:	b2da      	uxtb	r2, r3
 80024ec:	f423 737f 	bic.w	r3, r3, #1020	; 0x3fc
 80024f0:	f023 0303 	bic.w	r3, r3, #3
 80024f4:	2118      	movs	r1, #24
 80024f6:	3a10      	subs	r2, #16
 80024f8:	fbb2 f2f1 	udiv	r2, r2, r1
 80024fc:	4904      	ldr	r1, [pc, #16]	; (8002510 <DMA_CalcBaseAndBitshift+0x28>)
 80024fe:	2a03      	cmp	r2, #3
 8002500:	bf88      	it	hi
 8002502:	3304      	addhi	r3, #4
 8002504:	5c89      	ldrb	r1, [r1, r2]
 8002506:	6503      	str	r3, [r0, #80]	; 0x50
 8002508:	6541      	str	r1, [r0, #84]	; 0x54
 800250a:	6d00      	ldr	r0, [r0, #80]	; 0x50
 800250c:	4770      	bx	lr
 800250e:	bf00      	nop
 8002510:	08005be9 	stmdaeq	r0, {r0, r3, r5, r6, r7, r8, r9, fp, ip, lr}

08002514 <HAL_DMA_Init>:
 8002514:	b538      	push	{r3, r4, r5, lr}
 8002516:	4604      	mov	r4, r0
 8002518:	2800      	cmp	r0, #0
 800251a:	d031      	beq.n	8002580 <HAL_DMA_Init+0x6c>
 800251c:	6801      	ldr	r1, [r0, #0]
 800251e:	4a19      	ldr	r2, [pc, #100]	; (8002584 <HAL_DMA_Init+0x70>)
 8002520:	2302      	movs	r3, #2
 8002522:	f880 3035 	strb.w	r3, [r0, #53]	; 0x35
 8002526:	680b      	ldr	r3, [r1, #0]
 8002528:	6880      	ldr	r0, [r0, #8]
 800252a:	401a      	ands	r2, r3
 800252c:	6863      	ldr	r3, [r4, #4]
 800252e:	4318      	orrs	r0, r3
 8002530:	68e3      	ldr	r3, [r4, #12]
 8002532:	4318      	orrs	r0, r3
 8002534:	6923      	ldr	r3, [r4, #16]
 8002536:	4318      	orrs	r0, r3
 8002538:	6963      	ldr	r3, [r4, #20]
 800253a:	4318      	orrs	r0, r3
 800253c:	69a3      	ldr	r3, [r4, #24]
 800253e:	4318      	orrs	r0, r3
 8002540:	69e3      	ldr	r3, [r4, #28]
 8002542:	4318      	orrs	r0, r3
 8002544:	6a23      	ldr	r3, [r4, #32]
 8002546:	4303      	orrs	r3, r0
 8002548:	4313      	orrs	r3, r2
 800254a:	6a62      	ldr	r2, [r4, #36]	; 0x24
 800254c:	2a04      	cmp	r2, #4
 800254e:	bf01      	itttt	eq
 8002550:	6ae0      	ldreq	r0, [r4, #44]	; 0x2c
 8002552:	6b25      	ldreq	r5, [r4, #48]	; 0x30
 8002554:	4328      	orreq	r0, r5
 8002556:	4303      	orreq	r3, r0
 8002558:	600b      	str	r3, [r1, #0]
 800255a:	694b      	ldr	r3, [r1, #20]
 800255c:	2a04      	cmp	r2, #4
 800255e:	f023 0307 	bic.w	r3, r3, #7
 8002562:	ea43 0302 	orr.w	r3, r3, r2
 8002566:	bf04      	itt	eq
 8002568:	6aa2      	ldreq	r2, [r4, #40]	; 0x28
 800256a:	4313      	orreq	r3, r2
 800256c:	614b      	str	r3, [r1, #20]
 800256e:	4620      	mov	r0, r4
 8002570:	f7ff ffba 	bl	80024e8 <DMA_CalcBaseAndBitshift>
 8002574:	2000      	movs	r0, #0
 8002576:	2301      	movs	r3, #1
 8002578:	64e0      	str	r0, [r4, #76]	; 0x4c
 800257a:	f884 3035 	strb.w	r3, [r4, #53]	; 0x35
 800257e:	bd38      	pop	{r3, r4, r5, pc}
 8002580:	2001      	movs	r0, #1
 8002582:	bd38      	pop	{r3, r4, r5, pc}
 8002584:	f010803f 			; <UNDEFINED> instruction: 0xf010803f

08002588 <HAL_DMA_Start_IT>:
 8002588:	b530      	push	{r4, r5, lr}
 800258a:	f890 4034 	ldrb.w	r4, [r0, #52]	; 0x34
 800258e:	2c01      	cmp	r4, #1
 8002590:	f04f 0402 	mov.w	r4, #2
 8002594:	d023      	beq.n	80025de <HAL_DMA_Start_IT+0x56>
 8002596:	f880 4035 	strb.w	r4, [r0, #53]	; 0x35
 800259a:	6804      	ldr	r4, [r0, #0]
 800259c:	2501      	movs	r5, #1
 800259e:	f880 5034 	strb.w	r5, [r0, #52]	; 0x34
 80025a2:	6825      	ldr	r5, [r4, #0]
 80025a4:	f025 0501 	bic.w	r5, r5, #1
 80025a8:	6025      	str	r5, [r4, #0]
 80025aa:	6825      	ldr	r5, [r4, #0]
 80025ac:	f425 2580 	bic.w	r5, r5, #262144	; 0x40000
 80025b0:	6025      	str	r5, [r4, #0]
 80025b2:	6063      	str	r3, [r4, #4]
 80025b4:	6883      	ldr	r3, [r0, #8]
 80025b6:	2b40      	cmp	r3, #64	; 0x40
 80025b8:	bf0b      	itete	eq
 80025ba:	60a2      	streq	r2, [r4, #8]
 80025bc:	60a1      	strne	r1, [r4, #8]
 80025be:	60e1      	streq	r1, [r4, #12]
 80025c0:	60e2      	strne	r2, [r4, #12]
 80025c2:	6823      	ldr	r3, [r4, #0]
 80025c4:	f043 031e 	orr.w	r3, r3, #30
 80025c8:	6023      	str	r3, [r4, #0]
 80025ca:	6963      	ldr	r3, [r4, #20]
 80025cc:	f043 0380 	orr.w	r3, r3, #128	; 0x80
 80025d0:	6163      	str	r3, [r4, #20]
 80025d2:	6823      	ldr	r3, [r4, #0]
 80025d4:	f043 0301 	orr.w	r3, r3, #1
 80025d8:	6023      	str	r3, [r4, #0]
 80025da:	2000      	movs	r0, #0
 80025dc:	bd30      	pop	{r4, r5, pc}
 80025de:	4620      	mov	r0, r4
 80025e0:	bd30      	pop	{r4, r5, pc}

080025e2 <HAL_DMA_Abort>:
 80025e2:	6802      	ldr	r2, [r0, #0]
 80025e4:	b538      	push	{r3, r4, r5, lr}
 80025e6:	6813      	ldr	r3, [r2, #0]
 80025e8:	f023 0301 	bic.w	r3, r3, #1
 80025ec:	6013      	str	r3, [r2, #0]
 80025ee:	4604      	mov	r4, r0
 80025f0:	f7fe f802 	bl	80005f8 <HAL_GetTick>
 80025f4:	4605      	mov	r5, r0
 80025f6:	6823      	ldr	r3, [r4, #0]
 80025f8:	6818      	ldr	r0, [r3, #0]
 80025fa:	f010 0001 	ands.w	r0, r0, #1
 80025fe:	d010      	beq.n	8002622 <HAL_DMA_Abort+0x40>
 8002600:	f7fd fffa 	bl	80005f8 <HAL_GetTick>
 8002604:	1b40      	subs	r0, r0, r5
 8002606:	f5b0 7f7a 	cmp.w	r0, #1000	; 0x3e8
 800260a:	d9f4      	bls.n	80025f6 <HAL_DMA_Abort+0x14>
 800260c:	6ce3      	ldr	r3, [r4, #76]	; 0x4c
 800260e:	f043 0320 	orr.w	r3, r3, #32
 8002612:	64e3      	str	r3, [r4, #76]	; 0x4c
 8002614:	2003      	movs	r0, #3
 8002616:	2300      	movs	r3, #0
 8002618:	f884 3034 	strb.w	r3, [r4, #52]	; 0x34
 800261c:	f884 0035 	strb.w	r0, [r4, #53]	; 0x35
 8002620:	bd38      	pop	{r3, r4, r5, pc}
 8002622:	2301      	movs	r3, #1
 8002624:	f884 0034 	strb.w	r0, [r4, #52]	; 0x34
 8002628:	f884 3035 	strb.w	r3, [r4, #53]	; 0x35
 800262c:	bd38      	pop	{r3, r4, r5, pc}
 800262e:	0000      	movs	r0, r0

08002630 <HAL_DMA_IRQHandler>:
 8002630:	b570      	push	{r4, r5, r6, lr}
 8002632:	6d05      	ldr	r5, [r0, #80]	; 0x50
 8002634:	6d41      	ldr	r1, [r0, #84]	; 0x54
 8002636:	682a      	ldr	r2, [r5, #0]
 8002638:	2308      	movs	r3, #8
 800263a:	408b      	lsls	r3, r1
 800263c:	4213      	tst	r3, r2
 800263e:	4604      	mov	r4, r0
 8002640:	d015      	beq.n	800266e <HAL_DMA_IRQHandler+0x3e>
 8002642:	6802      	ldr	r2, [r0, #0]
 8002644:	6811      	ldr	r1, [r2, #0]
 8002646:	074e      	lsls	r6, r1, #29
 8002648:	d511      	bpl.n	800266e <HAL_DMA_IRQHandler+0x3e>
 800264a:	6811      	ldr	r1, [r2, #0]
 800264c:	f021 0104 	bic.w	r1, r1, #4
 8002650:	6011      	str	r1, [r2, #0]
 8002652:	60ab      	str	r3, [r5, #8]
 8002654:	6cc3      	ldr	r3, [r0, #76]	; 0x4c
 8002656:	f043 0301 	orr.w	r3, r3, #1
 800265a:	64c3      	str	r3, [r0, #76]	; 0x4c
 800265c:	2304      	movs	r3, #4
 800265e:	f880 3035 	strb.w	r3, [r0, #53]	; 0x35
 8002662:	2300      	movs	r3, #0
 8002664:	f880 3034 	strb.w	r3, [r0, #52]	; 0x34
 8002668:	6c83      	ldr	r3, [r0, #72]	; 0x48
 800266a:	b103      	cbz	r3, 800266e <HAL_DMA_IRQHandler+0x3e>
 800266c:	4798      	blx	r3
 800266e:	6d61      	ldr	r1, [r4, #84]	; 0x54
 8002670:	4b45      	ldr	r3, [pc, #276]	; (8002788 <HAL_DMA_IRQHandler+0x158>)
 8002672:	682a      	ldr	r2, [r5, #0]
 8002674:	408b      	lsls	r3, r1
 8002676:	4213      	tst	r3, r2
 8002678:	d016      	beq.n	80026a8 <HAL_DMA_IRQHandler+0x78>
 800267a:	6822      	ldr	r2, [r4, #0]
 800267c:	6951      	ldr	r1, [r2, #20]
 800267e:	0609      	lsls	r1, r1, #24
 8002680:	d512      	bpl.n	80026a8 <HAL_DMA_IRQHandler+0x78>
 8002682:	6951      	ldr	r1, [r2, #20]
 8002684:	f021 0180 	bic.w	r1, r1, #128	; 0x80
 8002688:	6151      	str	r1, [r2, #20]
 800268a:	60ab      	str	r3, [r5, #8]
 800268c:	6ce3      	ldr	r3, [r4, #76]	; 0x4c
 800268e:	f043 0302 	orr.w	r3, r3, #2
 8002692:	64e3      	str	r3, [r4, #76]	; 0x4c
 8002694:	2304      	movs	r3, #4
 8002696:	f884 3035 	strb.w	r3, [r4, #53]	; 0x35
 800269a:	2300      	movs	r3, #0
 800269c:	f884 3034 	strb.w	r3, [r4, #52]	; 0x34
 80026a0:	6ca3      	ldr	r3, [r4, #72]	; 0x48
 80026a2:	b10b      	cbz	r3, 80026a8 <HAL_DMA_IRQHandler+0x78>
 80026a4:	4620      	mov	r0, r4
 80026a6:	4798      	blx	r3
 80026a8:	6d61      	ldr	r1, [r4, #84]	; 0x54
 80026aa:	4b38      	ldr	r3, [pc, #224]	; (800278c <HAL_DMA_IRQHandler+0x15c>)
 80026ac:	682a      	ldr	r2, [r5, #0]
 80026ae:	408b      	lsls	r3, r1
 80026b0:	4213      	tst	r3, r2
 80026b2:	d016      	beq.n	80026e2 <HAL_DMA_IRQHandler+0xb2>
 80026b4:	6822      	ldr	r2, [r4, #0]
 80026b6:	6811      	ldr	r1, [r2, #0]
 80026b8:	078e      	lsls	r6, r1, #30
 80026ba:	d512      	bpl.n	80026e2 <HAL_DMA_IRQHandler+0xb2>
 80026bc:	6811      	ldr	r1, [r2, #0]
 80026be:	f021 0102 	bic.w	r1, r1, #2
 80026c2:	6011      	str	r1, [r2, #0]
 80026c4:	60ab      	str	r3, [r5, #8]
 80026c6:	6ce3      	ldr	r3, [r4, #76]	; 0x4c
 80026c8:	f043 0304 	orr.w	r3, r3, #4
 80026cc:	64e3      	str	r3, [r4, #76]	; 0x4c
 80026ce:	2304      	movs	r3, #4
 80026d0:	f884 3035 	strb.w	r3, [r4, #53]	; 0x35
 80026d4:	2300      	movs	r3, #0
 80026d6:	f884 3034 	strb.w	r3, [r4, #52]	; 0x34
 80026da:	6ca3      	ldr	r3, [r4, #72]	; 0x48
 80026dc:	b10b      	cbz	r3, 80026e2 <HAL_DMA_IRQHandler+0xb2>
 80026de:	4620      	mov	r0, r4
 80026e0:	4798      	blx	r3
 80026e2:	6d61      	ldr	r1, [r4, #84]	; 0x54
 80026e4:	682b      	ldr	r3, [r5, #0]
 80026e6:	2210      	movs	r2, #16
 80026e8:	408a      	lsls	r2, r1
 80026ea:	421a      	tst	r2, r3
 80026ec:	d01e      	beq.n	800272c <HAL_DMA_IRQHandler+0xfc>
 80026ee:	6823      	ldr	r3, [r4, #0]
 80026f0:	6819      	ldr	r1, [r3, #0]
 80026f2:	0708      	lsls	r0, r1, #28
 80026f4:	d51a      	bpl.n	800272c <HAL_DMA_IRQHandler+0xfc>
 80026f6:	6819      	ldr	r1, [r3, #0]
 80026f8:	0349      	lsls	r1, r1, #13
 80026fa:	d508      	bpl.n	800270e <HAL_DMA_IRQHandler+0xde>
 80026fc:	60aa      	str	r2, [r5, #8]
 80026fe:	681a      	ldr	r2, [r3, #0]
 8002700:	0312      	lsls	r2, r2, #12
 8002702:	d50c      	bpl.n	800271e <HAL_DMA_IRQHandler+0xee>
 8002704:	681b      	ldr	r3, [r3, #0]
 8002706:	031e      	lsls	r6, r3, #12
 8002708:	d50c      	bpl.n	8002724 <HAL_DMA_IRQHandler+0xf4>
 800270a:	2341      	movs	r3, #65	; 0x41
 800270c:	e008      	b.n	8002720 <HAL_DMA_IRQHandler+0xf0>
 800270e:	6819      	ldr	r1, [r3, #0]
 8002710:	05c8      	lsls	r0, r1, #23
 8002712:	bf5e      	ittt	pl
 8002714:	6819      	ldrpl	r1, [r3, #0]
 8002716:	f021 0108 	bicpl.w	r1, r1, #8
 800271a:	6019      	strpl	r1, [r3, #0]
 800271c:	60aa      	str	r2, [r5, #8]
 800271e:	2331      	movs	r3, #49	; 0x31
 8002720:	f884 3035 	strb.w	r3, [r4, #53]	; 0x35
 8002724:	6c23      	ldr	r3, [r4, #64]	; 0x40
 8002726:	b10b      	cbz	r3, 800272c <HAL_DMA_IRQHandler+0xfc>
 8002728:	4620      	mov	r0, r4
 800272a:	4798      	blx	r3
 800272c:	6d61      	ldr	r1, [r4, #84]	; 0x54
 800272e:	682b      	ldr	r3, [r5, #0]
 8002730:	2220      	movs	r2, #32
 8002732:	408a      	lsls	r2, r1
 8002734:	421a      	tst	r2, r3
 8002736:	d026      	beq.n	8002786 <HAL_DMA_IRQHandler+0x156>
 8002738:	6823      	ldr	r3, [r4, #0]
 800273a:	6819      	ldr	r1, [r3, #0]
 800273c:	06c9      	lsls	r1, r1, #27
 800273e:	d522      	bpl.n	8002786 <HAL_DMA_IRQHandler+0x156>
 8002740:	6819      	ldr	r1, [r3, #0]
 8002742:	034e      	lsls	r6, r1, #13
 8002744:	d509      	bpl.n	800275a <HAL_DMA_IRQHandler+0x12a>
 8002746:	60aa      	str	r2, [r5, #8]
 8002748:	681a      	ldr	r2, [r3, #0]
 800274a:	0315      	lsls	r5, r2, #12
 800274c:	d401      	bmi.n	8002752 <HAL_DMA_IRQHandler+0x122>
 800274e:	6c63      	ldr	r3, [r4, #68]	; 0x44
 8002750:	e014      	b.n	800277c <HAL_DMA_IRQHandler+0x14c>
 8002752:	681b      	ldr	r3, [r3, #0]
 8002754:	0318      	lsls	r0, r3, #12
 8002756:	d516      	bpl.n	8002786 <HAL_DMA_IRQHandler+0x156>
 8002758:	e00f      	b.n	800277a <HAL_DMA_IRQHandler+0x14a>
 800275a:	6819      	ldr	r1, [r3, #0]
 800275c:	05c9      	lsls	r1, r1, #23
 800275e:	bf5e      	ittt	pl
 8002760:	6819      	ldrpl	r1, [r3, #0]
 8002762:	f021 0110 	bicpl.w	r1, r1, #16
 8002766:	6019      	strpl	r1, [r3, #0]
 8002768:	60aa      	str	r2, [r5, #8]
 800276a:	6ce3      	ldr	r3, [r4, #76]	; 0x4c
 800276c:	64e3      	str	r3, [r4, #76]	; 0x4c
 800276e:	2311      	movs	r3, #17
 8002770:	f884 3035 	strb.w	r3, [r4, #53]	; 0x35
 8002774:	2300      	movs	r3, #0
 8002776:	f884 3034 	strb.w	r3, [r4, #52]	; 0x34
 800277a:	6be3      	ldr	r3, [r4, #60]	; 0x3c
 800277c:	b11b      	cbz	r3, 8002786 <HAL_DMA_IRQHandler+0x156>
 800277e:	4620      	mov	r0, r4
 8002780:	e8bd 4070 	ldmia.w	sp!, {r4, r5, r6, lr}
 8002784:	4718      	bx	r3
 8002786:	bd70      	pop	{r4, r5, r6, pc}
 8002788:	00800001 	addeq	r0, r0, r1
 800278c:	00800004 	addeq	r0, r0, r4

08002790 <_ZN4TI2CILh5ELh7ELh6ELj20ELh5EE9write_regEhhh>:
 8002790:	e92d 41f0 	stmdb	sp!, {r4, r5, r6, r7, r8, lr}
 8002794:	461d      	mov	r5, r3
 8002796:	6803      	ldr	r3, [r0, #0]
 8002798:	4604      	mov	r4, r0
 800279a:	681b      	ldr	r3, [r3, #0]
 800279c:	4616      	mov	r6, r2
 800279e:	460f      	mov	r7, r1
 80027a0:	4798      	blx	r3
 80027a2:	6823      	ldr	r3, [r4, #0]
 80027a4:	4639      	mov	r1, r7
 80027a6:	689b      	ldr	r3, [r3, #8]
 80027a8:	4620      	mov	r0, r4
 80027aa:	4798      	blx	r3
 80027ac:	6823      	ldr	r3, [r4, #0]
 80027ae:	4631      	mov	r1, r6
 80027b0:	689b      	ldr	r3, [r3, #8]
 80027b2:	4620      	mov	r0, r4
 80027b4:	4798      	blx	r3
 80027b6:	6823      	ldr	r3, [r4, #0]
 80027b8:	4620      	mov	r0, r4
 80027ba:	689a      	ldr	r2, [r3, #8]
 80027bc:	4629      	mov	r1, r5
 80027be:	4790      	blx	r2
 80027c0:	6823      	ldr	r3, [r4, #0]
 80027c2:	4620      	mov	r0, r4
 80027c4:	685b      	ldr	r3, [r3, #4]
 80027c6:	e8bd 41f0 	ldmia.w	sp!, {r4, r5, r6, r7, r8, lr}
 80027ca:	4718      	bx	r3

080027cc <_ZN4TI2CILh5ELh7ELh6ELj20ELh5EE15write_reg_16bitEhhj>:
 80027cc:	e92d 41f0 	stmdb	sp!, {r4, r5, r6, r7, r8, lr}
 80027d0:	461d      	mov	r5, r3
 80027d2:	6803      	ldr	r3, [r0, #0]
 80027d4:	4604      	mov	r4, r0
 80027d6:	681b      	ldr	r3, [r3, #0]
 80027d8:	4616      	mov	r6, r2
 80027da:	460f      	mov	r7, r1
 80027dc:	4798      	blx	r3
 80027de:	6823      	ldr	r3, [r4, #0]
 80027e0:	4639      	mov	r1, r7
 80027e2:	689b      	ldr	r3, [r3, #8]
 80027e4:	4620      	mov	r0, r4
 80027e6:	4798      	blx	r3
 80027e8:	6823      	ldr	r3, [r4, #0]
 80027ea:	4631      	mov	r1, r6
 80027ec:	689b      	ldr	r3, [r3, #8]
 80027ee:	4620      	mov	r0, r4
 80027f0:	4798      	blx	r3
 80027f2:	6823      	ldr	r3, [r4, #0]
 80027f4:	f3c5 2107 	ubfx	r1, r5, #8, #8
 80027f8:	689b      	ldr	r3, [r3, #8]
 80027fa:	4620      	mov	r0, r4
 80027fc:	4798      	blx	r3
 80027fe:	6823      	ldr	r3, [r4, #0]
 8002800:	4620      	mov	r0, r4
 8002802:	689b      	ldr	r3, [r3, #8]
 8002804:	b2e9      	uxtb	r1, r5
 8002806:	4798      	blx	r3
 8002808:	6823      	ldr	r3, [r4, #0]
 800280a:	4620      	mov	r0, r4
 800280c:	685b      	ldr	r3, [r3, #4]
 800280e:	e8bd 41f0 	ldmia.w	sp!, {r4, r5, r6, r7, r8, lr}
 8002812:	4718      	bx	r3

08002814 <_ZN4TI2CILh5ELh7ELh6ELj20ELh5EE15write_reg_multiEhhPhj>:
 8002814:	e92d 41f0 	stmdb	sp!, {r4, r5, r6, r7, r8, lr}
 8002818:	461d      	mov	r5, r3
 800281a:	6803      	ldr	r3, [r0, #0]
 800281c:	9e06      	ldr	r6, [sp, #24]
 800281e:	681b      	ldr	r3, [r3, #0]
 8002820:	4604      	mov	r4, r0
 8002822:	4617      	mov	r7, r2
 8002824:	4688      	mov	r8, r1
 8002826:	4798      	blx	r3
 8002828:	6823      	ldr	r3, [r4, #0]
 800282a:	4641      	mov	r1, r8
 800282c:	689b      	ldr	r3, [r3, #8]
 800282e:	4620      	mov	r0, r4
 8002830:	4798      	blx	r3
 8002832:	6823      	ldr	r3, [r4, #0]
 8002834:	4620      	mov	r0, r4
 8002836:	689b      	ldr	r3, [r3, #8]
 8002838:	4639      	mov	r1, r7
 800283a:	4798      	blx	r3
 800283c:	442e      	add	r6, r5
 800283e:	42b5      	cmp	r5, r6
 8002840:	6823      	ldr	r3, [r4, #0]
 8002842:	d005      	beq.n	8002850 <_ZN4TI2CILh5ELh7ELh6ELj20ELh5EE15write_reg_multiEhhPhj+0x3c>
 8002844:	689b      	ldr	r3, [r3, #8]
 8002846:	f815 1b01 	ldrb.w	r1, [r5], #1
 800284a:	4620      	mov	r0, r4
 800284c:	4798      	blx	r3
 800284e:	e7f6      	b.n	800283e <_ZN4TI2CILh5ELh7ELh6ELj20ELh5EE15write_reg_multiEhhPhj+0x2a>
 8002850:	4620      	mov	r0, r4
 8002852:	685b      	ldr	r3, [r3, #4]
 8002854:	e8bd 41f0 	ldmia.w	sp!, {r4, r5, r6, r7, r8, lr}
 8002858:	4718      	bx	r3

0800285a <_ZN4TI2CILh5ELh7ELh6ELj20ELh5EE8read_regEhh>:
 800285a:	6803      	ldr	r3, [r0, #0]
 800285c:	b570      	push	{r4, r5, r6, lr}
 800285e:	4604      	mov	r4, r0
 8002860:	681b      	ldr	r3, [r3, #0]
 8002862:	4616      	mov	r6, r2
 8002864:	460d      	mov	r5, r1
 8002866:	4798      	blx	r3
 8002868:	6823      	ldr	r3, [r4, #0]
 800286a:	4629      	mov	r1, r5
 800286c:	689b      	ldr	r3, [r3, #8]
 800286e:	4620      	mov	r0, r4
 8002870:	4798      	blx	r3
 8002872:	6823      	ldr	r3, [r4, #0]
 8002874:	4631      	mov	r1, r6
 8002876:	689b      	ldr	r3, [r3, #8]
 8002878:	4620      	mov	r0, r4
 800287a:	4798      	blx	r3
 800287c:	6823      	ldr	r3, [r4, #0]
 800287e:	4620      	mov	r0, r4
 8002880:	681b      	ldr	r3, [r3, #0]
 8002882:	4798      	blx	r3
 8002884:	6823      	ldr	r3, [r4, #0]
 8002886:	f045 0101 	orr.w	r1, r5, #1
 800288a:	689b      	ldr	r3, [r3, #8]
 800288c:	4620      	mov	r0, r4
 800288e:	4798      	blx	r3
 8002890:	6823      	ldr	r3, [r4, #0]
 8002892:	2100      	movs	r1, #0
 8002894:	68db      	ldr	r3, [r3, #12]
 8002896:	4620      	mov	r0, r4
 8002898:	4798      	blx	r3
 800289a:	6823      	ldr	r3, [r4, #0]
 800289c:	4605      	mov	r5, r0
 800289e:	685b      	ldr	r3, [r3, #4]
 80028a0:	4620      	mov	r0, r4
 80028a2:	4798      	blx	r3
 80028a4:	4628      	mov	r0, r5
 80028a6:	bd70      	pop	{r4, r5, r6, pc}

080028a8 <_ZN4TI2CILh5ELh7ELh6ELj20ELh5EE14read_reg_16bitEhh>:
 80028a8:	6803      	ldr	r3, [r0, #0]
 80028aa:	b570      	push	{r4, r5, r6, lr}
 80028ac:	4604      	mov	r4, r0
 80028ae:	681b      	ldr	r3, [r3, #0]
 80028b0:	4616      	mov	r6, r2
 80028b2:	460d      	mov	r5, r1
 80028b4:	4798      	blx	r3
 80028b6:	6823      	ldr	r3, [r4, #0]
 80028b8:	4629      	mov	r1, r5
 80028ba:	689b      	ldr	r3, [r3, #8]
 80028bc:	4620      	mov	r0, r4
 80028be:	4798      	blx	r3
 80028c0:	6823      	ldr	r3, [r4, #0]
 80028c2:	4631      	mov	r1, r6
 80028c4:	689b      	ldr	r3, [r3, #8]
 80028c6:	4620      	mov	r0, r4
 80028c8:	4798      	blx	r3
 80028ca:	6823      	ldr	r3, [r4, #0]
 80028cc:	4620      	mov	r0, r4
 80028ce:	681b      	ldr	r3, [r3, #0]
 80028d0:	4798      	blx	r3
 80028d2:	6823      	ldr	r3, [r4, #0]
 80028d4:	f045 0101 	orr.w	r1, r5, #1
 80028d8:	689b      	ldr	r3, [r3, #8]
 80028da:	4620      	mov	r0, r4
 80028dc:	4798      	blx	r3
 80028de:	6823      	ldr	r3, [r4, #0]
 80028e0:	4620      	mov	r0, r4
 80028e2:	68db      	ldr	r3, [r3, #12]
 80028e4:	2101      	movs	r1, #1
 80028e6:	4798      	blx	r3
 80028e8:	6823      	ldr	r3, [r4, #0]
 80028ea:	2100      	movs	r1, #0
 80028ec:	0205      	lsls	r5, r0, #8
 80028ee:	68db      	ldr	r3, [r3, #12]
 80028f0:	4620      	mov	r0, r4
 80028f2:	4798      	blx	r3
 80028f4:	6823      	ldr	r3, [r4, #0]
 80028f6:	4305      	orrs	r5, r0
 80028f8:	685b      	ldr	r3, [r3, #4]
 80028fa:	4620      	mov	r0, r4
 80028fc:	4798      	blx	r3
 80028fe:	4628      	mov	r0, r5
 8002900:	bd70      	pop	{r4, r5, r6, pc}

08002902 <_ZN4TI2CILh5ELh7ELh6ELj20ELh5EE14read_reg_multiEhhPhj>:
 8002902:	e92d 41f0 	stmdb	sp!, {r4, r5, r6, r7, r8, lr}
 8002906:	461d      	mov	r5, r3
 8002908:	6803      	ldr	r3, [r0, #0]
 800290a:	9e06      	ldr	r6, [sp, #24]
 800290c:	681b      	ldr	r3, [r3, #0]
 800290e:	4604      	mov	r4, r0
 8002910:	4690      	mov	r8, r2
 8002912:	460f      	mov	r7, r1
 8002914:	4798      	blx	r3
 8002916:	6823      	ldr	r3, [r4, #0]
 8002918:	4639      	mov	r1, r7
 800291a:	689b      	ldr	r3, [r3, #8]
 800291c:	4620      	mov	r0, r4
 800291e:	4798      	blx	r3
 8002920:	6823      	ldr	r3, [r4, #0]
 8002922:	4641      	mov	r1, r8
 8002924:	689b      	ldr	r3, [r3, #8]
 8002926:	4620      	mov	r0, r4
 8002928:	4798      	blx	r3
 800292a:	6823      	ldr	r3, [r4, #0]
 800292c:	4620      	mov	r0, r4
 800292e:	681b      	ldr	r3, [r3, #0]
 8002930:	4798      	blx	r3
 8002932:	6823      	ldr	r3, [r4, #0]
 8002934:	4620      	mov	r0, r4
 8002936:	689b      	ldr	r3, [r3, #8]
 8002938:	f047 0101 	orr.w	r1, r7, #1
 800293c:	4798      	blx	r3
 800293e:	442e      	add	r6, r5
 8002940:	42b5      	cmp	r5, r6
 8002942:	6823      	ldr	r3, [r4, #0]
 8002944:	d006      	beq.n	8002954 <_ZN4TI2CILh5ELh7ELh6ELj20ELh5EE14read_reg_multiEhhPhj+0x52>
 8002946:	68db      	ldr	r3, [r3, #12]
 8002948:	4620      	mov	r0, r4
 800294a:	2101      	movs	r1, #1
 800294c:	4798      	blx	r3
 800294e:	f805 0b01 	strb.w	r0, [r5], #1
 8002952:	e7f5      	b.n	8002940 <_ZN4TI2CILh5ELh7ELh6ELj20ELh5EE14read_reg_multiEhhPhj+0x3e>
 8002954:	4620      	mov	r0, r4
 8002956:	685b      	ldr	r3, [r3, #4]
 8002958:	e8bd 41f0 	ldmia.w	sp!, {r4, r5, r6, r7, r8, lr}
 800295c:	4718      	bx	r3

0800295e <_ZN4TI2CILh5ELh7ELh6ELj20ELh5EE5delayEv.isra.4>:
 800295e:	2314      	movs	r3, #20
 8002960:	bf00      	nop
 8002962:	3b01      	subs	r3, #1
 8002964:	f013 03ff 	ands.w	r3, r3, #255	; 0xff
 8002968:	d1fa      	bne.n	8002960 <_ZN4TI2CILh5ELh7ELh6ELj20ELh5EE5delayEv.isra.4+0x2>
 800296a:	4770      	bx	lr

0800296c <_ZN5TGpioILh5ELh7ELh1EE8set_modeEh>:
 800296c:	b9b1      	cbnz	r1, 800299c <_ZN5TGpioILh5ELh7ELh1EE8set_modeEh+0x30>
 800296e:	6803      	ldr	r3, [r0, #0]
 8002970:	689a      	ldr	r2, [r3, #8]
 8002972:	f422 4240 	bic.w	r2, r2, #49152	; 0xc000
 8002976:	609a      	str	r2, [r3, #8]
 8002978:	689a      	ldr	r2, [r3, #8]
 800297a:	f442 4240 	orr.w	r2, r2, #49152	; 0xc000
 800297e:	609a      	str	r2, [r3, #8]
 8002980:	685a      	ldr	r2, [r3, #4]
 8002982:	f022 0280 	bic.w	r2, r2, #128	; 0x80
 8002986:	605a      	str	r2, [r3, #4]
 8002988:	685a      	ldr	r2, [r3, #4]
 800298a:	605a      	str	r2, [r3, #4]
 800298c:	681a      	ldr	r2, [r3, #0]
 800298e:	f422 4240 	bic.w	r2, r2, #49152	; 0xc000
 8002992:	601a      	str	r2, [r3, #0]
 8002994:	681a      	ldr	r2, [r3, #0]
 8002996:	f442 4280 	orr.w	r2, r2, #16384	; 0x4000
 800299a:	e043      	b.n	8002a24 <_ZN5TGpioILh5ELh7ELh1EE8set_modeEh+0xb8>
 800299c:	2901      	cmp	r1, #1
 800299e:	d10e      	bne.n	80029be <_ZN5TGpioILh5ELh7ELh1EE8set_modeEh+0x52>
 80029a0:	6803      	ldr	r3, [r0, #0]
 80029a2:	689a      	ldr	r2, [r3, #8]
 80029a4:	f422 4240 	bic.w	r2, r2, #49152	; 0xc000
 80029a8:	609a      	str	r2, [r3, #8]
 80029aa:	689a      	ldr	r2, [r3, #8]
 80029ac:	f442 4240 	orr.w	r2, r2, #49152	; 0xc000
 80029b0:	609a      	str	r2, [r3, #8]
 80029b2:	681a      	ldr	r2, [r3, #0]
 80029b4:	f422 4240 	bic.w	r2, r2, #49152	; 0xc000
 80029b8:	601a      	str	r2, [r3, #0]
 80029ba:	681a      	ldr	r2, [r3, #0]
 80029bc:	e032      	b.n	8002a24 <_ZN5TGpioILh5ELh7ELh1EE8set_modeEh+0xb8>
 80029be:	2902      	cmp	r1, #2
 80029c0:	d113      	bne.n	80029ea <_ZN5TGpioILh5ELh7ELh1EE8set_modeEh+0x7e>
 80029c2:	6803      	ldr	r3, [r0, #0]
 80029c4:	689a      	ldr	r2, [r3, #8]
 80029c6:	f422 4240 	bic.w	r2, r2, #49152	; 0xc000
 80029ca:	609a      	str	r2, [r3, #8]
 80029cc:	689a      	ldr	r2, [r3, #8]
 80029ce:	f442 4240 	orr.w	r2, r2, #49152	; 0xc000
 80029d2:	609a      	str	r2, [r3, #8]
 80029d4:	681a      	ldr	r2, [r3, #0]
 80029d6:	f422 4240 	bic.w	r2, r2, #49152	; 0xc000
 80029da:	601a      	str	r2, [r3, #0]
 80029dc:	681a      	ldr	r2, [r3, #0]
 80029de:	601a      	str	r2, [r3, #0]
 80029e0:	68da      	ldr	r2, [r3, #12]
 80029e2:	f442 4280 	orr.w	r2, r2, #16384	; 0x4000
 80029e6:	60da      	str	r2, [r3, #12]
 80029e8:	4770      	bx	lr
 80029ea:	2903      	cmp	r1, #3
 80029ec:	d110      	bne.n	8002a10 <_ZN5TGpioILh5ELh7ELh1EE8set_modeEh+0xa4>
 80029ee:	6803      	ldr	r3, [r0, #0]
 80029f0:	689a      	ldr	r2, [r3, #8]
 80029f2:	f422 4240 	bic.w	r2, r2, #49152	; 0xc000
 80029f6:	609a      	str	r2, [r3, #8]
 80029f8:	689a      	ldr	r2, [r3, #8]
 80029fa:	f442 4240 	orr.w	r2, r2, #49152	; 0xc000
 80029fe:	609a      	str	r2, [r3, #8]
 8002a00:	681a      	ldr	r2, [r3, #0]
 8002a02:	f422 4240 	bic.w	r2, r2, #49152	; 0xc000
 8002a06:	601a      	str	r2, [r3, #0]
 8002a08:	681a      	ldr	r2, [r3, #0]
 8002a0a:	f442 4200 	orr.w	r2, r2, #32768	; 0x8000
 8002a0e:	e009      	b.n	8002a24 <_ZN5TGpioILh5ELh7ELh1EE8set_modeEh+0xb8>
 8002a10:	2904      	cmp	r1, #4
 8002a12:	d108      	bne.n	8002a26 <_ZN5TGpioILh5ELh7ELh1EE8set_modeEh+0xba>
 8002a14:	6803      	ldr	r3, [r0, #0]
 8002a16:	681a      	ldr	r2, [r3, #0]
 8002a18:	f422 4240 	bic.w	r2, r2, #49152	; 0xc000
 8002a1c:	601a      	str	r2, [r3, #0]
 8002a1e:	681a      	ldr	r2, [r3, #0]
 8002a20:	f442 4240 	orr.w	r2, r2, #49152	; 0xc000
 8002a24:	601a      	str	r2, [r3, #0]
 8002a26:	4770      	bx	lr

08002a28 <_ZN5TGpioILh5ELh7ELh1EEC1Ev>:
 8002a28:	b510      	push	{r4, lr}
 8002a2a:	b08c      	sub	sp, #48	; 0x30
 8002a2c:	4b3c      	ldr	r3, [pc, #240]	; (8002b20 <_ZN5TGpioILh5ELh7ELh1EEC1Ev+0xf8>)
 8002a2e:	2200      	movs	r2, #0
 8002a30:	9201      	str	r2, [sp, #4]
 8002a32:	6b19      	ldr	r1, [r3, #48]	; 0x30
 8002a34:	f041 0101 	orr.w	r1, r1, #1
 8002a38:	6319      	str	r1, [r3, #48]	; 0x30
 8002a3a:	6b19      	ldr	r1, [r3, #48]	; 0x30
 8002a3c:	f001 0101 	and.w	r1, r1, #1
 8002a40:	9101      	str	r1, [sp, #4]
 8002a42:	9901      	ldr	r1, [sp, #4]
 8002a44:	9202      	str	r2, [sp, #8]
 8002a46:	6b19      	ldr	r1, [r3, #48]	; 0x30
 8002a48:	f041 0102 	orr.w	r1, r1, #2
 8002a4c:	6319      	str	r1, [r3, #48]	; 0x30
 8002a4e:	6b19      	ldr	r1, [r3, #48]	; 0x30
 8002a50:	f001 0102 	and.w	r1, r1, #2
 8002a54:	9102      	str	r1, [sp, #8]
 8002a56:	9902      	ldr	r1, [sp, #8]
 8002a58:	9203      	str	r2, [sp, #12]
 8002a5a:	6b19      	ldr	r1, [r3, #48]	; 0x30
 8002a5c:	f041 0104 	orr.w	r1, r1, #4
 8002a60:	6319      	str	r1, [r3, #48]	; 0x30
 8002a62:	6b19      	ldr	r1, [r3, #48]	; 0x30
 8002a64:	f001 0104 	and.w	r1, r1, #4
 8002a68:	9103      	str	r1, [sp, #12]
 8002a6a:	9903      	ldr	r1, [sp, #12]
 8002a6c:	9204      	str	r2, [sp, #16]
 8002a6e:	6b19      	ldr	r1, [r3, #48]	; 0x30
 8002a70:	f041 0108 	orr.w	r1, r1, #8
 8002a74:	6319      	str	r1, [r3, #48]	; 0x30
 8002a76:	6b19      	ldr	r1, [r3, #48]	; 0x30
 8002a78:	f001 0108 	and.w	r1, r1, #8
 8002a7c:	9104      	str	r1, [sp, #16]
 8002a7e:	9904      	ldr	r1, [sp, #16]
 8002a80:	9205      	str	r2, [sp, #20]
 8002a82:	6b19      	ldr	r1, [r3, #48]	; 0x30
 8002a84:	f041 0110 	orr.w	r1, r1, #16
 8002a88:	6319      	str	r1, [r3, #48]	; 0x30
 8002a8a:	6b19      	ldr	r1, [r3, #48]	; 0x30
 8002a8c:	f001 0110 	and.w	r1, r1, #16
 8002a90:	9105      	str	r1, [sp, #20]
 8002a92:	9905      	ldr	r1, [sp, #20]
 8002a94:	9206      	str	r2, [sp, #24]
 8002a96:	6b19      	ldr	r1, [r3, #48]	; 0x30
 8002a98:	f041 0120 	orr.w	r1, r1, #32
 8002a9c:	6319      	str	r1, [r3, #48]	; 0x30
 8002a9e:	6b19      	ldr	r1, [r3, #48]	; 0x30
 8002aa0:	f001 0120 	and.w	r1, r1, #32
 8002aa4:	9106      	str	r1, [sp, #24]
 8002aa6:	9906      	ldr	r1, [sp, #24]
 8002aa8:	9207      	str	r2, [sp, #28]
 8002aaa:	6b19      	ldr	r1, [r3, #48]	; 0x30
 8002aac:	f041 0140 	orr.w	r1, r1, #64	; 0x40
 8002ab0:	6319      	str	r1, [r3, #48]	; 0x30
 8002ab2:	6b19      	ldr	r1, [r3, #48]	; 0x30
 8002ab4:	f001 0140 	and.w	r1, r1, #64	; 0x40
 8002ab8:	9107      	str	r1, [sp, #28]
 8002aba:	9907      	ldr	r1, [sp, #28]
 8002abc:	9208      	str	r2, [sp, #32]
 8002abe:	6b19      	ldr	r1, [r3, #48]	; 0x30
 8002ac0:	f041 0180 	orr.w	r1, r1, #128	; 0x80
 8002ac4:	6319      	str	r1, [r3, #48]	; 0x30
 8002ac6:	6b19      	ldr	r1, [r3, #48]	; 0x30
 8002ac8:	f001 0180 	and.w	r1, r1, #128	; 0x80
 8002acc:	9108      	str	r1, [sp, #32]
 8002ace:	9908      	ldr	r1, [sp, #32]
 8002ad0:	9209      	str	r2, [sp, #36]	; 0x24
 8002ad2:	6b19      	ldr	r1, [r3, #48]	; 0x30
 8002ad4:	f441 7180 	orr.w	r1, r1, #256	; 0x100
 8002ad8:	6319      	str	r1, [r3, #48]	; 0x30
 8002ada:	6b19      	ldr	r1, [r3, #48]	; 0x30
 8002adc:	f401 7180 	and.w	r1, r1, #256	; 0x100
 8002ae0:	9109      	str	r1, [sp, #36]	; 0x24
 8002ae2:	9909      	ldr	r1, [sp, #36]	; 0x24
 8002ae4:	920a      	str	r2, [sp, #40]	; 0x28
 8002ae6:	6b19      	ldr	r1, [r3, #48]	; 0x30
 8002ae8:	f441 7100 	orr.w	r1, r1, #512	; 0x200
 8002aec:	6319      	str	r1, [r3, #48]	; 0x30
 8002aee:	6b19      	ldr	r1, [r3, #48]	; 0x30
 8002af0:	f401 7100 	and.w	r1, r1, #512	; 0x200
 8002af4:	910a      	str	r1, [sp, #40]	; 0x28
 8002af6:	990a      	ldr	r1, [sp, #40]	; 0x28
 8002af8:	920b      	str	r2, [sp, #44]	; 0x2c
 8002afa:	6b1a      	ldr	r2, [r3, #48]	; 0x30
 8002afc:	f442 6280 	orr.w	r2, r2, #1024	; 0x400
 8002b00:	631a      	str	r2, [r3, #48]	; 0x30
 8002b02:	6b1b      	ldr	r3, [r3, #48]	; 0x30
 8002b04:	f403 6380 	and.w	r3, r3, #1024	; 0x400
 8002b08:	930b      	str	r3, [sp, #44]	; 0x2c
 8002b0a:	9b0b      	ldr	r3, [sp, #44]	; 0x2c
 8002b0c:	4b05      	ldr	r3, [pc, #20]	; (8002b24 <_ZN5TGpioILh5ELh7ELh1EEC1Ev+0xfc>)
 8002b0e:	6003      	str	r3, [r0, #0]
 8002b10:	2101      	movs	r1, #1
 8002b12:	4604      	mov	r4, r0
 8002b14:	f7ff ff2a 	bl	800296c <_ZN5TGpioILh5ELh7ELh1EE8set_modeEh>
 8002b18:	4620      	mov	r0, r4
 8002b1a:	b00c      	add	sp, #48	; 0x30
 8002b1c:	bd10      	pop	{r4, pc}
 8002b1e:	bf00      	nop
 8002b20:	40023800 	andmi	r3, r2, r0, lsl #16
 8002b24:	40021400 	andmi	r1, r2, r0, lsl #8

08002b28 <_ZN5TGpioILh5ELh6ELh1EE8set_modeEh>:
 8002b28:	b9b1      	cbnz	r1, 8002b58 <_ZN5TGpioILh5ELh6ELh1EE8set_modeEh+0x30>
 8002b2a:	6803      	ldr	r3, [r0, #0]
 8002b2c:	689a      	ldr	r2, [r3, #8]
 8002b2e:	f422 5240 	bic.w	r2, r2, #12288	; 0x3000
 8002b32:	609a      	str	r2, [r3, #8]
 8002b34:	689a      	ldr	r2, [r3, #8]
 8002b36:	f442 5240 	orr.w	r2, r2, #12288	; 0x3000
 8002b3a:	609a      	str	r2, [r3, #8]
 8002b3c:	685a      	ldr	r2, [r3, #4]
 8002b3e:	f022 0240 	bic.w	r2, r2, #64	; 0x40
 8002b42:	605a      	str	r2, [r3, #4]
 8002b44:	685a      	ldr	r2, [r3, #4]
 8002b46:	605a      	str	r2, [r3, #4]
 8002b48:	681a      	ldr	r2, [r3, #0]
 8002b4a:	f422 5240 	bic.w	r2, r2, #12288	; 0x3000
 8002b4e:	601a      	str	r2, [r3, #0]
 8002b50:	681a      	ldr	r2, [r3, #0]
 8002b52:	f442 5280 	orr.w	r2, r2, #4096	; 0x1000
 8002b56:	e043      	b.n	8002be0 <_ZN5TGpioILh5ELh6ELh1EE8set_modeEh+0xb8>
 8002b58:	2901      	cmp	r1, #1
 8002b5a:	d10e      	bne.n	8002b7a <_ZN5TGpioILh5ELh6ELh1EE8set_modeEh+0x52>
 8002b5c:	6803      	ldr	r3, [r0, #0]
 8002b5e:	689a      	ldr	r2, [r3, #8]
 8002b60:	f422 5240 	bic.w	r2, r2, #12288	; 0x3000
 8002b64:	609a      	str	r2, [r3, #8]
 8002b66:	689a      	ldr	r2, [r3, #8]
 8002b68:	f442 5240 	orr.w	r2, r2, #12288	; 0x3000
 8002b6c:	609a      	str	r2, [r3, #8]
 8002b6e:	681a      	ldr	r2, [r3, #0]
 8002b70:	f422 5240 	bic.w	r2, r2, #12288	; 0x3000
 8002b74:	601a      	str	r2, [r3, #0]
 8002b76:	681a      	ldr	r2, [r3, #0]
 8002b78:	e032      	b.n	8002be0 <_ZN5TGpioILh5ELh6ELh1EE8set_modeEh+0xb8>
 8002b7a:	2902      	cmp	r1, #2
 8002b7c:	d113      	bne.n	8002ba6 <_ZN5TGpioILh5ELh6ELh1EE8set_modeEh+0x7e>
 8002b7e:	6803      	ldr	r3, [r0, #0]
 8002b80:	689a      	ldr	r2, [r3, #8]
 8002b82:	f422 5240 	bic.w	r2, r2, #12288	; 0x3000
 8002b86:	609a      	str	r2, [r3, #8]
 8002b88:	689a      	ldr	r2, [r3, #8]
 8002b8a:	f442 5240 	orr.w	r2, r2, #12288	; 0x3000
 8002b8e:	609a      	str	r2, [r3, #8]
 8002b90:	681a      	ldr	r2, [r3, #0]
 8002b92:	f422 5240 	bic.w	r2, r2, #12288	; 0x3000
 8002b96:	601a      	str	r2, [r3, #0]
 8002b98:	681a      	ldr	r2, [r3, #0]
 8002b9a:	601a      	str	r2, [r3, #0]
 8002b9c:	68da      	ldr	r2, [r3, #12]
 8002b9e:	f442 5280 	orr.w	r2, r2, #4096	; 0x1000
 8002ba2:	60da      	str	r2, [r3, #12]
 8002ba4:	4770      	bx	lr
 8002ba6:	2903      	cmp	r1, #3
 8002ba8:	d110      	bne.n	8002bcc <_ZN5TGpioILh5ELh6ELh1EE8set_modeEh+0xa4>
 8002baa:	6803      	ldr	r3, [r0, #0]
 8002bac:	689a      	ldr	r2, [r3, #8]
 8002bae:	f422 5240 	bic.w	r2, r2, #12288	; 0x3000
 8002bb2:	609a      	str	r2, [r3, #8]
 8002bb4:	689a      	ldr	r2, [r3, #8]
 8002bb6:	f442 5240 	orr.w	r2, r2, #12288	; 0x3000
 8002bba:	609a      	str	r2, [r3, #8]
 8002bbc:	681a      	ldr	r2, [r3, #0]
 8002bbe:	f422 5240 	bic.w	r2, r2, #12288	; 0x3000
 8002bc2:	601a      	str	r2, [r3, #0]
 8002bc4:	681a      	ldr	r2, [r3, #0]
 8002bc6:	f442 5200 	orr.w	r2, r2, #8192	; 0x2000
 8002bca:	e009      	b.n	8002be0 <_ZN5TGpioILh5ELh6ELh1EE8set_modeEh+0xb8>
 8002bcc:	2904      	cmp	r1, #4
 8002bce:	d108      	bne.n	8002be2 <_ZN5TGpioILh5ELh6ELh1EE8set_modeEh+0xba>
 8002bd0:	6803      	ldr	r3, [r0, #0]
 8002bd2:	681a      	ldr	r2, [r3, #0]
 8002bd4:	f422 5240 	bic.w	r2, r2, #12288	; 0x3000
 8002bd8:	601a      	str	r2, [r3, #0]
 8002bda:	681a      	ldr	r2, [r3, #0]
 8002bdc:	f442 5240 	orr.w	r2, r2, #12288	; 0x3000
 8002be0:	601a      	str	r2, [r3, #0]
 8002be2:	4770      	bx	lr

08002be4 <_ZN5TGpioILh5ELh6ELh1EEC1Ev>:
 8002be4:	b510      	push	{r4, lr}
 8002be6:	b08c      	sub	sp, #48	; 0x30
 8002be8:	4b3c      	ldr	r3, [pc, #240]	; (8002cdc <_ZN5TGpioILh5ELh6ELh1EEC1Ev+0xf8>)
 8002bea:	2200      	movs	r2, #0
 8002bec:	9201      	str	r2, [sp, #4]
 8002bee:	6b19      	ldr	r1, [r3, #48]	; 0x30
 8002bf0:	f041 0101 	orr.w	r1, r1, #1
 8002bf4:	6319      	str	r1, [r3, #48]	; 0x30
 8002bf6:	6b19      	ldr	r1, [r3, #48]	; 0x30
 8002bf8:	f001 0101 	and.w	r1, r1, #1
 8002bfc:	9101      	str	r1, [sp, #4]
 8002bfe:	9901      	ldr	r1, [sp, #4]
 8002c00:	9202      	str	r2, [sp, #8]
 8002c02:	6b19      	ldr	r1, [r3, #48]	; 0x30
 8002c04:	f041 0102 	orr.w	r1, r1, #2
 8002c08:	6319      	str	r1, [r3, #48]	; 0x30
 8002c0a:	6b19      	ldr	r1, [r3, #48]	; 0x30
 8002c0c:	f001 0102 	and.w	r1, r1, #2
 8002c10:	9102      	str	r1, [sp, #8]
 8002c12:	9902      	ldr	r1, [sp, #8]
 8002c14:	9203      	str	r2, [sp, #12]
 8002c16:	6b19      	ldr	r1, [r3, #48]	; 0x30
 8002c18:	f041 0104 	orr.w	r1, r1, #4
 8002c1c:	6319      	str	r1, [r3, #48]	; 0x30
 8002c1e:	6b19      	ldr	r1, [r3, #48]	; 0x30
 8002c20:	f001 0104 	and.w	r1, r1, #4
 8002c24:	9103      	str	r1, [sp, #12]
 8002c26:	9903      	ldr	r1, [sp, #12]
 8002c28:	9204      	str	r2, [sp, #16]
 8002c2a:	6b19      	ldr	r1, [r3, #48]	; 0x30
 8002c2c:	f041 0108 	orr.w	r1, r1, #8
 8002c30:	6319      	str	r1, [r3, #48]	; 0x30
 8002c32:	6b19      	ldr	r1, [r3, #48]	; 0x30
 8002c34:	f001 0108 	and.w	r1, r1, #8
 8002c38:	9104      	str	r1, [sp, #16]
 8002c3a:	9904      	ldr	r1, [sp, #16]
 8002c3c:	9205      	str	r2, [sp, #20]
 8002c3e:	6b19      	ldr	r1, [r3, #48]	; 0x30
 8002c40:	f041 0110 	orr.w	r1, r1, #16
 8002c44:	6319      	str	r1, [r3, #48]	; 0x30
 8002c46:	6b19      	ldr	r1, [r3, #48]	; 0x30
 8002c48:	f001 0110 	and.w	r1, r1, #16
 8002c4c:	9105      	str	r1, [sp, #20]
 8002c4e:	9905      	ldr	r1, [sp, #20]
 8002c50:	9206      	str	r2, [sp, #24]
 8002c52:	6b19      	ldr	r1, [r3, #48]	; 0x30
 8002c54:	f041 0120 	orr.w	r1, r1, #32
 8002c58:	6319      	str	r1, [r3, #48]	; 0x30
 8002c5a:	6b19      	ldr	r1, [r3, #48]	; 0x30
 8002c5c:	f001 0120 	and.w	r1, r1, #32
 8002c60:	9106      	str	r1, [sp, #24]
 8002c62:	9906      	ldr	r1, [sp, #24]
 8002c64:	9207      	str	r2, [sp, #28]
 8002c66:	6b19      	ldr	r1, [r3, #48]	; 0x30
 8002c68:	f041 0140 	orr.w	r1, r1, #64	; 0x40
 8002c6c:	6319      	str	r1, [r3, #48]	; 0x30
 8002c6e:	6b19      	ldr	r1, [r3, #48]	; 0x30
 8002c70:	f001 0140 	and.w	r1, r1, #64	; 0x40
 8002c74:	9107      	str	r1, [sp, #28]
 8002c76:	9907      	ldr	r1, [sp, #28]
 8002c78:	9208      	str	r2, [sp, #32]
 8002c7a:	6b19      	ldr	r1, [r3, #48]	; 0x30
 8002c7c:	f041 0180 	orr.w	r1, r1, #128	; 0x80
 8002c80:	6319      	str	r1, [r3, #48]	; 0x30
 8002c82:	6b19      	ldr	r1, [r3, #48]	; 0x30
 8002c84:	f001 0180 	and.w	r1, r1, #128	; 0x80
 8002c88:	9108      	str	r1, [sp, #32]
 8002c8a:	9908      	ldr	r1, [sp, #32]
 8002c8c:	9209      	str	r2, [sp, #36]	; 0x24
 8002c8e:	6b19      	ldr	r1, [r3, #48]	; 0x30
 8002c90:	f441 7180 	orr.w	r1, r1, #256	; 0x100
 8002c94:	6319      	str	r1, [r3, #48]	; 0x30
 8002c96:	6b19      	ldr	r1, [r3, #48]	; 0x30
 8002c98:	f401 7180 	and.w	r1, r1, #256	; 0x100
 8002c9c:	9109      	str	r1, [sp, #36]	; 0x24
 8002c9e:	9909      	ldr	r1, [sp, #36]	; 0x24
 8002ca0:	920a      	str	r2, [sp, #40]	; 0x28
 8002ca2:	6b19      	ldr	r1, [r3, #48]	; 0x30
 8002ca4:	f441 7100 	orr.w	r1, r1, #512	; 0x200
 8002ca8:	6319      	str	r1, [r3, #48]	; 0x30
 8002caa:	6b19      	ldr	r1, [r3, #48]	; 0x30
 8002cac:	f401 7100 	and.w	r1, r1, #512	; 0x200
 8002cb0:	910a      	str	r1, [sp, #40]	; 0x28
 8002cb2:	990a      	ldr	r1, [sp, #40]	; 0x28
 8002cb4:	920b      	str	r2, [sp, #44]	; 0x2c
 8002cb6:	6b1a      	ldr	r2, [r3, #48]	; 0x30
 8002cb8:	f442 6280 	orr.w	r2, r2, #1024	; 0x400
 8002cbc:	631a      	str	r2, [r3, #48]	; 0x30
 8002cbe:	6b1b      	ldr	r3, [r3, #48]	; 0x30
 8002cc0:	f403 6380 	and.w	r3, r3, #1024	; 0x400
 8002cc4:	930b      	str	r3, [sp, #44]	; 0x2c
 8002cc6:	9b0b      	ldr	r3, [sp, #44]	; 0x2c
 8002cc8:	4b05      	ldr	r3, [pc, #20]	; (8002ce0 <_ZN5TGpioILh5ELh6ELh1EEC1Ev+0xfc>)
 8002cca:	6003      	str	r3, [r0, #0]
 8002ccc:	2101      	movs	r1, #1
 8002cce:	4604      	mov	r4, r0
 8002cd0:	f7ff ff2a 	bl	8002b28 <_ZN5TGpioILh5ELh6ELh1EE8set_modeEh>
 8002cd4:	4620      	mov	r0, r4
 8002cd6:	b00c      	add	sp, #48	; 0x30
 8002cd8:	bd10      	pop	{r4, pc}
 8002cda:	bf00      	nop
 8002cdc:	40023800 	andmi	r3, r2, r0, lsl #16
 8002ce0:	40021400 	andmi	r1, r2, r0, lsl #8

08002ce4 <_ZN4TI2CILh5ELh7ELh6ELj20ELh5EE4stopEv>:
 8002ce4:	b538      	push	{r3, r4, r5, lr}
 8002ce6:	f100 0508 	add.w	r5, r0, #8
 8002cea:	4604      	mov	r4, r0
 8002cec:	3404      	adds	r4, #4
 8002cee:	4628      	mov	r0, r5
 8002cf0:	2100      	movs	r1, #0
 8002cf2:	f7ff ff19 	bl	8002b28 <_ZN5TGpioILh5ELh6ELh1EE8set_modeEh>
 8002cf6:	4620      	mov	r0, r4
 8002cf8:	2100      	movs	r1, #0
 8002cfa:	f7ff fe37 	bl	800296c <_ZN5TGpioILh5ELh7ELh1EE8set_modeEh>
 8002cfe:	4628      	mov	r0, r5
 8002d00:	2101      	movs	r1, #1
 8002d02:	f7ff ff11 	bl	8002b28 <_ZN5TGpioILh5ELh6ELh1EE8set_modeEh>
 8002d06:	4620      	mov	r0, r4
 8002d08:	2100      	movs	r1, #0
 8002d0a:	f7ff fe2f 	bl	800296c <_ZN5TGpioILh5ELh7ELh1EE8set_modeEh>
 8002d0e:	4628      	mov	r0, r5
 8002d10:	2101      	movs	r1, #1
 8002d12:	f7ff ff09 	bl	8002b28 <_ZN5TGpioILh5ELh6ELh1EE8set_modeEh>
 8002d16:	4620      	mov	r0, r4
 8002d18:	2101      	movs	r1, #1
 8002d1a:	f7ff fe27 	bl	800296c <_ZN5TGpioILh5ELh7ELh1EE8set_modeEh>
 8002d1e:	e8bd 4038 	ldmia.w	sp!, {r3, r4, r5, lr}
 8002d22:	f7ff be1c 	b.w	800295e <_ZN4TI2CILh5ELh7ELh6ELj20ELh5EE5delayEv.isra.4>

08002d26 <_ZN4TI2CILh5ELh7ELh6ELj20ELh5EE5startEv>:
 8002d26:	b538      	push	{r3, r4, r5, lr}
 8002d28:	f100 0508 	add.w	r5, r0, #8
 8002d2c:	4604      	mov	r4, r0
 8002d2e:	3404      	adds	r4, #4
 8002d30:	4628      	mov	r0, r5
 8002d32:	2101      	movs	r1, #1
 8002d34:	f7ff fef8 	bl	8002b28 <_ZN5TGpioILh5ELh6ELh1EE8set_modeEh>
 8002d38:	4620      	mov	r0, r4
 8002d3a:	2101      	movs	r1, #1
 8002d3c:	f7ff fe16 	bl	800296c <_ZN5TGpioILh5ELh7ELh1EE8set_modeEh>
 8002d40:	4628      	mov	r0, r5
 8002d42:	2101      	movs	r1, #1
 8002d44:	f7ff fef0 	bl	8002b28 <_ZN5TGpioILh5ELh6ELh1EE8set_modeEh>
 8002d48:	4620      	mov	r0, r4
 8002d4a:	2100      	movs	r1, #0
 8002d4c:	f7ff fe0e 	bl	800296c <_ZN5TGpioILh5ELh7ELh1EE8set_modeEh>
 8002d50:	4628      	mov	r0, r5
 8002d52:	2100      	movs	r1, #0
 8002d54:	f7ff fee8 	bl	8002b28 <_ZN5TGpioILh5ELh6ELh1EE8set_modeEh>
 8002d58:	4620      	mov	r0, r4
 8002d5a:	2101      	movs	r1, #1
 8002d5c:	f7ff fe06 	bl	800296c <_ZN5TGpioILh5ELh7ELh1EE8set_modeEh>
 8002d60:	e8bd 4038 	ldmia.w	sp!, {r3, r4, r5, lr}
 8002d64:	f7ff bdfb 	b.w	800295e <_ZN4TI2CILh5ELh7ELh6ELj20ELh5EE5delayEv.isra.4>

08002d68 <_ZN4TI2CILh5ELh7ELh6ELj20ELh5EE4readEh>:
 8002d68:	e92d 43f8 	stmdb	sp!, {r3, r4, r5, r6, r7, r8, r9, lr}
 8002d6c:	4680      	mov	r8, r0
 8002d6e:	1d07      	adds	r7, r0, #4
 8002d70:	4638      	mov	r0, r7
 8002d72:	4689      	mov	r9, r1
 8002d74:	f108 0608 	add.w	r6, r8, #8
 8002d78:	2101      	movs	r1, #1
 8002d7a:	f7ff fdf7 	bl	800296c <_ZN5TGpioILh5ELh7ELh1EE8set_modeEh>
 8002d7e:	4630      	mov	r0, r6
 8002d80:	2100      	movs	r1, #0
 8002d82:	f7ff fed1 	bl	8002b28 <_ZN5TGpioILh5ELh6ELh1EE8set_modeEh>
 8002d86:	f7ff fdea 	bl	800295e <_ZN4TI2CILh5ELh7ELh6ELj20ELh5EE5delayEv.isra.4>
 8002d8a:	2508      	movs	r5, #8
 8002d8c:	2400      	movs	r4, #0
 8002d8e:	4630      	mov	r0, r6
 8002d90:	2101      	movs	r1, #1
 8002d92:	f7ff fec9 	bl	8002b28 <_ZN5TGpioILh5ELh6ELh1EE8set_modeEh>
 8002d96:	f7ff fde2 	bl	800295e <_ZN4TI2CILh5ELh7ELh6ELj20ELh5EE5delayEv.isra.4>
 8002d9a:	f8d8 3004 	ldr.w	r3, [r8, #4]
 8002d9e:	691b      	ldr	r3, [r3, #16]
 8002da0:	0064      	lsls	r4, r4, #1
 8002da2:	061b      	lsls	r3, r3, #24
 8002da4:	4630      	mov	r0, r6
 8002da6:	f04f 0100 	mov.w	r1, #0
 8002daa:	b2e4      	uxtb	r4, r4
 8002dac:	f105 35ff 	add.w	r5, r5, #4294967295	; 0xffffffff
 8002db0:	bf48      	it	mi
 8002db2:	f044 0401 	orrmi.w	r4, r4, #1
 8002db6:	f7ff feb7 	bl	8002b28 <_ZN5TGpioILh5ELh6ELh1EE8set_modeEh>
 8002dba:	f7ff fdd0 	bl	800295e <_ZN4TI2CILh5ELh7ELh6ELj20ELh5EE5delayEv.isra.4>
 8002dbe:	f015 05ff 	ands.w	r5, r5, #255	; 0xff
 8002dc2:	d1e4      	bne.n	8002d8e <_ZN4TI2CILh5ELh7ELh6ELj20ELh5EE4readEh+0x26>
 8002dc4:	4638      	mov	r0, r7
 8002dc6:	f1b9 0f00 	cmp.w	r9, #0
 8002dca:	d001      	beq.n	8002dd0 <_ZN4TI2CILh5ELh7ELh6ELj20ELh5EE4readEh+0x68>
 8002dcc:	4629      	mov	r1, r5
 8002dce:	e000      	b.n	8002dd2 <_ZN4TI2CILh5ELh7ELh6ELj20ELh5EE4readEh+0x6a>
 8002dd0:	2101      	movs	r1, #1
 8002dd2:	f7ff fdcb 	bl	800296c <_ZN5TGpioILh5ELh7ELh1EE8set_modeEh>
 8002dd6:	f7ff fdc2 	bl	800295e <_ZN4TI2CILh5ELh7ELh6ELj20ELh5EE5delayEv.isra.4>
 8002dda:	4630      	mov	r0, r6
 8002ddc:	2101      	movs	r1, #1
 8002dde:	f7ff fea3 	bl	8002b28 <_ZN5TGpioILh5ELh6ELh1EE8set_modeEh>
 8002de2:	f7ff fdbc 	bl	800295e <_ZN4TI2CILh5ELh7ELh6ELj20ELh5EE5delayEv.isra.4>
 8002de6:	4630      	mov	r0, r6
 8002de8:	2100      	movs	r1, #0
 8002dea:	f7ff fe9d 	bl	8002b28 <_ZN5TGpioILh5ELh6ELh1EE8set_modeEh>
 8002dee:	f7ff fdb6 	bl	800295e <_ZN4TI2CILh5ELh7ELh6ELj20ELh5EE5delayEv.isra.4>
 8002df2:	4638      	mov	r0, r7
 8002df4:	2101      	movs	r1, #1
 8002df6:	f7ff fdb9 	bl	800296c <_ZN5TGpioILh5ELh7ELh1EE8set_modeEh>
 8002dfa:	f7ff fdb0 	bl	800295e <_ZN4TI2CILh5ELh7ELh6ELj20ELh5EE5delayEv.isra.4>
 8002dfe:	4620      	mov	r0, r4
 8002e00:	e8bd 83f8 	ldmia.w	sp!, {r3, r4, r5, r6, r7, r8, r9, pc}

08002e04 <_ZN4TI2CILh5ELh7ELh6ELj20ELh5EE5writeEh>:
 8002e04:	e92d 41f0 	stmdb	sp!, {r4, r5, r6, r7, r8, lr}
 8002e08:	4607      	mov	r7, r0
 8002e0a:	460e      	mov	r6, r1
 8002e0c:	2408      	movs	r4, #8
 8002e0e:	f107 0508 	add.w	r5, r7, #8
 8002e12:	2100      	movs	r1, #0
 8002e14:	4628      	mov	r0, r5
 8002e16:	f7ff fe87 	bl	8002b28 <_ZN5TGpioILh5ELh6ELh1EE8set_modeEh>
 8002e1a:	f107 0804 	add.w	r8, r7, #4
 8002e1e:	f7ff fd9e 	bl	800295e <_ZN4TI2CILh5ELh7ELh6ELj20ELh5EE5delayEv.isra.4>
 8002e22:	f016 0f80 	tst.w	r6, #128	; 0x80
 8002e26:	bf14      	ite	ne
 8002e28:	2101      	movne	r1, #1
 8002e2a:	2100      	moveq	r1, #0
 8002e2c:	4640      	mov	r0, r8
 8002e2e:	f7ff fd9d 	bl	800296c <_ZN5TGpioILh5ELh7ELh1EE8set_modeEh>
 8002e32:	3c01      	subs	r4, #1
 8002e34:	f7ff fd93 	bl	800295e <_ZN4TI2CILh5ELh7ELh6ELj20ELh5EE5delayEv.isra.4>
 8002e38:	4628      	mov	r0, r5
 8002e3a:	2101      	movs	r1, #1
 8002e3c:	f7ff fe74 	bl	8002b28 <_ZN5TGpioILh5ELh6ELh1EE8set_modeEh>
 8002e40:	0076      	lsls	r6, r6, #1
 8002e42:	f7ff fd8c 	bl	800295e <_ZN4TI2CILh5ELh7ELh6ELj20ELh5EE5delayEv.isra.4>
 8002e46:	f014 04ff 	ands.w	r4, r4, #255	; 0xff
 8002e4a:	b2f6      	uxtb	r6, r6
 8002e4c:	d1df      	bne.n	8002e0e <_ZN4TI2CILh5ELh7ELh6ELj20ELh5EE5writeEh+0xa>
 8002e4e:	4628      	mov	r0, r5
 8002e50:	4621      	mov	r1, r4
 8002e52:	f7ff fe69 	bl	8002b28 <_ZN5TGpioILh5ELh6ELh1EE8set_modeEh>
 8002e56:	f7ff fd82 	bl	800295e <_ZN4TI2CILh5ELh7ELh6ELj20ELh5EE5delayEv.isra.4>
 8002e5a:	4640      	mov	r0, r8
 8002e5c:	2101      	movs	r1, #1
 8002e5e:	f7ff fd85 	bl	800296c <_ZN5TGpioILh5ELh7ELh1EE8set_modeEh>
 8002e62:	f7ff fd7c 	bl	800295e <_ZN4TI2CILh5ELh7ELh6ELj20ELh5EE5delayEv.isra.4>
 8002e66:	4628      	mov	r0, r5
 8002e68:	2101      	movs	r1, #1
 8002e6a:	f7ff fe5d 	bl	8002b28 <_ZN5TGpioILh5ELh6ELh1EE8set_modeEh>
 8002e6e:	f7ff fd76 	bl	800295e <_ZN4TI2CILh5ELh7ELh6ELj20ELh5EE5delayEv.isra.4>
 8002e72:	687b      	ldr	r3, [r7, #4]
 8002e74:	691e      	ldr	r6, [r3, #16]
 8002e76:	4628      	mov	r0, r5
 8002e78:	4621      	mov	r1, r4
 8002e7a:	f7ff fe55 	bl	8002b28 <_ZN5TGpioILh5ELh6ELh1EE8set_modeEh>
 8002e7e:	f7ff fd6e 	bl	800295e <_ZN4TI2CILh5ELh7ELh6ELj20ELh5EE5delayEv.isra.4>
 8002e82:	f086 0080 	eor.w	r0, r6, #128	; 0x80
 8002e86:	f3c0 10c0 	ubfx	r0, r0, #7, #1
 8002e8a:	e8bd 81f0 	ldmia.w	sp!, {r4, r5, r6, r7, r8, pc}
 8002e8e:	0000      	movs	r0, r0

08002e90 <_GLOBAL__sub_I_i2c>:
 8002e90:	b510      	push	{r4, lr}
 8002e92:	4c0b      	ldr	r4, [pc, #44]	; (8002ec0 <_GLOBAL__sub_I_i2c+0x30>)
 8002e94:	4b0b      	ldr	r3, [pc, #44]	; (8002ec4 <_GLOBAL__sub_I_i2c+0x34>)
 8002e96:	4620      	mov	r0, r4
 8002e98:	f840 3b04 	str.w	r3, [r0], #4
 8002e9c:	f7ff fdc4 	bl	8002a28 <_ZN5TGpioILh5ELh7ELh1EEC1Ev>
 8002ea0:	f104 0008 	add.w	r0, r4, #8
 8002ea4:	f7ff fe9e 	bl	8002be4 <_ZN5TGpioILh5ELh6ELh1EEC1Ev>
 8002ea8:	6862      	ldr	r2, [r4, #4]
 8002eaa:	6953      	ldr	r3, [r2, #20]
 8002eac:	f023 0380 	bic.w	r3, r3, #128	; 0x80
 8002eb0:	6153      	str	r3, [r2, #20]
 8002eb2:	68a2      	ldr	r2, [r4, #8]
 8002eb4:	6953      	ldr	r3, [r2, #20]
 8002eb6:	f023 0340 	bic.w	r3, r3, #64	; 0x40
 8002eba:	6153      	str	r3, [r2, #20]
 8002ebc:	bd10      	pop	{r4, pc}
 8002ebe:	bf00      	nop
 8002ec0:	20000450 	andcs	r0, r0, r0, asr r4
 8002ec4:	08005c00 	stmdaeq	r0, {sl, fp, ip, lr}

08002ec8 <_ZN4CMemD1Ev>:
 8002ec8:	4770      	bx	lr

08002eca <_ZdlPv>:
 8002eca:	4770      	bx	lr

08002ecc <_GLOBAL__sub_I_mem>:
 8002ecc:	4803      	ldr	r0, [pc, #12]	; (8002edc <_GLOBAL__sub_I_mem+0x10>)
 8002ece:	4b04      	ldr	r3, [pc, #16]	; (8002ee0 <_GLOBAL__sub_I_mem+0x14>)
 8002ed0:	4904      	ldr	r1, [pc, #16]	; (8002ee4 <_GLOBAL__sub_I_mem+0x18>)
 8002ed2:	4a05      	ldr	r2, [pc, #20]	; (8002ee8 <_GLOBAL__sub_I_mem+0x1c>)
 8002ed4:	6003      	str	r3, [r0, #0]
 8002ed6:	f002 bde3 	b.w	8005aa0 <__aeabi_atexit>
 8002eda:	bf00      	nop
 8002edc:	2000045c 	andcs	r0, r0, ip, asr r4
 8002ee0:	20000b54 	andcs	r0, r0, r4, asr fp
 8002ee4:	08002ec9 	stmdaeq	r0, {r0, r3, r6, r7, r9, sl, fp, sp}
 8002ee8:	20000000 	andcs	r0, r0, r0

08002eec <_ZN7CKernelD1Ev>:
 8002eec:	4770      	bx	lr
 8002eee:	0000      	movs	r0, r0

08002ef0 <scheduler>:
 8002ef0:	b570      	push	{r4, r5, r6, lr}
 8002ef2:	2200      	movs	r2, #0
 8002ef4:	4611      	mov	r1, r2
 8002ef6:	4b10      	ldr	r3, [pc, #64]	; (8002f38 <scheduler+0x48>)
 8002ef8:	0110      	lsls	r0, r2, #4
 8002efa:	181c      	adds	r4, r3, r0
 8002efc:	68a5      	ldr	r5, [r4, #8]
 8002efe:	f015 0f02 	tst.w	r5, #2
 8002f02:	461d      	mov	r5, r3
 8002f04:	d108      	bne.n	8002f18 <scheduler+0x28>
 8002f06:	68a4      	ldr	r4, [r4, #8]
 8002f08:	07e4      	lsls	r4, r4, #31
 8002f0a:	d505      	bpl.n	8002f18 <scheduler+0x28>
 8002f0c:	010c      	lsls	r4, r1, #4
 8002f0e:	581e      	ldr	r6, [r3, r0]
 8002f10:	591c      	ldr	r4, [r3, r4]
 8002f12:	42a6      	cmp	r6, r4
 8002f14:	bf38      	it	cc
 8002f16:	4611      	movcc	r1, r2
 8002f18:	581c      	ldr	r4, [r3, r0]
 8002f1a:	b114      	cbz	r4, 8002f22 <scheduler+0x32>
 8002f1c:	581c      	ldr	r4, [r3, r0]
 8002f1e:	3c01      	subs	r4, #1
 8002f20:	501c      	str	r4, [r3, r0]
 8002f22:	3201      	adds	r2, #1
 8002f24:	2a20      	cmp	r2, #32
 8002f26:	d1e6      	bne.n	8002ef6 <scheduler+0x6>
 8002f28:	010b      	lsls	r3, r1, #4
 8002f2a:	18ea      	adds	r2, r5, r3
 8002f2c:	6852      	ldr	r2, [r2, #4]
 8002f2e:	50ea      	str	r2, [r5, r3]
 8002f30:	4b02      	ldr	r3, [pc, #8]	; (8002f3c <scheduler+0x4c>)
 8002f32:	6019      	str	r1, [r3, #0]
 8002f34:	bd70      	pop	{r4, r5, r6, pc}
 8002f36:	bf00      	nop
 8002f38:	20000460 	andcs	r0, r0, r0, ror #8
 8002f3c:	20000664 	andcs	r0, r0, r4, ror #12

08002f40 <SysTick_Handler>:
 8002f40:	e92d 0ff0 	stmdb	sp!, {r4, r5, r6, r7, r8, r9, sl, fp}
 8002f44:	f3ef 8208 	mrs	r2, MSP
 8002f48:	4d0e      	ldr	r5, [pc, #56]	; (8002f84 <SysTick_Handler+0x44>)
 8002f4a:	4c0f      	ldr	r4, [pc, #60]	; (8002f88 <SysTick_Handler+0x48>)
 8002f4c:	6829      	ldr	r1, [r5, #0]
 8002f4e:	f64f 73ff 	movw	r3, #65535	; 0xffff
 8002f52:	4299      	cmp	r1, r3
 8002f54:	bf1b      	ittet	ne
 8002f56:	682b      	ldrne	r3, [r5, #0]
 8002f58:	eb04 1303 	addne.w	r3, r4, r3, lsl #4
 8002f5c:	2300      	moveq	r3, #0
 8002f5e:	60da      	strne	r2, [r3, #12]
 8002f60:	bf0c      	ite	eq
 8002f62:	602b      	streq	r3, [r5, #0]
 8002f64:	3308      	addne	r3, #8
 8002f66:	f7ff ffc3 	bl	8002ef0 <scheduler>
 8002f6a:	682b      	ldr	r3, [r5, #0]
 8002f6c:	eb04 1403 	add.w	r4, r4, r3, lsl #4
 8002f70:	3408      	adds	r4, #8
 8002f72:	6862      	ldr	r2, [r4, #4]
 8002f74:	f06f 0306 	mvn.w	r3, #6
 8002f78:	469e      	mov	lr, r3
 8002f7a:	f382 8808 	msr	MSP, r2
 8002f7e:	e8bd 0ff0 	ldmia.w	sp!, {r4, r5, r6, r7, r8, r9, sl, fp}
 8002f82:	4770      	bx	lr
 8002f84:	20000664 	andcs	r0, r0, r4, ror #12
 8002f88:	20000460 	andcs	r0, r0, r0, ror #8

08002f8c <_GLOBAL__sub_I_os>:
 8002f8c:	4802      	ldr	r0, [pc, #8]	; (8002f98 <_GLOBAL__sub_I_os+0xc>)
 8002f8e:	4903      	ldr	r1, [pc, #12]	; (8002f9c <_GLOBAL__sub_I_os+0x10>)
 8002f90:	4a03      	ldr	r2, [pc, #12]	; (8002fa0 <_GLOBAL__sub_I_os+0x14>)
 8002f92:	f002 bd85 	b.w	8005aa0 <__aeabi_atexit>
 8002f96:	bf00      	nop
 8002f98:	20000660 	andcs	r0, r0, r0, ror #12
 8002f9c:	08002eed 	stmdaeq	r0, {r0, r2, r3, r5, r6, r7, r9, sl, fp, sp}
 8002fa0:	20000000 	andcs	r0, r0, r0

08002fa4 <_ZN3CFMD1Ev>:
 8002fa4:	4770      	bx	lr
 8002fa6:	0000      	movs	r0, r0

08002fa8 <_GLOBAL__sub_I_fm>:
 8002fa8:	4804      	ldr	r0, [pc, #16]	; (8002fbc <_GLOBAL__sub_I_fm+0x14>)
 8002faa:	4905      	ldr	r1, [pc, #20]	; (8002fc0 <_GLOBAL__sub_I_fm+0x18>)
 8002fac:	2201      	movs	r2, #1
 8002fae:	2302      	movs	r3, #2
 8002fb0:	e880 000c 	stmia.w	r0, {r2, r3}
 8002fb4:	4a03      	ldr	r2, [pc, #12]	; (8002fc4 <_GLOBAL__sub_I_fm+0x1c>)
 8002fb6:	f002 bd73 	b.w	8005aa0 <__aeabi_atexit>
 8002fba:	bf00      	nop
 8002fbc:	20000668 	andcs	r0, r0, r8, ror #12
 8002fc0:	08002fa5 	stmdaeq	r0, {r0, r2, r5, r7, r8, r9, sl, fp, sp}
 8002fc4:	20000000 	andcs	r0, r0, r0

08002fc8 <_ZN6CTimerD1Ev>:
 8002fc8:	4770      	bx	lr
 8002fca:	0000      	movs	r0, r0

08002fcc <_ZN6CTimer8add_taskEP7CThreadjb>:
 8002fcc:	b5f0      	push	{r4, r5, r6, r7, lr}
 8002fce:	b672      	cpsid	i
 8002fd0:	2500      	movs	r5, #0
 8002fd2:	f04f 30ff 	mov.w	r0, #4294967295	; 0xffffffff
 8002fd6:	2614      	movs	r6, #20
 8002fd8:	4c0d      	ldr	r4, [pc, #52]	; (8003010 <_ZN6CTimer8add_taskEP7CThreadjb+0x44>)
 8002fda:	436e      	muls	r6, r5
 8002fdc:	19a7      	adds	r7, r4, r6
 8002fde:	59a6      	ldr	r6, [r4, r6]
 8002fe0:	b91e      	cbnz	r6, 8002fea <_ZN6CTimer8add_taskEP7CThreadjb+0x1e>
 8002fe2:	687e      	ldr	r6, [r7, #4]
 8002fe4:	2e00      	cmp	r6, #0
 8002fe6:	bf08      	it	eq
 8002fe8:	4628      	moveq	r0, r5
 8002fea:	3501      	adds	r5, #1
 8002fec:	2d20      	cmp	r5, #32
 8002fee:	d1f2      	bne.n	8002fd6 <_ZN6CTimer8add_taskEP7CThreadjb+0xa>
 8002ff0:	1c45      	adds	r5, r0, #1
 8002ff2:	d00a      	beq.n	800300a <_ZN6CTimer8add_taskEP7CThreadjb+0x3e>
 8002ff4:	2514      	movs	r5, #20
 8002ff6:	b2c6      	uxtb	r6, r0
 8002ff8:	436e      	muls	r6, r5
 8002ffa:	19a5      	adds	r5, r4, r6
 8002ffc:	2700      	movs	r7, #0
 8002ffe:	51a7      	str	r7, [r4, r6]
 8003000:	6069      	str	r1, [r5, #4]
 8003002:	60aa      	str	r2, [r5, #8]
 8003004:	60ea      	str	r2, [r5, #12]
 8003006:	742f      	strb	r7, [r5, #16]
 8003008:	746b      	strb	r3, [r5, #17]
 800300a:	b662      	cpsie	i
 800300c:	bdf0      	pop	{r4, r5, r6, r7, pc}
 800300e:	bf00      	nop
 8003010:	20000674 	andcs	r0, r0, r4, ror r6

08003014 <_ZN6CTimer14test_and_clearEh>:
 8003014:	b672      	cpsid	i
 8003016:	4b07      	ldr	r3, [pc, #28]	; (8003034 <_ZN6CTimer14test_and_clearEh+0x20>)
 8003018:	2214      	movs	r2, #20
 800301a:	fb02 3101 	mla	r1, r2, r1, r3
 800301e:	7c0b      	ldrb	r3, [r1, #16]
 8003020:	f003 00ff 	and.w	r0, r3, #255	; 0xff
 8003024:	b11b      	cbz	r3, 800302e <_ZN6CTimer14test_and_clearEh+0x1a>
 8003026:	7c08      	ldrb	r0, [r1, #16]
 8003028:	2300      	movs	r3, #0
 800302a:	b2c0      	uxtb	r0, r0
 800302c:	740b      	strb	r3, [r1, #16]
 800302e:	b662      	cpsie	i
 8003030:	4770      	bx	lr
 8003032:	bf00      	nop
 8003034:	20000674 	andcs	r0, r0, r4, ror r6

08003038 <_ZN6CTimer4mainEv>:
 8003038:	e92d 41f0 	stmdb	sp!, {r4, r5, r6, r7, r8, lr}
 800303c:	4607      	mov	r7, r0
 800303e:	2400      	movs	r4, #0
 8003040:	4e0f      	ldr	r6, [pc, #60]	; (8003080 <_ZN6CTimer4mainEv+0x48>)
 8003042:	2514      	movs	r5, #20
 8003044:	4365      	muls	r5, r4
 8003046:	1973      	adds	r3, r6, r5
 8003048:	3310      	adds	r3, #16
 800304a:	46b0      	mov	r8, r6
 800304c:	785b      	ldrb	r3, [r3, #1]
 800304e:	b18b      	cbz	r3, 8003074 <_ZN6CTimer4mainEv+0x3c>
 8003050:	4638      	mov	r0, r7
 8003052:	4621      	mov	r1, r4
 8003054:	f7ff ffde 	bl	8003014 <_ZN6CTimer14test_and_clearEh>
 8003058:	b160      	cbz	r0, 8003074 <_ZN6CTimer4mainEv+0x3c>
 800305a:	5973      	ldr	r3, [r6, r5]
 800305c:	b10b      	cbz	r3, 8003062 <_ZN6CTimer4mainEv+0x2a>
 800305e:	5973      	ldr	r3, [r6, r5]
 8003060:	4798      	blx	r3
 8003062:	2314      	movs	r3, #20
 8003064:	fb03 8304 	mla	r3, r3, r4, r8
 8003068:	685a      	ldr	r2, [r3, #4]
 800306a:	b11a      	cbz	r2, 8003074 <_ZN6CTimer4mainEv+0x3c>
 800306c:	6858      	ldr	r0, [r3, #4]
 800306e:	6803      	ldr	r3, [r0, #0]
 8003070:	689b      	ldr	r3, [r3, #8]
 8003072:	4798      	blx	r3
 8003074:	3401      	adds	r4, #1
 8003076:	b2e4      	uxtb	r4, r4
 8003078:	2c20      	cmp	r4, #32
 800307a:	bf28      	it	cs
 800307c:	2400      	movcs	r4, #0
 800307e:	e7df      	b.n	8003040 <_ZN6CTimer4mainEv+0x8>
 8003080:	20000674 	andcs	r0, r0, r4, ror r6

08003084 <_ZN6CTimer8get_timeEv>:
 8003084:	b082      	sub	sp, #8
 8003086:	b672      	cpsid	i
 8003088:	4b03      	ldr	r3, [pc, #12]	; (8003098 <_ZN6CTimer8get_timeEv+0x14>)
 800308a:	681b      	ldr	r3, [r3, #0]
 800308c:	9301      	str	r3, [sp, #4]
 800308e:	b662      	cpsie	i
 8003090:	9801      	ldr	r0, [sp, #4]
 8003092:	b002      	add	sp, #8
 8003094:	4770      	bx	lr
 8003096:	bf00      	nop
 8003098:	20000670 	andcs	r0, r0, r0, ror r6

0800309c <TIM2_IRQHandler>:
 800309c:	b538      	push	{r3, r4, r5, lr}
 800309e:	f04f 4380 	mov.w	r3, #1073741824	; 0x40000000
 80030a2:	691a      	ldr	r2, [r3, #16]
 80030a4:	07d2      	lsls	r2, r2, #31
 80030a6:	d533      	bpl.n	8003110 <TIM2_IRQHandler+0x74>
 80030a8:	f64f 72fe 	movw	r2, #65534	; 0xfffe
 80030ac:	611a      	str	r2, [r3, #16]
 80030ae:	2400      	movs	r4, #0
 80030b0:	4918      	ldr	r1, [pc, #96]	; (8003114 <TIM2_IRQHandler+0x78>)
 80030b2:	2314      	movs	r3, #20
 80030b4:	fb03 1304 	mla	r3, r3, r4, r1
 80030b8:	f103 0208 	add.w	r2, r3, #8
 80030bc:	6850      	ldr	r0, [r2, #4]
 80030be:	460d      	mov	r5, r1
 80030c0:	b118      	cbz	r0, 80030ca <TIM2_IRQHandler+0x2e>
 80030c2:	6853      	ldr	r3, [r2, #4]
 80030c4:	3b01      	subs	r3, #1
 80030c6:	6053      	str	r3, [r2, #4]
 80030c8:	e01b      	b.n	8003102 <TIM2_IRQHandler+0x66>
 80030ca:	6898      	ldr	r0, [r3, #8]
 80030cc:	6050      	str	r0, [r2, #4]
 80030ce:	7c1a      	ldrb	r2, [r3, #16]
 80030d0:	2aff      	cmp	r2, #255	; 0xff
 80030d2:	bf1f      	itttt	ne
 80030d4:	7c1a      	ldrbne	r2, [r3, #16]
 80030d6:	3201      	addne	r2, #1
 80030d8:	b2d2      	uxtbne	r2, r2
 80030da:	741a      	strbne	r2, [r3, #16]
 80030dc:	2314      	movs	r3, #20
 80030de:	4363      	muls	r3, r4
 80030e0:	18ca      	adds	r2, r1, r3
 80030e2:	3210      	adds	r2, #16
 80030e4:	7852      	ldrb	r2, [r2, #1]
 80030e6:	b962      	cbnz	r2, 8003102 <TIM2_IRQHandler+0x66>
 80030e8:	58ca      	ldr	r2, [r1, r3]
 80030ea:	b10a      	cbz	r2, 80030f0 <TIM2_IRQHandler+0x54>
 80030ec:	58cb      	ldr	r3, [r1, r3]
 80030ee:	4798      	blx	r3
 80030f0:	2314      	movs	r3, #20
 80030f2:	fb03 5304 	mla	r3, r3, r4, r5
 80030f6:	685a      	ldr	r2, [r3, #4]
 80030f8:	b11a      	cbz	r2, 8003102 <TIM2_IRQHandler+0x66>
 80030fa:	6858      	ldr	r0, [r3, #4]
 80030fc:	6803      	ldr	r3, [r0, #0]
 80030fe:	689b      	ldr	r3, [r3, #8]
 8003100:	4798      	blx	r3
 8003102:	3401      	adds	r4, #1
 8003104:	2c20      	cmp	r4, #32
 8003106:	d1d3      	bne.n	80030b0 <TIM2_IRQHandler+0x14>
 8003108:	4a03      	ldr	r2, [pc, #12]	; (8003118 <TIM2_IRQHandler+0x7c>)
 800310a:	6813      	ldr	r3, [r2, #0]
 800310c:	3301      	adds	r3, #1
 800310e:	6013      	str	r3, [r2, #0]
 8003110:	bd38      	pop	{r3, r4, r5, pc}
 8003112:	bf00      	nop
 8003114:	20000674 	andcs	r0, r0, r4, ror r6
 8003118:	20000670 	andcs	r0, r0, r0, ror r6

0800311c <_ZN6CTimer12timer_2_initEm>:
 800311c:	b510      	push	{r4, lr}
 800311e:	b092      	sub	sp, #72	; 0x48
 8003120:	460c      	mov	r4, r1
 8003122:	f7fe fc2f 	bl	8001984 <HAL_RCC_GetPCLK1Freq>
 8003126:	2c00      	cmp	r4, #0
 8003128:	ea4f 0340 	mov.w	r3, r0, lsl #1
 800312c:	bf08      	it	eq
 800312e:	2401      	moveq	r4, #1
 8003130:	42a0      	cmp	r0, r4
 8003132:	ee07 3a90 	vmov	s15, r3
 8003136:	bf28      	it	cs
 8003138:	4620      	movcs	r0, r4
 800313a:	eeb8 7a67 	vcvt.f32.u32	s14, s15
 800313e:	ee07 0a90 	vmov	s15, r0
 8003142:	eef8 7a67 	vcvt.f32.u32	s15, s15
 8003146:	2400      	movs	r4, #0
 8003148:	eec7 7a27 	vdiv.f32	s15, s14, s15
 800314c:	4b1c      	ldr	r3, [pc, #112]	; (80031c0 <_ZN6CTimer12timer_2_initEm+0xa4>)
 800314e:	9402      	str	r4, [sp, #8]
 8003150:	6c19      	ldr	r1, [r3, #64]	; 0x40
 8003152:	f041 0101 	orr.w	r1, r1, #1
 8003156:	6419      	str	r1, [r3, #64]	; 0x40
 8003158:	6c1b      	ldr	r3, [r3, #64]	; 0x40
 800315a:	9407      	str	r4, [sp, #28]
 800315c:	f003 0301 	and.w	r3, r3, #1
 8003160:	9302      	str	r3, [sp, #8]
 8003162:	9b02      	ldr	r3, [sp, #8]
 8003164:	9405      	str	r4, [sp, #20]
 8003166:	f04f 4380 	mov.w	r3, #1073741824	; 0x40000000
 800316a:	9303      	str	r3, [sp, #12]
 800316c:	eebc 7ae7 	vcvt.u32.f32	s14, s15
 8003170:	a803      	add	r0, sp, #12
 8003172:	ee17 2a10 	vmov	r2, s14
 8003176:	0c12      	lsrs	r2, r2, #16
 8003178:	1c53      	adds	r3, r2, #1
 800317a:	ee07 3a10 	vmov	s14, r3
 800317e:	eeb8 7ac7 	vcvt.f32.s32	s14, s14
 8003182:	9204      	str	r2, [sp, #16]
 8003184:	eec7 7a87 	vdiv.f32	s15, s15, s14
 8003188:	9408      	str	r4, [sp, #32]
 800318a:	eeb7 7a00 	vmov.f32	s14, #112	; 0x3f800000  1.0
 800318e:	ee77 7ac7 	vsub.f32	s15, s15, s14
 8003192:	eefc 7ae7 	vcvt.u32.f32	s15, s15
 8003196:	edcd 7a01 	vstr	s15, [sp, #4]
 800319a:	f8bd 3004 	ldrh.w	r3, [sp, #4]
 800319e:	9306      	str	r3, [sp, #24]
 80031a0:	f7fe ff26 	bl	8001ff0 <HAL_TIM_Base_Init>
 80031a4:	2103      	movs	r1, #3
 80031a6:	4622      	mov	r2, r4
 80031a8:	201c      	movs	r0, #28
 80031aa:	f7fe f857 	bl	800125c <HAL_NVIC_SetPriority>
 80031ae:	201c      	movs	r0, #28
 80031b0:	f7fe f884 	bl	80012bc <HAL_NVIC_EnableIRQ>
 80031b4:	a803      	add	r0, sp, #12
 80031b6:	f7fe feac 	bl	8001f12 <HAL_TIM_Base_Start_IT>
 80031ba:	b012      	add	sp, #72	; 0x48
 80031bc:	bd10      	pop	{r4, pc}
 80031be:	bf00      	nop
 80031c0:	40023800 	andmi	r3, r2, r0, lsl #16

080031c4 <_ZN6CTimer4initEv>:
 80031c4:	b538      	push	{r3, r4, r5, lr}
 80031c6:	2400      	movs	r4, #0
 80031c8:	4d0d      	ldr	r5, [pc, #52]	; (8003200 <_ZN6CTimer4initEv+0x3c>)
 80031ca:	2114      	movs	r1, #20
 80031cc:	4361      	muls	r1, r4
 80031ce:	186a      	adds	r2, r5, r1
 80031d0:	2300      	movs	r3, #0
 80031d2:	3401      	adds	r4, #1
 80031d4:	506b      	str	r3, [r5, r1]
 80031d6:	2c20      	cmp	r4, #32
 80031d8:	f44f 717a 	mov.w	r1, #1000	; 0x3e8
 80031dc:	6053      	str	r3, [r2, #4]
 80031de:	6091      	str	r1, [r2, #8]
 80031e0:	60d3      	str	r3, [r2, #12]
 80031e2:	7413      	strb	r3, [r2, #16]
 80031e4:	7453      	strb	r3, [r2, #17]
 80031e6:	d1ef      	bne.n	80031c8 <_ZN6CTimer4initEv+0x4>
 80031e8:	4a06      	ldr	r2, [pc, #24]	; (8003204 <_ZN6CTimer4initEv+0x40>)
 80031ea:	6013      	str	r3, [r2, #0]
 80031ec:	4a06      	ldr	r2, [pc, #24]	; (8003208 <_ZN6CTimer4initEv+0x44>)
 80031ee:	6003      	str	r3, [r0, #0]
 80031f0:	6c13      	ldr	r3, [r2, #64]	; 0x40
 80031f2:	f043 0301 	orr.w	r3, r3, #1
 80031f6:	6413      	str	r3, [r2, #64]	; 0x40
 80031f8:	f7ff ff90 	bl	800311c <_ZN6CTimer12timer_2_initEm>
 80031fc:	b662      	cpsie	i
 80031fe:	bd38      	pop	{r3, r4, r5, pc}
 8003200:	20000674 	andcs	r0, r0, r4, ror r6
 8003204:	20000670 	andcs	r0, r0, r0, ror r6
 8003208:	40023800 	andmi	r3, r2, r0, lsl #16

0800320c <_GLOBAL__sub_I_timer>:
 800320c:	4802      	ldr	r0, [pc, #8]	; (8003218 <_GLOBAL__sub_I_timer+0xc>)
 800320e:	4903      	ldr	r1, [pc, #12]	; (800321c <_GLOBAL__sub_I_timer+0x10>)
 8003210:	4a03      	ldr	r2, [pc, #12]	; (8003220 <_GLOBAL__sub_I_timer+0x14>)
 8003212:	f002 bc45 	b.w	8005aa0 <__aeabi_atexit>
 8003216:	bf00      	nop
 8003218:	200008f4 	strdcs	r0, [r0], -r4
 800321c:	08002fc9 	stmdaeq	r0, {r0, r3, r6, r7, r8, r9, sl, fp, sp}
 8003220:	20000000 	andcs	r0, r0, r0

08003224 <_ZN9CTerminalD1Ev>:
 8003224:	b510      	push	{r4, lr}
 8003226:	4604      	mov	r4, r0
 8003228:	f001 fd3f 	bl	8004caa <_ZN6CUSARTD1Ev>
 800322c:	4620      	mov	r0, r4
 800322e:	bd10      	pop	{r4, pc}

08003230 <_ZN9CTerminal4putsEPc>:
 8003230:	b538      	push	{r3, r4, r5, lr}
 8003232:	4605      	mov	r5, r0
 8003234:	1e4c      	subs	r4, r1, #1
 8003236:	f814 1f01 	ldrb.w	r1, [r4, #1]!
 800323a:	b119      	cbz	r1, 8003244 <_ZN9CTerminal4putsEPc+0x14>
 800323c:	4628      	mov	r0, r5
 800323e:	f001 fd8b 	bl	8004d58 <_ZN6CUSART8put_charEc>
 8003242:	e7f8      	b.n	8003236 <_ZN9CTerminal4putsEPc+0x6>
 8003244:	bd38      	pop	{r3, r4, r5, pc}

08003246 <_ZN9CTerminal4putiEl>:
 8003246:	b530      	push	{r4, r5, lr}
 8003248:	b085      	sub	sp, #20
 800324a:	1e0b      	subs	r3, r1, #0
 800324c:	f04f 0200 	mov.w	r2, #0
 8003250:	bfba      	itte	lt
 8003252:	425b      	neglt	r3, r3
 8003254:	2401      	movlt	r4, #1
 8003256:	4614      	movge	r4, r2
 8003258:	f88d 200f 	strb.w	r2, [sp, #15]
 800325c:	210a      	movs	r1, #10
 800325e:	220a      	movs	r2, #10
 8003260:	fb93 f5f2 	sdiv	r5, r3, r2
 8003264:	fb02 3315 	mls	r3, r2, r5, r3
 8003268:	aa04      	add	r2, sp, #16
 800326a:	440a      	add	r2, r1
 800326c:	3330      	adds	r3, #48	; 0x30
 800326e:	f802 3c0c 	strb.w	r3, [r2, #-12]
 8003272:	1e4a      	subs	r2, r1, #1
 8003274:	b2d2      	uxtb	r2, r2
 8003276:	462b      	mov	r3, r5
 8003278:	b10d      	cbz	r5, 800327e <_ZN9CTerminal4putiEl+0x38>
 800327a:	4611      	mov	r1, r2
 800327c:	e7ef      	b.n	800325e <_ZN9CTerminal4putiEl+0x18>
 800327e:	b12c      	cbz	r4, 800328c <_ZN9CTerminal4putiEl+0x46>
 8003280:	ab04      	add	r3, sp, #16
 8003282:	4413      	add	r3, r2
 8003284:	212d      	movs	r1, #45	; 0x2d
 8003286:	f803 1c0c 	strb.w	r1, [r3, #-12]
 800328a:	4611      	mov	r1, r2
 800328c:	ab01      	add	r3, sp, #4
 800328e:	4419      	add	r1, r3
 8003290:	f7ff ffce 	bl	8003230 <_ZN9CTerminal4putsEPc>
 8003294:	b005      	add	sp, #20
 8003296:	bd30      	pop	{r4, r5, pc}

08003298 <_ZN9CTerminal5putuiEm>:
 8003298:	b51f      	push	{r0, r1, r2, r3, r4, lr}
 800329a:	2300      	movs	r3, #0
 800329c:	f88d 300f 	strb.w	r3, [sp, #15]
 80032a0:	220a      	movs	r2, #10
 80032a2:	230a      	movs	r3, #10
 80032a4:	fbb1 f4f3 	udiv	r4, r1, r3
 80032a8:	fb03 1314 	mls	r3, r3, r4, r1
 80032ac:	a904      	add	r1, sp, #16
 80032ae:	4411      	add	r1, r2
 80032b0:	3330      	adds	r3, #48	; 0x30
 80032b2:	f801 3c0c 	strb.w	r3, [r1, #-12]
 80032b6:	1e53      	subs	r3, r2, #1
 80032b8:	b2db      	uxtb	r3, r3
 80032ba:	4621      	mov	r1, r4
 80032bc:	b10c      	cbz	r4, 80032c2 <_ZN9CTerminal5putuiEm+0x2a>
 80032be:	461a      	mov	r2, r3
 80032c0:	e7ef      	b.n	80032a2 <_ZN9CTerminal5putuiEm+0xa>
 80032c2:	ab01      	add	r3, sp, #4
 80032c4:	1899      	adds	r1, r3, r2
 80032c6:	f7ff ffb3 	bl	8003230 <_ZN9CTerminal4putsEPc>
 80032ca:	b004      	add	sp, #16
 80032cc:	bd10      	pop	{r4, pc}

080032ce <_ZN9CTerminal4putxEm>:
 80032ce:	b51f      	push	{r0, r1, r2, r3, r4, lr}
 80032d0:	2300      	movs	r3, #0
 80032d2:	f88d 300f 	strb.w	r3, [sp, #15]
 80032d6:	220a      	movs	r2, #10
 80032d8:	f001 030f 	and.w	r3, r1, #15
 80032dc:	ac04      	add	r4, sp, #16
 80032de:	2b09      	cmp	r3, #9
 80032e0:	4414      	add	r4, r2
 80032e2:	bf94      	ite	ls
 80032e4:	3330      	addls	r3, #48	; 0x30
 80032e6:	3357      	addhi	r3, #87	; 0x57
 80032e8:	f804 3c0c 	strb.w	r3, [r4, #-12]
 80032ec:	0909      	lsrs	r1, r1, #4
 80032ee:	f102 33ff 	add.w	r3, r2, #4294967295	; 0xffffffff
 80032f2:	b2db      	uxtb	r3, r3
 80032f4:	d001      	beq.n	80032fa <_ZN9CTerminal4putxEm+0x2c>
 80032f6:	461a      	mov	r2, r3
 80032f8:	e7ee      	b.n	80032d8 <_ZN9CTerminal4putxEm+0xa>
 80032fa:	ab01      	add	r3, sp, #4
 80032fc:	1899      	adds	r1, r3, r2
 80032fe:	f7ff ff97 	bl	8003230 <_ZN9CTerminal4putsEPc>
 8003302:	b004      	add	sp, #16
 8003304:	bd10      	pop	{r4, pc}

08003306 <_ZN9CTerminal4putfEfh>:
 8003306:	b5f8      	push	{r3, r4, r5, r6, r7, lr}
 8003308:	eeb5 0ac0 	vcmpe.f32	s0, #0.0
 800330c:	ed2d 8b02 	vpush	{d8}
 8003310:	eef1 fa10 	vmrs	APSR_nzcv, fpscr
 8003314:	460d      	mov	r5, r1
 8003316:	4606      	mov	r6, r0
 8003318:	bf46      	itte	mi
 800331a:	eeb1 0a40 	vnegmi.f32	s0, s0
 800331e:	212d      	movmi	r1, #45	; 0x2d
 8003320:	2120      	movpl	r1, #32
 8003322:	2301      	movs	r3, #1
 8003324:	2200      	movs	r2, #0
 8003326:	42aa      	cmp	r2, r5
 8003328:	d203      	bcs.n	8003332 <_ZN9CTerminal4putfEfh+0x2c>
 800332a:	200a      	movs	r0, #10
 800332c:	4343      	muls	r3, r0
 800332e:	3201      	adds	r2, #1
 8003330:	e7f9      	b.n	8003326 <_ZN9CTerminal4putfEfh+0x20>
 8003332:	eebd 8ac0 	vcvt.s32.f32	s16, s0
 8003336:	4630      	mov	r0, r6
 8003338:	eef8 7ac8 	vcvt.f32.s32	s15, s16
 800333c:	ee30 0a67 	vsub.f32	s0, s0, s15
 8003340:	ee07 3a90 	vmov	s15, r3
 8003344:	eef8 7a67 	vcvt.f32.u32	s15, s15
 8003348:	ee20 0a27 	vmul.f32	s0, s0, s15
 800334c:	eebd 0ac0 	vcvt.s32.f32	s0, s0
 8003350:	ee10 4a10 	vmov	r4, s0
 8003354:	2c00      	cmp	r4, #0
 8003356:	bfb8      	it	lt
 8003358:	4264      	neglt	r4, r4
 800335a:	f001 fcfd 	bl	8004d58 <_ZN6CUSART8put_charEc>
 800335e:	4630      	mov	r0, r6
 8003360:	ee18 1a10 	vmov	r1, s16
 8003364:	f7ff ff6f 	bl	8003246 <_ZN9CTerminal4putiEl>
 8003368:	4630      	mov	r0, r6
 800336a:	212e      	movs	r1, #46	; 0x2e
 800336c:	f001 fcf4 	bl	8004d58 <_ZN6CUSART8put_charEc>
 8003370:	2300      	movs	r3, #0
 8003372:	2201      	movs	r2, #1
 8003374:	210a      	movs	r1, #10
 8003376:	434a      	muls	r2, r1
 8003378:	3301      	adds	r3, #1
 800337a:	42a2      	cmp	r2, r4
 800337c:	b2db      	uxtb	r3, r3
 800337e:	dbf9      	blt.n	8003374 <_ZN9CTerminal4putfEfh+0x6e>
 8003380:	1aed      	subs	r5, r5, r3
 8003382:	b2ed      	uxtb	r5, r5
 8003384:	2700      	movs	r7, #0
 8003386:	42af      	cmp	r7, r5
 8003388:	4630      	mov	r0, r6
 800338a:	d204      	bcs.n	8003396 <_ZN9CTerminal4putfEfh+0x90>
 800338c:	2130      	movs	r1, #48	; 0x30
 800338e:	f001 fce3 	bl	8004d58 <_ZN6CUSART8put_charEc>
 8003392:	3701      	adds	r7, #1
 8003394:	e7f7      	b.n	8003386 <_ZN9CTerminal4putfEfh+0x80>
 8003396:	ecbd 8b02 	vpop	{d8}
 800339a:	4621      	mov	r1, r4
 800339c:	e8bd 40f8 	ldmia.w	sp!, {r3, r4, r5, r6, r7, lr}
 80033a0:	f7ff bf51 	b.w	8003246 <_ZN9CTerminal4putiEl>

080033a4 <_ZN9CTerminal6printfEPKcz>:
 80033a4:	b40e      	push	{r1, r2, r3}
 80033a6:	b577      	push	{r0, r1, r2, r4, r5, r6, lr}
 80033a8:	ab07      	add	r3, sp, #28
 80033aa:	4604      	mov	r4, r0
 80033ac:	f853 6b04 	ldr.w	r6, [r3], #4
 80033b0:	9301      	str	r3, [sp, #4]
 80033b2:	2500      	movs	r5, #0
 80033b4:	5d71      	ldrb	r1, [r6, r5]
 80033b6:	2900      	cmp	r1, #0
 80033b8:	d054      	beq.n	8003464 <_ZN9CTerminal6printfEPKcz+0xc0>
 80033ba:	2925      	cmp	r1, #37	; 0x25
 80033bc:	d004      	beq.n	80033c8 <_ZN9CTerminal6printfEPKcz+0x24>
 80033be:	4620      	mov	r0, r4
 80033c0:	f001 fcca 	bl	8004d58 <_ZN6CUSART8put_charEc>
 80033c4:	3501      	adds	r5, #1
 80033c6:	e7f5      	b.n	80033b4 <_ZN9CTerminal6printfEPKcz+0x10>
 80033c8:	1973      	adds	r3, r6, r5
 80033ca:	7859      	ldrb	r1, [r3, #1]
 80033cc:	2969      	cmp	r1, #105	; 0x69
 80033ce:	d016      	beq.n	80033fe <_ZN9CTerminal6printfEPKcz+0x5a>
 80033d0:	d807      	bhi.n	80033e2 <_ZN9CTerminal6printfEPKcz+0x3e>
 80033d2:	2963      	cmp	r1, #99	; 0x63
 80033d4:	d02b      	beq.n	800342e <_ZN9CTerminal6printfEPKcz+0x8a>
 80033d6:	2966      	cmp	r1, #102	; 0x66
 80033d8:	d031      	beq.n	800343e <_ZN9CTerminal6printfEPKcz+0x9a>
 80033da:	2925      	cmp	r1, #37	; 0x25
 80033dc:	d140      	bne.n	8003460 <_ZN9CTerminal6printfEPKcz+0xbc>
 80033de:	4620      	mov	r0, r4
 80033e0:	e02a      	b.n	8003438 <_ZN9CTerminal6printfEPKcz+0x94>
 80033e2:	2975      	cmp	r1, #117	; 0x75
 80033e4:	d013      	beq.n	800340e <_ZN9CTerminal6printfEPKcz+0x6a>
 80033e6:	2978      	cmp	r1, #120	; 0x78
 80033e8:	d019      	beq.n	800341e <_ZN9CTerminal6printfEPKcz+0x7a>
 80033ea:	2973      	cmp	r1, #115	; 0x73
 80033ec:	d138      	bne.n	8003460 <_ZN9CTerminal6printfEPKcz+0xbc>
 80033ee:	9b01      	ldr	r3, [sp, #4]
 80033f0:	4620      	mov	r0, r4
 80033f2:	1d1a      	adds	r2, r3, #4
 80033f4:	6819      	ldr	r1, [r3, #0]
 80033f6:	9201      	str	r2, [sp, #4]
 80033f8:	f7ff ff1a 	bl	8003230 <_ZN9CTerminal4putsEPc>
 80033fc:	e030      	b.n	8003460 <_ZN9CTerminal6printfEPKcz+0xbc>
 80033fe:	9b01      	ldr	r3, [sp, #4]
 8003400:	4620      	mov	r0, r4
 8003402:	1d1a      	adds	r2, r3, #4
 8003404:	6819      	ldr	r1, [r3, #0]
 8003406:	9201      	str	r2, [sp, #4]
 8003408:	f7ff ff1d 	bl	8003246 <_ZN9CTerminal4putiEl>
 800340c:	e028      	b.n	8003460 <_ZN9CTerminal6printfEPKcz+0xbc>
 800340e:	9b01      	ldr	r3, [sp, #4]
 8003410:	4620      	mov	r0, r4
 8003412:	1d1a      	adds	r2, r3, #4
 8003414:	6819      	ldr	r1, [r3, #0]
 8003416:	9201      	str	r2, [sp, #4]
 8003418:	f7ff ff3e 	bl	8003298 <_ZN9CTerminal5putuiEm>
 800341c:	e020      	b.n	8003460 <_ZN9CTerminal6printfEPKcz+0xbc>
 800341e:	9b01      	ldr	r3, [sp, #4]
 8003420:	4620      	mov	r0, r4
 8003422:	1d1a      	adds	r2, r3, #4
 8003424:	6819      	ldr	r1, [r3, #0]
 8003426:	9201      	str	r2, [sp, #4]
 8003428:	f7ff ff51 	bl	80032ce <_ZN9CTerminal4putxEm>
 800342c:	e018      	b.n	8003460 <_ZN9CTerminal6printfEPKcz+0xbc>
 800342e:	9b01      	ldr	r3, [sp, #4]
 8003430:	1d1a      	adds	r2, r3, #4
 8003432:	7819      	ldrb	r1, [r3, #0]
 8003434:	9201      	str	r2, [sp, #4]
 8003436:	4620      	mov	r0, r4
 8003438:	f001 fc8e 	bl	8004d58 <_ZN6CUSART8put_charEc>
 800343c:	e010      	b.n	8003460 <_ZN9CTerminal6printfEPKcz+0xbc>
 800343e:	9b01      	ldr	r3, [sp, #4]
 8003440:	3307      	adds	r3, #7
 8003442:	f023 0307 	bic.w	r3, r3, #7
 8003446:	f103 0208 	add.w	r2, r3, #8
 800344a:	e9d3 0100 	ldrd	r0, r1, [r3]
 800344e:	9201      	str	r2, [sp, #4]
 8003450:	f7fc ff0c 	bl	800026c <__aeabi_d2f>
 8003454:	2103      	movs	r1, #3
 8003456:	ee00 0a10 	vmov	s0, r0
 800345a:	4620      	mov	r0, r4
 800345c:	f7ff ff53 	bl	8003306 <_ZN9CTerminal4putfEfh>
 8003460:	3502      	adds	r5, #2
 8003462:	e7a7      	b.n	80033b4 <_ZN9CTerminal6printfEPKcz+0x10>
 8003464:	b003      	add	sp, #12
 8003466:	e8bd 4070 	ldmia.w	sp!, {r4, r5, r6, lr}
 800346a:	b003      	add	sp, #12
 800346c:	4770      	bx	lr
 800346e:	0000      	movs	r0, r0

08003470 <_GLOBAL__sub_I_terminal>:
 8003470:	b510      	push	{r4, lr}
 8003472:	4c05      	ldr	r4, [pc, #20]	; (8003488 <_GLOBAL__sub_I_terminal+0x18>)
 8003474:	4620      	mov	r0, r4
 8003476:	f001 fc17 	bl	8004ca8 <_ZN6CUSARTC1Ev>
 800347a:	4620      	mov	r0, r4
 800347c:	4903      	ldr	r1, [pc, #12]	; (800348c <_GLOBAL__sub_I_terminal+0x1c>)
 800347e:	4a04      	ldr	r2, [pc, #16]	; (8003490 <_GLOBAL__sub_I_terminal+0x20>)
 8003480:	e8bd 4010 	ldmia.w	sp!, {r4, lr}
 8003484:	f002 bb0c 	b.w	8005aa0 <__aeabi_atexit>
 8003488:	200008f8 	strdcs	r0, [r0], -r8
 800348c:	08003225 	stmdaeq	r0, {r0, r2, r5, r9, ip, sp}
 8003490:	20000000 	andcs	r0, r0, r0

08003494 <_ZN4TI2CILh1ELh9ELh8ELj100ELh1EE8read_regEhh>:
 8003494:	6803      	ldr	r3, [r0, #0]
 8003496:	b570      	push	{r4, r5, r6, lr}
 8003498:	4604      	mov	r4, r0
 800349a:	681b      	ldr	r3, [r3, #0]
 800349c:	4616      	mov	r6, r2
 800349e:	460d      	mov	r5, r1
 80034a0:	4798      	blx	r3
 80034a2:	6823      	ldr	r3, [r4, #0]
 80034a4:	4629      	mov	r1, r5
 80034a6:	689b      	ldr	r3, [r3, #8]
 80034a8:	4620      	mov	r0, r4
 80034aa:	4798      	blx	r3
 80034ac:	6823      	ldr	r3, [r4, #0]
 80034ae:	4631      	mov	r1, r6
 80034b0:	689b      	ldr	r3, [r3, #8]
 80034b2:	4620      	mov	r0, r4
 80034b4:	4798      	blx	r3
 80034b6:	6823      	ldr	r3, [r4, #0]
 80034b8:	4620      	mov	r0, r4
 80034ba:	681b      	ldr	r3, [r3, #0]
 80034bc:	4798      	blx	r3
 80034be:	6823      	ldr	r3, [r4, #0]
 80034c0:	f045 0101 	orr.w	r1, r5, #1
 80034c4:	689b      	ldr	r3, [r3, #8]
 80034c6:	4620      	mov	r0, r4
 80034c8:	4798      	blx	r3
 80034ca:	6823      	ldr	r3, [r4, #0]
 80034cc:	2100      	movs	r1, #0
 80034ce:	68db      	ldr	r3, [r3, #12]
 80034d0:	4620      	mov	r0, r4
 80034d2:	4798      	blx	r3
 80034d4:	6823      	ldr	r3, [r4, #0]
 80034d6:	4605      	mov	r5, r0
 80034d8:	685b      	ldr	r3, [r3, #4]
 80034da:	4620      	mov	r0, r4
 80034dc:	4798      	blx	r3
 80034de:	4628      	mov	r0, r5
 80034e0:	bd70      	pop	{r4, r5, r6, pc}

080034e2 <_ZN4TI2CILh1ELh9ELh8ELj100ELh1EE9write_regEhhh>:
 80034e2:	e92d 41f0 	stmdb	sp!, {r4, r5, r6, r7, r8, lr}
 80034e6:	461d      	mov	r5, r3
 80034e8:	6803      	ldr	r3, [r0, #0]
 80034ea:	4604      	mov	r4, r0
 80034ec:	681b      	ldr	r3, [r3, #0]
 80034ee:	4616      	mov	r6, r2
 80034f0:	460f      	mov	r7, r1
 80034f2:	4798      	blx	r3
 80034f4:	6823      	ldr	r3, [r4, #0]
 80034f6:	4639      	mov	r1, r7
 80034f8:	689b      	ldr	r3, [r3, #8]
 80034fa:	4620      	mov	r0, r4
 80034fc:	4798      	blx	r3
 80034fe:	6823      	ldr	r3, [r4, #0]
 8003500:	4631      	mov	r1, r6
 8003502:	689b      	ldr	r3, [r3, #8]
 8003504:	4620      	mov	r0, r4
 8003506:	4798      	blx	r3
 8003508:	6823      	ldr	r3, [r4, #0]
 800350a:	4620      	mov	r0, r4
 800350c:	689a      	ldr	r2, [r3, #8]
 800350e:	4629      	mov	r1, r5
 8003510:	4790      	blx	r2
 8003512:	6823      	ldr	r3, [r4, #0]
 8003514:	4620      	mov	r0, r4
 8003516:	685b      	ldr	r3, [r3, #4]
 8003518:	e8bd 41f0 	ldmia.w	sp!, {r4, r5, r6, r7, r8, lr}
 800351c:	4718      	bx	r3

0800351e <_ZN4TI2CILh1ELh9ELh8ELj100ELh1EE15write_reg_16bitEhhj>:
 800351e:	e92d 41f0 	stmdb	sp!, {r4, r5, r6, r7, r8, lr}
 8003522:	461d      	mov	r5, r3
 8003524:	6803      	ldr	r3, [r0, #0]
 8003526:	4604      	mov	r4, r0
 8003528:	681b      	ldr	r3, [r3, #0]
 800352a:	4616      	mov	r6, r2
 800352c:	460f      	mov	r7, r1
 800352e:	4798      	blx	r3
 8003530:	6823      	ldr	r3, [r4, #0]
 8003532:	4639      	mov	r1, r7
 8003534:	689b      	ldr	r3, [r3, #8]
 8003536:	4620      	mov	r0, r4
 8003538:	4798      	blx	r3
 800353a:	6823      	ldr	r3, [r4, #0]
 800353c:	4631      	mov	r1, r6
 800353e:	689b      	ldr	r3, [r3, #8]
 8003540:	4620      	mov	r0, r4
 8003542:	4798      	blx	r3
 8003544:	6823      	ldr	r3, [r4, #0]
 8003546:	f3c5 2107 	ubfx	r1, r5, #8, #8
 800354a:	689b      	ldr	r3, [r3, #8]
 800354c:	4620      	mov	r0, r4
 800354e:	4798      	blx	r3
 8003550:	6823      	ldr	r3, [r4, #0]
 8003552:	4620      	mov	r0, r4
 8003554:	689b      	ldr	r3, [r3, #8]
 8003556:	b2e9      	uxtb	r1, r5
 8003558:	4798      	blx	r3
 800355a:	6823      	ldr	r3, [r4, #0]
 800355c:	4620      	mov	r0, r4
 800355e:	685b      	ldr	r3, [r3, #4]
 8003560:	e8bd 41f0 	ldmia.w	sp!, {r4, r5, r6, r7, r8, lr}
 8003564:	4718      	bx	r3

08003566 <_ZN4TI2CILh1ELh9ELh8ELj100ELh1EE15write_reg_multiEhhPhj>:
 8003566:	e92d 41f0 	stmdb	sp!, {r4, r5, r6, r7, r8, lr}
 800356a:	461d      	mov	r5, r3
 800356c:	6803      	ldr	r3, [r0, #0]
 800356e:	9e06      	ldr	r6, [sp, #24]
 8003570:	681b      	ldr	r3, [r3, #0]
 8003572:	4604      	mov	r4, r0
 8003574:	4617      	mov	r7, r2
 8003576:	4688      	mov	r8, r1
 8003578:	4798      	blx	r3
 800357a:	6823      	ldr	r3, [r4, #0]
 800357c:	4641      	mov	r1, r8
 800357e:	689b      	ldr	r3, [r3, #8]
 8003580:	4620      	mov	r0, r4
 8003582:	4798      	blx	r3
 8003584:	6823      	ldr	r3, [r4, #0]
 8003586:	4620      	mov	r0, r4
 8003588:	689b      	ldr	r3, [r3, #8]
 800358a:	4639      	mov	r1, r7
 800358c:	4798      	blx	r3
 800358e:	442e      	add	r6, r5
 8003590:	42b5      	cmp	r5, r6
 8003592:	6823      	ldr	r3, [r4, #0]
 8003594:	d005      	beq.n	80035a2 <_ZN4TI2CILh1ELh9ELh8ELj100ELh1EE15write_reg_multiEhhPhj+0x3c>
 8003596:	689b      	ldr	r3, [r3, #8]
 8003598:	f815 1b01 	ldrb.w	r1, [r5], #1
 800359c:	4620      	mov	r0, r4
 800359e:	4798      	blx	r3
 80035a0:	e7f6      	b.n	8003590 <_ZN4TI2CILh1ELh9ELh8ELj100ELh1EE15write_reg_multiEhhPhj+0x2a>
 80035a2:	4620      	mov	r0, r4
 80035a4:	685b      	ldr	r3, [r3, #4]
 80035a6:	e8bd 41f0 	ldmia.w	sp!, {r4, r5, r6, r7, r8, lr}
 80035aa:	4718      	bx	r3

080035ac <_ZN4TI2CILh1ELh9ELh8ELj100ELh1EE14read_reg_16bitEhh>:
 80035ac:	6803      	ldr	r3, [r0, #0]
 80035ae:	b570      	push	{r4, r5, r6, lr}
 80035b0:	4604      	mov	r4, r0
 80035b2:	681b      	ldr	r3, [r3, #0]
 80035b4:	4616      	mov	r6, r2
 80035b6:	460d      	mov	r5, r1
 80035b8:	4798      	blx	r3
 80035ba:	6823      	ldr	r3, [r4, #0]
 80035bc:	4629      	mov	r1, r5
 80035be:	689b      	ldr	r3, [r3, #8]
 80035c0:	4620      	mov	r0, r4
 80035c2:	4798      	blx	r3
 80035c4:	6823      	ldr	r3, [r4, #0]
 80035c6:	4631      	mov	r1, r6
 80035c8:	689b      	ldr	r3, [r3, #8]
 80035ca:	4620      	mov	r0, r4
 80035cc:	4798      	blx	r3
 80035ce:	6823      	ldr	r3, [r4, #0]
 80035d0:	4620      	mov	r0, r4
 80035d2:	681b      	ldr	r3, [r3, #0]
 80035d4:	4798      	blx	r3
 80035d6:	6823      	ldr	r3, [r4, #0]
 80035d8:	f045 0101 	orr.w	r1, r5, #1
 80035dc:	689b      	ldr	r3, [r3, #8]
 80035de:	4620      	mov	r0, r4
 80035e0:	4798      	blx	r3
 80035e2:	6823      	ldr	r3, [r4, #0]
 80035e4:	4620      	mov	r0, r4
 80035e6:	68db      	ldr	r3, [r3, #12]
 80035e8:	2101      	movs	r1, #1
 80035ea:	4798      	blx	r3
 80035ec:	6823      	ldr	r3, [r4, #0]
 80035ee:	2100      	movs	r1, #0
 80035f0:	0205      	lsls	r5, r0, #8
 80035f2:	68db      	ldr	r3, [r3, #12]
 80035f4:	4620      	mov	r0, r4
 80035f6:	4798      	blx	r3
 80035f8:	6823      	ldr	r3, [r4, #0]
 80035fa:	4305      	orrs	r5, r0
 80035fc:	685b      	ldr	r3, [r3, #4]
 80035fe:	4620      	mov	r0, r4
 8003600:	4798      	blx	r3
 8003602:	4628      	mov	r0, r5
 8003604:	bd70      	pop	{r4, r5, r6, pc}

08003606 <_ZN4TI2CILh1ELh9ELh8ELj100ELh1EE14read_reg_multiEhhPhj>:
 8003606:	e92d 41f0 	stmdb	sp!, {r4, r5, r6, r7, r8, lr}
 800360a:	461d      	mov	r5, r3
 800360c:	6803      	ldr	r3, [r0, #0]
 800360e:	9e06      	ldr	r6, [sp, #24]
 8003610:	681b      	ldr	r3, [r3, #0]
 8003612:	4604      	mov	r4, r0
 8003614:	4690      	mov	r8, r2
 8003616:	460f      	mov	r7, r1
 8003618:	4798      	blx	r3
 800361a:	6823      	ldr	r3, [r4, #0]
 800361c:	4639      	mov	r1, r7
 800361e:	689b      	ldr	r3, [r3, #8]
 8003620:	4620      	mov	r0, r4
 8003622:	4798      	blx	r3
 8003624:	6823      	ldr	r3, [r4, #0]
 8003626:	4641      	mov	r1, r8
 8003628:	689b      	ldr	r3, [r3, #8]
 800362a:	4620      	mov	r0, r4
 800362c:	4798      	blx	r3
 800362e:	6823      	ldr	r3, [r4, #0]
 8003630:	4620      	mov	r0, r4
 8003632:	681b      	ldr	r3, [r3, #0]
 8003634:	4798      	blx	r3
 8003636:	6823      	ldr	r3, [r4, #0]
 8003638:	4620      	mov	r0, r4
 800363a:	689b      	ldr	r3, [r3, #8]
 800363c:	f047 0101 	orr.w	r1, r7, #1
 8003640:	4798      	blx	r3
 8003642:	442e      	add	r6, r5
 8003644:	42b5      	cmp	r5, r6
 8003646:	6823      	ldr	r3, [r4, #0]
 8003648:	d006      	beq.n	8003658 <_ZN4TI2CILh1ELh9ELh8ELj100ELh1EE14read_reg_multiEhhPhj+0x52>
 800364a:	68db      	ldr	r3, [r3, #12]
 800364c:	4620      	mov	r0, r4
 800364e:	2101      	movs	r1, #1
 8003650:	4798      	blx	r3
 8003652:	f805 0b01 	strb.w	r0, [r5], #1
 8003656:	e7f5      	b.n	8003644 <_ZN4TI2CILh1ELh9ELh8ELj100ELh1EE14read_reg_multiEhhPhj+0x3e>
 8003658:	4620      	mov	r0, r4
 800365a:	685b      	ldr	r3, [r3, #4]
 800365c:	e8bd 41f0 	ldmia.w	sp!, {r4, r5, r6, r7, r8, lr}
 8003660:	4718      	bx	r3

08003662 <_ZN4TI2CILh1ELh9ELh8ELj100ELh1EE5delayEv.isra.6>:
 8003662:	2364      	movs	r3, #100	; 0x64
 8003664:	bf00      	nop
 8003666:	3b01      	subs	r3, #1
 8003668:	f013 03ff 	ands.w	r3, r3, #255	; 0xff
 800366c:	d1fa      	bne.n	8003664 <_ZN4TI2CILh1ELh9ELh8ELj100ELh1EE5delayEv.isra.6+0x2>
 800366e:	4770      	bx	lr

08003670 <DMA2_Stream1_IRQHandler>:
 8003670:	4801      	ldr	r0, [pc, #4]	; (8003678 <DMA2_Stream1_IRQHandler+0x8>)
 8003672:	f7fe bfdd 	b.w	8002630 <HAL_DMA_IRQHandler>
 8003676:	bf00      	nop
 8003678:	20000900 	andcs	r0, r0, r0, lsl #18

0800367c <DCMI_IRQHandler>:
 800367c:	4801      	ldr	r0, [pc, #4]	; (8003684 <DCMI_IRQHandler+0x8>)
 800367e:	f7fe bd6c 	b.w	800215a <HAL_DCMI_IRQHandler>
 8003682:	bf00      	nop
 8003684:	20000958 	andcs	r0, r0, r8, asr r9

08003688 <HAL_DCMI_FrameEventCallback>:
 8003688:	4b01      	ldr	r3, [pc, #4]	; (8003690 <HAL_DCMI_FrameEventCallback+0x8>)
 800368a:	2201      	movs	r2, #1
 800368c:	601a      	str	r2, [r3, #0]
 800368e:	4770      	bx	lr
 8003690:	200008fc 	strdcs	r0, [r0], -ip

08003694 <_ZN7CCameraD1Ev>:
 8003694:	4770      	bx	lr

08003696 <_ZN7CCamera11delay_loopsEj>:
 8003696:	f111 31ff 	adds.w	r1, r1, #4294967295	; 0xffffffff
 800369a:	d301      	bcc.n	80036a0 <_ZN7CCamera11delay_loopsEj+0xa>
 800369c:	bf00      	nop
 800369e:	e7fa      	b.n	8003696 <_ZN7CCamera11delay_loopsEj>
 80036a0:	4770      	bx	lr
 80036a2:	0000      	movs	r0, r0

080036a4 <_ZN7CCamera7MspInitEv>:
 80036a4:	e92d 41f0 	stmdb	sp!, {r4, r5, r6, r7, r8, lr}
 80036a8:	b08c      	sub	sp, #48	; 0x30
 80036aa:	4b5d      	ldr	r3, [pc, #372]	; (8003820 <_ZN7CCamera7MspInitEv+0x17c>)
 80036ac:	485d      	ldr	r0, [pc, #372]	; (8003824 <_ZN7CCamera7MspInitEv+0x180>)
 80036ae:	2400      	movs	r4, #0
 80036b0:	9400      	str	r4, [sp, #0]
 80036b2:	6b5a      	ldr	r2, [r3, #52]	; 0x34
 80036b4:	f042 0201 	orr.w	r2, r2, #1
 80036b8:	635a      	str	r2, [r3, #52]	; 0x34
 80036ba:	6b5a      	ldr	r2, [r3, #52]	; 0x34
 80036bc:	f002 0201 	and.w	r2, r2, #1
 80036c0:	9200      	str	r2, [sp, #0]
 80036c2:	9a00      	ldr	r2, [sp, #0]
 80036c4:	9401      	str	r4, [sp, #4]
 80036c6:	6b1a      	ldr	r2, [r3, #48]	; 0x30
 80036c8:	f442 0280 	orr.w	r2, r2, #4194304	; 0x400000
 80036cc:	631a      	str	r2, [r3, #48]	; 0x30
 80036ce:	6b1a      	ldr	r2, [r3, #48]	; 0x30
 80036d0:	f402 0280 	and.w	r2, r2, #4194304	; 0x400000
 80036d4:	9201      	str	r2, [sp, #4]
 80036d6:	9a01      	ldr	r2, [sp, #4]
 80036d8:	9402      	str	r4, [sp, #8]
 80036da:	6b1a      	ldr	r2, [r3, #48]	; 0x30
 80036dc:	f042 0201 	orr.w	r2, r2, #1
 80036e0:	631a      	str	r2, [r3, #48]	; 0x30
 80036e2:	6b1a      	ldr	r2, [r3, #48]	; 0x30
 80036e4:	f002 0201 	and.w	r2, r2, #1
 80036e8:	9202      	str	r2, [sp, #8]
 80036ea:	9a02      	ldr	r2, [sp, #8]
 80036ec:	9403      	str	r4, [sp, #12]
 80036ee:	6b1a      	ldr	r2, [r3, #48]	; 0x30
 80036f0:	f042 0208 	orr.w	r2, r2, #8
 80036f4:	631a      	str	r2, [r3, #48]	; 0x30
 80036f6:	6b1a      	ldr	r2, [r3, #48]	; 0x30
 80036f8:	f002 0208 	and.w	r2, r2, #8
 80036fc:	9203      	str	r2, [sp, #12]
 80036fe:	9a03      	ldr	r2, [sp, #12]
 8003700:	9404      	str	r4, [sp, #16]
 8003702:	6b1a      	ldr	r2, [r3, #48]	; 0x30
 8003704:	f042 0210 	orr.w	r2, r2, #16
 8003708:	631a      	str	r2, [r3, #48]	; 0x30
 800370a:	6b1a      	ldr	r2, [r3, #48]	; 0x30
 800370c:	f002 0210 	and.w	r2, r2, #16
 8003710:	9204      	str	r2, [sp, #16]
 8003712:	9a04      	ldr	r2, [sp, #16]
 8003714:	9405      	str	r4, [sp, #20]
 8003716:	6b1a      	ldr	r2, [r3, #48]	; 0x30
 8003718:	f042 0240 	orr.w	r2, r2, #64	; 0x40
 800371c:	631a      	str	r2, [r3, #48]	; 0x30
 800371e:	6b1a      	ldr	r2, [r3, #48]	; 0x30
 8003720:	f002 0240 	and.w	r2, r2, #64	; 0x40
 8003724:	9205      	str	r2, [sp, #20]
 8003726:	9a05      	ldr	r2, [sp, #20]
 8003728:	9406      	str	r4, [sp, #24]
 800372a:	6b1a      	ldr	r2, [r3, #48]	; 0x30
 800372c:	f042 0280 	orr.w	r2, r2, #128	; 0x80
 8003730:	631a      	str	r2, [r3, #48]	; 0x30
 8003732:	6b1b      	ldr	r3, [r3, #48]	; 0x30
 8003734:	f003 0380 	and.w	r3, r3, #128	; 0x80
 8003738:	9306      	str	r3, [sp, #24]
 800373a:	2503      	movs	r5, #3
 800373c:	f04f 0802 	mov.w	r8, #2
 8003740:	2701      	movs	r7, #1
 8003742:	260d      	movs	r6, #13
 8003744:	9b06      	ldr	r3, [sp, #24]
 8003746:	950a      	str	r5, [sp, #40]	; 0x28
 8003748:	2350      	movs	r3, #80	; 0x50
 800374a:	a907      	add	r1, sp, #28
 800374c:	9307      	str	r3, [sp, #28]
 800374e:	f8cd 8020 	str.w	r8, [sp, #32]
 8003752:	9709      	str	r7, [sp, #36]	; 0x24
 8003754:	960b      	str	r6, [sp, #44]	; 0x2c
 8003756:	f7fe fdd3 	bl	8002300 <HAL_GPIO_Init>
 800375a:	2308      	movs	r3, #8
 800375c:	a907      	add	r1, sp, #28
 800375e:	4832      	ldr	r0, [pc, #200]	; (8003828 <_ZN7CCamera7MspInitEv+0x184>)
 8003760:	9307      	str	r3, [sp, #28]
 8003762:	950a      	str	r5, [sp, #40]	; 0x28
 8003764:	f8cd 8020 	str.w	r8, [sp, #32]
 8003768:	9709      	str	r7, [sp, #36]	; 0x24
 800376a:	960b      	str	r6, [sp, #44]	; 0x2c
 800376c:	f7fe fdc8 	bl	8002300 <HAL_GPIO_Init>
 8003770:	2360      	movs	r3, #96	; 0x60
 8003772:	a907      	add	r1, sp, #28
 8003774:	482d      	ldr	r0, [pc, #180]	; (800382c <_ZN7CCamera7MspInitEv+0x188>)
 8003776:	9307      	str	r3, [sp, #28]
 8003778:	950a      	str	r5, [sp, #40]	; 0x28
 800377a:	f8cd 8020 	str.w	r8, [sp, #32]
 800377e:	9709      	str	r7, [sp, #36]	; 0x24
 8003780:	960b      	str	r6, [sp, #44]	; 0x2c
 8003782:	f7fe fdbd 	bl	8002300 <HAL_GPIO_Init>
 8003786:	f44f 7300 	mov.w	r3, #512	; 0x200
 800378a:	a907      	add	r1, sp, #28
 800378c:	4828      	ldr	r0, [pc, #160]	; (8003830 <_ZN7CCamera7MspInitEv+0x18c>)
 800378e:	9307      	str	r3, [sp, #28]
 8003790:	950a      	str	r5, [sp, #40]	; 0x28
 8003792:	f8cd 8020 	str.w	r8, [sp, #32]
 8003796:	9709      	str	r7, [sp, #36]	; 0x24
 8003798:	960b      	str	r6, [sp, #44]	; 0x2c
 800379a:	f7fe fdb1 	bl	8002300 <HAL_GPIO_Init>
 800379e:	f44f 43bc 	mov.w	r3, #24064	; 0x5e00
 80037a2:	a907      	add	r1, sp, #28
 80037a4:	4823      	ldr	r0, [pc, #140]	; (8003834 <_ZN7CCamera7MspInitEv+0x190>)
 80037a6:	9307      	str	r3, [sp, #28]
 80037a8:	950a      	str	r5, [sp, #40]	; 0x28
 80037aa:	f8cd 8020 	str.w	r8, [sp, #32]
 80037ae:	9709      	str	r7, [sp, #36]	; 0x24
 80037b0:	960b      	str	r6, [sp, #44]	; 0x2c
 80037b2:	f7fe fda5 	bl	8002300 <HAL_GPIO_Init>
 80037b6:	4b20      	ldr	r3, [pc, #128]	; (8003838 <_ZN7CCamera7MspInitEv+0x194>)
 80037b8:	f04f 7200 	mov.w	r2, #33554432	; 0x2000000
 80037bc:	605a      	str	r2, [r3, #4]
 80037be:	f44f 6280 	mov.w	r2, #1024	; 0x400
 80037c2:	611a      	str	r2, [r3, #16]
 80037c4:	f44f 5280 	mov.w	r2, #4096	; 0x1000
 80037c8:	615a      	str	r2, [r3, #20]
 80037ca:	f44f 4280 	mov.w	r2, #16384	; 0x4000
 80037ce:	619a      	str	r2, [r3, #24]
 80037d0:	f44f 7280 	mov.w	r2, #256	; 0x100
 80037d4:	61da      	str	r2, [r3, #28]
 80037d6:	f44f 3200 	mov.w	r2, #131072	; 0x20000
 80037da:	621a      	str	r2, [r3, #32]
 80037dc:	629d      	str	r5, [r3, #40]	; 0x28
 80037de:	4a17      	ldr	r2, [pc, #92]	; (800383c <_ZN7CCamera7MspInitEv+0x198>)
 80037e0:	4d17      	ldr	r5, [pc, #92]	; (8003840 <_ZN7CCamera7MspInitEv+0x19c>)
 80037e2:	601a      	str	r2, [r3, #0]
 80037e4:	2105      	movs	r1, #5
 80037e6:	4622      	mov	r2, r4
 80037e8:	204e      	movs	r0, #78	; 0x4e
 80037ea:	609c      	str	r4, [r3, #8]
 80037ec:	60dc      	str	r4, [r3, #12]
 80037ee:	625c      	str	r4, [r3, #36]	; 0x24
 80037f0:	62dc      	str	r4, [r3, #44]	; 0x2c
 80037f2:	631c      	str	r4, [r3, #48]	; 0x30
 80037f4:	64ab      	str	r3, [r5, #72]	; 0x48
 80037f6:	639d      	str	r5, [r3, #56]	; 0x38
 80037f8:	f7fd fd30 	bl	800125c <HAL_NVIC_SetPriority>
 80037fc:	204e      	movs	r0, #78	; 0x4e
 80037fe:	f7fd fd5d 	bl	80012bc <HAL_NVIC_EnableIRQ>
 8003802:	2105      	movs	r1, #5
 8003804:	4622      	mov	r2, r4
 8003806:	2039      	movs	r0, #57	; 0x39
 8003808:	f7fd fd28 	bl	800125c <HAL_NVIC_SetPriority>
 800380c:	2039      	movs	r0, #57	; 0x39
 800380e:	f7fd fd55 	bl	80012bc <HAL_NVIC_EnableIRQ>
 8003812:	6ca8      	ldr	r0, [r5, #72]	; 0x48
 8003814:	f7fe fe7e 	bl	8002514 <HAL_DMA_Init>
 8003818:	b00c      	add	sp, #48	; 0x30
 800381a:	e8bd 81f0 	ldmia.w	sp!, {r4, r5, r6, r7, r8, pc}
 800381e:	bf00      	nop
 8003820:	40023800 	andmi	r3, r2, r0, lsl #16
 8003824:	40020000 	andmi	r0, r2, r0
 8003828:	40020c00 	andmi	r0, r2, r0, lsl #24
 800382c:	40021000 	andmi	r1, r2, r0
 8003830:	40021800 	andmi	r1, r2, r0, lsl #16
 8003834:	40021c00 	andmi	r1, r2, r0, lsl #24
 8003838:	20000900 	andcs	r0, r0, r0, lsl #18
 800383c:	40026428 	andmi	r6, r2, r8, lsr #8
 8003840:	20000958 	andcs	r0, r0, r8, asr r9

08003844 <_ZN7CCamera12stream_startEPm>:
 8003844:	b510      	push	{r4, lr}
 8003846:	6943      	ldr	r3, [r0, #20]
 8003848:	6904      	ldr	r4, [r0, #16]
 800384a:	4804      	ldr	r0, [pc, #16]	; (800385c <_ZN7CCamera12stream_startEPm+0x18>)
 800384c:	460a      	mov	r2, r1
 800384e:	4363      	muls	r3, r4
 8003850:	2100      	movs	r1, #0
 8003852:	e8bd 4010 	ldmia.w	sp!, {r4, lr}
 8003856:	f7fe bbe3 	b.w	8002020 <HAL_DCMI_Start_DMA>
 800385a:	bf00      	nop
 800385c:	20000958 	andcs	r0, r0, r8, asr r9

08003860 <_ZN7CCamera9get_res_xEv>:
 8003860:	6900      	ldr	r0, [r0, #16]
 8003862:	4770      	bx	lr

08003864 <_ZN7CCamera9get_res_yEv>:
 8003864:	6940      	ldr	r0, [r0, #20]
 8003866:	4770      	bx	lr

08003868 <_ZN7CCamera24send_init_sequence_qqvgaEv>:
 8003868:	b570      	push	{r4, r5, r6, lr}
 800386a:	1d05      	adds	r5, r0, #4
 800386c:	4604      	mov	r4, r0
 800386e:	2160      	movs	r1, #96	; 0x60
 8003870:	4628      	mov	r0, r5
 8003872:	2212      	movs	r2, #18
 8003874:	2380      	movs	r3, #128	; 0x80
 8003876:	f7ff fe34 	bl	80034e2 <_ZN4TI2CILh1ELh9ELh8ELj100ELh1EE9write_regEhhh>
 800387a:	4620      	mov	r0, r4
 800387c:	f644 6120 	movw	r1, #20000	; 0x4e20
 8003880:	f7ff ff09 	bl	8003696 <_ZN7CCamera11delay_loopsEj>
 8003884:	2400      	movs	r4, #0
 8003886:	4b06      	ldr	r3, [pc, #24]	; (80038a0 <_ZN7CCamera24send_init_sequence_qqvgaEv+0x38>)
 8003888:	191e      	adds	r6, r3, r4
 800388a:	5d1a      	ldrb	r2, [r3, r4]
 800388c:	7873      	ldrb	r3, [r6, #1]
 800388e:	4628      	mov	r0, r5
 8003890:	2160      	movs	r1, #96	; 0x60
 8003892:	3402      	adds	r4, #2
 8003894:	f7ff fe25 	bl	80034e2 <_ZN4TI2CILh1ELh9ELh8ELj100ELh1EE9write_regEhhh>
 8003898:	f5b4 7f96 	cmp.w	r4, #300	; 0x12c
 800389c:	d1f3      	bne.n	8003886 <_ZN7CCamera24send_init_sequence_qqvgaEv+0x1e>
 800389e:	bd70      	pop	{r4, r5, r6, pc}
 80038a0:	08005c58 	stmdaeq	r0, {r3, r4, r6, sl, fp, ip, lr}

080038a4 <_ZN7CCamera4initEv>:
 80038a4:	4b23      	ldr	r3, [pc, #140]	; (8003934 <_ZN7CCamera4initEv+0x90>)
 80038a6:	6802      	ldr	r2, [r0, #0]
 80038a8:	b573      	push	{r0, r1, r4, r5, r6, lr}
 80038aa:	2500      	movs	r5, #0
 80038ac:	601d      	str	r5, [r3, #0]
 80038ae:	6953      	ldr	r3, [r2, #20]
 80038b0:	4e21      	ldr	r6, [pc, #132]	; (8003938 <_ZN7CCamera4initEv+0x94>)
 80038b2:	6105      	str	r5, [r0, #16]
 80038b4:	4604      	mov	r4, r0
 80038b6:	f443 5300 	orr.w	r3, r3, #8192	; 0x2000
 80038ba:	6145      	str	r5, [r0, #20]
 80038bc:	4631      	mov	r1, r6
 80038be:	6153      	str	r3, [r2, #20]
 80038c0:	f7ff fee9 	bl	8003696 <_ZN7CCamera11delay_loopsEj>
 80038c4:	6822      	ldr	r2, [r4, #0]
 80038c6:	6953      	ldr	r3, [r2, #20]
 80038c8:	f423 5300 	bic.w	r3, r3, #8192	; 0x2000
 80038cc:	6153      	str	r3, [r2, #20]
 80038ce:	4620      	mov	r0, r4
 80038d0:	4631      	mov	r1, r6
 80038d2:	f7ff fee0 	bl	8003696 <_ZN7CCamera11delay_loopsEj>
 80038d6:	4e19      	ldr	r6, [pc, #100]	; (800393c <_ZN7CCamera4initEv+0x98>)
 80038d8:	2160      	movs	r1, #96	; 0x60
 80038da:	1d20      	adds	r0, r4, #4
 80038dc:	220a      	movs	r2, #10
 80038de:	f7ff fdd9 	bl	8003494 <_ZN4TI2CILh1ELh9ELh8ELj100ELh1EE8read_regEhh>
 80038e2:	2380      	movs	r3, #128	; 0x80
 80038e4:	60f3      	str	r3, [r6, #12]
 80038e6:	2320      	movs	r3, #32
 80038e8:	60b3      	str	r3, [r6, #8]
 80038ea:	4b15      	ldr	r3, [pc, #84]	; (8003940 <_ZN7CCamera4initEv+0x9c>)
 80038ec:	6033      	str	r3, [r6, #0]
 80038ee:	4b15      	ldr	r3, [pc, #84]	; (8003944 <_ZN7CCamera4initEv+0xa0>)
 80038f0:	9501      	str	r5, [sp, #4]
 80038f2:	6175      	str	r5, [r6, #20]
 80038f4:	6135      	str	r5, [r6, #16]
 80038f6:	6075      	str	r5, [r6, #4]
 80038f8:	61b5      	str	r5, [r6, #24]
 80038fa:	6b5a      	ldr	r2, [r3, #52]	; 0x34
 80038fc:	f042 0201 	orr.w	r2, r2, #1
 8003900:	635a      	str	r2, [r3, #52]	; 0x34
 8003902:	6b5b      	ldr	r3, [r3, #52]	; 0x34
 8003904:	f003 0301 	and.w	r3, r3, #1
 8003908:	9301      	str	r3, [sp, #4]
 800390a:	4620      	mov	r0, r4
 800390c:	9b01      	ldr	r3, [sp, #4]
 800390e:	f7ff fec9 	bl	80036a4 <_ZN7CCamera7MspInitEv>
 8003912:	4630      	mov	r0, r6
 8003914:	f7fe f956 	bl	8001bc4 <HAL_DCMI_Init>
 8003918:	23a0      	movs	r3, #160	; 0xa0
 800391a:	6123      	str	r3, [r4, #16]
 800391c:	2378      	movs	r3, #120	; 0x78
 800391e:	6163      	str	r3, [r4, #20]
 8003920:	4620      	mov	r0, r4
 8003922:	f7ff ffa1 	bl	8003868 <_ZN7CCamera24send_init_sequence_qqvgaEv>
 8003926:	4630      	mov	r0, r6
 8003928:	f7fe fc88 	bl	800223c <HAL_DCMI_DisableCROP>
 800392c:	4628      	mov	r0, r5
 800392e:	b002      	add	sp, #8
 8003930:	bd70      	pop	{r4, r5, r6, pc}
 8003932:	bf00      	nop
 8003934:	200008fc 	strdcs	r0, [r0], -ip
 8003938:	00989680 	addseq	r9, r8, r0, lsl #13
 800393c:	20000958 	andcs	r0, r0, r8, asr r9
 8003940:	50050000 	andpl	r0, r5, r0
 8003944:	40023800 	andmi	r3, r2, r0, lsl #16

08003948 <_ZN5TGpioILh7ELh13ELh0EEC1Ev>:
 8003948:	b08c      	sub	sp, #48	; 0x30
 800394a:	4b45      	ldr	r3, [pc, #276]	; (8003a60 <_ZN5TGpioILh7ELh13ELh0EEC1Ev+0x118>)
 800394c:	2200      	movs	r2, #0
 800394e:	9201      	str	r2, [sp, #4]
 8003950:	6b19      	ldr	r1, [r3, #48]	; 0x30
 8003952:	f041 0101 	orr.w	r1, r1, #1
 8003956:	6319      	str	r1, [r3, #48]	; 0x30
 8003958:	6b19      	ldr	r1, [r3, #48]	; 0x30
 800395a:	f001 0101 	and.w	r1, r1, #1
 800395e:	9101      	str	r1, [sp, #4]
 8003960:	9901      	ldr	r1, [sp, #4]
 8003962:	9202      	str	r2, [sp, #8]
 8003964:	6b19      	ldr	r1, [r3, #48]	; 0x30
 8003966:	f041 0102 	orr.w	r1, r1, #2
 800396a:	6319      	str	r1, [r3, #48]	; 0x30
 800396c:	6b19      	ldr	r1, [r3, #48]	; 0x30
 800396e:	f001 0102 	and.w	r1, r1, #2
 8003972:	9102      	str	r1, [sp, #8]
 8003974:	9902      	ldr	r1, [sp, #8]
 8003976:	9203      	str	r2, [sp, #12]
 8003978:	6b19      	ldr	r1, [r3, #48]	; 0x30
 800397a:	f041 0104 	orr.w	r1, r1, #4
 800397e:	6319      	str	r1, [r3, #48]	; 0x30
 8003980:	6b19      	ldr	r1, [r3, #48]	; 0x30
 8003982:	f001 0104 	and.w	r1, r1, #4
 8003986:	9103      	str	r1, [sp, #12]
 8003988:	9903      	ldr	r1, [sp, #12]
 800398a:	9204      	str	r2, [sp, #16]
 800398c:	6b19      	ldr	r1, [r3, #48]	; 0x30
 800398e:	f041 0108 	orr.w	r1, r1, #8
 8003992:	6319      	str	r1, [r3, #48]	; 0x30
 8003994:	6b19      	ldr	r1, [r3, #48]	; 0x30
 8003996:	f001 0108 	and.w	r1, r1, #8
 800399a:	9104      	str	r1, [sp, #16]
 800399c:	9904      	ldr	r1, [sp, #16]
 800399e:	9205      	str	r2, [sp, #20]
 80039a0:	6b19      	ldr	r1, [r3, #48]	; 0x30
 80039a2:	f041 0110 	orr.w	r1, r1, #16
 80039a6:	6319      	str	r1, [r3, #48]	; 0x30
 80039a8:	6b19      	ldr	r1, [r3, #48]	; 0x30
 80039aa:	f001 0110 	and.w	r1, r1, #16
 80039ae:	9105      	str	r1, [sp, #20]
 80039b0:	9905      	ldr	r1, [sp, #20]
 80039b2:	9206      	str	r2, [sp, #24]
 80039b4:	6b19      	ldr	r1, [r3, #48]	; 0x30
 80039b6:	f041 0120 	orr.w	r1, r1, #32
 80039ba:	6319      	str	r1, [r3, #48]	; 0x30
 80039bc:	6b19      	ldr	r1, [r3, #48]	; 0x30
 80039be:	f001 0120 	and.w	r1, r1, #32
 80039c2:	9106      	str	r1, [sp, #24]
 80039c4:	9906      	ldr	r1, [sp, #24]
 80039c6:	9207      	str	r2, [sp, #28]
 80039c8:	6b19      	ldr	r1, [r3, #48]	; 0x30
 80039ca:	f041 0140 	orr.w	r1, r1, #64	; 0x40
 80039ce:	6319      	str	r1, [r3, #48]	; 0x30
 80039d0:	6b19      	ldr	r1, [r3, #48]	; 0x30
 80039d2:	f001 0140 	and.w	r1, r1, #64	; 0x40
 80039d6:	9107      	str	r1, [sp, #28]
 80039d8:	9907      	ldr	r1, [sp, #28]
 80039da:	9208      	str	r2, [sp, #32]
 80039dc:	6b19      	ldr	r1, [r3, #48]	; 0x30
 80039de:	f041 0180 	orr.w	r1, r1, #128	; 0x80
 80039e2:	6319      	str	r1, [r3, #48]	; 0x30
 80039e4:	6b19      	ldr	r1, [r3, #48]	; 0x30
 80039e6:	f001 0180 	and.w	r1, r1, #128	; 0x80
 80039ea:	9108      	str	r1, [sp, #32]
 80039ec:	9908      	ldr	r1, [sp, #32]
 80039ee:	9209      	str	r2, [sp, #36]	; 0x24
 80039f0:	6b19      	ldr	r1, [r3, #48]	; 0x30
 80039f2:	f441 7180 	orr.w	r1, r1, #256	; 0x100
 80039f6:	6319      	str	r1, [r3, #48]	; 0x30
 80039f8:	6b19      	ldr	r1, [r3, #48]	; 0x30
 80039fa:	f401 7180 	and.w	r1, r1, #256	; 0x100
 80039fe:	9109      	str	r1, [sp, #36]	; 0x24
 8003a00:	9909      	ldr	r1, [sp, #36]	; 0x24
 8003a02:	920a      	str	r2, [sp, #40]	; 0x28
 8003a04:	6b19      	ldr	r1, [r3, #48]	; 0x30
 8003a06:	f441 7100 	orr.w	r1, r1, #512	; 0x200
 8003a0a:	6319      	str	r1, [r3, #48]	; 0x30
 8003a0c:	6b19      	ldr	r1, [r3, #48]	; 0x30
 8003a0e:	f401 7100 	and.w	r1, r1, #512	; 0x200
 8003a12:	910a      	str	r1, [sp, #40]	; 0x28
 8003a14:	990a      	ldr	r1, [sp, #40]	; 0x28
 8003a16:	920b      	str	r2, [sp, #44]	; 0x2c
 8003a18:	6b1a      	ldr	r2, [r3, #48]	; 0x30
 8003a1a:	f442 6280 	orr.w	r2, r2, #1024	; 0x400
 8003a1e:	631a      	str	r2, [r3, #48]	; 0x30
 8003a20:	6b1b      	ldr	r3, [r3, #48]	; 0x30
 8003a22:	f403 6380 	and.w	r3, r3, #1024	; 0x400
 8003a26:	930b      	str	r3, [sp, #44]	; 0x2c
 8003a28:	9b0b      	ldr	r3, [sp, #44]	; 0x2c
 8003a2a:	4b0e      	ldr	r3, [pc, #56]	; (8003a64 <_ZN5TGpioILh7ELh13ELh0EEC1Ev+0x11c>)
 8003a2c:	6003      	str	r3, [r0, #0]
 8003a2e:	689a      	ldr	r2, [r3, #8]
 8003a30:	f022 6240 	bic.w	r2, r2, #201326592	; 0xc000000
 8003a34:	609a      	str	r2, [r3, #8]
 8003a36:	689a      	ldr	r2, [r3, #8]
 8003a38:	f042 6240 	orr.w	r2, r2, #201326592	; 0xc000000
 8003a3c:	609a      	str	r2, [r3, #8]
 8003a3e:	685a      	ldr	r2, [r3, #4]
 8003a40:	f422 5200 	bic.w	r2, r2, #8192	; 0x2000
 8003a44:	605a      	str	r2, [r3, #4]
 8003a46:	685a      	ldr	r2, [r3, #4]
 8003a48:	605a      	str	r2, [r3, #4]
 8003a4a:	681a      	ldr	r2, [r3, #0]
 8003a4c:	f022 6240 	bic.w	r2, r2, #201326592	; 0xc000000
 8003a50:	601a      	str	r2, [r3, #0]
 8003a52:	681a      	ldr	r2, [r3, #0]
 8003a54:	f042 6280 	orr.w	r2, r2, #67108864	; 0x4000000
 8003a58:	601a      	str	r2, [r3, #0]
 8003a5a:	b00c      	add	sp, #48	; 0x30
 8003a5c:	4770      	bx	lr
 8003a5e:	bf00      	nop
 8003a60:	40023800 	andmi	r3, r2, r0, lsl #16
 8003a64:	40021c00 	andmi	r1, r2, r0, lsl #24

08003a68 <_ZN5TGpioILh1ELh9ELh1EE8set_modeEh>:
 8003a68:	b9b1      	cbnz	r1, 8003a98 <_ZN5TGpioILh1ELh9ELh1EE8set_modeEh+0x30>
 8003a6a:	6803      	ldr	r3, [r0, #0]
 8003a6c:	689a      	ldr	r2, [r3, #8]
 8003a6e:	f422 2240 	bic.w	r2, r2, #786432	; 0xc0000
 8003a72:	609a      	str	r2, [r3, #8]
 8003a74:	689a      	ldr	r2, [r3, #8]
 8003a76:	f442 2240 	orr.w	r2, r2, #786432	; 0xc0000
 8003a7a:	609a      	str	r2, [r3, #8]
 8003a7c:	685a      	ldr	r2, [r3, #4]
 8003a7e:	f422 7200 	bic.w	r2, r2, #512	; 0x200
 8003a82:	605a      	str	r2, [r3, #4]
 8003a84:	685a      	ldr	r2, [r3, #4]
 8003a86:	605a      	str	r2, [r3, #4]
 8003a88:	681a      	ldr	r2, [r3, #0]
 8003a8a:	f422 2240 	bic.w	r2, r2, #786432	; 0xc0000
 8003a8e:	601a      	str	r2, [r3, #0]
 8003a90:	681a      	ldr	r2, [r3, #0]
 8003a92:	f442 2280 	orr.w	r2, r2, #262144	; 0x40000
 8003a96:	e043      	b.n	8003b20 <_ZN5TGpioILh1ELh9ELh1EE8set_modeEh+0xb8>
 8003a98:	2901      	cmp	r1, #1
 8003a9a:	d10e      	bne.n	8003aba <_ZN5TGpioILh1ELh9ELh1EE8set_modeEh+0x52>
 8003a9c:	6803      	ldr	r3, [r0, #0]
 8003a9e:	689a      	ldr	r2, [r3, #8]
 8003aa0:	f422 2240 	bic.w	r2, r2, #786432	; 0xc0000
 8003aa4:	609a      	str	r2, [r3, #8]
 8003aa6:	689a      	ldr	r2, [r3, #8]
 8003aa8:	f442 2240 	orr.w	r2, r2, #786432	; 0xc0000
 8003aac:	609a      	str	r2, [r3, #8]
 8003aae:	681a      	ldr	r2, [r3, #0]
 8003ab0:	f422 2240 	bic.w	r2, r2, #786432	; 0xc0000
 8003ab4:	601a      	str	r2, [r3, #0]
 8003ab6:	681a      	ldr	r2, [r3, #0]
 8003ab8:	e032      	b.n	8003b20 <_ZN5TGpioILh1ELh9ELh1EE8set_modeEh+0xb8>
 8003aba:	2902      	cmp	r1, #2
 8003abc:	d113      	bne.n	8003ae6 <_ZN5TGpioILh1ELh9ELh1EE8set_modeEh+0x7e>
 8003abe:	6803      	ldr	r3, [r0, #0]
 8003ac0:	689a      	ldr	r2, [r3, #8]
 8003ac2:	f422 2240 	bic.w	r2, r2, #786432	; 0xc0000
 8003ac6:	609a      	str	r2, [r3, #8]
 8003ac8:	689a      	ldr	r2, [r3, #8]
 8003aca:	f442 2240 	orr.w	r2, r2, #786432	; 0xc0000
 8003ace:	609a      	str	r2, [r3, #8]
 8003ad0:	681a      	ldr	r2, [r3, #0]
 8003ad2:	f422 2240 	bic.w	r2, r2, #786432	; 0xc0000
 8003ad6:	601a      	str	r2, [r3, #0]
 8003ad8:	681a      	ldr	r2, [r3, #0]
 8003ada:	601a      	str	r2, [r3, #0]
 8003adc:	68da      	ldr	r2, [r3, #12]
 8003ade:	f442 2280 	orr.w	r2, r2, #262144	; 0x40000
 8003ae2:	60da      	str	r2, [r3, #12]
 8003ae4:	4770      	bx	lr
 8003ae6:	2903      	cmp	r1, #3
 8003ae8:	d110      	bne.n	8003b0c <_ZN5TGpioILh1ELh9ELh1EE8set_modeEh+0xa4>
 8003aea:	6803      	ldr	r3, [r0, #0]
 8003aec:	689a      	ldr	r2, [r3, #8]
 8003aee:	f422 2240 	bic.w	r2, r2, #786432	; 0xc0000
 8003af2:	609a      	str	r2, [r3, #8]
 8003af4:	689a      	ldr	r2, [r3, #8]
 8003af6:	f442 2240 	orr.w	r2, r2, #786432	; 0xc0000
 8003afa:	609a      	str	r2, [r3, #8]
 8003afc:	681a      	ldr	r2, [r3, #0]
 8003afe:	f422 2240 	bic.w	r2, r2, #786432	; 0xc0000
 8003b02:	601a      	str	r2, [r3, #0]
 8003b04:	681a      	ldr	r2, [r3, #0]
 8003b06:	f442 2200 	orr.w	r2, r2, #524288	; 0x80000
 8003b0a:	e009      	b.n	8003b20 <_ZN5TGpioILh1ELh9ELh1EE8set_modeEh+0xb8>
 8003b0c:	2904      	cmp	r1, #4
 8003b0e:	d108      	bne.n	8003b22 <_ZN5TGpioILh1ELh9ELh1EE8set_modeEh+0xba>
 8003b10:	6803      	ldr	r3, [r0, #0]
 8003b12:	681a      	ldr	r2, [r3, #0]
 8003b14:	f422 2240 	bic.w	r2, r2, #786432	; 0xc0000
 8003b18:	601a      	str	r2, [r3, #0]
 8003b1a:	681a      	ldr	r2, [r3, #0]
 8003b1c:	f442 2240 	orr.w	r2, r2, #786432	; 0xc0000
 8003b20:	601a      	str	r2, [r3, #0]
 8003b22:	4770      	bx	lr

08003b24 <_ZN5TGpioILh1ELh9ELh1EEC1Ev>:
 8003b24:	b510      	push	{r4, lr}
 8003b26:	b08c      	sub	sp, #48	; 0x30
 8003b28:	4b3c      	ldr	r3, [pc, #240]	; (8003c1c <_ZN5TGpioILh1ELh9ELh1EEC1Ev+0xf8>)
 8003b2a:	2200      	movs	r2, #0
 8003b2c:	9201      	str	r2, [sp, #4]
 8003b2e:	6b19      	ldr	r1, [r3, #48]	; 0x30
 8003b30:	f041 0101 	orr.w	r1, r1, #1
 8003b34:	6319      	str	r1, [r3, #48]	; 0x30
 8003b36:	6b19      	ldr	r1, [r3, #48]	; 0x30
 8003b38:	f001 0101 	and.w	r1, r1, #1
 8003b3c:	9101      	str	r1, [sp, #4]
 8003b3e:	9901      	ldr	r1, [sp, #4]
 8003b40:	9202      	str	r2, [sp, #8]
 8003b42:	6b19      	ldr	r1, [r3, #48]	; 0x30
 8003b44:	f041 0102 	orr.w	r1, r1, #2
 8003b48:	6319      	str	r1, [r3, #48]	; 0x30
 8003b4a:	6b19      	ldr	r1, [r3, #48]	; 0x30
 8003b4c:	f001 0102 	and.w	r1, r1, #2
 8003b50:	9102      	str	r1, [sp, #8]
 8003b52:	9902      	ldr	r1, [sp, #8]
 8003b54:	9203      	str	r2, [sp, #12]
 8003b56:	6b19      	ldr	r1, [r3, #48]	; 0x30
 8003b58:	f041 0104 	orr.w	r1, r1, #4
 8003b5c:	6319      	str	r1, [r3, #48]	; 0x30
 8003b5e:	6b19      	ldr	r1, [r3, #48]	; 0x30
 8003b60:	f001 0104 	and.w	r1, r1, #4
 8003b64:	9103      	str	r1, [sp, #12]
 8003b66:	9903      	ldr	r1, [sp, #12]
 8003b68:	9204      	str	r2, [sp, #16]
 8003b6a:	6b19      	ldr	r1, [r3, #48]	; 0x30
 8003b6c:	f041 0108 	orr.w	r1, r1, #8
 8003b70:	6319      	str	r1, [r3, #48]	; 0x30
 8003b72:	6b19      	ldr	r1, [r3, #48]	; 0x30
 8003b74:	f001 0108 	and.w	r1, r1, #8
 8003b78:	9104      	str	r1, [sp, #16]
 8003b7a:	9904      	ldr	r1, [sp, #16]
 8003b7c:	9205      	str	r2, [sp, #20]
 8003b7e:	6b19      	ldr	r1, [r3, #48]	; 0x30
 8003b80:	f041 0110 	orr.w	r1, r1, #16
 8003b84:	6319      	str	r1, [r3, #48]	; 0x30
 8003b86:	6b19      	ldr	r1, [r3, #48]	; 0x30
 8003b88:	f001 0110 	and.w	r1, r1, #16
 8003b8c:	9105      	str	r1, [sp, #20]
 8003b8e:	9905      	ldr	r1, [sp, #20]
 8003b90:	9206      	str	r2, [sp, #24]
 8003b92:	6b19      	ldr	r1, [r3, #48]	; 0x30
 8003b94:	f041 0120 	orr.w	r1, r1, #32
 8003b98:	6319      	str	r1, [r3, #48]	; 0x30
 8003b9a:	6b19      	ldr	r1, [r3, #48]	; 0x30
 8003b9c:	f001 0120 	and.w	r1, r1, #32
 8003ba0:	9106      	str	r1, [sp, #24]
 8003ba2:	9906      	ldr	r1, [sp, #24]
 8003ba4:	9207      	str	r2, [sp, #28]
 8003ba6:	6b19      	ldr	r1, [r3, #48]	; 0x30
 8003ba8:	f041 0140 	orr.w	r1, r1, #64	; 0x40
 8003bac:	6319      	str	r1, [r3, #48]	; 0x30
 8003bae:	6b19      	ldr	r1, [r3, #48]	; 0x30
 8003bb0:	f001 0140 	and.w	r1, r1, #64	; 0x40
 8003bb4:	9107      	str	r1, [sp, #28]
 8003bb6:	9907      	ldr	r1, [sp, #28]
 8003bb8:	9208      	str	r2, [sp, #32]
 8003bba:	6b19      	ldr	r1, [r3, #48]	; 0x30
 8003bbc:	f041 0180 	orr.w	r1, r1, #128	; 0x80
 8003bc0:	6319      	str	r1, [r3, #48]	; 0x30
 8003bc2:	6b19      	ldr	r1, [r3, #48]	; 0x30
 8003bc4:	f001 0180 	and.w	r1, r1, #128	; 0x80
 8003bc8:	9108      	str	r1, [sp, #32]
 8003bca:	9908      	ldr	r1, [sp, #32]
 8003bcc:	9209      	str	r2, [sp, #36]	; 0x24
 8003bce:	6b19      	ldr	r1, [r3, #48]	; 0x30
 8003bd0:	f441 7180 	orr.w	r1, r1, #256	; 0x100
 8003bd4:	6319      	str	r1, [r3, #48]	; 0x30
 8003bd6:	6b19      	ldr	r1, [r3, #48]	; 0x30
 8003bd8:	f401 7180 	and.w	r1, r1, #256	; 0x100
 8003bdc:	9109      	str	r1, [sp, #36]	; 0x24
 8003bde:	9909      	ldr	r1, [sp, #36]	; 0x24
 8003be0:	920a      	str	r2, [sp, #40]	; 0x28
 8003be2:	6b19      	ldr	r1, [r3, #48]	; 0x30
 8003be4:	f441 7100 	orr.w	r1, r1, #512	; 0x200
 8003be8:	6319      	str	r1, [r3, #48]	; 0x30
 8003bea:	6b19      	ldr	r1, [r3, #48]	; 0x30
 8003bec:	f401 7100 	and.w	r1, r1, #512	; 0x200
 8003bf0:	910a      	str	r1, [sp, #40]	; 0x28
 8003bf2:	990a      	ldr	r1, [sp, #40]	; 0x28
 8003bf4:	920b      	str	r2, [sp, #44]	; 0x2c
 8003bf6:	6b1a      	ldr	r2, [r3, #48]	; 0x30
 8003bf8:	f442 6280 	orr.w	r2, r2, #1024	; 0x400
 8003bfc:	631a      	str	r2, [r3, #48]	; 0x30
 8003bfe:	6b1b      	ldr	r3, [r3, #48]	; 0x30
 8003c00:	f403 6380 	and.w	r3, r3, #1024	; 0x400
 8003c04:	930b      	str	r3, [sp, #44]	; 0x2c
 8003c06:	9b0b      	ldr	r3, [sp, #44]	; 0x2c
 8003c08:	4b05      	ldr	r3, [pc, #20]	; (8003c20 <_ZN5TGpioILh1ELh9ELh1EEC1Ev+0xfc>)
 8003c0a:	6003      	str	r3, [r0, #0]
 8003c0c:	2101      	movs	r1, #1
 8003c0e:	4604      	mov	r4, r0
 8003c10:	f7ff ff2a 	bl	8003a68 <_ZN5TGpioILh1ELh9ELh1EE8set_modeEh>
 8003c14:	4620      	mov	r0, r4
 8003c16:	b00c      	add	sp, #48	; 0x30
 8003c18:	bd10      	pop	{r4, pc}
 8003c1a:	bf00      	nop
 8003c1c:	40023800 	andmi	r3, r2, r0, lsl #16
 8003c20:	40020400 	andmi	r0, r2, r0, lsl #8

08003c24 <_ZN5TGpioILh1ELh8ELh1EE8set_modeEh>:
 8003c24:	b9b1      	cbnz	r1, 8003c54 <_ZN5TGpioILh1ELh8ELh1EE8set_modeEh+0x30>
 8003c26:	6803      	ldr	r3, [r0, #0]
 8003c28:	689a      	ldr	r2, [r3, #8]
 8003c2a:	f422 3240 	bic.w	r2, r2, #196608	; 0x30000
 8003c2e:	609a      	str	r2, [r3, #8]
 8003c30:	689a      	ldr	r2, [r3, #8]
 8003c32:	f442 3240 	orr.w	r2, r2, #196608	; 0x30000
 8003c36:	609a      	str	r2, [r3, #8]
 8003c38:	685a      	ldr	r2, [r3, #4]
 8003c3a:	f422 7280 	bic.w	r2, r2, #256	; 0x100
 8003c3e:	605a      	str	r2, [r3, #4]
 8003c40:	685a      	ldr	r2, [r3, #4]
 8003c42:	605a      	str	r2, [r3, #4]
 8003c44:	681a      	ldr	r2, [r3, #0]
 8003c46:	f422 3240 	bic.w	r2, r2, #196608	; 0x30000
 8003c4a:	601a      	str	r2, [r3, #0]
 8003c4c:	681a      	ldr	r2, [r3, #0]
 8003c4e:	f442 3280 	orr.w	r2, r2, #65536	; 0x10000
 8003c52:	e043      	b.n	8003cdc <_ZN5TGpioILh1ELh8ELh1EE8set_modeEh+0xb8>
 8003c54:	2901      	cmp	r1, #1
 8003c56:	d10e      	bne.n	8003c76 <_ZN5TGpioILh1ELh8ELh1EE8set_modeEh+0x52>
 8003c58:	6803      	ldr	r3, [r0, #0]
 8003c5a:	689a      	ldr	r2, [r3, #8]
 8003c5c:	f422 3240 	bic.w	r2, r2, #196608	; 0x30000
 8003c60:	609a      	str	r2, [r3, #8]
 8003c62:	689a      	ldr	r2, [r3, #8]
 8003c64:	f442 3240 	orr.w	r2, r2, #196608	; 0x30000
 8003c68:	609a      	str	r2, [r3, #8]
 8003c6a:	681a      	ldr	r2, [r3, #0]
 8003c6c:	f422 3240 	bic.w	r2, r2, #196608	; 0x30000
 8003c70:	601a      	str	r2, [r3, #0]
 8003c72:	681a      	ldr	r2, [r3, #0]
 8003c74:	e032      	b.n	8003cdc <_ZN5TGpioILh1ELh8ELh1EE8set_modeEh+0xb8>
 8003c76:	2902      	cmp	r1, #2
 8003c78:	d113      	bne.n	8003ca2 <_ZN5TGpioILh1ELh8ELh1EE8set_modeEh+0x7e>
 8003c7a:	6803      	ldr	r3, [r0, #0]
 8003c7c:	689a      	ldr	r2, [r3, #8]
 8003c7e:	f422 3240 	bic.w	r2, r2, #196608	; 0x30000
 8003c82:	609a      	str	r2, [r3, #8]
 8003c84:	689a      	ldr	r2, [r3, #8]
 8003c86:	f442 3240 	orr.w	r2, r2, #196608	; 0x30000
 8003c8a:	609a      	str	r2, [r3, #8]
 8003c8c:	681a      	ldr	r2, [r3, #0]
 8003c8e:	f422 3240 	bic.w	r2, r2, #196608	; 0x30000
 8003c92:	601a      	str	r2, [r3, #0]
 8003c94:	681a      	ldr	r2, [r3, #0]
 8003c96:	601a      	str	r2, [r3, #0]
 8003c98:	68da      	ldr	r2, [r3, #12]
 8003c9a:	f442 3280 	orr.w	r2, r2, #65536	; 0x10000
 8003c9e:	60da      	str	r2, [r3, #12]
 8003ca0:	4770      	bx	lr
 8003ca2:	2903      	cmp	r1, #3
 8003ca4:	d110      	bne.n	8003cc8 <_ZN5TGpioILh1ELh8ELh1EE8set_modeEh+0xa4>
 8003ca6:	6803      	ldr	r3, [r0, #0]
 8003ca8:	689a      	ldr	r2, [r3, #8]
 8003caa:	f422 3240 	bic.w	r2, r2, #196608	; 0x30000
 8003cae:	609a      	str	r2, [r3, #8]
 8003cb0:	689a      	ldr	r2, [r3, #8]
 8003cb2:	f442 3240 	orr.w	r2, r2, #196608	; 0x30000
 8003cb6:	609a      	str	r2, [r3, #8]
 8003cb8:	681a      	ldr	r2, [r3, #0]
 8003cba:	f422 3240 	bic.w	r2, r2, #196608	; 0x30000
 8003cbe:	601a      	str	r2, [r3, #0]
 8003cc0:	681a      	ldr	r2, [r3, #0]
 8003cc2:	f442 3200 	orr.w	r2, r2, #131072	; 0x20000
 8003cc6:	e009      	b.n	8003cdc <_ZN5TGpioILh1ELh8ELh1EE8set_modeEh+0xb8>
 8003cc8:	2904      	cmp	r1, #4
 8003cca:	d108      	bne.n	8003cde <_ZN5TGpioILh1ELh8ELh1EE8set_modeEh+0xba>
 8003ccc:	6803      	ldr	r3, [r0, #0]
 8003cce:	681a      	ldr	r2, [r3, #0]
 8003cd0:	f422 3240 	bic.w	r2, r2, #196608	; 0x30000
 8003cd4:	601a      	str	r2, [r3, #0]
 8003cd6:	681a      	ldr	r2, [r3, #0]
 8003cd8:	f442 3240 	orr.w	r2, r2, #196608	; 0x30000
 8003cdc:	601a      	str	r2, [r3, #0]
 8003cde:	4770      	bx	lr

08003ce0 <_ZN5TGpioILh1ELh8ELh1EEC1Ev>:
 8003ce0:	b510      	push	{r4, lr}
 8003ce2:	b08c      	sub	sp, #48	; 0x30
 8003ce4:	4b3c      	ldr	r3, [pc, #240]	; (8003dd8 <_ZN5TGpioILh1ELh8ELh1EEC1Ev+0xf8>)
 8003ce6:	2200      	movs	r2, #0
 8003ce8:	9201      	str	r2, [sp, #4]
 8003cea:	6b19      	ldr	r1, [r3, #48]	; 0x30
 8003cec:	f041 0101 	orr.w	r1, r1, #1
 8003cf0:	6319      	str	r1, [r3, #48]	; 0x30
 8003cf2:	6b19      	ldr	r1, [r3, #48]	; 0x30
 8003cf4:	f001 0101 	and.w	r1, r1, #1
 8003cf8:	9101      	str	r1, [sp, #4]
 8003cfa:	9901      	ldr	r1, [sp, #4]
 8003cfc:	9202      	str	r2, [sp, #8]
 8003cfe:	6b19      	ldr	r1, [r3, #48]	; 0x30
 8003d00:	f041 0102 	orr.w	r1, r1, #2
 8003d04:	6319      	str	r1, [r3, #48]	; 0x30
 8003d06:	6b19      	ldr	r1, [r3, #48]	; 0x30
 8003d08:	f001 0102 	and.w	r1, r1, #2
 8003d0c:	9102      	str	r1, [sp, #8]
 8003d0e:	9902      	ldr	r1, [sp, #8]
 8003d10:	9203      	str	r2, [sp, #12]
 8003d12:	6b19      	ldr	r1, [r3, #48]	; 0x30
 8003d14:	f041 0104 	orr.w	r1, r1, #4
 8003d18:	6319      	str	r1, [r3, #48]	; 0x30
 8003d1a:	6b19      	ldr	r1, [r3, #48]	; 0x30
 8003d1c:	f001 0104 	and.w	r1, r1, #4
 8003d20:	9103      	str	r1, [sp, #12]
 8003d22:	9903      	ldr	r1, [sp, #12]
 8003d24:	9204      	str	r2, [sp, #16]
 8003d26:	6b19      	ldr	r1, [r3, #48]	; 0x30
 8003d28:	f041 0108 	orr.w	r1, r1, #8
 8003d2c:	6319      	str	r1, [r3, #48]	; 0x30
 8003d2e:	6b19      	ldr	r1, [r3, #48]	; 0x30
 8003d30:	f001 0108 	and.w	r1, r1, #8
 8003d34:	9104      	str	r1, [sp, #16]
 8003d36:	9904      	ldr	r1, [sp, #16]
 8003d38:	9205      	str	r2, [sp, #20]
 8003d3a:	6b19      	ldr	r1, [r3, #48]	; 0x30
 8003d3c:	f041 0110 	orr.w	r1, r1, #16
 8003d40:	6319      	str	r1, [r3, #48]	; 0x30
 8003d42:	6b19      	ldr	r1, [r3, #48]	; 0x30
 8003d44:	f001 0110 	and.w	r1, r1, #16
 8003d48:	9105      	str	r1, [sp, #20]
 8003d4a:	9905      	ldr	r1, [sp, #20]
 8003d4c:	9206      	str	r2, [sp, #24]
 8003d4e:	6b19      	ldr	r1, [r3, #48]	; 0x30
 8003d50:	f041 0120 	orr.w	r1, r1, #32
 8003d54:	6319      	str	r1, [r3, #48]	; 0x30
 8003d56:	6b19      	ldr	r1, [r3, #48]	; 0x30
 8003d58:	f001 0120 	and.w	r1, r1, #32
 8003d5c:	9106      	str	r1, [sp, #24]
 8003d5e:	9906      	ldr	r1, [sp, #24]
 8003d60:	9207      	str	r2, [sp, #28]
 8003d62:	6b19      	ldr	r1, [r3, #48]	; 0x30
 8003d64:	f041 0140 	orr.w	r1, r1, #64	; 0x40
 8003d68:	6319      	str	r1, [r3, #48]	; 0x30
 8003d6a:	6b19      	ldr	r1, [r3, #48]	; 0x30
 8003d6c:	f001 0140 	and.w	r1, r1, #64	; 0x40
 8003d70:	9107      	str	r1, [sp, #28]
 8003d72:	9907      	ldr	r1, [sp, #28]
 8003d74:	9208      	str	r2, [sp, #32]
 8003d76:	6b19      	ldr	r1, [r3, #48]	; 0x30
 8003d78:	f041 0180 	orr.w	r1, r1, #128	; 0x80
 8003d7c:	6319      	str	r1, [r3, #48]	; 0x30
 8003d7e:	6b19      	ldr	r1, [r3, #48]	; 0x30
 8003d80:	f001 0180 	and.w	r1, r1, #128	; 0x80
 8003d84:	9108      	str	r1, [sp, #32]
 8003d86:	9908      	ldr	r1, [sp, #32]
 8003d88:	9209      	str	r2, [sp, #36]	; 0x24
 8003d8a:	6b19      	ldr	r1, [r3, #48]	; 0x30
 8003d8c:	f441 7180 	orr.w	r1, r1, #256	; 0x100
 8003d90:	6319      	str	r1, [r3, #48]	; 0x30
 8003d92:	6b19      	ldr	r1, [r3, #48]	; 0x30
 8003d94:	f401 7180 	and.w	r1, r1, #256	; 0x100
 8003d98:	9109      	str	r1, [sp, #36]	; 0x24
 8003d9a:	9909      	ldr	r1, [sp, #36]	; 0x24
 8003d9c:	920a      	str	r2, [sp, #40]	; 0x28
 8003d9e:	6b19      	ldr	r1, [r3, #48]	; 0x30
 8003da0:	f441 7100 	orr.w	r1, r1, #512	; 0x200
 8003da4:	6319      	str	r1, [r3, #48]	; 0x30
 8003da6:	6b19      	ldr	r1, [r3, #48]	; 0x30
 8003da8:	f401 7100 	and.w	r1, r1, #512	; 0x200
 8003dac:	910a      	str	r1, [sp, #40]	; 0x28
 8003dae:	990a      	ldr	r1, [sp, #40]	; 0x28
 8003db0:	920b      	str	r2, [sp, #44]	; 0x2c
 8003db2:	6b1a      	ldr	r2, [r3, #48]	; 0x30
 8003db4:	f442 6280 	orr.w	r2, r2, #1024	; 0x400
 8003db8:	631a      	str	r2, [r3, #48]	; 0x30
 8003dba:	6b1b      	ldr	r3, [r3, #48]	; 0x30
 8003dbc:	f403 6380 	and.w	r3, r3, #1024	; 0x400
 8003dc0:	930b      	str	r3, [sp, #44]	; 0x2c
 8003dc2:	9b0b      	ldr	r3, [sp, #44]	; 0x2c
 8003dc4:	4b05      	ldr	r3, [pc, #20]	; (8003ddc <_ZN5TGpioILh1ELh8ELh1EEC1Ev+0xfc>)
 8003dc6:	6003      	str	r3, [r0, #0]
 8003dc8:	2101      	movs	r1, #1
 8003dca:	4604      	mov	r4, r0
 8003dcc:	f7ff ff2a 	bl	8003c24 <_ZN5TGpioILh1ELh8ELh1EE8set_modeEh>
 8003dd0:	4620      	mov	r0, r4
 8003dd2:	b00c      	add	sp, #48	; 0x30
 8003dd4:	bd10      	pop	{r4, pc}
 8003dd6:	bf00      	nop
 8003dd8:	40023800 	andmi	r3, r2, r0, lsl #16
 8003ddc:	40020400 	andmi	r0, r2, r0, lsl #8

08003de0 <_ZN7CCameraC1Ev>:
 8003de0:	b510      	push	{r4, lr}
 8003de2:	4604      	mov	r4, r0
 8003de4:	f7ff fdb0 	bl	8003948 <_ZN5TGpioILh7ELh13ELh0EEC1Ev>
 8003de8:	4620      	mov	r0, r4
 8003dea:	4b0b      	ldr	r3, [pc, #44]	; (8003e18 <_ZN7CCameraC1Ev+0x38>)
 8003dec:	f840 3f04 	str.w	r3, [r0, #4]!
 8003df0:	3004      	adds	r0, #4
 8003df2:	f7ff fe97 	bl	8003b24 <_ZN5TGpioILh1ELh9ELh1EEC1Ev>
 8003df6:	f104 000c 	add.w	r0, r4, #12
 8003dfa:	f7ff ff71 	bl	8003ce0 <_ZN5TGpioILh1ELh8ELh1EEC1Ev>
 8003dfe:	68a2      	ldr	r2, [r4, #8]
 8003e00:	6953      	ldr	r3, [r2, #20]
 8003e02:	f423 7300 	bic.w	r3, r3, #512	; 0x200
 8003e06:	6153      	str	r3, [r2, #20]
 8003e08:	68e2      	ldr	r2, [r4, #12]
 8003e0a:	6953      	ldr	r3, [r2, #20]
 8003e0c:	f423 7380 	bic.w	r3, r3, #256	; 0x100
 8003e10:	6153      	str	r3, [r2, #20]
 8003e12:	4620      	mov	r0, r4
 8003e14:	bd10      	pop	{r4, pc}
 8003e16:	bf00      	nop
 8003e18:	08005c30 	stmdaeq	r0, {r4, r5, sl, fp, ip, lr}

08003e1c <_ZN4TI2CILh1ELh9ELh8ELj100ELh1EE4stopEv>:
 8003e1c:	b538      	push	{r3, r4, r5, lr}
 8003e1e:	f100 0508 	add.w	r5, r0, #8
 8003e22:	4604      	mov	r4, r0
 8003e24:	3404      	adds	r4, #4
 8003e26:	4628      	mov	r0, r5
 8003e28:	2100      	movs	r1, #0
 8003e2a:	f7ff fefb 	bl	8003c24 <_ZN5TGpioILh1ELh8ELh1EE8set_modeEh>
 8003e2e:	4620      	mov	r0, r4
 8003e30:	2100      	movs	r1, #0
 8003e32:	f7ff fe19 	bl	8003a68 <_ZN5TGpioILh1ELh9ELh1EE8set_modeEh>
 8003e36:	4628      	mov	r0, r5
 8003e38:	2101      	movs	r1, #1
 8003e3a:	f7ff fef3 	bl	8003c24 <_ZN5TGpioILh1ELh8ELh1EE8set_modeEh>
 8003e3e:	4620      	mov	r0, r4
 8003e40:	2100      	movs	r1, #0
 8003e42:	f7ff fe11 	bl	8003a68 <_ZN5TGpioILh1ELh9ELh1EE8set_modeEh>
 8003e46:	4628      	mov	r0, r5
 8003e48:	2101      	movs	r1, #1
 8003e4a:	f7ff feeb 	bl	8003c24 <_ZN5TGpioILh1ELh8ELh1EE8set_modeEh>
 8003e4e:	4620      	mov	r0, r4
 8003e50:	2101      	movs	r1, #1
 8003e52:	f7ff fe09 	bl	8003a68 <_ZN5TGpioILh1ELh9ELh1EE8set_modeEh>
 8003e56:	e8bd 4038 	ldmia.w	sp!, {r3, r4, r5, lr}
 8003e5a:	f7ff bc02 	b.w	8003662 <_ZN4TI2CILh1ELh9ELh8ELj100ELh1EE5delayEv.isra.6>

08003e5e <_ZN4TI2CILh1ELh9ELh8ELj100ELh1EE5startEv>:
 8003e5e:	b538      	push	{r3, r4, r5, lr}
 8003e60:	f100 0508 	add.w	r5, r0, #8
 8003e64:	4604      	mov	r4, r0
 8003e66:	3404      	adds	r4, #4
 8003e68:	4628      	mov	r0, r5
 8003e6a:	2101      	movs	r1, #1
 8003e6c:	f7ff feda 	bl	8003c24 <_ZN5TGpioILh1ELh8ELh1EE8set_modeEh>
 8003e70:	4620      	mov	r0, r4
 8003e72:	2101      	movs	r1, #1
 8003e74:	f7ff fdf8 	bl	8003a68 <_ZN5TGpioILh1ELh9ELh1EE8set_modeEh>
 8003e78:	4628      	mov	r0, r5
 8003e7a:	2101      	movs	r1, #1
 8003e7c:	f7ff fed2 	bl	8003c24 <_ZN5TGpioILh1ELh8ELh1EE8set_modeEh>
 8003e80:	4620      	mov	r0, r4
 8003e82:	2100      	movs	r1, #0
 8003e84:	f7ff fdf0 	bl	8003a68 <_ZN5TGpioILh1ELh9ELh1EE8set_modeEh>
 8003e88:	4628      	mov	r0, r5
 8003e8a:	2100      	movs	r1, #0
 8003e8c:	f7ff feca 	bl	8003c24 <_ZN5TGpioILh1ELh8ELh1EE8set_modeEh>
 8003e90:	4620      	mov	r0, r4
 8003e92:	2101      	movs	r1, #1
 8003e94:	f7ff fde8 	bl	8003a68 <_ZN5TGpioILh1ELh9ELh1EE8set_modeEh>
 8003e98:	e8bd 4038 	ldmia.w	sp!, {r3, r4, r5, lr}
 8003e9c:	f7ff bbe1 	b.w	8003662 <_ZN4TI2CILh1ELh9ELh8ELj100ELh1EE5delayEv.isra.6>

08003ea0 <_ZN4TI2CILh1ELh9ELh8ELj100ELh1EE4readEh>:
 8003ea0:	e92d 43f8 	stmdb	sp!, {r3, r4, r5, r6, r7, r8, r9, lr}
 8003ea4:	4680      	mov	r8, r0
 8003ea6:	1d07      	adds	r7, r0, #4
 8003ea8:	4638      	mov	r0, r7
 8003eaa:	4689      	mov	r9, r1
 8003eac:	f108 0608 	add.w	r6, r8, #8
 8003eb0:	2101      	movs	r1, #1
 8003eb2:	f7ff fdd9 	bl	8003a68 <_ZN5TGpioILh1ELh9ELh1EE8set_modeEh>
 8003eb6:	4630      	mov	r0, r6
 8003eb8:	2100      	movs	r1, #0
 8003eba:	f7ff feb3 	bl	8003c24 <_ZN5TGpioILh1ELh8ELh1EE8set_modeEh>
 8003ebe:	f7ff fbd0 	bl	8003662 <_ZN4TI2CILh1ELh9ELh8ELj100ELh1EE5delayEv.isra.6>
 8003ec2:	2508      	movs	r5, #8
 8003ec4:	2400      	movs	r4, #0
 8003ec6:	4630      	mov	r0, r6
 8003ec8:	2101      	movs	r1, #1
 8003eca:	f7ff feab 	bl	8003c24 <_ZN5TGpioILh1ELh8ELh1EE8set_modeEh>
 8003ece:	f7ff fbc8 	bl	8003662 <_ZN4TI2CILh1ELh9ELh8ELj100ELh1EE5delayEv.isra.6>
 8003ed2:	f8d8 3004 	ldr.w	r3, [r8, #4]
 8003ed6:	691b      	ldr	r3, [r3, #16]
 8003ed8:	0064      	lsls	r4, r4, #1
 8003eda:	059b      	lsls	r3, r3, #22
 8003edc:	4630      	mov	r0, r6
 8003ede:	f04f 0100 	mov.w	r1, #0
 8003ee2:	b2e4      	uxtb	r4, r4
 8003ee4:	f105 35ff 	add.w	r5, r5, #4294967295	; 0xffffffff
 8003ee8:	bf48      	it	mi
 8003eea:	f044 0401 	orrmi.w	r4, r4, #1
 8003eee:	f7ff fe99 	bl	8003c24 <_ZN5TGpioILh1ELh8ELh1EE8set_modeEh>
 8003ef2:	f7ff fbb6 	bl	8003662 <_ZN4TI2CILh1ELh9ELh8ELj100ELh1EE5delayEv.isra.6>
 8003ef6:	f015 05ff 	ands.w	r5, r5, #255	; 0xff
 8003efa:	d1e4      	bne.n	8003ec6 <_ZN4TI2CILh1ELh9ELh8ELj100ELh1EE4readEh+0x26>
 8003efc:	4638      	mov	r0, r7
 8003efe:	f1b9 0f00 	cmp.w	r9, #0
 8003f02:	d001      	beq.n	8003f08 <_ZN4TI2CILh1ELh9ELh8ELj100ELh1EE4readEh+0x68>
 8003f04:	4629      	mov	r1, r5
 8003f06:	e000      	b.n	8003f0a <_ZN4TI2CILh1ELh9ELh8ELj100ELh1EE4readEh+0x6a>
 8003f08:	2101      	movs	r1, #1
 8003f0a:	f7ff fdad 	bl	8003a68 <_ZN5TGpioILh1ELh9ELh1EE8set_modeEh>
 8003f0e:	f7ff fba8 	bl	8003662 <_ZN4TI2CILh1ELh9ELh8ELj100ELh1EE5delayEv.isra.6>
 8003f12:	4630      	mov	r0, r6
 8003f14:	2101      	movs	r1, #1
 8003f16:	f7ff fe85 	bl	8003c24 <_ZN5TGpioILh1ELh8ELh1EE8set_modeEh>
 8003f1a:	f7ff fba2 	bl	8003662 <_ZN4TI2CILh1ELh9ELh8ELj100ELh1EE5delayEv.isra.6>
 8003f1e:	4630      	mov	r0, r6
 8003f20:	2100      	movs	r1, #0
 8003f22:	f7ff fe7f 	bl	8003c24 <_ZN5TGpioILh1ELh8ELh1EE8set_modeEh>
 8003f26:	f7ff fb9c 	bl	8003662 <_ZN4TI2CILh1ELh9ELh8ELj100ELh1EE5delayEv.isra.6>
 8003f2a:	4638      	mov	r0, r7
 8003f2c:	2101      	movs	r1, #1
 8003f2e:	f7ff fd9b 	bl	8003a68 <_ZN5TGpioILh1ELh9ELh1EE8set_modeEh>
 8003f32:	f7ff fb96 	bl	8003662 <_ZN4TI2CILh1ELh9ELh8ELj100ELh1EE5delayEv.isra.6>
 8003f36:	4620      	mov	r0, r4
 8003f38:	e8bd 83f8 	ldmia.w	sp!, {r3, r4, r5, r6, r7, r8, r9, pc}

08003f3c <_ZN4TI2CILh1ELh9ELh8ELj100ELh1EE5writeEh>:
 8003f3c:	e92d 41f0 	stmdb	sp!, {r4, r5, r6, r7, r8, lr}
 8003f40:	4607      	mov	r7, r0
 8003f42:	460e      	mov	r6, r1
 8003f44:	2408      	movs	r4, #8
 8003f46:	f107 0508 	add.w	r5, r7, #8
 8003f4a:	2100      	movs	r1, #0
 8003f4c:	4628      	mov	r0, r5
 8003f4e:	f7ff fe69 	bl	8003c24 <_ZN5TGpioILh1ELh8ELh1EE8set_modeEh>
 8003f52:	f107 0804 	add.w	r8, r7, #4
 8003f56:	f7ff fb84 	bl	8003662 <_ZN4TI2CILh1ELh9ELh8ELj100ELh1EE5delayEv.isra.6>
 8003f5a:	f016 0f80 	tst.w	r6, #128	; 0x80
 8003f5e:	bf14      	ite	ne
 8003f60:	2101      	movne	r1, #1
 8003f62:	2100      	moveq	r1, #0
 8003f64:	4640      	mov	r0, r8
 8003f66:	f7ff fd7f 	bl	8003a68 <_ZN5TGpioILh1ELh9ELh1EE8set_modeEh>
 8003f6a:	3c01      	subs	r4, #1
 8003f6c:	f7ff fb79 	bl	8003662 <_ZN4TI2CILh1ELh9ELh8ELj100ELh1EE5delayEv.isra.6>
 8003f70:	4628      	mov	r0, r5
 8003f72:	2101      	movs	r1, #1
 8003f74:	f7ff fe56 	bl	8003c24 <_ZN5TGpioILh1ELh8ELh1EE8set_modeEh>
 8003f78:	0076      	lsls	r6, r6, #1
 8003f7a:	f7ff fb72 	bl	8003662 <_ZN4TI2CILh1ELh9ELh8ELj100ELh1EE5delayEv.isra.6>
 8003f7e:	f014 04ff 	ands.w	r4, r4, #255	; 0xff
 8003f82:	b2f6      	uxtb	r6, r6
 8003f84:	d1df      	bne.n	8003f46 <_ZN4TI2CILh1ELh9ELh8ELj100ELh1EE5writeEh+0xa>
 8003f86:	4628      	mov	r0, r5
 8003f88:	4621      	mov	r1, r4
 8003f8a:	f7ff fe4b 	bl	8003c24 <_ZN5TGpioILh1ELh8ELh1EE8set_modeEh>
 8003f8e:	f7ff fb68 	bl	8003662 <_ZN4TI2CILh1ELh9ELh8ELj100ELh1EE5delayEv.isra.6>
 8003f92:	4640      	mov	r0, r8
 8003f94:	2101      	movs	r1, #1
 8003f96:	f7ff fd67 	bl	8003a68 <_ZN5TGpioILh1ELh9ELh1EE8set_modeEh>
 8003f9a:	f7ff fb62 	bl	8003662 <_ZN4TI2CILh1ELh9ELh8ELj100ELh1EE5delayEv.isra.6>
 8003f9e:	4628      	mov	r0, r5
 8003fa0:	2101      	movs	r1, #1
 8003fa2:	f7ff fe3f 	bl	8003c24 <_ZN5TGpioILh1ELh8ELh1EE8set_modeEh>
 8003fa6:	f7ff fb5c 	bl	8003662 <_ZN4TI2CILh1ELh9ELh8ELj100ELh1EE5delayEv.isra.6>
 8003faa:	687b      	ldr	r3, [r7, #4]
 8003fac:	691e      	ldr	r6, [r3, #16]
 8003fae:	4628      	mov	r0, r5
 8003fb0:	4621      	mov	r1, r4
 8003fb2:	f7ff fe37 	bl	8003c24 <_ZN5TGpioILh1ELh8ELh1EE8set_modeEh>
 8003fb6:	f7ff fb54 	bl	8003662 <_ZN4TI2CILh1ELh9ELh8ELj100ELh1EE5delayEv.isra.6>
 8003fba:	f486 7000 	eor.w	r0, r6, #512	; 0x200
 8003fbe:	f3c0 2040 	ubfx	r0, r0, #9, #1
 8003fc2:	e8bd 81f0 	ldmia.w	sp!, {r4, r5, r6, r7, r8, pc}

08003fc6 <_ZN4CLCDD1Ev>:
 8003fc6:	4770      	bx	lr

08003fc8 <_ZN4CLCD9get_widthEv>:
 8003fc8:	f44f 70f0 	mov.w	r0, #480	; 0x1e0
 8003fcc:	4770      	bx	lr

08003fce <_ZN4CLCD10get_heightEv>:
 8003fce:	f44f 7088 	mov.w	r0, #272	; 0x110
 8003fd2:	4770      	bx	lr

08003fd4 <_ZN4CLCD20LayerInit_FullscreenEv>:
 8003fd4:	e92d 4ff0 	stmdb	sp!, {r4, r5, r6, r7, r8, r9, sl, fp, lr}
 8003fd8:	b091      	sub	sp, #68	; 0x44
 8003fda:	2400      	movs	r4, #0
 8003fdc:	f8d0 20c0 	ldr.w	r2, [r0, #192]	; 0xc0
 8003fe0:	920c      	str	r2, [sp, #48]	; 0x30
 8003fe2:	f100 0818 	add.w	r8, r0, #24
 8003fe6:	f44f 76f0 	mov.w	r6, #480	; 0x1e0
 8003fea:	f44f 7588 	mov.w	r5, #272	; 0x110
 8003fee:	2302      	movs	r3, #2
 8003ff0:	4607      	mov	r7, r0
 8003ff2:	f04f 0bff 	mov.w	fp, #255	; 0xff
 8003ff6:	f44f 6ac0 	mov.w	sl, #1536	; 0x600
 8003ffa:	f04f 0907 	mov.w	r9, #7
 8003ffe:	a903      	add	r1, sp, #12
 8004000:	4622      	mov	r2, r4
 8004002:	4640      	mov	r0, r8
 8004004:	9307      	str	r3, [sp, #28]
 8004006:	9301      	str	r3, [sp, #4]
 8004008:	9403      	str	r4, [sp, #12]
 800400a:	9604      	str	r6, [sp, #16]
 800400c:	9405      	str	r4, [sp, #20]
 800400e:	9506      	str	r5, [sp, #24]
 8004010:	f8cd b020 	str.w	fp, [sp, #32]
 8004014:	9409      	str	r4, [sp, #36]	; 0x24
 8004016:	f88d 403c 	strb.w	r4, [sp, #60]	; 0x3c
 800401a:	f88d 403d 	strb.w	r4, [sp, #61]	; 0x3d
 800401e:	f88d 403e 	strb.w	r4, [sp, #62]	; 0x3e
 8004022:	f8cd a028 	str.w	sl, [sp, #40]	; 0x28
 8004026:	f8cd 902c 	str.w	r9, [sp, #44]	; 0x2c
 800402a:	960d      	str	r6, [sp, #52]	; 0x34
 800402c:	950e      	str	r5, [sp, #56]	; 0x38
 800402e:	f7fd ff23 	bl	8001e78 <HAL_LTDC_ConfigLayer>
 8004032:	9b01      	ldr	r3, [sp, #4]
 8004034:	9307      	str	r3, [sp, #28]
 8004036:	f8d7 30c0 	ldr.w	r3, [r7, #192]	; 0xc0
 800403a:	9403      	str	r4, [sp, #12]
 800403c:	f503 337f 	add.w	r3, r3, #261120	; 0x3fc00
 8004040:	4640      	mov	r0, r8
 8004042:	a903      	add	r1, sp, #12
 8004044:	2201      	movs	r2, #1
 8004046:	9604      	str	r6, [sp, #16]
 8004048:	9405      	str	r4, [sp, #20]
 800404a:	9506      	str	r5, [sp, #24]
 800404c:	930c      	str	r3, [sp, #48]	; 0x30
 800404e:	f8cd b020 	str.w	fp, [sp, #32]
 8004052:	9409      	str	r4, [sp, #36]	; 0x24
 8004054:	f88d 403c 	strb.w	r4, [sp, #60]	; 0x3c
 8004058:	f88d 403d 	strb.w	r4, [sp, #61]	; 0x3d
 800405c:	f88d 403e 	strb.w	r4, [sp, #62]	; 0x3e
 8004060:	f8cd a028 	str.w	sl, [sp, #40]	; 0x28
 8004064:	f8cd 902c 	str.w	r9, [sp, #44]	; 0x2c
 8004068:	960d      	str	r6, [sp, #52]	; 0x34
 800406a:	950e      	str	r5, [sp, #56]	; 0x38
 800406c:	f7fd ff04 	bl	8001e78 <HAL_LTDC_ConfigLayer>
 8004070:	b011      	add	sp, #68	; 0x44
 8004072:	e8bd 8ff0 	ldmia.w	sp!, {r4, r5, r6, r7, r8, r9, sl, fp, pc}

08004076 <_ZN4CLCD10SetLayer_2Ev>:
 8004076:	f8d0 30c0 	ldr.w	r3, [r0, #192]	; 0xc0
 800407a:	f503 337f 	add.w	r3, r3, #261120	; 0x3fc00
 800407e:	6003      	str	r3, [r0, #0]
 8004080:	2301      	movs	r3, #1
 8004082:	6043      	str	r3, [r0, #4]
 8004084:	4770      	bx	lr

08004086 <_ZN4CLCD9FillLayerEt>:
 8004086:	6802      	ldr	r2, [r0, #0]
 8004088:	2300      	movs	r3, #0
 800408a:	5299      	strh	r1, [r3, r2]
 800408c:	3302      	adds	r3, #2
 800408e:	f5b3 3f7f 	cmp.w	r3, #261120	; 0x3fc00
 8004092:	d1fa      	bne.n	800408a <_ZN4CLCD9FillLayerEt+0x4>
 8004094:	4770      	bx	lr

08004096 <_ZN4CLCD15SetTransparencyEh>:
 8004096:	6842      	ldr	r2, [r0, #4]
 8004098:	3018      	adds	r0, #24
 800409a:	b102      	cbz	r2, 800409e <_ZN4CLCD15SetTransparencyEh+0x8>
 800409c:	2201      	movs	r2, #1
 800409e:	f7fd bf14 	b.w	8001eca <HAL_LTDC_SetAlpha>

080040a2 <_ZN4CLCD14SetCursor2DrawEtt>:
 80040a2:	f240 13df 	movw	r3, #479	; 0x1df
 80040a6:	4299      	cmp	r1, r3
 80040a8:	bf28      	it	cs
 80040aa:	4619      	movcs	r1, r3
 80040ac:	f240 130f 	movw	r3, #271	; 0x10f
 80040b0:	429a      	cmp	r2, r3
 80040b2:	bf28      	it	cs
 80040b4:	461a      	movcs	r2, r3
 80040b6:	f44f 73f0 	mov.w	r3, #480	; 0x1e0
 80040ba:	81c1      	strh	r1, [r0, #14]
 80040bc:	8202      	strh	r2, [r0, #16]
 80040be:	fb03 1202 	mla	r2, r3, r2, r1
 80040c2:	6801      	ldr	r1, [r0, #0]
 80040c4:	eb01 0242 	add.w	r2, r1, r2, lsl #1
 80040c8:	6142      	str	r2, [r0, #20]
 80040ca:	4770      	bx	lr

080040cc <_ZN4CLCD9DrawPixelEt>:
 80040cc:	6943      	ldr	r3, [r0, #20]
 80040ce:	8019      	strh	r1, [r3, #0]
 80040d0:	7b03      	ldrb	r3, [r0, #12]
 80040d2:	2b01      	cmp	r3, #1
 80040d4:	d10f      	bne.n	80040f6 <_ZN4CLCD9DrawPixelEt+0x2a>
 80040d6:	89c3      	ldrh	r3, [r0, #14]
 80040d8:	3301      	adds	r3, #1
 80040da:	b29b      	uxth	r3, r3
 80040dc:	f5b3 7ff0 	cmp.w	r3, #480	; 0x1e0
 80040e0:	d319      	bcc.n	8004116 <_ZN4CLCD9DrawPixelEt+0x4a>
 80040e2:	8a03      	ldrh	r3, [r0, #16]
 80040e4:	3301      	adds	r3, #1
 80040e6:	b29b      	uxth	r3, r3
 80040e8:	2200      	movs	r2, #0
 80040ea:	f5b3 7f88 	cmp.w	r3, #272	; 0x110
 80040ee:	81c2      	strh	r2, [r0, #14]
 80040f0:	d307      	bcc.n	8004102 <_ZN4CLCD9DrawPixelEt+0x36>
 80040f2:	8202      	strh	r2, [r0, #16]
 80040f4:	e012      	b.n	800411c <_ZN4CLCD9DrawPixelEt+0x50>
 80040f6:	8a03      	ldrh	r3, [r0, #16]
 80040f8:	3301      	adds	r3, #1
 80040fa:	b29b      	uxth	r3, r3
 80040fc:	f5b3 7f88 	cmp.w	r3, #272	; 0x110
 8004100:	d201      	bcs.n	8004106 <_ZN4CLCD9DrawPixelEt+0x3a>
 8004102:	8203      	strh	r3, [r0, #16]
 8004104:	e00a      	b.n	800411c <_ZN4CLCD9DrawPixelEt+0x50>
 8004106:	89c3      	ldrh	r3, [r0, #14]
 8004108:	3301      	adds	r3, #1
 800410a:	b29b      	uxth	r3, r3
 800410c:	2200      	movs	r2, #0
 800410e:	f5b3 7ff0 	cmp.w	r3, #480	; 0x1e0
 8004112:	8202      	strh	r2, [r0, #16]
 8004114:	d201      	bcs.n	800411a <_ZN4CLCD9DrawPixelEt+0x4e>
 8004116:	81c3      	strh	r3, [r0, #14]
 8004118:	e000      	b.n	800411c <_ZN4CLCD9DrawPixelEt+0x50>
 800411a:	81c2      	strh	r2, [r0, #14]
 800411c:	89c3      	ldrh	r3, [r0, #14]
 800411e:	8a01      	ldrh	r1, [r0, #16]
 8004120:	f44f 72f0 	mov.w	r2, #480	; 0x1e0
 8004124:	fb02 3201 	mla	r2, r2, r1, r3
 8004128:	6803      	ldr	r3, [r0, #0]
 800412a:	eb03 0342 	add.w	r3, r3, r2, lsl #1
 800412e:	6143      	str	r3, [r0, #20]
 8004130:	4770      	bx	lr

08004132 <_ZN4CLCD9DrawPixelEiihhh>:
 8004132:	b570      	push	{r4, r5, r6, lr}
 8004134:	f89d 4010 	ldrb.w	r4, [sp, #16]
 8004138:	f89d 6014 	ldrb.w	r6, [sp, #20]
 800413c:	10a4      	asrs	r4, r4, #2
 800413e:	0164      	lsls	r4, r4, #5
 8004140:	ea44 04d6 	orr.w	r4, r4, r6, lsr #3
 8004144:	08db      	lsrs	r3, r3, #3
 8004146:	4605      	mov	r5, r0
 8004148:	ea44 24c3 	orr.w	r4, r4, r3, lsl #11
 800414c:	b289      	uxth	r1, r1
 800414e:	b292      	uxth	r2, r2
 8004150:	f7ff ffa7 	bl	80040a2 <_ZN4CLCD14SetCursor2DrawEtt>
 8004154:	4628      	mov	r0, r5
 8004156:	4621      	mov	r1, r4
 8004158:	e8bd 4070 	ldmia.w	sp!, {r4, r5, r6, lr}
 800415c:	f7ff bfb6 	b.w	80040cc <_ZN4CLCD9DrawPixelEt>

08004160 <_ZN4CLCD7RefreshEv>:
 8004160:	b538      	push	{r3, r4, r5, lr}
 8004162:	6845      	ldr	r5, [r0, #4]
 8004164:	4604      	mov	r4, r0
 8004166:	b93d      	cbnz	r5, 8004178 <_ZN4CLCD7RefreshEv+0x18>
 8004168:	f7ff ff85 	bl	8004076 <_ZN4CLCD10SetLayer_2Ev>
 800416c:	4620      	mov	r0, r4
 800416e:	4629      	mov	r1, r5
 8004170:	e8bd 4038 	ldmia.w	sp!, {r3, r4, r5, lr}
 8004174:	f7ff bf8f 	b.w	8004096 <_ZN4CLCD15SetTransparencyEh>
 8004178:	21ff      	movs	r1, #255	; 0xff
 800417a:	f7ff ff8c 	bl	8004096 <_ZN4CLCD15SetTransparencyEh>
 800417e:	f8d4 30c0 	ldr.w	r3, [r4, #192]	; 0xc0
 8004182:	6023      	str	r3, [r4, #0]
 8004184:	2300      	movs	r3, #0
 8004186:	6063      	str	r3, [r4, #4]
 8004188:	bd38      	pop	{r3, r4, r5, pc}
 800418a:	0000      	movs	r0, r0

0800418c <_ZN4CLCD23lcd_480x272_ClockConfigEv>:
 800418c:	4805      	ldr	r0, [pc, #20]	; (80041a4 <_ZN4CLCD23lcd_480x272_ClockConfigEv+0x18>)
 800418e:	2308      	movs	r3, #8
 8004190:	6003      	str	r3, [r0, #0]
 8004192:	23c0      	movs	r3, #192	; 0xc0
 8004194:	6143      	str	r3, [r0, #20]
 8004196:	2305      	movs	r3, #5
 8004198:	61c3      	str	r3, [r0, #28]
 800419a:	f44f 3380 	mov.w	r3, #65536	; 0x10000
 800419e:	62c3      	str	r3, [r0, #44]	; 0x2c
 80041a0:	f7fc ba7a 	b.w	8000698 <HAL_RCCEx_PeriphCLKConfig>
 80041a4:	200009a8 	andcs	r0, r0, r8, lsr #19

080041a8 <_ZN4CLCD19lcd_480x272_MspInitEv>:
 80041a8:	b5f0      	push	{r4, r5, r6, r7, lr}
 80041aa:	b08f      	sub	sp, #60	; 0x3c
 80041ac:	4b4e      	ldr	r3, [pc, #312]	; (80042e8 <_ZN4CLCD19lcd_480x272_MspInitEv+0x140>)
 80041ae:	4e4f      	ldr	r6, [pc, #316]	; (80042ec <_ZN4CLCD19lcd_480x272_MspInitEv+0x144>)
 80041b0:	484f      	ldr	r0, [pc, #316]	; (80042f0 <_ZN4CLCD19lcd_480x272_MspInitEv+0x148>)
 80041b2:	2200      	movs	r2, #0
 80041b4:	9200      	str	r2, [sp, #0]
 80041b6:	6c59      	ldr	r1, [r3, #68]	; 0x44
 80041b8:	f041 6180 	orr.w	r1, r1, #67108864	; 0x4000000
 80041bc:	6459      	str	r1, [r3, #68]	; 0x44
 80041be:	6c59      	ldr	r1, [r3, #68]	; 0x44
 80041c0:	f001 6180 	and.w	r1, r1, #67108864	; 0x4000000
 80041c4:	9100      	str	r1, [sp, #0]
 80041c6:	9900      	ldr	r1, [sp, #0]
 80041c8:	9201      	str	r2, [sp, #4]
 80041ca:	6b19      	ldr	r1, [r3, #48]	; 0x30
 80041cc:	f441 0100 	orr.w	r1, r1, #8388608	; 0x800000
 80041d0:	6319      	str	r1, [r3, #48]	; 0x30
 80041d2:	6b19      	ldr	r1, [r3, #48]	; 0x30
 80041d4:	f401 0100 	and.w	r1, r1, #8388608	; 0x800000
 80041d8:	9101      	str	r1, [sp, #4]
 80041da:	9901      	ldr	r1, [sp, #4]
 80041dc:	9202      	str	r2, [sp, #8]
 80041de:	6b19      	ldr	r1, [r3, #48]	; 0x30
 80041e0:	f041 0110 	orr.w	r1, r1, #16
 80041e4:	6319      	str	r1, [r3, #48]	; 0x30
 80041e6:	6b19      	ldr	r1, [r3, #48]	; 0x30
 80041e8:	f001 0110 	and.w	r1, r1, #16
 80041ec:	9102      	str	r1, [sp, #8]
 80041ee:	9902      	ldr	r1, [sp, #8]
 80041f0:	9203      	str	r2, [sp, #12]
 80041f2:	6b19      	ldr	r1, [r3, #48]	; 0x30
 80041f4:	f041 0140 	orr.w	r1, r1, #64	; 0x40
 80041f8:	6319      	str	r1, [r3, #48]	; 0x30
 80041fa:	6b19      	ldr	r1, [r3, #48]	; 0x30
 80041fc:	f001 0140 	and.w	r1, r1, #64	; 0x40
 8004200:	9103      	str	r1, [sp, #12]
 8004202:	9903      	ldr	r1, [sp, #12]
 8004204:	9204      	str	r2, [sp, #16]
 8004206:	6b19      	ldr	r1, [r3, #48]	; 0x30
 8004208:	f441 7180 	orr.w	r1, r1, #256	; 0x100
 800420c:	6319      	str	r1, [r3, #48]	; 0x30
 800420e:	6b19      	ldr	r1, [r3, #48]	; 0x30
 8004210:	f401 7180 	and.w	r1, r1, #256	; 0x100
 8004214:	9104      	str	r1, [sp, #16]
 8004216:	9904      	ldr	r1, [sp, #16]
 8004218:	9205      	str	r2, [sp, #20]
 800421a:	6b19      	ldr	r1, [r3, #48]	; 0x30
 800421c:	f441 7100 	orr.w	r1, r1, #512	; 0x200
 8004220:	6319      	str	r1, [r3, #48]	; 0x30
 8004222:	6b19      	ldr	r1, [r3, #48]	; 0x30
 8004224:	f401 7100 	and.w	r1, r1, #512	; 0x200
 8004228:	9105      	str	r1, [sp, #20]
 800422a:	9905      	ldr	r1, [sp, #20]
 800422c:	9206      	str	r2, [sp, #24]
 800422e:	6b19      	ldr	r1, [r3, #48]	; 0x30
 8004230:	f441 6180 	orr.w	r1, r1, #1024	; 0x400
 8004234:	6319      	str	r1, [r3, #48]	; 0x30
 8004236:	6b19      	ldr	r1, [r3, #48]	; 0x30
 8004238:	f401 6180 	and.w	r1, r1, #1024	; 0x400
 800423c:	9106      	str	r1, [sp, #24]
 800423e:	9906      	ldr	r1, [sp, #24]
 8004240:	9207      	str	r2, [sp, #28]
 8004242:	6b19      	ldr	r1, [r3, #48]	; 0x30
 8004244:	f441 7180 	orr.w	r1, r1, #256	; 0x100
 8004248:	6319      	str	r1, [r3, #48]	; 0x30
 800424a:	6b19      	ldr	r1, [r3, #48]	; 0x30
 800424c:	f401 7180 	and.w	r1, r1, #256	; 0x100
 8004250:	9107      	str	r1, [sp, #28]
 8004252:	9907      	ldr	r1, [sp, #28]
 8004254:	9208      	str	r2, [sp, #32]
 8004256:	6b19      	ldr	r1, [r3, #48]	; 0x30
 8004258:	f441 6180 	orr.w	r1, r1, #1024	; 0x400
 800425c:	6319      	str	r1, [r3, #48]	; 0x30
 800425e:	6b1b      	ldr	r3, [r3, #48]	; 0x30
 8004260:	920b      	str	r2, [sp, #44]	; 0x2c
 8004262:	f403 6380 	and.w	r3, r3, #1024	; 0x400
 8004266:	9308      	str	r3, [sp, #32]
 8004268:	2402      	movs	r4, #2
 800426a:	250e      	movs	r5, #14
 800426c:	9b08      	ldr	r3, [sp, #32]
 800426e:	940a      	str	r4, [sp, #40]	; 0x28
 8004270:	2310      	movs	r3, #16
 8004272:	a909      	add	r1, sp, #36	; 0x24
 8004274:	9309      	str	r3, [sp, #36]	; 0x24
 8004276:	940c      	str	r4, [sp, #48]	; 0x30
 8004278:	950d      	str	r5, [sp, #52]	; 0x34
 800427a:	f44f 5780 	mov.w	r7, #4096	; 0x1000
 800427e:	f7fe f83f 	bl	8002300 <HAL_GPIO_Init>
 8004282:	2309      	movs	r3, #9
 8004284:	a909      	add	r1, sp, #36	; 0x24
 8004286:	481b      	ldr	r0, [pc, #108]	; (80042f4 <_ZN4CLCD19lcd_480x272_MspInitEv+0x14c>)
 8004288:	940a      	str	r4, [sp, #40]	; 0x28
 800428a:	930d      	str	r3, [sp, #52]	; 0x34
 800428c:	9709      	str	r7, [sp, #36]	; 0x24
 800428e:	f7fe f837 	bl	8002300 <HAL_GPIO_Init>
 8004292:	f44f 4367 	mov.w	r3, #59136	; 0xe700
 8004296:	4630      	mov	r0, r6
 8004298:	a909      	add	r1, sp, #36	; 0x24
 800429a:	9309      	str	r3, [sp, #36]	; 0x24
 800429c:	940a      	str	r4, [sp, #40]	; 0x28
 800429e:	950d      	str	r5, [sp, #52]	; 0x34
 80042a0:	f7fe f82e 	bl	8002300 <HAL_GPIO_Init>
 80042a4:	f64e 73ff 	movw	r3, #61439	; 0xefff
 80042a8:	a909      	add	r1, sp, #36	; 0x24
 80042aa:	4813      	ldr	r0, [pc, #76]	; (80042f8 <_ZN4CLCD19lcd_480x272_MspInitEv+0x150>)
 80042ac:	9309      	str	r3, [sp, #36]	; 0x24
 80042ae:	940a      	str	r4, [sp, #40]	; 0x28
 80042b0:	950d      	str	r5, [sp, #52]	; 0x34
 80042b2:	f7fe f825 	bl	8002300 <HAL_GPIO_Init>
 80042b6:	940a      	str	r4, [sp, #40]	; 0x28
 80042b8:	4c10      	ldr	r4, [pc, #64]	; (80042fc <_ZN4CLCD19lcd_480x272_MspInitEv+0x154>)
 80042ba:	950d      	str	r5, [sp, #52]	; 0x34
 80042bc:	23f7      	movs	r3, #247	; 0xf7
 80042be:	4620      	mov	r0, r4
 80042c0:	a909      	add	r1, sp, #36	; 0x24
 80042c2:	9309      	str	r3, [sp, #36]	; 0x24
 80042c4:	2501      	movs	r5, #1
 80042c6:	f7fe f81b 	bl	8002300 <HAL_GPIO_Init>
 80042ca:	4630      	mov	r0, r6
 80042cc:	a909      	add	r1, sp, #36	; 0x24
 80042ce:	9709      	str	r7, [sp, #36]	; 0x24
 80042d0:	950a      	str	r5, [sp, #40]	; 0x28
 80042d2:	f7fe f815 	bl	8002300 <HAL_GPIO_Init>
 80042d6:	2308      	movs	r3, #8
 80042d8:	4620      	mov	r0, r4
 80042da:	a909      	add	r1, sp, #36	; 0x24
 80042dc:	9309      	str	r3, [sp, #36]	; 0x24
 80042de:	950a      	str	r5, [sp, #40]	; 0x28
 80042e0:	f7fe f80e 	bl	8002300 <HAL_GPIO_Init>
 80042e4:	b00f      	add	sp, #60	; 0x3c
 80042e6:	bdf0      	pop	{r4, r5, r6, r7, pc}
 80042e8:	40023800 	andmi	r3, r2, r0, lsl #16
 80042ec:	40022000 	andmi	r2, r2, r0
 80042f0:	40021000 	andmi	r1, r2, r0
 80042f4:	40021800 	andmi	r1, r2, r0, lsl #16
 80042f8:	40022400 	andmi	r2, r2, r0, lsl #8
 80042fc:	40022800 	andmi	r2, r2, r0, lsl #16

08004300 <_ZN4CLCD16lcd_480x272_initEv>:
 8004300:	b538      	push	{r3, r4, r5, lr}
 8004302:	2328      	movs	r3, #40	; 0x28
 8004304:	62c3      	str	r3, [r0, #44]	; 0x2c
 8004306:	2309      	movs	r3, #9
 8004308:	6303      	str	r3, [r0, #48]	; 0x30
 800430a:	2335      	movs	r3, #53	; 0x35
 800430c:	6343      	str	r3, [r0, #52]	; 0x34
 800430e:	230b      	movs	r3, #11
 8004310:	6383      	str	r3, [r0, #56]	; 0x38
 8004312:	f240 131b 	movw	r3, #283	; 0x11b
 8004316:	6403      	str	r3, [r0, #64]	; 0x40
 8004318:	f240 2315 	movw	r3, #533	; 0x215
 800431c:	63c3      	str	r3, [r0, #60]	; 0x3c
 800431e:	f240 131d 	movw	r3, #285	; 0x11d
 8004322:	6483      	str	r3, [r0, #72]	; 0x48
 8004324:	f240 2335 	movw	r3, #565	; 0x235
 8004328:	4604      	mov	r4, r0
 800432a:	6443      	str	r3, [r0, #68]	; 0x44
 800432c:	f7ff ff2e 	bl	800418c <_ZN4CLCD23lcd_480x272_ClockConfigEv>
 8004330:	f44f 73f0 	mov.w	r3, #480	; 0x1e0
 8004334:	67a3      	str	r3, [r4, #120]	; 0x78
 8004336:	f44f 7388 	mov.w	r3, #272	; 0x110
 800433a:	67e3      	str	r3, [r4, #124]	; 0x7c
 800433c:	4625      	mov	r5, r4
 800433e:	2300      	movs	r3, #0
 8004340:	f884 304c 	strb.w	r3, [r4, #76]	; 0x4c
 8004344:	f884 304d 	strb.w	r3, [r4, #77]	; 0x4d
 8004348:	f884 304e 	strb.w	r3, [r4, #78]	; 0x4e
 800434c:	61e3      	str	r3, [r4, #28]
 800434e:	6223      	str	r3, [r4, #32]
 8004350:	6263      	str	r3, [r4, #36]	; 0x24
 8004352:	62a3      	str	r3, [r4, #40]	; 0x28
 8004354:	4b0c      	ldr	r3, [pc, #48]	; (8004388 <_ZN4CLCD16lcd_480x272_initEv+0x88>)
 8004356:	f845 3f18 	str.w	r3, [r5, #24]!
 800435a:	4628      	mov	r0, r5
 800435c:	f7fd fdd5 	bl	8001f0a <HAL_LTDC_GetState>
 8004360:	b910      	cbnz	r0, 8004368 <_ZN4CLCD16lcd_480x272_initEv+0x68>
 8004362:	4620      	mov	r0, r4
 8004364:	f7ff ff20 	bl	80041a8 <_ZN4CLCD19lcd_480x272_MspInitEv>
 8004368:	4628      	mov	r0, r5
 800436a:	f7fd fd11 	bl	8001d90 <HAL_LTDC_Init>
 800436e:	4807      	ldr	r0, [pc, #28]	; (800438c <_ZN4CLCD16lcd_480x272_initEv+0x8c>)
 8004370:	f44f 5180 	mov.w	r1, #4096	; 0x1000
 8004374:	2201      	movs	r2, #1
 8004376:	f7fe f8b3 	bl	80024e0 <HAL_GPIO_WritePin>
 800437a:	4805      	ldr	r0, [pc, #20]	; (8004390 <_ZN4CLCD16lcd_480x272_initEv+0x90>)
 800437c:	2108      	movs	r1, #8
 800437e:	2201      	movs	r2, #1
 8004380:	e8bd 4038 	ldmia.w	sp!, {r3, r4, r5, lr}
 8004384:	f7fe b8ac 	b.w	80024e0 <HAL_GPIO_WritePin>
 8004388:	40016800 	andmi	r6, r1, r0, lsl #16
 800438c:	40022000 	andmi	r2, r2, r0
 8004390:	40022800 	andmi	r2, r2, r0, lsl #16

08004394 <_ZN4CLCD4initEPm>:
 8004394:	b538      	push	{r3, r4, r5, lr}
 8004396:	4604      	mov	r4, r0
 8004398:	2301      	movs	r3, #1
 800439a:	f8c0 10c0 	str.w	r1, [r0, #192]	; 0xc0
 800439e:	7303      	strb	r3, [r0, #12]
 80043a0:	f7ff ffae 	bl	8004300 <_ZN4CLCD16lcd_480x272_initEv>
 80043a4:	f8d4 30c0 	ldr.w	r3, [r4, #192]	; 0xc0
 80043a8:	2500      	movs	r5, #0
 80043aa:	e884 0028 	stmia.w	r4, {r3, r5}
 80043ae:	4620      	mov	r0, r4
 80043b0:	81e5      	strh	r5, [r4, #14]
 80043b2:	8225      	strh	r5, [r4, #16]
 80043b4:	6165      	str	r5, [r4, #20]
 80043b6:	60a5      	str	r5, [r4, #8]
 80043b8:	f7ff fe0c 	bl	8003fd4 <_ZN4CLCD20LayerInit_FullscreenEv>
 80043bc:	f8d4 30c0 	ldr.w	r3, [r4, #192]	; 0xc0
 80043c0:	4629      	mov	r1, r5
 80043c2:	e884 0028 	stmia.w	r4, {r3, r5}
 80043c6:	4620      	mov	r0, r4
 80043c8:	f7ff fe5d 	bl	8004086 <_ZN4CLCD9FillLayerEt>
 80043cc:	4620      	mov	r0, r4
 80043ce:	f7ff fe52 	bl	8004076 <_ZN4CLCD10SetLayer_2Ev>
 80043d2:	4620      	mov	r0, r4
 80043d4:	4629      	mov	r1, r5
 80043d6:	f7ff fe56 	bl	8004086 <_ZN4CLCD9FillLayerEt>
 80043da:	f8d4 30c0 	ldr.w	r3, [r4, #192]	; 0xc0
 80043de:	e884 0028 	stmia.w	r4, {r3, r5}
 80043e2:	bd38      	pop	{r3, r4, r5, pc}

080043e4 <_GLOBAL__sub_I_lcd>:
 80043e4:	4802      	ldr	r0, [pc, #8]	; (80043f0 <_GLOBAL__sub_I_lcd+0xc>)
 80043e6:	4903      	ldr	r1, [pc, #12]	; (80043f4 <_GLOBAL__sub_I_lcd+0x10>)
 80043e8:	4a03      	ldr	r2, [pc, #12]	; (80043f8 <_GLOBAL__sub_I_lcd+0x14>)
 80043ea:	f001 bb59 	b.w	8005aa0 <__aeabi_atexit>
 80043ee:	bf00      	nop
 80043f0:	20000a2c 	andcs	r0, r0, ip, lsr #20
 80043f4:	08003fc7 	stmdaeq	r0, {r0, r1, r2, r6, r7, r8, r9, sl, fp, ip, sp}
 80043f8:	20000000 	andcs	r0, r0, r0

080043fc <_ZN6CSDRamD1Ev>:
 80043fc:	4770      	bx	lr

080043fe <_ZN6CSDRam8allocateEj>:
 80043fe:	6e03      	ldr	r3, [r0, #96]	; 0x60
 8004400:	eb03 0181 	add.w	r1, r3, r1, lsl #2
 8004404:	6601      	str	r1, [r0, #96]	; 0x60
 8004406:	4618      	mov	r0, r3
 8004408:	4770      	bx	lr
 800440a:	0000      	movs	r0, r0

0800440c <_ZN6CSDRam27ram_initialization_sequenceEm>:
 800440c:	e92d 43f7 	stmdb	sp!, {r0, r1, r2, r4, r5, r6, r7, r8, r9, lr}
 8004410:	2300      	movs	r3, #0
 8004412:	2201      	movs	r2, #1
 8004414:	f100 0650 	add.w	r6, r0, #80	; 0x50
 8004418:	4689      	mov	r9, r1
 800441a:	2110      	movs	r1, #16
 800441c:	6502      	str	r2, [r0, #80]	; 0x50
 800441e:	6541      	str	r1, [r0, #84]	; 0x54
 8004420:	6582      	str	r2, [r0, #88]	; 0x58
 8004422:	65c3      	str	r3, [r0, #92]	; 0x5c
 8004424:	4631      	mov	r1, r6
 8004426:	f64f 72ff 	movw	r2, #65535	; 0xffff
 800442a:	4604      	mov	r4, r0
 800442c:	9301      	str	r3, [sp, #4]
 800442e:	f7fc f90a 	bl	8000646 <HAL_SDRAM_SendCommand>
 8004432:	4d1b      	ldr	r5, [pc, #108]	; (80044a0 <_ZN6CSDRam27ram_initialization_sequenceEm+0x94>)
 8004434:	3d01      	subs	r5, #1
 8004436:	d001      	beq.n	800443c <_ZN6CSDRam27ram_initialization_sequenceEm+0x30>
 8004438:	bf00      	nop
 800443a:	e7fb      	b.n	8004434 <_ZN6CSDRam27ram_initialization_sequenceEm+0x28>
 800443c:	2710      	movs	r7, #16
 800443e:	2302      	movs	r3, #2
 8004440:	f04f 0801 	mov.w	r8, #1
 8004444:	6523      	str	r3, [r4, #80]	; 0x50
 8004446:	4631      	mov	r1, r6
 8004448:	6567      	str	r7, [r4, #84]	; 0x54
 800444a:	f8c4 8058 	str.w	r8, [r4, #88]	; 0x58
 800444e:	65e5      	str	r5, [r4, #92]	; 0x5c
 8004450:	4620      	mov	r0, r4
 8004452:	f64f 72ff 	movw	r2, #65535	; 0xffff
 8004456:	f7fc f8f6 	bl	8000646 <HAL_SDRAM_SendCommand>
 800445a:	2303      	movs	r3, #3
 800445c:	6523      	str	r3, [r4, #80]	; 0x50
 800445e:	2308      	movs	r3, #8
 8004460:	65a3      	str	r3, [r4, #88]	; 0x58
 8004462:	4631      	mov	r1, r6
 8004464:	6567      	str	r7, [r4, #84]	; 0x54
 8004466:	65e5      	str	r5, [r4, #92]	; 0x5c
 8004468:	4620      	mov	r0, r4
 800446a:	f64f 72ff 	movw	r2, #65535	; 0xffff
 800446e:	f7fc f8ea 	bl	8000646 <HAL_SDRAM_SendCommand>
 8004472:	f44f 7308 	mov.w	r3, #544	; 0x220
 8004476:	9301      	str	r3, [sp, #4]
 8004478:	2304      	movs	r3, #4
 800447a:	6523      	str	r3, [r4, #80]	; 0x50
 800447c:	9b01      	ldr	r3, [sp, #4]
 800447e:	65e3      	str	r3, [r4, #92]	; 0x5c
 8004480:	4631      	mov	r1, r6
 8004482:	f64f 72ff 	movw	r2, #65535	; 0xffff
 8004486:	6567      	str	r7, [r4, #84]	; 0x54
 8004488:	f8c4 8058 	str.w	r8, [r4, #88]	; 0x58
 800448c:	4620      	mov	r0, r4
 800448e:	f7fc f8da 	bl	8000646 <HAL_SDRAM_SendCommand>
 8004492:	4620      	mov	r0, r4
 8004494:	4649      	mov	r1, r9
 8004496:	f7fc f8ed 	bl	8000674 <HAL_SDRAM_ProgramRefreshRate>
 800449a:	b003      	add	sp, #12
 800449c:	e8bd 83f0 	ldmia.w	sp!, {r4, r5, r6, r7, r8, r9, pc}
 80044a0:	00034bc1 	andeq	r4, r3, r1, asr #23

080044a4 <_ZN6CSDRam8msp_initEv>:
 80044a4:	b510      	push	{r4, lr}
 80044a6:	b08c      	sub	sp, #48	; 0x30
 80044a8:	4b3d      	ldr	r3, [pc, #244]	; (80045a0 <_ZN6CSDRam8msp_initEv+0xfc>)
 80044aa:	483e      	ldr	r0, [pc, #248]	; (80045a4 <_ZN6CSDRam8msp_initEv+0x100>)
 80044ac:	2200      	movs	r2, #0
 80044ae:	9200      	str	r2, [sp, #0]
 80044b0:	6b99      	ldr	r1, [r3, #56]	; 0x38
 80044b2:	f041 0101 	orr.w	r1, r1, #1
 80044b6:	6399      	str	r1, [r3, #56]	; 0x38
 80044b8:	6b99      	ldr	r1, [r3, #56]	; 0x38
 80044ba:	f001 0101 	and.w	r1, r1, #1
 80044be:	9100      	str	r1, [sp, #0]
 80044c0:	9900      	ldr	r1, [sp, #0]
 80044c2:	9201      	str	r2, [sp, #4]
 80044c4:	6b19      	ldr	r1, [r3, #48]	; 0x30
 80044c6:	f041 0104 	orr.w	r1, r1, #4
 80044ca:	6319      	str	r1, [r3, #48]	; 0x30
 80044cc:	6b19      	ldr	r1, [r3, #48]	; 0x30
 80044ce:	f001 0104 	and.w	r1, r1, #4
 80044d2:	9101      	str	r1, [sp, #4]
 80044d4:	9901      	ldr	r1, [sp, #4]
 80044d6:	9202      	str	r2, [sp, #8]
 80044d8:	6b19      	ldr	r1, [r3, #48]	; 0x30
 80044da:	f041 0108 	orr.w	r1, r1, #8
 80044de:	6319      	str	r1, [r3, #48]	; 0x30
 80044e0:	6b19      	ldr	r1, [r3, #48]	; 0x30
 80044e2:	f001 0108 	and.w	r1, r1, #8
 80044e6:	9102      	str	r1, [sp, #8]
 80044e8:	9902      	ldr	r1, [sp, #8]
 80044ea:	9203      	str	r2, [sp, #12]
 80044ec:	6b19      	ldr	r1, [r3, #48]	; 0x30
 80044ee:	f041 0110 	orr.w	r1, r1, #16
 80044f2:	6319      	str	r1, [r3, #48]	; 0x30
 80044f4:	6b19      	ldr	r1, [r3, #48]	; 0x30
 80044f6:	f001 0110 	and.w	r1, r1, #16
 80044fa:	9103      	str	r1, [sp, #12]
 80044fc:	9903      	ldr	r1, [sp, #12]
 80044fe:	9204      	str	r2, [sp, #16]
 8004500:	6b19      	ldr	r1, [r3, #48]	; 0x30
 8004502:	f041 0120 	orr.w	r1, r1, #32
 8004506:	6319      	str	r1, [r3, #48]	; 0x30
 8004508:	6b19      	ldr	r1, [r3, #48]	; 0x30
 800450a:	f001 0120 	and.w	r1, r1, #32
 800450e:	9104      	str	r1, [sp, #16]
 8004510:	9904      	ldr	r1, [sp, #16]
 8004512:	9205      	str	r2, [sp, #20]
 8004514:	6b19      	ldr	r1, [r3, #48]	; 0x30
 8004516:	f041 0140 	orr.w	r1, r1, #64	; 0x40
 800451a:	6319      	str	r1, [r3, #48]	; 0x30
 800451c:	6b19      	ldr	r1, [r3, #48]	; 0x30
 800451e:	f001 0140 	and.w	r1, r1, #64	; 0x40
 8004522:	9105      	str	r1, [sp, #20]
 8004524:	9905      	ldr	r1, [sp, #20]
 8004526:	9206      	str	r2, [sp, #24]
 8004528:	6b1a      	ldr	r2, [r3, #48]	; 0x30
 800452a:	f042 0280 	orr.w	r2, r2, #128	; 0x80
 800452e:	631a      	str	r2, [r3, #48]	; 0x30
 8004530:	6b1b      	ldr	r3, [r3, #48]	; 0x30
 8004532:	f003 0380 	and.w	r3, r3, #128	; 0x80
 8004536:	9306      	str	r3, [sp, #24]
 8004538:	9b06      	ldr	r3, [sp, #24]
 800453a:	2302      	movs	r3, #2
 800453c:	ac0c      	add	r4, sp, #48	; 0x30
 800453e:	9308      	str	r3, [sp, #32]
 8004540:	930a      	str	r3, [sp, #40]	; 0x28
 8004542:	230c      	movs	r3, #12
 8004544:	930b      	str	r3, [sp, #44]	; 0x2c
 8004546:	2308      	movs	r3, #8
 8004548:	f844 3d14 	str.w	r3, [r4, #-20]!
 800454c:	2201      	movs	r2, #1
 800454e:	4621      	mov	r1, r4
 8004550:	9209      	str	r2, [sp, #36]	; 0x24
 8004552:	f7fd fed5 	bl	8002300 <HAL_GPIO_Init>
 8004556:	f24c 730b 	movw	r3, #50955	; 0xc70b
 800455a:	4621      	mov	r1, r4
 800455c:	4812      	ldr	r0, [pc, #72]	; (80045a8 <_ZN6CSDRam8msp_initEv+0x104>)
 800455e:	9307      	str	r3, [sp, #28]
 8004560:	f7fd fece 	bl	8002300 <HAL_GPIO_Init>
 8004564:	f64f 7383 	movw	r3, #65411	; 0xff83
 8004568:	4621      	mov	r1, r4
 800456a:	4810      	ldr	r0, [pc, #64]	; (80045ac <_ZN6CSDRam8msp_initEv+0x108>)
 800456c:	9307      	str	r3, [sp, #28]
 800456e:	f7fd fec7 	bl	8002300 <HAL_GPIO_Init>
 8004572:	f64f 033f 	movw	r3, #63551	; 0xf83f
 8004576:	4621      	mov	r1, r4
 8004578:	480d      	ldr	r0, [pc, #52]	; (80045b0 <_ZN6CSDRam8msp_initEv+0x10c>)
 800457a:	9307      	str	r3, [sp, #28]
 800457c:	f7fd fec0 	bl	8002300 <HAL_GPIO_Init>
 8004580:	f248 1333 	movw	r3, #33075	; 0x8133
 8004584:	4621      	mov	r1, r4
 8004586:	480b      	ldr	r0, [pc, #44]	; (80045b4 <_ZN6CSDRam8msp_initEv+0x110>)
 8004588:	9307      	str	r3, [sp, #28]
 800458a:	f7fd feb9 	bl	8002300 <HAL_GPIO_Init>
 800458e:	2328      	movs	r3, #40	; 0x28
 8004590:	4809      	ldr	r0, [pc, #36]	; (80045b8 <_ZN6CSDRam8msp_initEv+0x114>)
 8004592:	9307      	str	r3, [sp, #28]
 8004594:	4621      	mov	r1, r4
 8004596:	f7fd feb3 	bl	8002300 <HAL_GPIO_Init>
 800459a:	b00c      	add	sp, #48	; 0x30
 800459c:	bd10      	pop	{r4, pc}
 800459e:	bf00      	nop
 80045a0:	40023800 	andmi	r3, r2, r0, lsl #16
 80045a4:	40020800 	andmi	r0, r2, r0, lsl #16
 80045a8:	40020c00 	andmi	r0, r2, r0, lsl #24
 80045ac:	40021000 	andmi	r1, r2, r0
 80045b0:	40021400 	andmi	r1, r2, r0, lsl #8
 80045b4:	40021800 	andmi	r1, r2, r0, lsl #16
 80045b8:	40021c00 	andmi	r1, r2, r0, lsl #24

080045bc <_ZN6CSDRam8ram_initEv>:
 80045bc:	2204      	movs	r2, #4
 80045be:	b510      	push	{r4, lr}
 80045c0:	63c2      	str	r2, [r0, #60]	; 0x3c
 80045c2:	60c2      	str	r2, [r0, #12]
 80045c4:	2210      	movs	r2, #16
 80045c6:	6102      	str	r2, [r0, #16]
 80045c8:	2240      	movs	r2, #64	; 0x40
 80045ca:	6142      	str	r2, [r0, #20]
 80045cc:	4b13      	ldr	r3, [pc, #76]	; (800461c <_ZN6CSDRam8ram_initEv+0x60>)
 80045ce:	6003      	str	r3, [r0, #0]
 80045d0:	f44f 7280 	mov.w	r2, #256	; 0x100
 80045d4:	2302      	movs	r3, #2
 80045d6:	6182      	str	r2, [r0, #24]
 80045d8:	f44f 6200 	mov.w	r2, #2048	; 0x800
 80045dc:	2107      	movs	r1, #7
 80045de:	6343      	str	r3, [r0, #52]	; 0x34
 80045e0:	6443      	str	r3, [r0, #68]	; 0x44
 80045e2:	6483      	str	r3, [r0, #72]	; 0x48
 80045e4:	64c3      	str	r3, [r0, #76]	; 0x4c
 80045e6:	6202      	str	r2, [r0, #32]
 80045e8:	2300      	movs	r3, #0
 80045ea:	f44f 5280 	mov.w	r2, #4096	; 0x1000
 80045ee:	4604      	mov	r4, r0
 80045f0:	6381      	str	r1, [r0, #56]	; 0x38
 80045f2:	6401      	str	r1, [r0, #64]	; 0x40
 80045f4:	6043      	str	r3, [r0, #4]
 80045f6:	6083      	str	r3, [r0, #8]
 80045f8:	61c3      	str	r3, [r0, #28]
 80045fa:	6242      	str	r2, [r0, #36]	; 0x24
 80045fc:	6283      	str	r3, [r0, #40]	; 0x28
 80045fe:	f7ff ff51 	bl	80044a4 <_ZN6CSDRam8msp_initEv>
 8004602:	f104 0134 	add.w	r1, r4, #52	; 0x34
 8004606:	4620      	mov	r0, r4
 8004608:	f7fb fffd 	bl	8000606 <HAL_SDRAM_Init>
 800460c:	4620      	mov	r0, r4
 800460e:	f240 6103 	movw	r1, #1539	; 0x603
 8004612:	e8bd 4010 	ldmia.w	sp!, {r4, lr}
 8004616:	f7ff bef9 	b.w	800440c <_ZN6CSDRam27ram_initialization_sequenceEm>
 800461a:	bf00      	nop
 800461c:	a0000140 	andge	r0, r0, r0, asr #2

08004620 <_ZN6CSDRam4initEb>:
 8004620:	b538      	push	{r3, r4, r5, lr}
 8004622:	460d      	mov	r5, r1
 8004624:	4604      	mov	r4, r0
 8004626:	f7ff ffc9 	bl	80045bc <_ZN6CSDRam8ram_initEv>
 800462a:	4816      	ldr	r0, [pc, #88]	; (8004684 <_ZN6CSDRam4initEb+0x64>)
 800462c:	b1c5      	cbz	r5, 8004660 <_ZN6CSDRam4initEb+0x40>
 800462e:	4b16      	ldr	r3, [pc, #88]	; (8004688 <_ZN6CSDRam4initEb+0x68>)
 8004630:	221b      	movs	r2, #27
 8004632:	4350      	muls	r0, r2
 8004634:	3037      	adds	r0, #55	; 0x37
 8004636:	f843 0f04 	str.w	r0, [r3, #4]!
 800463a:	4a14      	ldr	r2, [pc, #80]	; (800468c <_ZN6CSDRam4initEb+0x6c>)
 800463c:	4293      	cmp	r3, r2
 800463e:	d1f7      	bne.n	8004630 <_ZN6CSDRam4initEb+0x10>
 8004640:	4b10      	ldr	r3, [pc, #64]	; (8004684 <_ZN6CSDRam4initEb+0x64>)
 8004642:	f04f 4240 	mov.w	r2, #3221225472	; 0xc0000000
 8004646:	2001      	movs	r0, #1
 8004648:	211b      	movs	r1, #27
 800464a:	434b      	muls	r3, r1
 800464c:	f852 1b04 	ldr.w	r1, [r2], #4
 8004650:	3337      	adds	r3, #55	; 0x37
 8004652:	428b      	cmp	r3, r1
 8004654:	bf18      	it	ne
 8004656:	2000      	movne	r0, #0
 8004658:	f112 5f7e 	cmn.w	r2, #1065353216	; 0x3f800000
 800465c:	d1f4      	bne.n	8004648 <_ZN6CSDRam4initEb+0x28>
 800465e:	e006      	b.n	800466e <_ZN6CSDRam4initEb+0x4e>
 8004660:	f04f 4340 	mov.w	r3, #3221225472	; 0xc0000000
 8004664:	6018      	str	r0, [r3, #0]
 8004666:	681b      	ldr	r3, [r3, #0]
 8004668:	1a1b      	subs	r3, r3, r0
 800466a:	4258      	negs	r0, r3
 800466c:	4158      	adcs	r0, r3
 800466e:	4b06      	ldr	r3, [pc, #24]	; (8004688 <_ZN6CSDRam4initEb+0x68>)
 8004670:	2200      	movs	r2, #0
 8004672:	f843 2f04 	str.w	r2, [r3, #4]!
 8004676:	4a05      	ldr	r2, [pc, #20]	; (800468c <_ZN6CSDRam4initEb+0x6c>)
 8004678:	4293      	cmp	r3, r2
 800467a:	d1f9      	bne.n	8004670 <_ZN6CSDRam4initEb+0x50>
 800467c:	f04f 4340 	mov.w	r3, #3221225472	; 0xc0000000
 8004680:	6623      	str	r3, [r4, #96]	; 0x60
 8004682:	bd38      	pop	{r3, r4, r5, pc}
 8004684:	cafe1234 	bgt	7f88f5c <_Min_Stack_Size+0x7f88b5c>
 8004688:	bffffffc 	svclt	0x00fffffc
 800468c:	c07ffffc 	ldrshtgt	pc, [pc], #-252	; <UNPREDICTABLE>

08004690 <_GLOBAL__sub_I_sdram>:
 8004690:	4802      	ldr	r0, [pc, #8]	; (800469c <_GLOBAL__sub_I_sdram+0xc>)
 8004692:	4903      	ldr	r1, [pc, #12]	; (80046a0 <_GLOBAL__sub_I_sdram+0x10>)
 8004694:	4a03      	ldr	r2, [pc, #12]	; (80046a4 <_GLOBAL__sub_I_sdram+0x14>)
 8004696:	f001 ba03 	b.w	8005aa0 <__aeabi_atexit>
 800469a:	bf00      	nop
 800469c:	20000af0 	strdcs	r0, [r0], -r0	; <UNPREDICTABLE>
 80046a0:	080043fd 	stmdaeq	r0, {r0, r2, r3, r4, r5, r6, r7, r8, r9, lr}
 80046a4:	20000000 	andcs	r0, r0, r0

080046a8 <_ZN4TI2CILh5ELh7ELh6ELj20ELh5EE5delayEv.isra.2>:
 80046a8:	2314      	movs	r3, #20
 80046aa:	bf00      	nop
 80046ac:	3b01      	subs	r3, #1
 80046ae:	f013 03ff 	ands.w	r3, r3, #255	; 0xff
 80046b2:	d1fa      	bne.n	80046aa <_ZN4TI2CILh5ELh7ELh6ELj20ELh5EE5delayEv.isra.2+0x2>
 80046b4:	4770      	bx	lr

080046b6 <_ZN8CVL53L0XC1Ev>:
 80046b6:	4770      	bx	lr

080046b8 <_ZN8CVL53L0XD1Ev>:
 80046b8:	4770      	bx	lr

080046ba <_ZN8CVL53L0X9laser_getEv>:
 80046ba:	6800      	ldr	r0, [r0, #0]
 80046bc:	4770      	bx	lr
 80046be:	0000      	movs	r0, r0

080046c0 <_ZN8CVL53L0X11getSPADinfoEPhPb>:
 80046c0:	b570      	push	{r4, r5, r6, lr}
 80046c2:	2400      	movs	r4, #0
 80046c4:	700c      	strb	r4, [r1, #0]
 80046c6:	4849      	ldr	r0, [pc, #292]	; (80047ec <_ZN8CVL53L0X11getSPADinfoEPhPb+0x12c>)
 80046c8:	2301      	movs	r3, #1
 80046ca:	460d      	mov	r5, r1
 80046cc:	4616      	mov	r6, r2
 80046ce:	2152      	movs	r1, #82	; 0x52
 80046d0:	2280      	movs	r2, #128	; 0x80
 80046d2:	f7fe f85d 	bl	8002790 <_ZN4TI2CILh5ELh7ELh6ELj20ELh5EE9write_regEhhh>
 80046d6:	4845      	ldr	r0, [pc, #276]	; (80047ec <_ZN8CVL53L0X11getSPADinfoEPhPb+0x12c>)
 80046d8:	2152      	movs	r1, #82	; 0x52
 80046da:	22ff      	movs	r2, #255	; 0xff
 80046dc:	2301      	movs	r3, #1
 80046de:	f7fe f857 	bl	8002790 <_ZN4TI2CILh5ELh7ELh6ELj20ELh5EE9write_regEhhh>
 80046e2:	4622      	mov	r2, r4
 80046e4:	4623      	mov	r3, r4
 80046e6:	4841      	ldr	r0, [pc, #260]	; (80047ec <_ZN8CVL53L0X11getSPADinfoEPhPb+0x12c>)
 80046e8:	2152      	movs	r1, #82	; 0x52
 80046ea:	f7fe f851 	bl	8002790 <_ZN4TI2CILh5ELh7ELh6ELj20ELh5EE9write_regEhhh>
 80046ee:	2306      	movs	r3, #6
 80046f0:	483e      	ldr	r0, [pc, #248]	; (80047ec <_ZN8CVL53L0X11getSPADinfoEPhPb+0x12c>)
 80046f2:	2152      	movs	r1, #82	; 0x52
 80046f4:	22ff      	movs	r2, #255	; 0xff
 80046f6:	f7fe f84b 	bl	8002790 <_ZN4TI2CILh5ELh7ELh6ELj20ELh5EE9write_regEhhh>
 80046fa:	2152      	movs	r1, #82	; 0x52
 80046fc:	2283      	movs	r2, #131	; 0x83
 80046fe:	483b      	ldr	r0, [pc, #236]	; (80047ec <_ZN8CVL53L0X11getSPADinfoEPhPb+0x12c>)
 8004700:	f7fe f8ab 	bl	800285a <_ZN4TI2CILh5ELh7ELh6ELj20ELh5EE8read_regEhh>
 8004704:	f040 0304 	orr.w	r3, r0, #4
 8004708:	2152      	movs	r1, #82	; 0x52
 800470a:	4838      	ldr	r0, [pc, #224]	; (80047ec <_ZN8CVL53L0X11getSPADinfoEPhPb+0x12c>)
 800470c:	2283      	movs	r2, #131	; 0x83
 800470e:	b2db      	uxtb	r3, r3
 8004710:	f7fe f83e 	bl	8002790 <_ZN4TI2CILh5ELh7ELh6ELj20ELh5EE9write_regEhhh>
 8004714:	4835      	ldr	r0, [pc, #212]	; (80047ec <_ZN8CVL53L0X11getSPADinfoEPhPb+0x12c>)
 8004716:	2152      	movs	r1, #82	; 0x52
 8004718:	22ff      	movs	r2, #255	; 0xff
 800471a:	2307      	movs	r3, #7
 800471c:	f7fe f838 	bl	8002790 <_ZN4TI2CILh5ELh7ELh6ELj20ELh5EE9write_regEhhh>
 8004720:	4832      	ldr	r0, [pc, #200]	; (80047ec <_ZN8CVL53L0X11getSPADinfoEPhPb+0x12c>)
 8004722:	2152      	movs	r1, #82	; 0x52
 8004724:	2281      	movs	r2, #129	; 0x81
 8004726:	2301      	movs	r3, #1
 8004728:	f7fe f832 	bl	8002790 <_ZN4TI2CILh5ELh7ELh6ELj20ELh5EE9write_regEhhh>
 800472c:	482f      	ldr	r0, [pc, #188]	; (80047ec <_ZN8CVL53L0X11getSPADinfoEPhPb+0x12c>)
 800472e:	2152      	movs	r1, #82	; 0x52
 8004730:	2280      	movs	r2, #128	; 0x80
 8004732:	2301      	movs	r3, #1
 8004734:	f7fe f82c 	bl	8002790 <_ZN4TI2CILh5ELh7ELh6ELj20ELh5EE9write_regEhhh>
 8004738:	482c      	ldr	r0, [pc, #176]	; (80047ec <_ZN8CVL53L0X11getSPADinfoEPhPb+0x12c>)
 800473a:	2152      	movs	r1, #82	; 0x52
 800473c:	2294      	movs	r2, #148	; 0x94
 800473e:	236b      	movs	r3, #107	; 0x6b
 8004740:	f7fe f826 	bl	8002790 <_ZN4TI2CILh5ELh7ELh6ELj20ELh5EE9write_regEhhh>
 8004744:	4623      	mov	r3, r4
 8004746:	4829      	ldr	r0, [pc, #164]	; (80047ec <_ZN8CVL53L0X11getSPADinfoEPhPb+0x12c>)
 8004748:	4c29      	ldr	r4, [pc, #164]	; (80047f0 <_ZN8CVL53L0X11getSPADinfoEPhPb+0x130>)
 800474a:	2152      	movs	r1, #82	; 0x52
 800474c:	2283      	movs	r2, #131	; 0x83
 800474e:	f7fe f81f 	bl	8002790 <_ZN4TI2CILh5ELh7ELh6ELj20ELh5EE9write_regEhhh>
 8004752:	4826      	ldr	r0, [pc, #152]	; (80047ec <_ZN8CVL53L0X11getSPADinfoEPhPb+0x12c>)
 8004754:	2152      	movs	r1, #82	; 0x52
 8004756:	2283      	movs	r2, #131	; 0x83
 8004758:	f7fe f87f 	bl	800285a <_ZN4TI2CILh5ELh7ELh6ELj20ELh5EE8read_regEhh>
 800475c:	b918      	cbnz	r0, 8004766 <_ZN8CVL53L0X11getSPADinfoEPhPb+0xa6>
 800475e:	3c01      	subs	r4, #1
 8004760:	d1f7      	bne.n	8004752 <_ZN8CVL53L0X11getSPADinfoEPhPb+0x92>
 8004762:	4620      	mov	r0, r4
 8004764:	bd70      	pop	{r4, r5, r6, pc}
 8004766:	2301      	movs	r3, #1
 8004768:	4820      	ldr	r0, [pc, #128]	; (80047ec <_ZN8CVL53L0X11getSPADinfoEPhPb+0x12c>)
 800476a:	2152      	movs	r1, #82	; 0x52
 800476c:	2283      	movs	r2, #131	; 0x83
 800476e:	f7fe f80f 	bl	8002790 <_ZN4TI2CILh5ELh7ELh6ELj20ELh5EE9write_regEhhh>
 8004772:	2152      	movs	r1, #82	; 0x52
 8004774:	2292      	movs	r2, #146	; 0x92
 8004776:	481d      	ldr	r0, [pc, #116]	; (80047ec <_ZN8CVL53L0X11getSPADinfoEPhPb+0x12c>)
 8004778:	f7fe f86f 	bl	800285a <_ZN4TI2CILh5ELh7ELh6ELj20ELh5EE8read_regEhh>
 800477c:	f000 037f 	and.w	r3, r0, #127	; 0x7f
 8004780:	f3c0 10c0 	ubfx	r0, r0, #7, #1
 8004784:	702b      	strb	r3, [r5, #0]
 8004786:	2152      	movs	r1, #82	; 0x52
 8004788:	7030      	strb	r0, [r6, #0]
 800478a:	2281      	movs	r2, #129	; 0x81
 800478c:	4817      	ldr	r0, [pc, #92]	; (80047ec <_ZN8CVL53L0X11getSPADinfoEPhPb+0x12c>)
 800478e:	2300      	movs	r3, #0
 8004790:	f7fd fffe 	bl	8002790 <_ZN4TI2CILh5ELh7ELh6ELj20ELh5EE9write_regEhhh>
 8004794:	2306      	movs	r3, #6
 8004796:	4815      	ldr	r0, [pc, #84]	; (80047ec <_ZN8CVL53L0X11getSPADinfoEPhPb+0x12c>)
 8004798:	2152      	movs	r1, #82	; 0x52
 800479a:	22ff      	movs	r2, #255	; 0xff
 800479c:	f7fd fff8 	bl	8002790 <_ZN4TI2CILh5ELh7ELh6ELj20ELh5EE9write_regEhhh>
 80047a0:	2152      	movs	r1, #82	; 0x52
 80047a2:	2283      	movs	r2, #131	; 0x83
 80047a4:	4811      	ldr	r0, [pc, #68]	; (80047ec <_ZN8CVL53L0X11getSPADinfoEPhPb+0x12c>)
 80047a6:	f7fe f858 	bl	800285a <_ZN4TI2CILh5ELh7ELh6ELj20ELh5EE8read_regEhh>
 80047aa:	2152      	movs	r1, #82	; 0x52
 80047ac:	4603      	mov	r3, r0
 80047ae:	2283      	movs	r2, #131	; 0x83
 80047b0:	480e      	ldr	r0, [pc, #56]	; (80047ec <_ZN8CVL53L0X11getSPADinfoEPhPb+0x12c>)
 80047b2:	f7fd ffed 	bl	8002790 <_ZN4TI2CILh5ELh7ELh6ELj20ELh5EE9write_regEhhh>
 80047b6:	480d      	ldr	r0, [pc, #52]	; (80047ec <_ZN8CVL53L0X11getSPADinfoEPhPb+0x12c>)
 80047b8:	2152      	movs	r1, #82	; 0x52
 80047ba:	22ff      	movs	r2, #255	; 0xff
 80047bc:	2301      	movs	r3, #1
 80047be:	f7fd ffe7 	bl	8002790 <_ZN4TI2CILh5ELh7ELh6ELj20ELh5EE9write_regEhhh>
 80047c2:	480a      	ldr	r0, [pc, #40]	; (80047ec <_ZN8CVL53L0X11getSPADinfoEPhPb+0x12c>)
 80047c4:	2152      	movs	r1, #82	; 0x52
 80047c6:	2200      	movs	r2, #0
 80047c8:	2301      	movs	r3, #1
 80047ca:	f7fd ffe1 	bl	8002790 <_ZN4TI2CILh5ELh7ELh6ELj20ELh5EE9write_regEhhh>
 80047ce:	4807      	ldr	r0, [pc, #28]	; (80047ec <_ZN8CVL53L0X11getSPADinfoEPhPb+0x12c>)
 80047d0:	2152      	movs	r1, #82	; 0x52
 80047d2:	22ff      	movs	r2, #255	; 0xff
 80047d4:	2300      	movs	r3, #0
 80047d6:	f7fd ffdb 	bl	8002790 <_ZN4TI2CILh5ELh7ELh6ELj20ELh5EE9write_regEhhh>
 80047da:	4804      	ldr	r0, [pc, #16]	; (80047ec <_ZN8CVL53L0X11getSPADinfoEPhPb+0x12c>)
 80047dc:	2152      	movs	r1, #82	; 0x52
 80047de:	2280      	movs	r2, #128	; 0x80
 80047e0:	2300      	movs	r3, #0
 80047e2:	f7fd ffd5 	bl	8002790 <_ZN4TI2CILh5ELh7ELh6ELj20ELh5EE9write_regEhhh>
 80047e6:	2001      	movs	r0, #1
 80047e8:	bd70      	pop	{r4, r5, r6, pc}
 80047ea:	bf00      	nop
 80047ec:	20000450 	andcs	r0, r0, r0, asr r4
 80047f0:	000f4241 	andeq	r4, pc, r1, asr #4

080047f4 <_ZN8CVL53L0X10laser_readEv>:
 80047f4:	b513      	push	{r0, r1, r4, lr}
 80047f6:	220b      	movs	r2, #11
 80047f8:	4604      	mov	r4, r0
 80047fa:	2152      	movs	r1, #82	; 0x52
 80047fc:	4813      	ldr	r0, [pc, #76]	; (800484c <_ZN8CVL53L0X10laser_readEv+0x58>)
 80047fe:	2301      	movs	r3, #1
 8004800:	f7fd ffc6 	bl	8002790 <_ZN4TI2CILh5ELh7ELh6ELj20ELh5EE9write_regEhhh>
 8004804:	230e      	movs	r3, #14
 8004806:	9300      	str	r3, [sp, #0]
 8004808:	2152      	movs	r1, #82	; 0x52
 800480a:	2214      	movs	r2, #20
 800480c:	1d23      	adds	r3, r4, #4
 800480e:	480f      	ldr	r0, [pc, #60]	; (800484c <_ZN8CVL53L0X10laser_readEv+0x58>)
 8004810:	f7fe f877 	bl	8002902 <_ZN4TI2CILh5ELh7ELh6ELj20ELh5EE14read_reg_multiEhhPhj>
 8004814:	7be3      	ldrb	r3, [r4, #15]
 8004816:	7ba2      	ldrb	r2, [r4, #14]
 8004818:	ea43 2202 	orr.w	r2, r3, r2, lsl #8
 800481c:	f1a2 0115 	sub.w	r1, r2, #21
 8004820:	f641 73ea 	movw	r3, #8170	; 0x1fea
 8004824:	4299      	cmp	r1, r3
 8004826:	d80e      	bhi.n	8004846 <_ZN8CVL53L0X10laser_readEv+0x52>
 8004828:	6823      	ldr	r3, [r4, #0]
 800482a:	216a      	movs	r1, #106	; 0x6a
 800482c:	434a      	muls	r2, r1
 800482e:	eb03 0343 	add.w	r3, r3, r3, lsl #1
 8004832:	f5a2 6262 	sub.w	r2, r2, #3616	; 0xe20
 8004836:	2164      	movs	r1, #100	; 0x64
 8004838:	fb92 f2f1 	sdiv	r2, r2, r1
 800483c:	4413      	add	r3, r2
 800483e:	2204      	movs	r2, #4
 8004840:	fb93 f3f2 	sdiv	r3, r3, r2
 8004844:	6023      	str	r3, [r4, #0]
 8004846:	6820      	ldr	r0, [r4, #0]
 8004848:	b002      	add	sp, #8
 800484a:	bd10      	pop	{r4, pc}
 800484c:	20000450 	andcs	r0, r0, r0, asr r4

08004850 <_ZN8CVL53L0X10laser_initEv>:
 8004850:	b5f0      	push	{r4, r5, r6, r7, lr}
 8004852:	2152      	movs	r1, #82	; 0x52
 8004854:	b087      	sub	sp, #28
 8004856:	2289      	movs	r2, #137	; 0x89
 8004858:	4605      	mov	r5, r0
 800485a:	4886      	ldr	r0, [pc, #536]	; (8004a74 <_ZN8CVL53L0X10laser_initEv+0x224>)
 800485c:	f7fd fffd 	bl	800285a <_ZN4TI2CILh5ELh7ELh6ELj20ELh5EE8read_regEhh>
 8004860:	f040 0301 	orr.w	r3, r0, #1
 8004864:	2152      	movs	r1, #82	; 0x52
 8004866:	4883      	ldr	r0, [pc, #524]	; (8004a74 <_ZN8CVL53L0X10laser_initEv+0x224>)
 8004868:	2289      	movs	r2, #137	; 0x89
 800486a:	b2db      	uxtb	r3, r3
 800486c:	f7fd ff90 	bl	8002790 <_ZN4TI2CILh5ELh7ELh6ELj20ELh5EE9write_regEhhh>
 8004870:	4880      	ldr	r0, [pc, #512]	; (8004a74 <_ZN8CVL53L0X10laser_initEv+0x224>)
 8004872:	2152      	movs	r1, #82	; 0x52
 8004874:	22c0      	movs	r2, #192	; 0xc0
 8004876:	f7fd fff0 	bl	800285a <_ZN4TI2CILh5ELh7ELh6ELj20ELh5EE8read_regEhh>
 800487a:	28ee      	cmp	r0, #238	; 0xee
 800487c:	f040 80f5 	bne.w	8004a6a <_ZN8CVL53L0X10laser_initEv+0x21a>
 8004880:	487c      	ldr	r0, [pc, #496]	; (8004a74 <_ZN8CVL53L0X10laser_initEv+0x224>)
 8004882:	4c7d      	ldr	r4, [pc, #500]	; (8004a78 <_ZN8CVL53L0X10laser_initEv+0x228>)
 8004884:	2152      	movs	r1, #82	; 0x52
 8004886:	22bf      	movs	r2, #191	; 0xbf
 8004888:	2301      	movs	r3, #1
 800488a:	f7fd ff81 	bl	8002790 <_ZN4TI2CILh5ELh7ELh6ELj20ELh5EE9write_regEhhh>
 800488e:	3c01      	subs	r4, #1
 8004890:	d001      	beq.n	8004896 <_ZN8CVL53L0X10laser_initEv+0x46>
 8004892:	bf00      	nop
 8004894:	e7fb      	b.n	800488e <_ZN8CVL53L0X10laser_initEv+0x3e>
 8004896:	4877      	ldr	r0, [pc, #476]	; (8004a74 <_ZN8CVL53L0X10laser_initEv+0x224>)
 8004898:	2152      	movs	r1, #82	; 0x52
 800489a:	2288      	movs	r2, #136	; 0x88
 800489c:	4623      	mov	r3, r4
 800489e:	f7fd ff77 	bl	8002790 <_ZN4TI2CILh5ELh7ELh6ELj20ELh5EE9write_regEhhh>
 80048a2:	4874      	ldr	r0, [pc, #464]	; (8004a74 <_ZN8CVL53L0X10laser_initEv+0x224>)
 80048a4:	2152      	movs	r1, #82	; 0x52
 80048a6:	2280      	movs	r2, #128	; 0x80
 80048a8:	2301      	movs	r3, #1
 80048aa:	f7fd ff71 	bl	8002790 <_ZN4TI2CILh5ELh7ELh6ELj20ELh5EE9write_regEhhh>
 80048ae:	4871      	ldr	r0, [pc, #452]	; (8004a74 <_ZN8CVL53L0X10laser_initEv+0x224>)
 80048b0:	2152      	movs	r1, #82	; 0x52
 80048b2:	22ff      	movs	r2, #255	; 0xff
 80048b4:	2301      	movs	r3, #1
 80048b6:	f7fd ff6b 	bl	8002790 <_ZN4TI2CILh5ELh7ELh6ELj20ELh5EE9write_regEhhh>
 80048ba:	4623      	mov	r3, r4
 80048bc:	486d      	ldr	r0, [pc, #436]	; (8004a74 <_ZN8CVL53L0X10laser_initEv+0x224>)
 80048be:	2152      	movs	r1, #82	; 0x52
 80048c0:	4622      	mov	r2, r4
 80048c2:	f7fd ff65 	bl	8002790 <_ZN4TI2CILh5ELh7ELh6ELj20ELh5EE9write_regEhhh>
 80048c6:	2152      	movs	r1, #82	; 0x52
 80048c8:	2291      	movs	r2, #145	; 0x91
 80048ca:	486a      	ldr	r0, [pc, #424]	; (8004a74 <_ZN8CVL53L0X10laser_initEv+0x224>)
 80048cc:	f7fd ffc5 	bl	800285a <_ZN4TI2CILh5ELh7ELh6ELj20ELh5EE8read_regEhh>
 80048d0:	4868      	ldr	r0, [pc, #416]	; (8004a74 <_ZN8CVL53L0X10laser_initEv+0x224>)
 80048d2:	2152      	movs	r1, #82	; 0x52
 80048d4:	4622      	mov	r2, r4
 80048d6:	2301      	movs	r3, #1
 80048d8:	f7fd ff5a 	bl	8002790 <_ZN4TI2CILh5ELh7ELh6ELj20ELh5EE9write_regEhhh>
 80048dc:	4865      	ldr	r0, [pc, #404]	; (8004a74 <_ZN8CVL53L0X10laser_initEv+0x224>)
 80048de:	2152      	movs	r1, #82	; 0x52
 80048e0:	22ff      	movs	r2, #255	; 0xff
 80048e2:	4623      	mov	r3, r4
 80048e4:	f7fd ff54 	bl	8002790 <_ZN4TI2CILh5ELh7ELh6ELj20ELh5EE9write_regEhhh>
 80048e8:	4623      	mov	r3, r4
 80048ea:	4862      	ldr	r0, [pc, #392]	; (8004a74 <_ZN8CVL53L0X10laser_initEv+0x224>)
 80048ec:	2152      	movs	r1, #82	; 0x52
 80048ee:	2280      	movs	r2, #128	; 0x80
 80048f0:	f7fd ff4e 	bl	8002790 <_ZN4TI2CILh5ELh7ELh6ELj20ELh5EE9write_regEhhh>
 80048f4:	a906      	add	r1, sp, #24
 80048f6:	4628      	mov	r0, r5
 80048f8:	f801 4d0a 	strb.w	r4, [r1, #-10]!
 80048fc:	f10d 020f 	add.w	r2, sp, #15
 8004900:	f7ff fede 	bl	80046c0 <_ZN8CVL53L0X11getSPADinfoEPhPb>
 8004904:	ad04      	add	r5, sp, #16
 8004906:	2306      	movs	r3, #6
 8004908:	9300      	str	r3, [sp, #0]
 800490a:	485a      	ldr	r0, [pc, #360]	; (8004a74 <_ZN8CVL53L0X10laser_initEv+0x224>)
 800490c:	2152      	movs	r1, #82	; 0x52
 800490e:	22b0      	movs	r2, #176	; 0xb0
 8004910:	462b      	mov	r3, r5
 8004912:	f7fd fff6 	bl	8002902 <_ZN4TI2CILh5ELh7ELh6ELj20ELh5EE14read_reg_multiEhhPhj>
 8004916:	4857      	ldr	r0, [pc, #348]	; (8004a74 <_ZN8CVL53L0X10laser_initEv+0x224>)
 8004918:	2152      	movs	r1, #82	; 0x52
 800491a:	22ff      	movs	r2, #255	; 0xff
 800491c:	2301      	movs	r3, #1
 800491e:	f7fd ff37 	bl	8002790 <_ZN4TI2CILh5ELh7ELh6ELj20ELh5EE9write_regEhhh>
 8004922:	4854      	ldr	r0, [pc, #336]	; (8004a74 <_ZN8CVL53L0X10laser_initEv+0x224>)
 8004924:	2152      	movs	r1, #82	; 0x52
 8004926:	224f      	movs	r2, #79	; 0x4f
 8004928:	4623      	mov	r3, r4
 800492a:	f7fd ff31 	bl	8002790 <_ZN4TI2CILh5ELh7ELh6ELj20ELh5EE9write_regEhhh>
 800492e:	4851      	ldr	r0, [pc, #324]	; (8004a74 <_ZN8CVL53L0X10laser_initEv+0x224>)
 8004930:	2152      	movs	r1, #82	; 0x52
 8004932:	224e      	movs	r2, #78	; 0x4e
 8004934:	232c      	movs	r3, #44	; 0x2c
 8004936:	f7fd ff2b 	bl	8002790 <_ZN4TI2CILh5ELh7ELh6ELj20ELh5EE9write_regEhhh>
 800493a:	484e      	ldr	r0, [pc, #312]	; (8004a74 <_ZN8CVL53L0X10laser_initEv+0x224>)
 800493c:	2152      	movs	r1, #82	; 0x52
 800493e:	22ff      	movs	r2, #255	; 0xff
 8004940:	4623      	mov	r3, r4
 8004942:	f7fd ff25 	bl	8002790 <_ZN4TI2CILh5ELh7ELh6ELj20ELh5EE9write_regEhhh>
 8004946:	484b      	ldr	r0, [pc, #300]	; (8004a74 <_ZN8CVL53L0X10laser_initEv+0x224>)
 8004948:	2152      	movs	r1, #82	; 0x52
 800494a:	23b4      	movs	r3, #180	; 0xb4
 800494c:	22b6      	movs	r2, #182	; 0xb6
 800494e:	f7fd ff1f 	bl	8002790 <_ZN4TI2CILh5ELh7ELh6ELj20ELh5EE9write_regEhhh>
 8004952:	f89d 300f 	ldrb.w	r3, [sp, #15]
 8004956:	f89d 600e 	ldrb.w	r6, [sp, #14]
 800495a:	2b00      	cmp	r3, #0
 800495c:	bf14      	ite	ne
 800495e:	200c      	movne	r0, #12
 8004960:	2000      	moveq	r0, #0
 8004962:	4621      	mov	r1, r4
 8004964:	b2e2      	uxtb	r2, r4
 8004966:	08d3      	lsrs	r3, r2, #3
 8004968:	4282      	cmp	r2, r0
 800496a:	af06      	add	r7, sp, #24
 800496c:	f002 0207 	and.w	r2, r2, #7
 8004970:	443b      	add	r3, r7
 8004972:	d301      	bcc.n	8004978 <_ZN8CVL53L0X10laser_initEv+0x128>
 8004974:	42b1      	cmp	r1, r6
 8004976:	d109      	bne.n	800498c <_ZN8CVL53L0X10laser_initEv+0x13c>
 8004978:	2701      	movs	r7, #1
 800497a:	fa07 f202 	lsl.w	r2, r7, r2
 800497e:	f813 7c08 	ldrb.w	r7, [r3, #-8]
 8004982:	ea27 0202 	bic.w	r2, r7, r2
 8004986:	f803 2c08 	strb.w	r2, [r3, #-8]
 800498a:	e006      	b.n	800499a <_ZN8CVL53L0X10laser_initEv+0x14a>
 800498c:	f813 3c08 	ldrb.w	r3, [r3, #-8]
 8004990:	4113      	asrs	r3, r2
 8004992:	07db      	lsls	r3, r3, #31
 8004994:	bf44      	itt	mi
 8004996:	3101      	addmi	r1, #1
 8004998:	b2c9      	uxtbmi	r1, r1
 800499a:	3401      	adds	r4, #1
 800499c:	2c30      	cmp	r4, #48	; 0x30
 800499e:	d1e1      	bne.n	8004964 <_ZN8CVL53L0X10laser_initEv+0x114>
 80049a0:	4836      	ldr	r0, [pc, #216]	; (8004a7c <_ZN8CVL53L0X10laser_initEv+0x22c>)
 80049a2:	2101      	movs	r1, #1
 80049a4:	f7fe f8c0 	bl	8002b28 <_ZN5TGpioILh5ELh6ELh1EE8set_modeEh>
 80049a8:	4835      	ldr	r0, [pc, #212]	; (8004a80 <_ZN8CVL53L0X10laser_initEv+0x230>)
 80049aa:	2101      	movs	r1, #1
 80049ac:	f7fd ffde 	bl	800296c <_ZN5TGpioILh5ELh7ELh1EE8set_modeEh>
 80049b0:	4832      	ldr	r0, [pc, #200]	; (8004a7c <_ZN8CVL53L0X10laser_initEv+0x22c>)
 80049b2:	2101      	movs	r1, #1
 80049b4:	f7fe f8b8 	bl	8002b28 <_ZN5TGpioILh5ELh6ELh1EE8set_modeEh>
 80049b8:	4831      	ldr	r0, [pc, #196]	; (8004a80 <_ZN8CVL53L0X10laser_initEv+0x230>)
 80049ba:	2100      	movs	r1, #0
 80049bc:	f7fd ffd6 	bl	800296c <_ZN5TGpioILh5ELh7ELh1EE8set_modeEh>
 80049c0:	482e      	ldr	r0, [pc, #184]	; (8004a7c <_ZN8CVL53L0X10laser_initEv+0x22c>)
 80049c2:	2100      	movs	r1, #0
 80049c4:	f7fe f8b0 	bl	8002b28 <_ZN5TGpioILh5ELh6ELh1EE8set_modeEh>
 80049c8:	482d      	ldr	r0, [pc, #180]	; (8004a80 <_ZN8CVL53L0X10laser_initEv+0x230>)
 80049ca:	2101      	movs	r1, #1
 80049cc:	f7fd ffce 	bl	800296c <_ZN5TGpioILh5ELh7ELh1EE8set_modeEh>
 80049d0:	f7ff fe6a 	bl	80046a8 <_ZN4TI2CILh5ELh7ELh6ELj20ELh5EE5delayEv.isra.2>
 80049d4:	2152      	movs	r1, #82	; 0x52
 80049d6:	482b      	ldr	r0, [pc, #172]	; (8004a84 <_ZN8CVL53L0X10laser_initEv+0x234>)
 80049d8:	f7fe fa14 	bl	8002e04 <_ZN4TI2CILh5ELh7ELh6ELj20ELh5EE5writeEh>
 80049dc:	4825      	ldr	r0, [pc, #148]	; (8004a74 <_ZN8CVL53L0X10laser_initEv+0x224>)
 80049de:	21b0      	movs	r1, #176	; 0xb0
 80049e0:	f7fe fa10 	bl	8002e04 <_ZN4TI2CILh5ELh7ELh6ELj20ELh5EE5writeEh>
 80049e4:	2400      	movs	r4, #0
 80049e6:	5d29      	ldrb	r1, [r5, r4]
 80049e8:	4822      	ldr	r0, [pc, #136]	; (8004a74 <_ZN8CVL53L0X10laser_initEv+0x224>)
 80049ea:	3401      	adds	r4, #1
 80049ec:	f7fe fa0a 	bl	8002e04 <_ZN4TI2CILh5ELh7ELh6ELj20ELh5EE5writeEh>
 80049f0:	2c06      	cmp	r4, #6
 80049f2:	d1f8      	bne.n	80049e6 <_ZN8CVL53L0X10laser_initEv+0x196>
 80049f4:	4821      	ldr	r0, [pc, #132]	; (8004a7c <_ZN8CVL53L0X10laser_initEv+0x22c>)
 80049f6:	2100      	movs	r1, #0
 80049f8:	f7fe f896 	bl	8002b28 <_ZN5TGpioILh5ELh6ELh1EE8set_modeEh>
 80049fc:	4820      	ldr	r0, [pc, #128]	; (8004a80 <_ZN8CVL53L0X10laser_initEv+0x230>)
 80049fe:	2100      	movs	r1, #0
 8004a00:	f7fd ffb4 	bl	800296c <_ZN5TGpioILh5ELh7ELh1EE8set_modeEh>
 8004a04:	481d      	ldr	r0, [pc, #116]	; (8004a7c <_ZN8CVL53L0X10laser_initEv+0x22c>)
 8004a06:	2101      	movs	r1, #1
 8004a08:	f7fe f88e 	bl	8002b28 <_ZN5TGpioILh5ELh6ELh1EE8set_modeEh>
 8004a0c:	481c      	ldr	r0, [pc, #112]	; (8004a80 <_ZN8CVL53L0X10laser_initEv+0x230>)
 8004a0e:	2100      	movs	r1, #0
 8004a10:	f7fd ffac 	bl	800296c <_ZN5TGpioILh5ELh7ELh1EE8set_modeEh>
 8004a14:	4819      	ldr	r0, [pc, #100]	; (8004a7c <_ZN8CVL53L0X10laser_initEv+0x22c>)
 8004a16:	2101      	movs	r1, #1
 8004a18:	f7fe f886 	bl	8002b28 <_ZN5TGpioILh5ELh6ELh1EE8set_modeEh>
 8004a1c:	4818      	ldr	r0, [pc, #96]	; (8004a80 <_ZN8CVL53L0X10laser_initEv+0x230>)
 8004a1e:	2101      	movs	r1, #1
 8004a20:	f7fd ffa4 	bl	800296c <_ZN5TGpioILh5ELh7ELh1EE8set_modeEh>
 8004a24:	f7ff fe40 	bl	80046a8 <_ZN4TI2CILh5ELh7ELh6ELj20ELh5EE5delayEv.isra.2>
 8004a28:	2152      	movs	r1, #82	; 0x52
 8004a2a:	2284      	movs	r2, #132	; 0x84
 8004a2c:	4811      	ldr	r0, [pc, #68]	; (8004a74 <_ZN8CVL53L0X10laser_initEv+0x224>)
 8004a2e:	f7fd ff14 	bl	800285a <_ZN4TI2CILh5ELh7ELh6ELj20ELh5EE8read_regEhh>
 8004a32:	2152      	movs	r1, #82	; 0x52
 8004a34:	4604      	mov	r4, r0
 8004a36:	220a      	movs	r2, #10
 8004a38:	480e      	ldr	r0, [pc, #56]	; (8004a74 <_ZN8CVL53L0X10laser_initEv+0x224>)
 8004a3a:	2304      	movs	r3, #4
 8004a3c:	f7fd fea8 	bl	8002790 <_ZN4TI2CILh5ELh7ELh6ELj20ELh5EE9write_regEhhh>
 8004a40:	480c      	ldr	r0, [pc, #48]	; (8004a74 <_ZN8CVL53L0X10laser_initEv+0x224>)
 8004a42:	2152      	movs	r1, #82	; 0x52
 8004a44:	2284      	movs	r2, #132	; 0x84
 8004a46:	f004 03ef 	and.w	r3, r4, #239	; 0xef
 8004a4a:	f7fd fea1 	bl	8002790 <_ZN4TI2CILh5ELh7ELh6ELj20ELh5EE9write_regEhhh>
 8004a4e:	4809      	ldr	r0, [pc, #36]	; (8004a74 <_ZN8CVL53L0X10laser_initEv+0x224>)
 8004a50:	2152      	movs	r1, #82	; 0x52
 8004a52:	220b      	movs	r2, #11
 8004a54:	2301      	movs	r3, #1
 8004a56:	f7fd fe9b 	bl	8002790 <_ZN4TI2CILh5ELh7ELh6ELj20ELh5EE9write_regEhhh>
 8004a5a:	4806      	ldr	r0, [pc, #24]	; (8004a74 <_ZN8CVL53L0X10laser_initEv+0x224>)
 8004a5c:	2152      	movs	r1, #82	; 0x52
 8004a5e:	2200      	movs	r2, #0
 8004a60:	2302      	movs	r3, #2
 8004a62:	f7fd fe95 	bl	8002790 <_ZN4TI2CILh5ELh7ELh6ELj20ELh5EE9write_regEhhh>
 8004a66:	2000      	movs	r0, #0
 8004a68:	e001      	b.n	8004a6e <_ZN8CVL53L0X10laser_initEv+0x21e>
 8004a6a:	f06f 0001 	mvn.w	r0, #1
 8004a6e:	b007      	add	sp, #28
 8004a70:	bdf0      	pop	{r4, r5, r6, r7, pc}
 8004a72:	bf00      	nop
 8004a74:	20000450 	andcs	r0, r0, r0, asr r4
 8004a78:	000186a1 	andeq	r8, r1, r1, lsr #13
 8004a7c:	20000458 	andcs	r0, r0, r8, asr r4
 8004a80:	20000454 	andcs	r0, r0, r4, asr r4
 8004a84:	20000450 	andcs	r0, r0, r0, asr r4

08004a88 <_ZN9CMLX90621C1Ev>:
 8004a88:	4770      	bx	lr

08004a8a <_ZN9CMLX90621D1Ev>:
 8004a8a:	4770      	bx	lr

08004a8c <_ZN9CMLX906214initEP14CI2C_Interface>:
 8004a8c:	2300      	movs	r3, #0
 8004a8e:	b570      	push	{r4, r5, r6, lr}
 8004a90:	f8a0 3100 	strh.w	r3, [r0, #256]	; 0x100
 8004a94:	f8a0 3102 	strh.w	r3, [r0, #258]	; 0x102
 8004a98:	f8a0 3104 	strh.w	r3, [r0, #260]	; 0x104
 8004a9c:	f8a0 3106 	strh.w	r3, [r0, #262]	; 0x106
 8004aa0:	f8a0 3108 	strh.w	r3, [r0, #264]	; 0x108
 8004aa4:	4604      	mov	r4, r0
 8004aa6:	f8c0 110c 	str.w	r1, [r0, #268]	; 0x10c
 8004aaa:	4603      	mov	r3, r0
 8004aac:	f100 0680 	add.w	r6, r0, #128	; 0x80
 8004ab0:	4618      	mov	r0, r3
 8004ab2:	2200      	movs	r2, #0
 8004ab4:	2500      	movs	r5, #0
 8004ab6:	f820 5b02 	strh.w	r5, [r0], #2
 8004aba:	3201      	adds	r2, #1
 8004abc:	2a10      	cmp	r2, #16
 8004abe:	f8a0 507e 	strh.w	r5, [r0, #126]	; 0x7e
 8004ac2:	d1f7      	bne.n	8004ab4 <_ZN9CMLX906214initEP14CI2C_Interface+0x28>
 8004ac4:	3320      	adds	r3, #32
 8004ac6:	42b3      	cmp	r3, r6
 8004ac8:	d1f2      	bne.n	8004ab0 <_ZN9CMLX906214initEP14CI2C_Interface+0x24>
 8004aca:	680b      	ldr	r3, [r1, #0]
 8004acc:	4608      	mov	r0, r1
 8004ace:	681b      	ldr	r3, [r3, #0]
 8004ad0:	4798      	blx	r3
 8004ad2:	f8d4 010c 	ldr.w	r0, [r4, #268]	; 0x10c
 8004ad6:	6803      	ldr	r3, [r0, #0]
 8004ad8:	21c0      	movs	r1, #192	; 0xc0
 8004ada:	689b      	ldr	r3, [r3, #8]
 8004adc:	4798      	blx	r3
 8004ade:	f8d4 010c 	ldr.w	r0, [r4, #268]	; 0x10c
 8004ae2:	6803      	ldr	r3, [r0, #0]
 8004ae4:	2103      	movs	r1, #3
 8004ae6:	689b      	ldr	r3, [r3, #8]
 8004ae8:	4798      	blx	r3
 8004aea:	f8d4 010c 	ldr.w	r0, [r4, #268]	; 0x10c
 8004aee:	6803      	ldr	r3, [r0, #0]
 8004af0:	21e4      	movs	r1, #228	; 0xe4
 8004af2:	689b      	ldr	r3, [r3, #8]
 8004af4:	4798      	blx	r3
 8004af6:	f8d4 010c 	ldr.w	r0, [r4, #268]	; 0x10c
 8004afa:	6803      	ldr	r3, [r0, #0]
 8004afc:	2139      	movs	r1, #57	; 0x39
 8004afe:	689b      	ldr	r3, [r3, #8]
 8004b00:	4798      	blx	r3
 8004b02:	f8d4 010c 	ldr.w	r0, [r4, #268]	; 0x10c
 8004b06:	6803      	ldr	r3, [r0, #0]
 8004b08:	21f1      	movs	r1, #241	; 0xf1
 8004b0a:	689b      	ldr	r3, [r3, #8]
 8004b0c:	4798      	blx	r3
 8004b0e:	f8d4 010c 	ldr.w	r0, [r4, #268]	; 0x10c
 8004b12:	6803      	ldr	r3, [r0, #0]
 8004b14:	2146      	movs	r1, #70	; 0x46
 8004b16:	689b      	ldr	r3, [r3, #8]
 8004b18:	4798      	blx	r3
 8004b1a:	f8d4 010c 	ldr.w	r0, [r4, #268]	; 0x10c
 8004b1e:	6803      	ldr	r3, [r0, #0]
 8004b20:	685b      	ldr	r3, [r3, #4]
 8004b22:	4798      	blx	r3
 8004b24:	4628      	mov	r0, r5
 8004b26:	bd70      	pop	{r4, r5, r6, pc}

08004b28 <_ZN9CMLX906214readEv>:
 8004b28:	e92d 47f0 	stmdb	sp!, {r4, r5, r6, r7, r8, r9, sl, lr}
 8004b2c:	4604      	mov	r4, r0
 8004b2e:	f8d0 010c 	ldr.w	r0, [r0, #268]	; 0x10c
 8004b32:	6803      	ldr	r3, [r0, #0]
 8004b34:	681b      	ldr	r3, [r3, #0]
 8004b36:	4798      	blx	r3
 8004b38:	f8d4 010c 	ldr.w	r0, [r4, #268]	; 0x10c
 8004b3c:	6803      	ldr	r3, [r0, #0]
 8004b3e:	21c0      	movs	r1, #192	; 0xc0
 8004b40:	689b      	ldr	r3, [r3, #8]
 8004b42:	4798      	blx	r3
 8004b44:	f8d4 010c 	ldr.w	r0, [r4, #268]	; 0x10c
 8004b48:	6803      	ldr	r3, [r0, #0]
 8004b4a:	2102      	movs	r1, #2
 8004b4c:	689b      	ldr	r3, [r3, #8]
 8004b4e:	4798      	blx	r3
 8004b50:	f8d4 010c 	ldr.w	r0, [r4, #268]	; 0x10c
 8004b54:	6803      	ldr	r3, [r0, #0]
 8004b56:	2100      	movs	r1, #0
 8004b58:	689b      	ldr	r3, [r3, #8]
 8004b5a:	4798      	blx	r3
 8004b5c:	f8d4 010c 	ldr.w	r0, [r4, #268]	; 0x10c
 8004b60:	6803      	ldr	r3, [r0, #0]
 8004b62:	2101      	movs	r1, #1
 8004b64:	689b      	ldr	r3, [r3, #8]
 8004b66:	4798      	blx	r3
 8004b68:	f8d4 010c 	ldr.w	r0, [r4, #268]	; 0x10c
 8004b6c:	6803      	ldr	r3, [r0, #0]
 8004b6e:	2140      	movs	r1, #64	; 0x40
 8004b70:	689b      	ldr	r3, [r3, #8]
 8004b72:	4798      	blx	r3
 8004b74:	f8d4 010c 	ldr.w	r0, [r4, #268]	; 0x10c
 8004b78:	6803      	ldr	r3, [r0, #0]
 8004b7a:	681b      	ldr	r3, [r3, #0]
 8004b7c:	4798      	blx	r3
 8004b7e:	f8d4 010c 	ldr.w	r0, [r4, #268]	; 0x10c
 8004b82:	6803      	ldr	r3, [r0, #0]
 8004b84:	21c1      	movs	r1, #193	; 0xc1
 8004b86:	689b      	ldr	r3, [r3, #8]
 8004b88:	4798      	blx	r3
 8004b8a:	f648 23d0 	movw	r3, #35536	; 0x8ad0
 8004b8e:	f8a4 3100 	strh.w	r3, [r4, #256]	; 0x100
 8004b92:	2500      	movs	r5, #0
 8004b94:	f247 5330 	movw	r3, #30000	; 0x7530
 8004b98:	f8a4 3102 	strh.w	r3, [r4, #258]	; 0x102
 8004b9c:	f8a4 5104 	strh.w	r5, [r4, #260]	; 0x104
 8004ba0:	4627      	mov	r7, r4
 8004ba2:	f104 0a20 	add.w	sl, r4, #32
 8004ba6:	46a1      	mov	r9, r4
 8004ba8:	f04f 0800 	mov.w	r8, #0
 8004bac:	f8d4 010c 	ldr.w	r0, [r4, #268]	; 0x10c
 8004bb0:	6803      	ldr	r3, [r0, #0]
 8004bb2:	2101      	movs	r1, #1
 8004bb4:	68db      	ldr	r3, [r3, #12]
 8004bb6:	4798      	blx	r3
 8004bb8:	4606      	mov	r6, r0
 8004bba:	f8d4 010c 	ldr.w	r0, [r4, #268]	; 0x10c
 8004bbe:	6803      	ldr	r3, [r0, #0]
 8004bc0:	2101      	movs	r1, #1
 8004bc2:	68db      	ldr	r3, [r3, #12]
 8004bc4:	4798      	blx	r3
 8004bc6:	eb09 0308 	add.w	r3, r9, r8
 8004bca:	ea46 2000 	orr.w	r0, r6, r0, lsl #8
 8004bce:	b280      	uxth	r0, r0
 8004bd0:	f8a3 0060 	strh.w	r0, [r3, #96]	; 0x60
 8004bd4:	f9b4 2100 	ldrsh.w	r2, [r4, #256]	; 0x100
 8004bd8:	b203      	sxth	r3, r0
 8004bda:	429a      	cmp	r2, r3
 8004bdc:	f9b4 2102 	ldrsh.w	r2, [r4, #258]	; 0x102
 8004be0:	bfb8      	it	lt
 8004be2:	f8a4 0100 	strhlt.w	r0, [r4, #256]	; 0x100
 8004be6:	f1a8 0820 	sub.w	r8, r8, #32
 8004bea:	429a      	cmp	r2, r3
 8004bec:	bfc8      	it	gt
 8004bee:	f8a4 0102 	strhgt.w	r0, [r4, #258]	; 0x102
 8004bf2:	f118 0f80 	cmn.w	r8, #128	; 0x80
 8004bf6:	441d      	add	r5, r3
 8004bf8:	d1d8      	bne.n	8004bac <_ZN9CMLX906214readEv+0x84>
 8004bfa:	f109 0902 	add.w	r9, r9, #2
 8004bfe:	45d1      	cmp	r9, sl
 8004c00:	d1d2      	bne.n	8004ba8 <_ZN9CMLX906214readEv+0x80>
 8004c02:	f8d4 010c 	ldr.w	r0, [r4, #268]	; 0x10c
 8004c06:	6803      	ldr	r3, [r0, #0]
 8004c08:	09ad      	lsrs	r5, r5, #6
 8004c0a:	685b      	ldr	r3, [r3, #4]
 8004c0c:	f8a4 5104 	strh.w	r5, [r4, #260]	; 0x104
 8004c10:	4798      	blx	r3
 8004c12:	f9b4 1100 	ldrsh.w	r1, [r4, #256]	; 0x100
 8004c16:	f9b4 3102 	ldrsh.w	r3, [r4, #258]	; 0x102
 8004c1a:	4299      	cmp	r1, r3
 8004c1c:	dd3c      	ble.n	8004c98 <_ZN9CMLX906214readEv+0x170>
 8004c1e:	4a1f      	ldr	r2, [pc, #124]	; (8004c9c <_ZN9CMLX906214readEv+0x174>)
 8004c20:	1ac9      	subs	r1, r1, r3
 8004c22:	f104 0580 	add.w	r5, r4, #128	; 0x80
 8004c26:	fb92 f1f1 	sdiv	r1, r2, r1
 8004c2a:	fb03 f201 	mul.w	r2, r3, r1
 8004c2e:	4626      	mov	r6, r4
 8004c30:	2000      	movs	r0, #0
 8004c32:	f9b6 3000 	ldrsh.w	r3, [r6]
 8004c36:	3001      	adds	r0, #1
 8004c38:	434b      	muls	r3, r1
 8004c3a:	2810      	cmp	r0, #16
 8004c3c:	eba3 0302 	sub.w	r3, r3, r2
 8004c40:	f44f 7e7a 	mov.w	lr, #1000	; 0x3e8
 8004c44:	fb93 f3fe 	sdiv	r3, r3, lr
 8004c48:	f826 3b02 	strh.w	r3, [r6], #2
 8004c4c:	d1f1      	bne.n	8004c32 <_ZN9CMLX906214readEv+0x10a>
 8004c4e:	3420      	adds	r4, #32
 8004c50:	42ac      	cmp	r4, r5
 8004c52:	d1ec      	bne.n	8004c2e <_ZN9CMLX906214readEv+0x106>
 8004c54:	f107 0220 	add.w	r2, r7, #32
 8004c58:	463b      	mov	r3, r7
 8004c5a:	eddf 6a11 	vldr	s13, [pc, #68]	; 8004ca0 <_ZN9CMLX906214readEv+0x178>
 8004c5e:	f9b3 1080 	ldrsh.w	r1, [r3, #128]	; 0x80
 8004c62:	f9b3 3000 	ldrsh.w	r3, [r3]
 8004c66:	ee07 3a90 	vmov	s15, r3
 8004c6a:	ee07 1a10 	vmov	s14, r1
 8004c6e:	eef8 7ae7 	vcvt.f32.s32	s15, s15
 8004c72:	eeb8 7ac7 	vcvt.f32.s32	s14, s14
 8004c76:	ee67 7aa6 	vmul.f32	s15, s15, s13
 8004c7a:	eddf 6a0a 	vldr	s13, [pc, #40]	; 8004ca4 <_ZN9CMLX906214readEv+0x17c>
 8004c7e:	eee7 7a26 	vfma.f32	s15, s14, s13
 8004c82:	3702      	adds	r7, #2
 8004c84:	4297      	cmp	r7, r2
 8004c86:	eefd 7ae7 	vcvt.s32.f32	s15, s15
 8004c8a:	ee17 3a90 	vmov	r3, s15
 8004c8e:	f8a7 307e 	strh.w	r3, [r7, #126]	; 0x7e
 8004c92:	d1e1      	bne.n	8004c58 <_ZN9CMLX906214readEv+0x130>
 8004c94:	42af      	cmp	r7, r5
 8004c96:	d1dd      	bne.n	8004c54 <_ZN9CMLX906214readEv+0x12c>
 8004c98:	e8bd 87f0 	ldmia.w	sp!, {r4, r5, r6, r7, r8, r9, sl, pc}
 8004c9c:	0003e418 	andeq	lr, r3, r8, lsl r4
 8004ca0:	3e99999a 	mrccc	9, 4, r9, cr9, cr10, {4}
 8004ca4:	3f333333 	svccc	0x00333333

08004ca8 <_ZN6CUSARTC1Ev>:
 8004ca8:	4770      	bx	lr

08004caa <_ZN6CUSARTD1Ev>:
 8004caa:	4770      	bx	lr

08004cac <_ZN6CUSART4initEv>:
 8004cac:	b570      	push	{r4, r5, r6, lr}
 8004cae:	b0a4      	sub	sp, #144	; 0x90
 8004cb0:	2400      	movs	r4, #0
 8004cb2:	4b25      	ldr	r3, [pc, #148]	; (8004d48 <_ZN6CUSART4initEv+0x9c>)
 8004cb4:	9400      	str	r4, [sp, #0]
 8004cb6:	6b1a      	ldr	r2, [r3, #48]	; 0x30
 8004cb8:	4824      	ldr	r0, [pc, #144]	; (8004d4c <_ZN6CUSART4initEv+0xa0>)
 8004cba:	f042 0201 	orr.w	r2, r2, #1
 8004cbe:	631a      	str	r2, [r3, #48]	; 0x30
 8004cc0:	6b1a      	ldr	r2, [r3, #48]	; 0x30
 8004cc2:	f002 0201 	and.w	r2, r2, #1
 8004cc6:	9200      	str	r2, [sp, #0]
 8004cc8:	9a00      	ldr	r2, [sp, #0]
 8004cca:	9401      	str	r4, [sp, #4]
 8004ccc:	6b1a      	ldr	r2, [r3, #48]	; 0x30
 8004cce:	f042 0202 	orr.w	r2, r2, #2
 8004cd2:	631a      	str	r2, [r3, #48]	; 0x30
 8004cd4:	6b1a      	ldr	r2, [r3, #48]	; 0x30
 8004cd6:	f002 0202 	and.w	r2, r2, #2
 8004cda:	9201      	str	r2, [sp, #4]
 8004cdc:	9a01      	ldr	r2, [sp, #4]
 8004cde:	9402      	str	r4, [sp, #8]
 8004ce0:	6c5a      	ldr	r2, [r3, #68]	; 0x44
 8004ce2:	f042 0210 	orr.w	r2, r2, #16
 8004ce6:	645a      	str	r2, [r3, #68]	; 0x44
 8004ce8:	6c5b      	ldr	r3, [r3, #68]	; 0x44
 8004cea:	f003 0310 	and.w	r3, r3, #16
 8004cee:	9302      	str	r3, [sp, #8]
 8004cf0:	9b02      	ldr	r3, [sp, #8]
 8004cf2:	f44f 7300 	mov.w	r3, #512	; 0x200
 8004cf6:	2502      	movs	r5, #2
 8004cf8:	9303      	str	r3, [sp, #12]
 8004cfa:	2607      	movs	r6, #7
 8004cfc:	2301      	movs	r3, #1
 8004cfe:	a903      	add	r1, sp, #12
 8004d00:	9305      	str	r3, [sp, #20]
 8004d02:	9504      	str	r5, [sp, #16]
 8004d04:	9506      	str	r5, [sp, #24]
 8004d06:	9607      	str	r6, [sp, #28]
 8004d08:	f7fd fafa 	bl	8002300 <HAL_GPIO_Init>
 8004d0c:	2380      	movs	r3, #128	; 0x80
 8004d0e:	a903      	add	r1, sp, #12
 8004d10:	480f      	ldr	r0, [pc, #60]	; (8004d50 <_ZN6CUSART4initEv+0xa4>)
 8004d12:	9303      	str	r3, [sp, #12]
 8004d14:	9504      	str	r5, [sp, #16]
 8004d16:	9607      	str	r6, [sp, #28]
 8004d18:	f7fd faf2 	bl	8002300 <HAL_GPIO_Init>
 8004d1c:	4b0d      	ldr	r3, [pc, #52]	; (8004d54 <_ZN6CUSART4initEv+0xa8>)
 8004d1e:	9308      	str	r3, [sp, #32]
 8004d20:	f44f 33e1 	mov.w	r3, #115200	; 0x1c200
 8004d24:	9309      	str	r3, [sp, #36]	; 0x24
 8004d26:	230c      	movs	r3, #12
 8004d28:	930d      	str	r3, [sp, #52]	; 0x34
 8004d2a:	a808      	add	r0, sp, #32
 8004d2c:	f44f 4300 	mov.w	r3, #32768	; 0x8000
 8004d30:	940a      	str	r4, [sp, #40]	; 0x28
 8004d32:	940b      	str	r4, [sp, #44]	; 0x2c
 8004d34:	940c      	str	r4, [sp, #48]	; 0x30
 8004d36:	940e      	str	r4, [sp, #56]	; 0x38
 8004d38:	930f      	str	r3, [sp, #60]	; 0x3c
 8004d3a:	9410      	str	r4, [sp, #64]	; 0x40
 8004d3c:	9411      	str	r4, [sp, #68]	; 0x44
 8004d3e:	f7fc fa49 	bl	80011d4 <HAL_UART_Init>
 8004d42:	b024      	add	sp, #144	; 0x90
 8004d44:	bd70      	pop	{r4, r5, r6, pc}
 8004d46:	bf00      	nop
 8004d48:	40023800 	andmi	r3, r2, r0, lsl #16
 8004d4c:	40020000 	andmi	r0, r2, r0
 8004d50:	40020400 	andmi	r0, r2, r0, lsl #8
 8004d54:	40011000 	andmi	r1, r1, r0

08004d58 <_ZN6CUSART8put_charEc>:
 8004d58:	4b03      	ldr	r3, [pc, #12]	; (8004d68 <_ZN6CUSART8put_charEc+0x10>)
 8004d5a:	69da      	ldr	r2, [r3, #28]
 8004d5c:	0612      	lsls	r2, r2, #24
 8004d5e:	d401      	bmi.n	8004d64 <_ZN6CUSART8put_charEc+0xc>
 8004d60:	bf00      	nop
 8004d62:	e7f9      	b.n	8004d58 <_ZN6CUSART8put_charEc>
 8004d64:	6299      	str	r1, [r3, #40]	; 0x28
 8004d66:	4770      	bx	lr
 8004d68:	40011000 	andmi	r1, r1, r0

08004d6c <_ZN9CInfoTaskD1Ev>:
 8004d6c:	b510      	push	{r4, lr}
 8004d6e:	4b04      	ldr	r3, [pc, #16]	; (8004d80 <_ZN9CInfoTaskD1Ev+0x14>)
 8004d70:	4604      	mov	r4, r0
 8004d72:	f840 3b08 	str.w	r3, [r0], #8
 8004d76:	f7ff fc9f 	bl	80046b8 <_ZN8CVL53L0XD1Ev>
 8004d7a:	4620      	mov	r0, r4
 8004d7c:	bd10      	pop	{r4, pc}
 8004d7e:	bf00      	nop
 8004d80:	08005de0 	stmdaeq	r0, {r5, r6, r7, r8, sl, fp, ip, lr}

08004d84 <_ZN9CInfoTaskD0Ev>:
 8004d84:	b510      	push	{r4, lr}
 8004d86:	4604      	mov	r4, r0
 8004d88:	f7ff fff0 	bl	8004d6c <_ZN9CInfoTaskD1Ev>
 8004d8c:	4620      	mov	r0, r4
 8004d8e:	f7fe f89c 	bl	8002eca <_ZdlPv>
 8004d92:	4620      	mov	r0, r4
 8004d94:	bd10      	pop	{r4, pc}
 8004d96:	0000      	movs	r0, r0

08004d98 <_ZN9CInfoTask4mainEv>:
 8004d98:	6842      	ldr	r2, [r0, #4]
 8004d9a:	6953      	ldr	r3, [r2, #20]
 8004d9c:	b570      	push	{r4, r5, r6, lr}
 8004d9e:	f043 0302 	orr.w	r3, r3, #2
 8004da2:	f100 0508 	add.w	r5, r0, #8
 8004da6:	6153      	str	r3, [r2, #20]
 8004da8:	4604      	mov	r4, r0
 8004daa:	4628      	mov	r0, r5
 8004dac:	f7ff fd22 	bl	80047f4 <_ZN8CVL53L0X10laser_readEv>
 8004db0:	4809      	ldr	r0, [pc, #36]	; (8004dd8 <_ZN9CInfoTask4mainEv+0x40>)
 8004db2:	f7fe f967 	bl	8003084 <_ZN6CTimer8get_timeEv>
 8004db6:	4606      	mov	r6, r0
 8004db8:	4628      	mov	r0, r5
 8004dba:	f7ff fc7e 	bl	80046ba <_ZN8CVL53L0X9laser_getEv>
 8004dbe:	4632      	mov	r2, r6
 8004dc0:	4603      	mov	r3, r0
 8004dc2:	4906      	ldr	r1, [pc, #24]	; (8004ddc <_ZN9CInfoTask4mainEv+0x44>)
 8004dc4:	4806      	ldr	r0, [pc, #24]	; (8004de0 <_ZN9CInfoTask4mainEv+0x48>)
 8004dc6:	f7fe faed 	bl	80033a4 <_ZN9CTerminal6printfEPKcz>
 8004dca:	6862      	ldr	r2, [r4, #4]
 8004dcc:	6953      	ldr	r3, [r2, #20]
 8004dce:	f023 0302 	bic.w	r3, r3, #2
 8004dd2:	6153      	str	r3, [r2, #20]
 8004dd4:	bd70      	pop	{r4, r5, r6, pc}
 8004dd6:	bf00      	nop
 8004dd8:	200008f4 	strdcs	r0, [r0], -r4
 8004ddc:	08005d84 	stmdaeq	r0, {r2, r7, r8, sl, fp, ip, lr}
 8004de0:	200008f8 	strdcs	r0, [r0], -r8

08004de4 <_ZN5TGpioILh8ELh1ELh0EEC1Ev>:
 8004de4:	b08c      	sub	sp, #48	; 0x30
 8004de6:	4b45      	ldr	r3, [pc, #276]	; (8004efc <_ZN5TGpioILh8ELh1ELh0EEC1Ev+0x118>)
 8004de8:	2200      	movs	r2, #0
 8004dea:	9201      	str	r2, [sp, #4]
 8004dec:	6b19      	ldr	r1, [r3, #48]	; 0x30
 8004dee:	f041 0101 	orr.w	r1, r1, #1
 8004df2:	6319      	str	r1, [r3, #48]	; 0x30
 8004df4:	6b19      	ldr	r1, [r3, #48]	; 0x30
 8004df6:	f001 0101 	and.w	r1, r1, #1
 8004dfa:	9101      	str	r1, [sp, #4]
 8004dfc:	9901      	ldr	r1, [sp, #4]
 8004dfe:	9202      	str	r2, [sp, #8]
 8004e00:	6b19      	ldr	r1, [r3, #48]	; 0x30
 8004e02:	f041 0102 	orr.w	r1, r1, #2
 8004e06:	6319      	str	r1, [r3, #48]	; 0x30
 8004e08:	6b19      	ldr	r1, [r3, #48]	; 0x30
 8004e0a:	f001 0102 	and.w	r1, r1, #2
 8004e0e:	9102      	str	r1, [sp, #8]
 8004e10:	9902      	ldr	r1, [sp, #8]
 8004e12:	9203      	str	r2, [sp, #12]
 8004e14:	6b19      	ldr	r1, [r3, #48]	; 0x30
 8004e16:	f041 0104 	orr.w	r1, r1, #4
 8004e1a:	6319      	str	r1, [r3, #48]	; 0x30
 8004e1c:	6b19      	ldr	r1, [r3, #48]	; 0x30
 8004e1e:	f001 0104 	and.w	r1, r1, #4
 8004e22:	9103      	str	r1, [sp, #12]
 8004e24:	9903      	ldr	r1, [sp, #12]
 8004e26:	9204      	str	r2, [sp, #16]
 8004e28:	6b19      	ldr	r1, [r3, #48]	; 0x30
 8004e2a:	f041 0108 	orr.w	r1, r1, #8
 8004e2e:	6319      	str	r1, [r3, #48]	; 0x30
 8004e30:	6b19      	ldr	r1, [r3, #48]	; 0x30
 8004e32:	f001 0108 	and.w	r1, r1, #8
 8004e36:	9104      	str	r1, [sp, #16]
 8004e38:	9904      	ldr	r1, [sp, #16]
 8004e3a:	9205      	str	r2, [sp, #20]
 8004e3c:	6b19      	ldr	r1, [r3, #48]	; 0x30
 8004e3e:	f041 0110 	orr.w	r1, r1, #16
 8004e42:	6319      	str	r1, [r3, #48]	; 0x30
 8004e44:	6b19      	ldr	r1, [r3, #48]	; 0x30
 8004e46:	f001 0110 	and.w	r1, r1, #16
 8004e4a:	9105      	str	r1, [sp, #20]
 8004e4c:	9905      	ldr	r1, [sp, #20]
 8004e4e:	9206      	str	r2, [sp, #24]
 8004e50:	6b19      	ldr	r1, [r3, #48]	; 0x30
 8004e52:	f041 0120 	orr.w	r1, r1, #32
 8004e56:	6319      	str	r1, [r3, #48]	; 0x30
 8004e58:	6b19      	ldr	r1, [r3, #48]	; 0x30
 8004e5a:	f001 0120 	and.w	r1, r1, #32
 8004e5e:	9106      	str	r1, [sp, #24]
 8004e60:	9906      	ldr	r1, [sp, #24]
 8004e62:	9207      	str	r2, [sp, #28]
 8004e64:	6b19      	ldr	r1, [r3, #48]	; 0x30
 8004e66:	f041 0140 	orr.w	r1, r1, #64	; 0x40
 8004e6a:	6319      	str	r1, [r3, #48]	; 0x30
 8004e6c:	6b19      	ldr	r1, [r3, #48]	; 0x30
 8004e6e:	f001 0140 	and.w	r1, r1, #64	; 0x40
 8004e72:	9107      	str	r1, [sp, #28]
 8004e74:	9907      	ldr	r1, [sp, #28]
 8004e76:	9208      	str	r2, [sp, #32]
 8004e78:	6b19      	ldr	r1, [r3, #48]	; 0x30
 8004e7a:	f041 0180 	orr.w	r1, r1, #128	; 0x80
 8004e7e:	6319      	str	r1, [r3, #48]	; 0x30
 8004e80:	6b19      	ldr	r1, [r3, #48]	; 0x30
 8004e82:	f001 0180 	and.w	r1, r1, #128	; 0x80
 8004e86:	9108      	str	r1, [sp, #32]
 8004e88:	9908      	ldr	r1, [sp, #32]
 8004e8a:	9209      	str	r2, [sp, #36]	; 0x24
 8004e8c:	6b19      	ldr	r1, [r3, #48]	; 0x30
 8004e8e:	f441 7180 	orr.w	r1, r1, #256	; 0x100
 8004e92:	6319      	str	r1, [r3, #48]	; 0x30
 8004e94:	6b19      	ldr	r1, [r3, #48]	; 0x30
 8004e96:	f401 7180 	and.w	r1, r1, #256	; 0x100
 8004e9a:	9109      	str	r1, [sp, #36]	; 0x24
 8004e9c:	9909      	ldr	r1, [sp, #36]	; 0x24
 8004e9e:	920a      	str	r2, [sp, #40]	; 0x28
 8004ea0:	6b19      	ldr	r1, [r3, #48]	; 0x30
 8004ea2:	f441 7100 	orr.w	r1, r1, #512	; 0x200
 8004ea6:	6319      	str	r1, [r3, #48]	; 0x30
 8004ea8:	6b19      	ldr	r1, [r3, #48]	; 0x30
 8004eaa:	f401 7100 	and.w	r1, r1, #512	; 0x200
 8004eae:	910a      	str	r1, [sp, #40]	; 0x28
 8004eb0:	990a      	ldr	r1, [sp, #40]	; 0x28
 8004eb2:	920b      	str	r2, [sp, #44]	; 0x2c
 8004eb4:	6b1a      	ldr	r2, [r3, #48]	; 0x30
 8004eb6:	f442 6280 	orr.w	r2, r2, #1024	; 0x400
 8004eba:	631a      	str	r2, [r3, #48]	; 0x30
 8004ebc:	6b1b      	ldr	r3, [r3, #48]	; 0x30
 8004ebe:	f403 6380 	and.w	r3, r3, #1024	; 0x400
 8004ec2:	930b      	str	r3, [sp, #44]	; 0x2c
 8004ec4:	9b0b      	ldr	r3, [sp, #44]	; 0x2c
 8004ec6:	4b0e      	ldr	r3, [pc, #56]	; (8004f00 <_ZN5TGpioILh8ELh1ELh0EEC1Ev+0x11c>)
 8004ec8:	6003      	str	r3, [r0, #0]
 8004eca:	689a      	ldr	r2, [r3, #8]
 8004ecc:	f022 020c 	bic.w	r2, r2, #12
 8004ed0:	609a      	str	r2, [r3, #8]
 8004ed2:	689a      	ldr	r2, [r3, #8]
 8004ed4:	f042 020c 	orr.w	r2, r2, #12
 8004ed8:	609a      	str	r2, [r3, #8]
 8004eda:	685a      	ldr	r2, [r3, #4]
 8004edc:	f022 0202 	bic.w	r2, r2, #2
 8004ee0:	605a      	str	r2, [r3, #4]
 8004ee2:	685a      	ldr	r2, [r3, #4]
 8004ee4:	605a      	str	r2, [r3, #4]
 8004ee6:	681a      	ldr	r2, [r3, #0]
 8004ee8:	f022 020c 	bic.w	r2, r2, #12
 8004eec:	601a      	str	r2, [r3, #0]
 8004eee:	681a      	ldr	r2, [r3, #0]
 8004ef0:	f042 0204 	orr.w	r2, r2, #4
 8004ef4:	601a      	str	r2, [r3, #0]
 8004ef6:	b00c      	add	sp, #48	; 0x30
 8004ef8:	4770      	bx	lr
 8004efa:	bf00      	nop
 8004efc:	40023800 	andmi	r3, r2, r0, lsl #16
 8004f00:	40022000 	andmi	r2, r2, r0

08004f04 <_ZN9CInfoTaskC1Ev>:
 8004f04:	b570      	push	{r4, r5, r6, lr}
 8004f06:	4b0f      	ldr	r3, [pc, #60]	; (8004f44 <_ZN9CInfoTaskC1Ev+0x40>)
 8004f08:	4e0f      	ldr	r6, [pc, #60]	; (8004f48 <_ZN9CInfoTaskC1Ev+0x44>)
 8004f0a:	4604      	mov	r4, r0
 8004f0c:	f104 0508 	add.w	r5, r4, #8
 8004f10:	f840 3b04 	str.w	r3, [r0], #4
 8004f14:	f7ff ff66 	bl	8004de4 <_ZN5TGpioILh8ELh1ELh0EEC1Ev>
 8004f18:	4628      	mov	r0, r5
 8004f1a:	f7ff fbcc 	bl	80046b6 <_ZN8CVL53L0XC1Ev>
 8004f1e:	4630      	mov	r0, r6
 8004f20:	490a      	ldr	r1, [pc, #40]	; (8004f4c <_ZN9CInfoTaskC1Ev+0x48>)
 8004f22:	f7fe fa3f 	bl	80033a4 <_ZN9CTerminal6printfEPKcz>
 8004f26:	4630      	mov	r0, r6
 8004f28:	4909      	ldr	r1, [pc, #36]	; (8004f50 <_ZN9CInfoTaskC1Ev+0x4c>)
 8004f2a:	f7fe fa3b 	bl	80033a4 <_ZN9CTerminal6printfEPKcz>
 8004f2e:	4628      	mov	r0, r5
 8004f30:	f7ff fc8e 	bl	8004850 <_ZN8CVL53L0X10laser_initEv>
 8004f34:	6862      	ldr	r2, [r4, #4]
 8004f36:	6953      	ldr	r3, [r2, #20]
 8004f38:	f043 0302 	orr.w	r3, r3, #2
 8004f3c:	6153      	str	r3, [r2, #20]
 8004f3e:	4620      	mov	r0, r4
 8004f40:	bd70      	pop	{r4, r5, r6, pc}
 8004f42:	bf00      	nop
 8004f44:	08005de0 	stmdaeq	r0, {r5, r6, r7, r8, sl, fp, ip, lr}
 8004f48:	200008f8 	strdcs	r0, [r0], -r8
 8004f4c:	08005dac 	stmdaeq	r0, {r2, r3, r5, r7, r8, sl, fp, ip, lr}
 8004f50:	08005db0 	stmdaeq	r0, {r4, r5, r7, r8, sl, fp, ip, lr}

08004f54 <main>:
 8004f54:	b510      	push	{r4, lr}
 8004f56:	b0de      	sub	sp, #376	; 0x178
 8004f58:	f7fb fb1f 	bl	800059a <core_init>
 8004f5c:	481b      	ldr	r0, [pc, #108]	; (8004fcc <main+0x78>)
 8004f5e:	f7ff fea5 	bl	8004cac <_ZN6CUSART4initEv>
 8004f62:	481b      	ldr	r0, [pc, #108]	; (8004fd0 <main+0x7c>)
 8004f64:	f7fe f92e 	bl	80031c4 <_ZN6CTimer4initEv>
 8004f68:	2101      	movs	r1, #1
 8004f6a:	481a      	ldr	r0, [pc, #104]	; (8004fd4 <main+0x80>)
 8004f6c:	f7ff fb58 	bl	8004620 <_ZN6CSDRam4initEb>
 8004f70:	4819      	ldr	r0, [pc, #100]	; (8004fd8 <main+0x84>)
 8004f72:	f7ff f829 	bl	8003fc8 <_ZN4CLCD9get_widthEv>
 8004f76:	4604      	mov	r4, r0
 8004f78:	4817      	ldr	r0, [pc, #92]	; (8004fd8 <main+0x84>)
 8004f7a:	f7ff f828 	bl	8003fce <_ZN4CLCD10get_heightEv>
 8004f7e:	fb00 f104 	mul.w	r1, r0, r4
 8004f82:	f021 4140 	bic.w	r1, r1, #3221225472	; 0xc0000000
 8004f86:	4813      	ldr	r0, [pc, #76]	; (8004fd4 <main+0x80>)
 8004f88:	f7ff fa39 	bl	80043fe <_ZN6CSDRam8allocateEj>
 8004f8c:	4601      	mov	r1, r0
 8004f8e:	4812      	ldr	r0, [pc, #72]	; (8004fd8 <main+0x84>)
 8004f90:	f7ff fa00 	bl	8004394 <_ZN4CLCD4initEPm>
 8004f94:	4911      	ldr	r1, [pc, #68]	; (8004fdc <main+0x88>)
 8004f96:	480d      	ldr	r0, [pc, #52]	; (8004fcc <main+0x78>)
 8004f98:	f7fe fa04 	bl	80033a4 <_ZN9CTerminal6printfEPKcz>
 8004f9c:	a801      	add	r0, sp, #4
 8004f9e:	f7ff ffb1 	bl	8004f04 <_ZN9CInfoTaskC1Ev>
 8004fa2:	a901      	add	r1, sp, #4
 8004fa4:	f44f 72fa 	mov.w	r2, #500	; 0x1f4
 8004fa8:	2301      	movs	r3, #1
 8004faa:	4809      	ldr	r0, [pc, #36]	; (8004fd0 <main+0x7c>)
 8004fac:	f7fe f80e 	bl	8002fcc <_ZN6CTimer8add_taskEP7CThreadjb>
 8004fb0:	a808      	add	r0, sp, #32
 8004fb2:	f000 fc2b 	bl	800580c <_ZN6CIRCAMC1Ev>
 8004fb6:	4806      	ldr	r0, [pc, #24]	; (8004fd0 <main+0x7c>)
 8004fb8:	a908      	add	r1, sp, #32
 8004fba:	2232      	movs	r2, #50	; 0x32
 8004fbc:	2301      	movs	r3, #1
 8004fbe:	f7fe f805 	bl	8002fcc <_ZN6CTimer8add_taskEP7CThreadjb>
 8004fc2:	4803      	ldr	r0, [pc, #12]	; (8004fd0 <main+0x7c>)
 8004fc4:	f7fe f838 	bl	8003038 <_ZN6CTimer4mainEv>
 8004fc8:	e7fb      	b.n	8004fc2 <main+0x6e>
 8004fca:	bf00      	nop
 8004fcc:	200008f8 	strdcs	r0, [r0], -r8
 8004fd0:	200008f4 	strdcs	r0, [r0], -r4
 8004fd4:	20000af0 	strdcs	r0, [r0], -r0	; <UNPREDICTABLE>
 8004fd8:	20000a2c 	andcs	r0, r0, ip, lsr #20
 8004fdc:	08005dc0 	stmdaeq	r0, {r6, r7, r8, sl, fp, ip, lr}

08004fe0 <_ZN4TI2CILh5ELh10ELh6ELj20ELh5EE9write_regEhhh>:
 8004fe0:	e92d 41f0 	stmdb	sp!, {r4, r5, r6, r7, r8, lr}
 8004fe4:	461d      	mov	r5, r3
 8004fe6:	6803      	ldr	r3, [r0, #0]
 8004fe8:	4604      	mov	r4, r0
 8004fea:	681b      	ldr	r3, [r3, #0]
 8004fec:	4616      	mov	r6, r2
 8004fee:	460f      	mov	r7, r1
 8004ff0:	4798      	blx	r3
 8004ff2:	6823      	ldr	r3, [r4, #0]
 8004ff4:	4639      	mov	r1, r7
 8004ff6:	689b      	ldr	r3, [r3, #8]
 8004ff8:	4620      	mov	r0, r4
 8004ffa:	4798      	blx	r3
 8004ffc:	6823      	ldr	r3, [r4, #0]
 8004ffe:	4631      	mov	r1, r6
 8005000:	689b      	ldr	r3, [r3, #8]
 8005002:	4620      	mov	r0, r4
 8005004:	4798      	blx	r3
 8005006:	6823      	ldr	r3, [r4, #0]
 8005008:	4620      	mov	r0, r4
 800500a:	689a      	ldr	r2, [r3, #8]
 800500c:	4629      	mov	r1, r5
 800500e:	4790      	blx	r2
 8005010:	6823      	ldr	r3, [r4, #0]
 8005012:	4620      	mov	r0, r4
 8005014:	685b      	ldr	r3, [r3, #4]
 8005016:	e8bd 41f0 	ldmia.w	sp!, {r4, r5, r6, r7, r8, lr}
 800501a:	4718      	bx	r3

0800501c <_ZN4TI2CILh5ELh10ELh6ELj20ELh5EE15write_reg_16bitEhhj>:
 800501c:	e92d 41f0 	stmdb	sp!, {r4, r5, r6, r7, r8, lr}
 8005020:	461d      	mov	r5, r3
 8005022:	6803      	ldr	r3, [r0, #0]
 8005024:	4604      	mov	r4, r0
 8005026:	681b      	ldr	r3, [r3, #0]
 8005028:	4616      	mov	r6, r2
 800502a:	460f      	mov	r7, r1
 800502c:	4798      	blx	r3
 800502e:	6823      	ldr	r3, [r4, #0]
 8005030:	4639      	mov	r1, r7
 8005032:	689b      	ldr	r3, [r3, #8]
 8005034:	4620      	mov	r0, r4
 8005036:	4798      	blx	r3
 8005038:	6823      	ldr	r3, [r4, #0]
 800503a:	4631      	mov	r1, r6
 800503c:	689b      	ldr	r3, [r3, #8]
 800503e:	4620      	mov	r0, r4
 8005040:	4798      	blx	r3
 8005042:	6823      	ldr	r3, [r4, #0]
 8005044:	f3c5 2107 	ubfx	r1, r5, #8, #8
 8005048:	689b      	ldr	r3, [r3, #8]
 800504a:	4620      	mov	r0, r4
 800504c:	4798      	blx	r3
 800504e:	6823      	ldr	r3, [r4, #0]
 8005050:	4620      	mov	r0, r4
 8005052:	689b      	ldr	r3, [r3, #8]
 8005054:	b2e9      	uxtb	r1, r5
 8005056:	4798      	blx	r3
 8005058:	6823      	ldr	r3, [r4, #0]
 800505a:	4620      	mov	r0, r4
 800505c:	685b      	ldr	r3, [r3, #4]
 800505e:	e8bd 41f0 	ldmia.w	sp!, {r4, r5, r6, r7, r8, lr}
 8005062:	4718      	bx	r3

08005064 <_ZN4TI2CILh5ELh10ELh6ELj20ELh5EE15write_reg_multiEhhPhj>:
 8005064:	e92d 41f0 	stmdb	sp!, {r4, r5, r6, r7, r8, lr}
 8005068:	461d      	mov	r5, r3
 800506a:	6803      	ldr	r3, [r0, #0]
 800506c:	9e06      	ldr	r6, [sp, #24]
 800506e:	681b      	ldr	r3, [r3, #0]
 8005070:	4604      	mov	r4, r0
 8005072:	4617      	mov	r7, r2
 8005074:	4688      	mov	r8, r1
 8005076:	4798      	blx	r3
 8005078:	6823      	ldr	r3, [r4, #0]
 800507a:	4641      	mov	r1, r8
 800507c:	689b      	ldr	r3, [r3, #8]
 800507e:	4620      	mov	r0, r4
 8005080:	4798      	blx	r3
 8005082:	6823      	ldr	r3, [r4, #0]
 8005084:	4620      	mov	r0, r4
 8005086:	689b      	ldr	r3, [r3, #8]
 8005088:	4639      	mov	r1, r7
 800508a:	4798      	blx	r3
 800508c:	442e      	add	r6, r5
 800508e:	42b5      	cmp	r5, r6
 8005090:	6823      	ldr	r3, [r4, #0]
 8005092:	d005      	beq.n	80050a0 <_ZN4TI2CILh5ELh10ELh6ELj20ELh5EE15write_reg_multiEhhPhj+0x3c>
 8005094:	689b      	ldr	r3, [r3, #8]
 8005096:	f815 1b01 	ldrb.w	r1, [r5], #1
 800509a:	4620      	mov	r0, r4
 800509c:	4798      	blx	r3
 800509e:	e7f6      	b.n	800508e <_ZN4TI2CILh5ELh10ELh6ELj20ELh5EE15write_reg_multiEhhPhj+0x2a>
 80050a0:	4620      	mov	r0, r4
 80050a2:	685b      	ldr	r3, [r3, #4]
 80050a4:	e8bd 41f0 	ldmia.w	sp!, {r4, r5, r6, r7, r8, lr}
 80050a8:	4718      	bx	r3

080050aa <_ZN4TI2CILh5ELh10ELh6ELj20ELh5EE8read_regEhh>:
 80050aa:	6803      	ldr	r3, [r0, #0]
 80050ac:	b570      	push	{r4, r5, r6, lr}
 80050ae:	4604      	mov	r4, r0
 80050b0:	681b      	ldr	r3, [r3, #0]
 80050b2:	4616      	mov	r6, r2
 80050b4:	460d      	mov	r5, r1
 80050b6:	4798      	blx	r3
 80050b8:	6823      	ldr	r3, [r4, #0]
 80050ba:	4629      	mov	r1, r5
 80050bc:	689b      	ldr	r3, [r3, #8]
 80050be:	4620      	mov	r0, r4
 80050c0:	4798      	blx	r3
 80050c2:	6823      	ldr	r3, [r4, #0]
 80050c4:	4631      	mov	r1, r6
 80050c6:	689b      	ldr	r3, [r3, #8]
 80050c8:	4620      	mov	r0, r4
 80050ca:	4798      	blx	r3
 80050cc:	6823      	ldr	r3, [r4, #0]
 80050ce:	4620      	mov	r0, r4
 80050d0:	681b      	ldr	r3, [r3, #0]
 80050d2:	4798      	blx	r3
 80050d4:	6823      	ldr	r3, [r4, #0]
 80050d6:	f045 0101 	orr.w	r1, r5, #1
 80050da:	689b      	ldr	r3, [r3, #8]
 80050dc:	4620      	mov	r0, r4
 80050de:	4798      	blx	r3
 80050e0:	6823      	ldr	r3, [r4, #0]
 80050e2:	2100      	movs	r1, #0
 80050e4:	68db      	ldr	r3, [r3, #12]
 80050e6:	4620      	mov	r0, r4
 80050e8:	4798      	blx	r3
 80050ea:	6823      	ldr	r3, [r4, #0]
 80050ec:	4605      	mov	r5, r0
 80050ee:	685b      	ldr	r3, [r3, #4]
 80050f0:	4620      	mov	r0, r4
 80050f2:	4798      	blx	r3
 80050f4:	4628      	mov	r0, r5
 80050f6:	bd70      	pop	{r4, r5, r6, pc}

080050f8 <_ZN4TI2CILh5ELh10ELh6ELj20ELh5EE14read_reg_16bitEhh>:
 80050f8:	6803      	ldr	r3, [r0, #0]
 80050fa:	b570      	push	{r4, r5, r6, lr}
 80050fc:	4604      	mov	r4, r0
 80050fe:	681b      	ldr	r3, [r3, #0]
 8005100:	4616      	mov	r6, r2
 8005102:	460d      	mov	r5, r1
 8005104:	4798      	blx	r3
 8005106:	6823      	ldr	r3, [r4, #0]
 8005108:	4629      	mov	r1, r5
 800510a:	689b      	ldr	r3, [r3, #8]
 800510c:	4620      	mov	r0, r4
 800510e:	4798      	blx	r3
 8005110:	6823      	ldr	r3, [r4, #0]
 8005112:	4631      	mov	r1, r6
 8005114:	689b      	ldr	r3, [r3, #8]
 8005116:	4620      	mov	r0, r4
 8005118:	4798      	blx	r3
 800511a:	6823      	ldr	r3, [r4, #0]
 800511c:	4620      	mov	r0, r4
 800511e:	681b      	ldr	r3, [r3, #0]
 8005120:	4798      	blx	r3
 8005122:	6823      	ldr	r3, [r4, #0]
 8005124:	f045 0101 	orr.w	r1, r5, #1
 8005128:	689b      	ldr	r3, [r3, #8]
 800512a:	4620      	mov	r0, r4
 800512c:	4798      	blx	r3
 800512e:	6823      	ldr	r3, [r4, #0]
 8005130:	4620      	mov	r0, r4
 8005132:	68db      	ldr	r3, [r3, #12]
 8005134:	2101      	movs	r1, #1
 8005136:	4798      	blx	r3
 8005138:	6823      	ldr	r3, [r4, #0]
 800513a:	2100      	movs	r1, #0
 800513c:	0205      	lsls	r5, r0, #8
 800513e:	68db      	ldr	r3, [r3, #12]
 8005140:	4620      	mov	r0, r4
 8005142:	4798      	blx	r3
 8005144:	6823      	ldr	r3, [r4, #0]
 8005146:	4305      	orrs	r5, r0
 8005148:	685b      	ldr	r3, [r3, #4]
 800514a:	4620      	mov	r0, r4
 800514c:	4798      	blx	r3
 800514e:	4628      	mov	r0, r5
 8005150:	bd70      	pop	{r4, r5, r6, pc}

08005152 <_ZN4TI2CILh5ELh10ELh6ELj20ELh5EE14read_reg_multiEhhPhj>:
 8005152:	e92d 41f0 	stmdb	sp!, {r4, r5, r6, r7, r8, lr}
 8005156:	461d      	mov	r5, r3
 8005158:	6803      	ldr	r3, [r0, #0]
 800515a:	9e06      	ldr	r6, [sp, #24]
 800515c:	681b      	ldr	r3, [r3, #0]
 800515e:	4604      	mov	r4, r0
 8005160:	4690      	mov	r8, r2
 8005162:	460f      	mov	r7, r1
 8005164:	4798      	blx	r3
 8005166:	6823      	ldr	r3, [r4, #0]
 8005168:	4639      	mov	r1, r7
 800516a:	689b      	ldr	r3, [r3, #8]
 800516c:	4620      	mov	r0, r4
 800516e:	4798      	blx	r3
 8005170:	6823      	ldr	r3, [r4, #0]
 8005172:	4641      	mov	r1, r8
 8005174:	689b      	ldr	r3, [r3, #8]
 8005176:	4620      	mov	r0, r4
 8005178:	4798      	blx	r3
 800517a:	6823      	ldr	r3, [r4, #0]
 800517c:	4620      	mov	r0, r4
 800517e:	681b      	ldr	r3, [r3, #0]
 8005180:	4798      	blx	r3
 8005182:	6823      	ldr	r3, [r4, #0]
 8005184:	4620      	mov	r0, r4
 8005186:	689b      	ldr	r3, [r3, #8]
 8005188:	f047 0101 	orr.w	r1, r7, #1
 800518c:	4798      	blx	r3
 800518e:	442e      	add	r6, r5
 8005190:	42b5      	cmp	r5, r6
 8005192:	6823      	ldr	r3, [r4, #0]
 8005194:	d006      	beq.n	80051a4 <_ZN4TI2CILh5ELh10ELh6ELj20ELh5EE14read_reg_multiEhhPhj+0x52>
 8005196:	68db      	ldr	r3, [r3, #12]
 8005198:	4620      	mov	r0, r4
 800519a:	2101      	movs	r1, #1
 800519c:	4798      	blx	r3
 800519e:	f805 0b01 	strb.w	r0, [r5], #1
 80051a2:	e7f5      	b.n	8005190 <_ZN4TI2CILh5ELh10ELh6ELj20ELh5EE14read_reg_multiEhhPhj+0x3e>
 80051a4:	4620      	mov	r0, r4
 80051a6:	685b      	ldr	r3, [r3, #4]
 80051a8:	e8bd 41f0 	ldmia.w	sp!, {r4, r5, r6, r7, r8, lr}
 80051ac:	4718      	bx	r3
 80051ae:	0000      	movs	r0, r0

080051b0 <_ZN6CIRCAMD1Ev>:
 80051b0:	b510      	push	{r4, lr}
 80051b2:	4b06      	ldr	r3, [pc, #24]	; (80051cc <_ZN6CIRCAMD1Ev+0x1c>)
 80051b4:	4604      	mov	r4, r0
 80051b6:	f840 3b48 	str.w	r3, [r0], #72
 80051ba:	f7ff fc66 	bl	8004a8a <_ZN9CMLX90621D1Ev>
 80051be:	f104 0018 	add.w	r0, r4, #24
 80051c2:	f7fe fa67 	bl	8003694 <_ZN7CCameraD1Ev>
 80051c6:	4620      	mov	r0, r4
 80051c8:	bd10      	pop	{r4, pc}
 80051ca:	bf00      	nop
 80051cc:	08005e28 	stmdaeq	r0, {r3, r5, r9, sl, fp, ip, lr}

080051d0 <_ZN6CIRCAMD0Ev>:
 80051d0:	b510      	push	{r4, lr}
 80051d2:	4604      	mov	r4, r0
 80051d4:	f7ff ffec 	bl	80051b0 <_ZN6CIRCAMD1Ev>
 80051d8:	4620      	mov	r0, r4
 80051da:	f7fd fe76 	bl	8002eca <_ZdlPv>
 80051de:	4620      	mov	r0, r4
 80051e0:	bd10      	pop	{r4, pc}

080051e2 <_ZN4TI2CILh5ELh10ELh6ELj20ELh5EE5delayEv.isra.9>:
 80051e2:	2314      	movs	r3, #20
 80051e4:	bf00      	nop
 80051e6:	3b01      	subs	r3, #1
 80051e8:	f013 03ff 	ands.w	r3, r3, #255	; 0xff
 80051ec:	d1fa      	bne.n	80051e4 <_ZN4TI2CILh5ELh10ELh6ELj20ELh5EE5delayEv.isra.9+0x2>
 80051ee:	4770      	bx	lr

080051f0 <_ZN6CIRCAM11camera_drawEjj>:
 80051f0:	e92d 43f7 	stmdb	sp!, {r0, r1, r2, r4, r5, r6, r7, r8, r9, lr}
 80051f4:	4606      	mov	r6, r0
 80051f6:	460f      	mov	r7, r1
 80051f8:	4690      	mov	r8, r2
 80051fa:	2400      	movs	r4, #0
 80051fc:	f106 0518 	add.w	r5, r6, #24
 8005200:	4628      	mov	r0, r5
 8005202:	f7fe fb2f 	bl	8003864 <_ZN7CCamera9get_res_yEv>
 8005206:	4284      	cmp	r4, r0
 8005208:	d224      	bcs.n	8005254 <_ZN6CIRCAM11camera_drawEjj+0x64>
 800520a:	f04f 0900 	mov.w	r9, #0
 800520e:	4628      	mov	r0, r5
 8005210:	f7fe fb26 	bl	8003860 <_ZN7CCamera9get_res_xEv>
 8005214:	4581      	cmp	r9, r0
 8005216:	d21b      	bcs.n	8005250 <_ZN6CIRCAM11camera_drawEjj+0x60>
 8005218:	4628      	mov	r0, r5
 800521a:	f7fe fb21 	bl	8003860 <_ZN7CCamera9get_res_xEv>
 800521e:	fb04 9000 	mla	r0, r4, r0, r9
 8005222:	6b33      	ldr	r3, [r6, #48]	; 0x30
 8005224:	0840      	lsrs	r0, r0, #1
 8005226:	f853 2020 	ldr.w	r2, [r3, r0, lsl #2]
 800522a:	480c      	ldr	r0, [pc, #48]	; (800525c <_ZN6CIRCAM11camera_drawEjj+0x6c>)
 800522c:	0a13      	lsrs	r3, r2, #8
 800522e:	08d1      	lsrs	r1, r2, #3
 8005230:	00d2      	lsls	r2, r2, #3
 8005232:	f001 01fc 	and.w	r1, r1, #252	; 0xfc
 8005236:	b2d2      	uxtb	r2, r2
 8005238:	9100      	str	r1, [sp, #0]
 800523a:	9201      	str	r2, [sp, #4]
 800523c:	eb09 0108 	add.w	r1, r9, r8
 8005240:	19e2      	adds	r2, r4, r7
 8005242:	f003 03f8 	and.w	r3, r3, #248	; 0xf8
 8005246:	f7fe ff74 	bl	8004132 <_ZN4CLCD9DrawPixelEiihhh>
 800524a:	f109 0901 	add.w	r9, r9, #1
 800524e:	e7de      	b.n	800520e <_ZN6CIRCAM11camera_drawEjj+0x1e>
 8005250:	3401      	adds	r4, #1
 8005252:	e7d3      	b.n	80051fc <_ZN6CIRCAM11camera_drawEjj+0xc>
 8005254:	b003      	add	sp, #12
 8005256:	e8bd 83f0 	ldmia.w	sp!, {r4, r5, r6, r7, r8, r9, pc}
 800525a:	bf00      	nop
 800525c:	20000a2c 	andcs	r0, r0, ip, lsr #20

08005260 <_Z11interpolateiiiiii>:
 8005260:	b5f0      	push	{r4, r5, r6, r7, lr}
 8005262:	9c05      	ldr	r4, [sp, #20]
 8005264:	9f06      	ldr	r7, [sp, #24]
 8005266:	f1c4 06ff 	rsb	r6, r4, #255	; 0xff
 800526a:	f1c7 05ff 	rsb	r5, r7, #255	; 0xff
 800526e:	fb05 fe06 	mul.w	lr, r5, r6
 8005272:	437e      	muls	r6, r7
 8005274:	4371      	muls	r1, r6
 8005276:	fb0e 1000 	mla	r0, lr, r0, r1
 800527a:	4365      	muls	r5, r4
 800527c:	fb05 0202 	mla	r2, r5, r2, r0
 8005280:	4363      	muls	r3, r4
 8005282:	fb07 2303 	mla	r3, r7, r3, r2
 8005286:	f44f 3080 	mov.w	r0, #65536	; 0x10000
 800528a:	fb93 f0f0 	sdiv	r0, r3, r0
 800528e:	bdf0      	pop	{r4, r5, r6, r7, pc}

08005290 <_ZN6CIRCAM7ir_drawEjjjjb>:
 8005290:	e92d 4ff0 	stmdb	sp!, {r4, r5, r6, r7, r8, r9, sl, fp, lr}
 8005294:	b089      	sub	sp, #36	; 0x24
 8005296:	f04f 0903 	mov.w	r9, #3
 800529a:	9206      	str	r2, [sp, #24]
 800529c:	fbb3 f3f9 	udiv	r3, r3, r9
 80052a0:	f89d 204c 	ldrb.w	r2, [sp, #76]	; 0x4c
 80052a4:	9302      	str	r3, [sp, #8]
 80052a6:	9f12      	ldr	r7, [sp, #72]	; 0x48
 80052a8:	9207      	str	r2, [sp, #28]
 80052aa:	230f      	movs	r3, #15
 80052ac:	fbb7 f7f3 	udiv	r7, r7, r3
 80052b0:	f500 7394 	add.w	r3, r0, #296	; 0x128
 80052b4:	f100 08c8 	add.w	r8, r0, #200	; 0xc8
 80052b8:	9305      	str	r3, [sp, #20]
 80052ba:	4689      	mov	r9, r1
 80052bc:	f8dd b018 	ldr.w	fp, [sp, #24]
 80052c0:	4644      	mov	r4, r8
 80052c2:	f04f 0a0f 	mov.w	sl, #15
 80052c6:	2500      	movs	r5, #0
 80052c8:	9b02      	ldr	r3, [sp, #8]
 80052ca:	429d      	cmp	r5, r3
 80052cc:	d03f      	beq.n	800534e <_ZN6CIRCAM7ir_drawEjjjjb+0xbe>
 80052ce:	ebc5 2305 	rsb	r3, r5, r5, lsl #8
 80052d2:	9303      	str	r3, [sp, #12]
 80052d4:	eb05 0309 	add.w	r3, r5, r9
 80052d8:	9304      	str	r3, [sp, #16]
 80052da:	2600      	movs	r6, #0
 80052dc:	42be      	cmp	r6, r7
 80052de:	d034      	beq.n	800534a <_ZN6CIRCAM7ir_drawEjjjjb+0xba>
 80052e0:	9b07      	ldr	r3, [sp, #28]
 80052e2:	b143      	cbz	r3, 80052f6 <_ZN6CIRCAM7ir_drawEjjjjb+0x66>
 80052e4:	f9b4 0000 	ldrsh.w	r0, [r4]
 80052e8:	f9b4 1002 	ldrsh.w	r1, [r4, #2]
 80052ec:	f9b4 2020 	ldrsh.w	r2, [r4, #32]
 80052f0:	f9b4 c022 	ldrsh.w	ip, [r4, #34]	; 0x22
 80052f4:	e007      	b.n	8005306 <_ZN6CIRCAM7ir_drawEjjjjb+0x76>
 80052f6:	f934 0c80 	ldrsh.w	r0, [r4, #-128]
 80052fa:	f934 1c7e 	ldrsh.w	r1, [r4, #-126]
 80052fe:	f934 2c60 	ldrsh.w	r2, [r4, #-96]
 8005302:	f934 cc5e 	ldrsh.w	ip, [r4, #-94]
 8005306:	9b03      	ldr	r3, [sp, #12]
 8005308:	469e      	mov	lr, r3
 800530a:	9b02      	ldr	r3, [sp, #8]
 800530c:	fbbe fef3 	udiv	lr, lr, r3
 8005310:	4663      	mov	r3, ip
 8005312:	f8cd e000 	str.w	lr, [sp]
 8005316:	ebc6 2e06 	rsb	lr, r6, r6, lsl #8
 800531a:	fbbe fef7 	udiv	lr, lr, r7
 800531e:	f8cd e004 	str.w	lr, [sp, #4]
 8005322:	f7ff ff9d 	bl	8005260 <_Z11interpolateiiiiii>
 8005326:	2800      	cmp	r0, #0
 8005328:	db03      	blt.n	8005332 <_ZN6CIRCAM7ir_drawEjjjjb+0xa2>
 800532a:	28ff      	cmp	r0, #255	; 0xff
 800532c:	bfa8      	it	ge
 800532e:	20ff      	movge	r0, #255	; 0xff
 8005330:	e000      	b.n	8005334 <_ZN6CIRCAM7ir_drawEjjjjb+0xa4>
 8005332:	2000      	movs	r0, #0
 8005334:	b2c3      	uxtb	r3, r0
 8005336:	eb06 010b 	add.w	r1, r6, fp
 800533a:	9300      	str	r3, [sp, #0]
 800533c:	9301      	str	r3, [sp, #4]
 800533e:	480b      	ldr	r0, [pc, #44]	; (800536c <_ZN6CIRCAM7ir_drawEjjjjb+0xdc>)
 8005340:	9a04      	ldr	r2, [sp, #16]
 8005342:	f7fe fef6 	bl	8004132 <_ZN4CLCD9DrawPixelEiihhh>
 8005346:	3601      	adds	r6, #1
 8005348:	e7c8      	b.n	80052dc <_ZN6CIRCAM7ir_drawEjjjjb+0x4c>
 800534a:	3501      	adds	r5, #1
 800534c:	e7bc      	b.n	80052c8 <_ZN6CIRCAM7ir_drawEjjjjb+0x38>
 800534e:	f1ba 0a01 	subs.w	sl, sl, #1
 8005352:	44bb      	add	fp, r7
 8005354:	f104 0402 	add.w	r4, r4, #2
 8005358:	d1b5      	bne.n	80052c6 <_ZN6CIRCAM7ir_drawEjjjjb+0x36>
 800535a:	9b05      	ldr	r3, [sp, #20]
 800535c:	f108 0820 	add.w	r8, r8, #32
 8005360:	4598      	cmp	r8, r3
 8005362:	44a9      	add	r9, r5
 8005364:	d1aa      	bne.n	80052bc <_ZN6CIRCAM7ir_drawEjjjjb+0x2c>
 8005366:	b009      	add	sp, #36	; 0x24
 8005368:	e8bd 8ff0 	ldmia.w	sp!, {r4, r5, r6, r7, r8, r9, sl, fp, pc}
 800536c:	20000a2c 	andcs	r0, r0, ip, lsr #20

08005370 <_ZN6CIRCAM4mainEv>:
 8005370:	e92d 43f7 	stmdb	sp!, {r0, r1, r2, r4, r5, r6, r7, r8, r9, lr}
 8005374:	4f26      	ldr	r7, [pc, #152]	; (8005410 <_ZN6CIRCAM4mainEv+0xa0>)
 8005376:	4604      	mov	r4, r0
 8005378:	4638      	mov	r0, r7
 800537a:	f7fd fe83 	bl	8003084 <_ZN6CTimer8get_timeEv>
 800537e:	4606      	mov	r6, r0
 8005380:	f104 0048 	add.w	r0, r4, #72	; 0x48
 8005384:	f7ff fbd0 	bl	8004b28 <_ZN9CMLX906214readEv>
 8005388:	4822      	ldr	r0, [pc, #136]	; (8005414 <_ZN6CIRCAM4mainEv+0xa4>)
 800538a:	f7fe fee9 	bl	8004160 <_ZN4CLCD7RefreshEv>
 800538e:	2100      	movs	r1, #0
 8005390:	f104 0518 	add.w	r5, r4, #24
 8005394:	460a      	mov	r2, r1
 8005396:	4620      	mov	r0, r4
 8005398:	f7ff ff2a 	bl	80051f0 <_ZN6CIRCAM11camera_drawEjj>
 800539c:	4628      	mov	r0, r5
 800539e:	f7fe fa5f 	bl	8003860 <_ZN7CCamera9get_res_xEv>
 80053a2:	4681      	mov	r9, r0
 80053a4:	4628      	mov	r0, r5
 80053a6:	f7fe fa5d 	bl	8003864 <_ZN7CCamera9get_res_yEv>
 80053aa:	4680      	mov	r8, r0
 80053ac:	4628      	mov	r0, r5
 80053ae:	f7fe fa57 	bl	8003860 <_ZN7CCamera9get_res_xEv>
 80053b2:	2301      	movs	r3, #1
 80053b4:	464a      	mov	r2, r9
 80053b6:	2100      	movs	r1, #0
 80053b8:	9000      	str	r0, [sp, #0]
 80053ba:	9301      	str	r3, [sp, #4]
 80053bc:	4620      	mov	r0, r4
 80053be:	4643      	mov	r3, r8
 80053c0:	f7ff ff66 	bl	8005290 <_ZN6CIRCAM7ir_drawEjjjjb>
 80053c4:	4628      	mov	r0, r5
 80053c6:	f7fe fa4b 	bl	8003860 <_ZN7CCamera9get_res_xEv>
 80053ca:	4681      	mov	r9, r0
 80053cc:	4628      	mov	r0, r5
 80053ce:	f7fe fa49 	bl	8003864 <_ZN7CCamera9get_res_yEv>
 80053d2:	4680      	mov	r8, r0
 80053d4:	4628      	mov	r0, r5
 80053d6:	f7fe fa43 	bl	8003860 <_ZN7CCamera9get_res_xEv>
 80053da:	2100      	movs	r1, #0
 80053dc:	4643      	mov	r3, r8
 80053de:	9101      	str	r1, [sp, #4]
 80053e0:	ea4f 0249 	mov.w	r2, r9, lsl #1
 80053e4:	9000      	str	r0, [sp, #0]
 80053e6:	4620      	mov	r0, r4
 80053e8:	f7ff ff52 	bl	8005290 <_ZN6CIRCAM7ir_drawEjjjjb>
 80053ec:	4638      	mov	r0, r7
 80053ee:	f7fd fe49 	bl	8003084 <_ZN6CTimer8get_timeEv>
 80053f2:	4909      	ldr	r1, [pc, #36]	; (8005418 <_ZN6CIRCAM4mainEv+0xa8>)
 80053f4:	1b86      	subs	r6, r0, r6
 80053f6:	f44f 727a 	mov.w	r2, #1000	; 0x3e8
 80053fa:	4808      	ldr	r0, [pc, #32]	; (800541c <_ZN6CIRCAM4mainEv+0xac>)
 80053fc:	fbb2 f2f6 	udiv	r2, r2, r6
 8005400:	f7fd ffd0 	bl	80033a4 <_ZN9CTerminal6printfEPKcz>
 8005404:	6923      	ldr	r3, [r4, #16]
 8005406:	3301      	adds	r3, #1
 8005408:	6123      	str	r3, [r4, #16]
 800540a:	b003      	add	sp, #12
 800540c:	e8bd 83f0 	ldmia.w	sp!, {r4, r5, r6, r7, r8, r9, pc}
 8005410:	200008f4 	strdcs	r0, [r0], -r4
 8005414:	20000a2c 	andcs	r0, r0, ip, lsr #20
 8005418:	08005e34 	stmdaeq	r0, {r2, r4, r5, r9, sl, fp, ip, lr}
 800541c:	200008f8 	strdcs	r0, [r0], -r8

08005420 <_ZN5TGpioILh8ELh11ELh1EEC1Ev>:
 8005420:	b08c      	sub	sp, #48	; 0x30
 8005422:	4b41      	ldr	r3, [pc, #260]	; (8005528 <_ZN5TGpioILh8ELh11ELh1EEC1Ev+0x108>)
 8005424:	2200      	movs	r2, #0
 8005426:	9201      	str	r2, [sp, #4]
 8005428:	6b19      	ldr	r1, [r3, #48]	; 0x30
 800542a:	f041 0101 	orr.w	r1, r1, #1
 800542e:	6319      	str	r1, [r3, #48]	; 0x30
 8005430:	6b19      	ldr	r1, [r3, #48]	; 0x30
 8005432:	f001 0101 	and.w	r1, r1, #1
 8005436:	9101      	str	r1, [sp, #4]
 8005438:	9901      	ldr	r1, [sp, #4]
 800543a:	9202      	str	r2, [sp, #8]
 800543c:	6b19      	ldr	r1, [r3, #48]	; 0x30
 800543e:	f041 0102 	orr.w	r1, r1, #2
 8005442:	6319      	str	r1, [r3, #48]	; 0x30
 8005444:	6b19      	ldr	r1, [r3, #48]	; 0x30
 8005446:	f001 0102 	and.w	r1, r1, #2
 800544a:	9102      	str	r1, [sp, #8]
 800544c:	9902      	ldr	r1, [sp, #8]
 800544e:	9203      	str	r2, [sp, #12]
 8005450:	6b19      	ldr	r1, [r3, #48]	; 0x30
 8005452:	f041 0104 	orr.w	r1, r1, #4
 8005456:	6319      	str	r1, [r3, #48]	; 0x30
 8005458:	6b19      	ldr	r1, [r3, #48]	; 0x30
 800545a:	f001 0104 	and.w	r1, r1, #4
 800545e:	9103      	str	r1, [sp, #12]
 8005460:	9903      	ldr	r1, [sp, #12]
 8005462:	9204      	str	r2, [sp, #16]
 8005464:	6b19      	ldr	r1, [r3, #48]	; 0x30
 8005466:	f041 0108 	orr.w	r1, r1, #8
 800546a:	6319      	str	r1, [r3, #48]	; 0x30
 800546c:	6b19      	ldr	r1, [r3, #48]	; 0x30
 800546e:	f001 0108 	and.w	r1, r1, #8
 8005472:	9104      	str	r1, [sp, #16]
 8005474:	9904      	ldr	r1, [sp, #16]
 8005476:	9205      	str	r2, [sp, #20]
 8005478:	6b19      	ldr	r1, [r3, #48]	; 0x30
 800547a:	f041 0110 	orr.w	r1, r1, #16
 800547e:	6319      	str	r1, [r3, #48]	; 0x30
 8005480:	6b19      	ldr	r1, [r3, #48]	; 0x30
 8005482:	f001 0110 	and.w	r1, r1, #16
 8005486:	9105      	str	r1, [sp, #20]
 8005488:	9905      	ldr	r1, [sp, #20]
 800548a:	9206      	str	r2, [sp, #24]
 800548c:	6b19      	ldr	r1, [r3, #48]	; 0x30
 800548e:	f041 0120 	orr.w	r1, r1, #32
 8005492:	6319      	str	r1, [r3, #48]	; 0x30
 8005494:	6b19      	ldr	r1, [r3, #48]	; 0x30
 8005496:	f001 0120 	and.w	r1, r1, #32
 800549a:	9106      	str	r1, [sp, #24]
 800549c:	9906      	ldr	r1, [sp, #24]
 800549e:	9207      	str	r2, [sp, #28]
 80054a0:	6b19      	ldr	r1, [r3, #48]	; 0x30
 80054a2:	f041 0140 	orr.w	r1, r1, #64	; 0x40
 80054a6:	6319      	str	r1, [r3, #48]	; 0x30
 80054a8:	6b19      	ldr	r1, [r3, #48]	; 0x30
 80054aa:	f001 0140 	and.w	r1, r1, #64	; 0x40
 80054ae:	9107      	str	r1, [sp, #28]
 80054b0:	9907      	ldr	r1, [sp, #28]
 80054b2:	9208      	str	r2, [sp, #32]
 80054b4:	6b19      	ldr	r1, [r3, #48]	; 0x30
 80054b6:	f041 0180 	orr.w	r1, r1, #128	; 0x80
 80054ba:	6319      	str	r1, [r3, #48]	; 0x30
 80054bc:	6b19      	ldr	r1, [r3, #48]	; 0x30
 80054be:	f001 0180 	and.w	r1, r1, #128	; 0x80
 80054c2:	9108      	str	r1, [sp, #32]
 80054c4:	9908      	ldr	r1, [sp, #32]
 80054c6:	9209      	str	r2, [sp, #36]	; 0x24
 80054c8:	6b19      	ldr	r1, [r3, #48]	; 0x30
 80054ca:	f441 7180 	orr.w	r1, r1, #256	; 0x100
 80054ce:	6319      	str	r1, [r3, #48]	; 0x30
 80054d0:	6b19      	ldr	r1, [r3, #48]	; 0x30
 80054d2:	f401 7180 	and.w	r1, r1, #256	; 0x100
 80054d6:	9109      	str	r1, [sp, #36]	; 0x24
 80054d8:	9909      	ldr	r1, [sp, #36]	; 0x24
 80054da:	920a      	str	r2, [sp, #40]	; 0x28
 80054dc:	6b19      	ldr	r1, [r3, #48]	; 0x30
 80054de:	f441 7100 	orr.w	r1, r1, #512	; 0x200
 80054e2:	6319      	str	r1, [r3, #48]	; 0x30
 80054e4:	6b19      	ldr	r1, [r3, #48]	; 0x30
 80054e6:	f401 7100 	and.w	r1, r1, #512	; 0x200
 80054ea:	910a      	str	r1, [sp, #40]	; 0x28
 80054ec:	990a      	ldr	r1, [sp, #40]	; 0x28
 80054ee:	920b      	str	r2, [sp, #44]	; 0x2c
 80054f0:	6b1a      	ldr	r2, [r3, #48]	; 0x30
 80054f2:	f442 6280 	orr.w	r2, r2, #1024	; 0x400
 80054f6:	631a      	str	r2, [r3, #48]	; 0x30
 80054f8:	6b1b      	ldr	r3, [r3, #48]	; 0x30
 80054fa:	f403 6380 	and.w	r3, r3, #1024	; 0x400
 80054fe:	930b      	str	r3, [sp, #44]	; 0x2c
 8005500:	9b0b      	ldr	r3, [sp, #44]	; 0x2c
 8005502:	4b0a      	ldr	r3, [pc, #40]	; (800552c <_ZN5TGpioILh8ELh11ELh1EEC1Ev+0x10c>)
 8005504:	6003      	str	r3, [r0, #0]
 8005506:	689a      	ldr	r2, [r3, #8]
 8005508:	f422 0240 	bic.w	r2, r2, #12582912	; 0xc00000
 800550c:	609a      	str	r2, [r3, #8]
 800550e:	689a      	ldr	r2, [r3, #8]
 8005510:	f442 0240 	orr.w	r2, r2, #12582912	; 0xc00000
 8005514:	609a      	str	r2, [r3, #8]
 8005516:	681a      	ldr	r2, [r3, #0]
 8005518:	f422 0240 	bic.w	r2, r2, #12582912	; 0xc00000
 800551c:	601a      	str	r2, [r3, #0]
 800551e:	681a      	ldr	r2, [r3, #0]
 8005520:	601a      	str	r2, [r3, #0]
 8005522:	b00c      	add	sp, #48	; 0x30
 8005524:	4770      	bx	lr
 8005526:	bf00      	nop
 8005528:	40023800 	andmi	r3, r2, r0, lsl #16
 800552c:	40022000 	andmi	r2, r2, r0

08005530 <_ZN5TGpioILh10ELh3ELh0EEC1Ev>:
 8005530:	b08c      	sub	sp, #48	; 0x30
 8005532:	4b45      	ldr	r3, [pc, #276]	; (8005648 <_ZN5TGpioILh10ELh3ELh0EEC1Ev+0x118>)
 8005534:	2200      	movs	r2, #0
 8005536:	9201      	str	r2, [sp, #4]
 8005538:	6b19      	ldr	r1, [r3, #48]	; 0x30
 800553a:	f041 0101 	orr.w	r1, r1, #1
 800553e:	6319      	str	r1, [r3, #48]	; 0x30
 8005540:	6b19      	ldr	r1, [r3, #48]	; 0x30
 8005542:	f001 0101 	and.w	r1, r1, #1
 8005546:	9101      	str	r1, [sp, #4]
 8005548:	9901      	ldr	r1, [sp, #4]
 800554a:	9202      	str	r2, [sp, #8]
 800554c:	6b19      	ldr	r1, [r3, #48]	; 0x30
 800554e:	f041 0102 	orr.w	r1, r1, #2
 8005552:	6319      	str	r1, [r3, #48]	; 0x30
 8005554:	6b19      	ldr	r1, [r3, #48]	; 0x30
 8005556:	f001 0102 	and.w	r1, r1, #2
 800555a:	9102      	str	r1, [sp, #8]
 800555c:	9902      	ldr	r1, [sp, #8]
 800555e:	9203      	str	r2, [sp, #12]
 8005560:	6b19      	ldr	r1, [r3, #48]	; 0x30
 8005562:	f041 0104 	orr.w	r1, r1, #4
 8005566:	6319      	str	r1, [r3, #48]	; 0x30
 8005568:	6b19      	ldr	r1, [r3, #48]	; 0x30
 800556a:	f001 0104 	and.w	r1, r1, #4
 800556e:	9103      	str	r1, [sp, #12]
 8005570:	9903      	ldr	r1, [sp, #12]
 8005572:	9204      	str	r2, [sp, #16]
 8005574:	6b19      	ldr	r1, [r3, #48]	; 0x30
 8005576:	f041 0108 	orr.w	r1, r1, #8
 800557a:	6319      	str	r1, [r3, #48]	; 0x30
 800557c:	6b19      	ldr	r1, [r3, #48]	; 0x30
 800557e:	f001 0108 	and.w	r1, r1, #8
 8005582:	9104      	str	r1, [sp, #16]
 8005584:	9904      	ldr	r1, [sp, #16]
 8005586:	9205      	str	r2, [sp, #20]
 8005588:	6b19      	ldr	r1, [r3, #48]	; 0x30
 800558a:	f041 0110 	orr.w	r1, r1, #16
 800558e:	6319      	str	r1, [r3, #48]	; 0x30
 8005590:	6b19      	ldr	r1, [r3, #48]	; 0x30
 8005592:	f001 0110 	and.w	r1, r1, #16
 8005596:	9105      	str	r1, [sp, #20]
 8005598:	9905      	ldr	r1, [sp, #20]
 800559a:	9206      	str	r2, [sp, #24]
 800559c:	6b19      	ldr	r1, [r3, #48]	; 0x30
 800559e:	f041 0120 	orr.w	r1, r1, #32
 80055a2:	6319      	str	r1, [r3, #48]	; 0x30
 80055a4:	6b19      	ldr	r1, [r3, #48]	; 0x30
 80055a6:	f001 0120 	and.w	r1, r1, #32
 80055aa:	9106      	str	r1, [sp, #24]
 80055ac:	9906      	ldr	r1, [sp, #24]
 80055ae:	9207      	str	r2, [sp, #28]
 80055b0:	6b19      	ldr	r1, [r3, #48]	; 0x30
 80055b2:	f041 0140 	orr.w	r1, r1, #64	; 0x40
 80055b6:	6319      	str	r1, [r3, #48]	; 0x30
 80055b8:	6b19      	ldr	r1, [r3, #48]	; 0x30
 80055ba:	f001 0140 	and.w	r1, r1, #64	; 0x40
 80055be:	9107      	str	r1, [sp, #28]
 80055c0:	9907      	ldr	r1, [sp, #28]
 80055c2:	9208      	str	r2, [sp, #32]
 80055c4:	6b19      	ldr	r1, [r3, #48]	; 0x30
 80055c6:	f041 0180 	orr.w	r1, r1, #128	; 0x80
 80055ca:	6319      	str	r1, [r3, #48]	; 0x30
 80055cc:	6b19      	ldr	r1, [r3, #48]	; 0x30
 80055ce:	f001 0180 	and.w	r1, r1, #128	; 0x80
 80055d2:	9108      	str	r1, [sp, #32]
 80055d4:	9908      	ldr	r1, [sp, #32]
 80055d6:	9209      	str	r2, [sp, #36]	; 0x24
 80055d8:	6b19      	ldr	r1, [r3, #48]	; 0x30
 80055da:	f441 7180 	orr.w	r1, r1, #256	; 0x100
 80055de:	6319      	str	r1, [r3, #48]	; 0x30
 80055e0:	6b19      	ldr	r1, [r3, #48]	; 0x30
 80055e2:	f401 7180 	and.w	r1, r1, #256	; 0x100
 80055e6:	9109      	str	r1, [sp, #36]	; 0x24
 80055e8:	9909      	ldr	r1, [sp, #36]	; 0x24
 80055ea:	920a      	str	r2, [sp, #40]	; 0x28
 80055ec:	6b19      	ldr	r1, [r3, #48]	; 0x30
 80055ee:	f441 7100 	orr.w	r1, r1, #512	; 0x200
 80055f2:	6319      	str	r1, [r3, #48]	; 0x30
 80055f4:	6b19      	ldr	r1, [r3, #48]	; 0x30
 80055f6:	f401 7100 	and.w	r1, r1, #512	; 0x200
 80055fa:	910a      	str	r1, [sp, #40]	; 0x28
 80055fc:	990a      	ldr	r1, [sp, #40]	; 0x28
 80055fe:	920b      	str	r2, [sp, #44]	; 0x2c
 8005600:	6b1a      	ldr	r2, [r3, #48]	; 0x30
 8005602:	f442 6280 	orr.w	r2, r2, #1024	; 0x400
 8005606:	631a      	str	r2, [r3, #48]	; 0x30
 8005608:	6b1b      	ldr	r3, [r3, #48]	; 0x30
 800560a:	f403 6380 	and.w	r3, r3, #1024	; 0x400
 800560e:	930b      	str	r3, [sp, #44]	; 0x2c
 8005610:	9b0b      	ldr	r3, [sp, #44]	; 0x2c
 8005612:	4b0e      	ldr	r3, [pc, #56]	; (800564c <_ZN5TGpioILh10ELh3ELh0EEC1Ev+0x11c>)
 8005614:	6003      	str	r3, [r0, #0]
 8005616:	689a      	ldr	r2, [r3, #8]
 8005618:	f022 02c0 	bic.w	r2, r2, #192	; 0xc0
 800561c:	609a      	str	r2, [r3, #8]
 800561e:	689a      	ldr	r2, [r3, #8]
 8005620:	f042 02c0 	orr.w	r2, r2, #192	; 0xc0
 8005624:	609a      	str	r2, [r3, #8]
 8005626:	685a      	ldr	r2, [r3, #4]
 8005628:	f022 0208 	bic.w	r2, r2, #8
 800562c:	605a      	str	r2, [r3, #4]
 800562e:	685a      	ldr	r2, [r3, #4]
 8005630:	605a      	str	r2, [r3, #4]
 8005632:	681a      	ldr	r2, [r3, #0]
 8005634:	f022 02c0 	bic.w	r2, r2, #192	; 0xc0
 8005638:	601a      	str	r2, [r3, #0]
 800563a:	681a      	ldr	r2, [r3, #0]
 800563c:	f042 0240 	orr.w	r2, r2, #64	; 0x40
 8005640:	601a      	str	r2, [r3, #0]
 8005642:	b00c      	add	sp, #48	; 0x30
 8005644:	4770      	bx	lr
 8005646:	bf00      	nop
 8005648:	40023800 	andmi	r3, r2, r0, lsl #16
 800564c:	40022800 	andmi	r2, r2, r0, lsl #16

08005650 <_ZN5TGpioILh5ELh10ELh1EE8set_modeEh>:
 8005650:	b9b1      	cbnz	r1, 8005680 <_ZN5TGpioILh5ELh10ELh1EE8set_modeEh+0x30>
 8005652:	6803      	ldr	r3, [r0, #0]
 8005654:	689a      	ldr	r2, [r3, #8]
 8005656:	f422 1240 	bic.w	r2, r2, #3145728	; 0x300000
 800565a:	609a      	str	r2, [r3, #8]
 800565c:	689a      	ldr	r2, [r3, #8]
 800565e:	f442 1240 	orr.w	r2, r2, #3145728	; 0x300000
 8005662:	609a      	str	r2, [r3, #8]
 8005664:	685a      	ldr	r2, [r3, #4]
 8005666:	f422 6280 	bic.w	r2, r2, #1024	; 0x400
 800566a:	605a      	str	r2, [r3, #4]
 800566c:	685a      	ldr	r2, [r3, #4]
 800566e:	605a      	str	r2, [r3, #4]
 8005670:	681a      	ldr	r2, [r3, #0]
 8005672:	f422 1240 	bic.w	r2, r2, #3145728	; 0x300000
 8005676:	601a      	str	r2, [r3, #0]
 8005678:	681a      	ldr	r2, [r3, #0]
 800567a:	f442 1280 	orr.w	r2, r2, #1048576	; 0x100000
 800567e:	e043      	b.n	8005708 <_ZN5TGpioILh5ELh10ELh1EE8set_modeEh+0xb8>
 8005680:	2901      	cmp	r1, #1
 8005682:	d10e      	bne.n	80056a2 <_ZN5TGpioILh5ELh10ELh1EE8set_modeEh+0x52>
 8005684:	6803      	ldr	r3, [r0, #0]
 8005686:	689a      	ldr	r2, [r3, #8]
 8005688:	f422 1240 	bic.w	r2, r2, #3145728	; 0x300000
 800568c:	609a      	str	r2, [r3, #8]
 800568e:	689a      	ldr	r2, [r3, #8]
 8005690:	f442 1240 	orr.w	r2, r2, #3145728	; 0x300000
 8005694:	609a      	str	r2, [r3, #8]
 8005696:	681a      	ldr	r2, [r3, #0]
 8005698:	f422 1240 	bic.w	r2, r2, #3145728	; 0x300000
 800569c:	601a      	str	r2, [r3, #0]
 800569e:	681a      	ldr	r2, [r3, #0]
 80056a0:	e032      	b.n	8005708 <_ZN5TGpioILh5ELh10ELh1EE8set_modeEh+0xb8>
 80056a2:	2902      	cmp	r1, #2
 80056a4:	d113      	bne.n	80056ce <_ZN5TGpioILh5ELh10ELh1EE8set_modeEh+0x7e>
 80056a6:	6803      	ldr	r3, [r0, #0]
 80056a8:	689a      	ldr	r2, [r3, #8]
 80056aa:	f422 1240 	bic.w	r2, r2, #3145728	; 0x300000
 80056ae:	609a      	str	r2, [r3, #8]
 80056b0:	689a      	ldr	r2, [r3, #8]
 80056b2:	f442 1240 	orr.w	r2, r2, #3145728	; 0x300000
 80056b6:	609a      	str	r2, [r3, #8]
 80056b8:	681a      	ldr	r2, [r3, #0]
 80056ba:	f422 1240 	bic.w	r2, r2, #3145728	; 0x300000
 80056be:	601a      	str	r2, [r3, #0]
 80056c0:	681a      	ldr	r2, [r3, #0]
 80056c2:	601a      	str	r2, [r3, #0]
 80056c4:	68da      	ldr	r2, [r3, #12]
 80056c6:	f442 1280 	orr.w	r2, r2, #1048576	; 0x100000
 80056ca:	60da      	str	r2, [r3, #12]
 80056cc:	4770      	bx	lr
 80056ce:	2903      	cmp	r1, #3
 80056d0:	d110      	bne.n	80056f4 <_ZN5TGpioILh5ELh10ELh1EE8set_modeEh+0xa4>
 80056d2:	6803      	ldr	r3, [r0, #0]
 80056d4:	689a      	ldr	r2, [r3, #8]
 80056d6:	f422 1240 	bic.w	r2, r2, #3145728	; 0x300000
 80056da:	609a      	str	r2, [r3, #8]
 80056dc:	689a      	ldr	r2, [r3, #8]
 80056de:	f442 1240 	orr.w	r2, r2, #3145728	; 0x300000
 80056e2:	609a      	str	r2, [r3, #8]
 80056e4:	681a      	ldr	r2, [r3, #0]
 80056e6:	f422 1240 	bic.w	r2, r2, #3145728	; 0x300000
 80056ea:	601a      	str	r2, [r3, #0]
 80056ec:	681a      	ldr	r2, [r3, #0]
 80056ee:	f442 1200 	orr.w	r2, r2, #2097152	; 0x200000
 80056f2:	e009      	b.n	8005708 <_ZN5TGpioILh5ELh10ELh1EE8set_modeEh+0xb8>
 80056f4:	2904      	cmp	r1, #4
 80056f6:	d108      	bne.n	800570a <_ZN5TGpioILh5ELh10ELh1EE8set_modeEh+0xba>
 80056f8:	6803      	ldr	r3, [r0, #0]
 80056fa:	681a      	ldr	r2, [r3, #0]
 80056fc:	f422 1240 	bic.w	r2, r2, #3145728	; 0x300000
 8005700:	601a      	str	r2, [r3, #0]
 8005702:	681a      	ldr	r2, [r3, #0]
 8005704:	f442 1240 	orr.w	r2, r2, #3145728	; 0x300000
 8005708:	601a      	str	r2, [r3, #0]
 800570a:	4770      	bx	lr

0800570c <_ZN5TGpioILh5ELh10ELh1EEC1Ev>:
 800570c:	b510      	push	{r4, lr}
 800570e:	b08c      	sub	sp, #48	; 0x30
 8005710:	4b3c      	ldr	r3, [pc, #240]	; (8005804 <_ZN5TGpioILh5ELh10ELh1EEC1Ev+0xf8>)
 8005712:	2200      	movs	r2, #0
 8005714:	9201      	str	r2, [sp, #4]
 8005716:	6b19      	ldr	r1, [r3, #48]	; 0x30
 8005718:	f041 0101 	orr.w	r1, r1, #1
 800571c:	6319      	str	r1, [r3, #48]	; 0x30
 800571e:	6b19      	ldr	r1, [r3, #48]	; 0x30
 8005720:	f001 0101 	and.w	r1, r1, #1
 8005724:	9101      	str	r1, [sp, #4]
 8005726:	9901      	ldr	r1, [sp, #4]
 8005728:	9202      	str	r2, [sp, #8]
 800572a:	6b19      	ldr	r1, [r3, #48]	; 0x30
 800572c:	f041 0102 	orr.w	r1, r1, #2
 8005730:	6319      	str	r1, [r3, #48]	; 0x30
 8005732:	6b19      	ldr	r1, [r3, #48]	; 0x30
 8005734:	f001 0102 	and.w	r1, r1, #2
 8005738:	9102      	str	r1, [sp, #8]
 800573a:	9902      	ldr	r1, [sp, #8]
 800573c:	9203      	str	r2, [sp, #12]
 800573e:	6b19      	ldr	r1, [r3, #48]	; 0x30
 8005740:	f041 0104 	orr.w	r1, r1, #4
 8005744:	6319      	str	r1, [r3, #48]	; 0x30
 8005746:	6b19      	ldr	r1, [r3, #48]	; 0x30
 8005748:	f001 0104 	and.w	r1, r1, #4
 800574c:	9103      	str	r1, [sp, #12]
 800574e:	9903      	ldr	r1, [sp, #12]
 8005750:	9204      	str	r2, [sp, #16]
 8005752:	6b19      	ldr	r1, [r3, #48]	; 0x30
 8005754:	f041 0108 	orr.w	r1, r1, #8
 8005758:	6319      	str	r1, [r3, #48]	; 0x30
 800575a:	6b19      	ldr	r1, [r3, #48]	; 0x30
 800575c:	f001 0108 	and.w	r1, r1, #8
 8005760:	9104      	str	r1, [sp, #16]
 8005762:	9904      	ldr	r1, [sp, #16]
 8005764:	9205      	str	r2, [sp, #20]
 8005766:	6b19      	ldr	r1, [r3, #48]	; 0x30
 8005768:	f041 0110 	orr.w	r1, r1, #16
 800576c:	6319      	str	r1, [r3, #48]	; 0x30
 800576e:	6b19      	ldr	r1, [r3, #48]	; 0x30
 8005770:	f001 0110 	and.w	r1, r1, #16
 8005774:	9105      	str	r1, [sp, #20]
 8005776:	9905      	ldr	r1, [sp, #20]
 8005778:	9206      	str	r2, [sp, #24]
 800577a:	6b19      	ldr	r1, [r3, #48]	; 0x30
 800577c:	f041 0120 	orr.w	r1, r1, #32
 8005780:	6319      	str	r1, [r3, #48]	; 0x30
 8005782:	6b19      	ldr	r1, [r3, #48]	; 0x30
 8005784:	f001 0120 	and.w	r1, r1, #32
 8005788:	9106      	str	r1, [sp, #24]
 800578a:	9906      	ldr	r1, [sp, #24]
 800578c:	9207      	str	r2, [sp, #28]
 800578e:	6b19      	ldr	r1, [r3, #48]	; 0x30
 8005790:	f041 0140 	orr.w	r1, r1, #64	; 0x40
 8005794:	6319      	str	r1, [r3, #48]	; 0x30
 8005796:	6b19      	ldr	r1, [r3, #48]	; 0x30
 8005798:	f001 0140 	and.w	r1, r1, #64	; 0x40
 800579c:	9107      	str	r1, [sp, #28]
 800579e:	9907      	ldr	r1, [sp, #28]
 80057a0:	9208      	str	r2, [sp, #32]
 80057a2:	6b19      	ldr	r1, [r3, #48]	; 0x30
 80057a4:	f041 0180 	orr.w	r1, r1, #128	; 0x80
 80057a8:	6319      	str	r1, [r3, #48]	; 0x30
 80057aa:	6b19      	ldr	r1, [r3, #48]	; 0x30
 80057ac:	f001 0180 	and.w	r1, r1, #128	; 0x80
 80057b0:	9108      	str	r1, [sp, #32]
 80057b2:	9908      	ldr	r1, [sp, #32]
 80057b4:	9209      	str	r2, [sp, #36]	; 0x24
 80057b6:	6b19      	ldr	r1, [r3, #48]	; 0x30
 80057b8:	f441 7180 	orr.w	r1, r1, #256	; 0x100
 80057bc:	6319      	str	r1, [r3, #48]	; 0x30
 80057be:	6b19      	ldr	r1, [r3, #48]	; 0x30
 80057c0:	f401 7180 	and.w	r1, r1, #256	; 0x100
 80057c4:	9109      	str	r1, [sp, #36]	; 0x24
 80057c6:	9909      	ldr	r1, [sp, #36]	; 0x24
 80057c8:	920a      	str	r2, [sp, #40]	; 0x28
 80057ca:	6b19      	ldr	r1, [r3, #48]	; 0x30
 80057cc:	f441 7100 	orr.w	r1, r1, #512	; 0x200
 80057d0:	6319      	str	r1, [r3, #48]	; 0x30
 80057d2:	6b19      	ldr	r1, [r3, #48]	; 0x30
 80057d4:	f401 7100 	and.w	r1, r1, #512	; 0x200
 80057d8:	910a      	str	r1, [sp, #40]	; 0x28
 80057da:	990a      	ldr	r1, [sp, #40]	; 0x28
 80057dc:	920b      	str	r2, [sp, #44]	; 0x2c
 80057de:	6b1a      	ldr	r2, [r3, #48]	; 0x30
 80057e0:	f442 6280 	orr.w	r2, r2, #1024	; 0x400
 80057e4:	631a      	str	r2, [r3, #48]	; 0x30
 80057e6:	6b1b      	ldr	r3, [r3, #48]	; 0x30
 80057e8:	f403 6380 	and.w	r3, r3, #1024	; 0x400
 80057ec:	930b      	str	r3, [sp, #44]	; 0x2c
 80057ee:	9b0b      	ldr	r3, [sp, #44]	; 0x2c
 80057f0:	4b05      	ldr	r3, [pc, #20]	; (8005808 <_ZN5TGpioILh5ELh10ELh1EEC1Ev+0xfc>)
 80057f2:	6003      	str	r3, [r0, #0]
 80057f4:	2101      	movs	r1, #1
 80057f6:	4604      	mov	r4, r0
 80057f8:	f7ff ff2a 	bl	8005650 <_ZN5TGpioILh5ELh10ELh1EE8set_modeEh>
 80057fc:	4620      	mov	r0, r4
 80057fe:	b00c      	add	sp, #48	; 0x30
 8005800:	bd10      	pop	{r4, pc}
 8005802:	bf00      	nop
 8005804:	40023800 	andmi	r3, r2, r0, lsl #16
 8005808:	40021400 	andmi	r1, r2, r0, lsl #8

0800580c <_ZN6CIRCAMC1Ev>:
 800580c:	e92d 43f8 	stmdb	sp!, {r3, r4, r5, r6, r7, r8, r9, lr}
 8005810:	4605      	mov	r5, r0
 8005812:	4b31      	ldr	r3, [pc, #196]	; (80058d8 <_ZN6CIRCAMC1Ev+0xcc>)
 8005814:	f845 3b18 	str.w	r3, [r5], #24
 8005818:	4604      	mov	r4, r0
 800581a:	4628      	mov	r0, r5
 800581c:	f7fe fae0 	bl	8003de0 <_ZN7CCameraC1Ev>
 8005820:	f104 0034 	add.w	r0, r4, #52	; 0x34
 8005824:	f7ff fdfc 	bl	8005420 <_ZN5TGpioILh8ELh11ELh1EEC1Ev>
 8005828:	4627      	mov	r7, r4
 800582a:	f104 0038 	add.w	r0, r4, #56	; 0x38
 800582e:	f7ff fe7f 	bl	8005530 <_ZN5TGpioILh10ELh3ELh0EEC1Ev>
 8005832:	4b2a      	ldr	r3, [pc, #168]	; (80058dc <_ZN6CIRCAMC1Ev+0xd0>)
 8005834:	f847 3f3c 	str.w	r3, [r7, #60]!
 8005838:	f104 0040 	add.w	r0, r4, #64	; 0x40
 800583c:	f7ff ff66 	bl	800570c <_ZN5TGpioILh5ELh10ELh1EEC1Ev>
 8005840:	f104 0044 	add.w	r0, r4, #68	; 0x44
 8005844:	f7fd f9ce 	bl	8002be4 <_ZN5TGpioILh5ELh6ELh1EEC1Ev>
 8005848:	6c22      	ldr	r2, [r4, #64]	; 0x40
 800584a:	f8df 90a4 	ldr.w	r9, [pc, #164]	; 80058f0 <_ZN6CIRCAMC1Ev+0xe4>
 800584e:	6953      	ldr	r3, [r2, #20]
 8005850:	f423 6380 	bic.w	r3, r3, #1024	; 0x400
 8005854:	6153      	str	r3, [r2, #20]
 8005856:	6c62      	ldr	r2, [r4, #68]	; 0x44
 8005858:	6953      	ldr	r3, [r2, #20]
 800585a:	f104 0848 	add.w	r8, r4, #72	; 0x48
 800585e:	f023 0340 	bic.w	r3, r3, #64	; 0x40
 8005862:	6153      	str	r3, [r2, #20]
 8005864:	4640      	mov	r0, r8
 8005866:	f7ff f90f 	bl	8004a88 <_ZN9CMLX90621C1Ev>
 800586a:	6ba2      	ldr	r2, [r4, #56]	; 0x38
 800586c:	2300      	movs	r3, #0
 800586e:	60e3      	str	r3, [r4, #12]
 8005870:	6953      	ldr	r3, [r2, #20]
 8005872:	2600      	movs	r6, #0
 8005874:	f043 0308 	orr.w	r3, r3, #8
 8005878:	6066      	str	r6, [r4, #4]
 800587a:	60a6      	str	r6, [r4, #8]
 800587c:	4628      	mov	r0, r5
 800587e:	6153      	str	r3, [r2, #20]
 8005880:	6126      	str	r6, [r4, #16]
 8005882:	f7fe f80f 	bl	80038a4 <_ZN7CCamera4initEv>
 8005886:	4916      	ldr	r1, [pc, #88]	; (80058e0 <_ZN6CIRCAMC1Ev+0xd4>)
 8005888:	4602      	mov	r2, r0
 800588a:	4648      	mov	r0, r9
 800588c:	f7fd fd8a 	bl	80033a4 <_ZN9CTerminal6printfEPKcz>
 8005890:	4631      	mov	r1, r6
 8005892:	4814      	ldr	r0, [pc, #80]	; (80058e4 <_ZN6CIRCAMC1Ev+0xd8>)
 8005894:	f7fe fbf7 	bl	8004086 <_ZN4CLCD9FillLayerEt>
 8005898:	4628      	mov	r0, r5
 800589a:	f7fd ffe3 	bl	8003864 <_ZN7CCamera9get_res_yEv>
 800589e:	4606      	mov	r6, r0
 80058a0:	4628      	mov	r0, r5
 80058a2:	f7fd ffdd 	bl	8003860 <_ZN7CCamera9get_res_xEv>
 80058a6:	fb00 f106 	mul.w	r1, r0, r6
 80058aa:	f3c1 015d 	ubfx	r1, r1, #1, #30
 80058ae:	480e      	ldr	r0, [pc, #56]	; (80058e8 <_ZN6CIRCAMC1Ev+0xdc>)
 80058b0:	f7fe fda5 	bl	80043fe <_ZN6CSDRam8allocateEj>
 80058b4:	490d      	ldr	r1, [pc, #52]	; (80058ec <_ZN6CIRCAMC1Ev+0xe0>)
 80058b6:	6320      	str	r0, [r4, #48]	; 0x30
 80058b8:	4602      	mov	r2, r0
 80058ba:	4648      	mov	r0, r9
 80058bc:	f7fd fd72 	bl	80033a4 <_ZN9CTerminal6printfEPKcz>
 80058c0:	4628      	mov	r0, r5
 80058c2:	6b21      	ldr	r1, [r4, #48]	; 0x30
 80058c4:	f7fd ffbe 	bl	8003844 <_ZN7CCamera12stream_startEPm>
 80058c8:	4640      	mov	r0, r8
 80058ca:	4639      	mov	r1, r7
 80058cc:	f7ff f8de 	bl	8004a8c <_ZN9CMLX906214initEP14CI2C_Interface>
 80058d0:	4620      	mov	r0, r4
 80058d2:	e8bd 83f8 	ldmia.w	sp!, {r3, r4, r5, r6, r7, r8, r9, pc}
 80058d6:	bf00      	nop
 80058d8:	08005e28 	stmdaeq	r0, {r3, r5, r9, sl, fp, ip, lr}
 80058dc:	08005df8 	stmdaeq	r0, {r3, r4, r5, r6, r7, r8, sl, fp, ip, lr}
 80058e0:	08005e3c 	stmdaeq	r0, {r2, r3, r4, r5, r9, sl, fp, ip, lr}
 80058e4:	20000a2c 	andcs	r0, r0, ip, lsr #20
 80058e8:	20000af0 	strdcs	r0, [r0], -r0	; <UNPREDICTABLE>
 80058ec:	08005e51 	stmdaeq	r0, {r0, r4, r6, r9, sl, fp, ip, lr}
 80058f0:	200008f8 	strdcs	r0, [r0], -r8

080058f4 <_ZN4TI2CILh5ELh10ELh6ELj20ELh5EE4stopEv>:
 80058f4:	b538      	push	{r3, r4, r5, lr}
 80058f6:	f100 0508 	add.w	r5, r0, #8
 80058fa:	4604      	mov	r4, r0
 80058fc:	3404      	adds	r4, #4
 80058fe:	4628      	mov	r0, r5
 8005900:	2100      	movs	r1, #0
 8005902:	f7fd f911 	bl	8002b28 <_ZN5TGpioILh5ELh6ELh1EE8set_modeEh>
 8005906:	4620      	mov	r0, r4
 8005908:	2100      	movs	r1, #0
 800590a:	f7ff fea1 	bl	8005650 <_ZN5TGpioILh5ELh10ELh1EE8set_modeEh>
 800590e:	4628      	mov	r0, r5
 8005910:	2101      	movs	r1, #1
 8005912:	f7fd f909 	bl	8002b28 <_ZN5TGpioILh5ELh6ELh1EE8set_modeEh>
 8005916:	4620      	mov	r0, r4
 8005918:	2100      	movs	r1, #0
 800591a:	f7ff fe99 	bl	8005650 <_ZN5TGpioILh5ELh10ELh1EE8set_modeEh>
 800591e:	4628      	mov	r0, r5
 8005920:	2101      	movs	r1, #1
 8005922:	f7fd f901 	bl	8002b28 <_ZN5TGpioILh5ELh6ELh1EE8set_modeEh>
 8005926:	4620      	mov	r0, r4
 8005928:	2101      	movs	r1, #1
 800592a:	f7ff fe91 	bl	8005650 <_ZN5TGpioILh5ELh10ELh1EE8set_modeEh>
 800592e:	e8bd 4038 	ldmia.w	sp!, {r3, r4, r5, lr}
 8005932:	f7ff bc56 	b.w	80051e2 <_ZN4TI2CILh5ELh10ELh6ELj20ELh5EE5delayEv.isra.9>

08005936 <_ZN4TI2CILh5ELh10ELh6ELj20ELh5EE5startEv>:
 8005936:	b538      	push	{r3, r4, r5, lr}
 8005938:	f100 0508 	add.w	r5, r0, #8
 800593c:	4604      	mov	r4, r0
 800593e:	3404      	adds	r4, #4
 8005940:	4628      	mov	r0, r5
 8005942:	2101      	movs	r1, #1
 8005944:	f7fd f8f0 	bl	8002b28 <_ZN5TGpioILh5ELh6ELh1EE8set_modeEh>
 8005948:	4620      	mov	r0, r4
 800594a:	2101      	movs	r1, #1
 800594c:	f7ff fe80 	bl	8005650 <_ZN5TGpioILh5ELh10ELh1EE8set_modeEh>
 8005950:	4628      	mov	r0, r5
 8005952:	2101      	movs	r1, #1
 8005954:	f7fd f8e8 	bl	8002b28 <_ZN5TGpioILh5ELh6ELh1EE8set_modeEh>
 8005958:	4620      	mov	r0, r4
 800595a:	2100      	movs	r1, #0
 800595c:	f7ff fe78 	bl	8005650 <_ZN5TGpioILh5ELh10ELh1EE8set_modeEh>
 8005960:	4628      	mov	r0, r5
 8005962:	2100      	movs	r1, #0
 8005964:	f7fd f8e0 	bl	8002b28 <_ZN5TGpioILh5ELh6ELh1EE8set_modeEh>
 8005968:	4620      	mov	r0, r4
 800596a:	2101      	movs	r1, #1
 800596c:	f7ff fe70 	bl	8005650 <_ZN5TGpioILh5ELh10ELh1EE8set_modeEh>
 8005970:	e8bd 4038 	ldmia.w	sp!, {r3, r4, r5, lr}
 8005974:	f7ff bc35 	b.w	80051e2 <_ZN4TI2CILh5ELh10ELh6ELj20ELh5EE5delayEv.isra.9>

08005978 <_ZN4TI2CILh5ELh10ELh6ELj20ELh5EE4readEh>:
 8005978:	e92d 43f8 	stmdb	sp!, {r3, r4, r5, r6, r7, r8, r9, lr}
 800597c:	4680      	mov	r8, r0
 800597e:	1d07      	adds	r7, r0, #4
 8005980:	4638      	mov	r0, r7
 8005982:	4689      	mov	r9, r1
 8005984:	f108 0608 	add.w	r6, r8, #8
 8005988:	2101      	movs	r1, #1
 800598a:	f7ff fe61 	bl	8005650 <_ZN5TGpioILh5ELh10ELh1EE8set_modeEh>
 800598e:	4630      	mov	r0, r6
 8005990:	2100      	movs	r1, #0
 8005992:	f7fd f8c9 	bl	8002b28 <_ZN5TGpioILh5ELh6ELh1EE8set_modeEh>
 8005996:	f7ff fc24 	bl	80051e2 <_ZN4TI2CILh5ELh10ELh6ELj20ELh5EE5delayEv.isra.9>
 800599a:	2508      	movs	r5, #8
 800599c:	2400      	movs	r4, #0
 800599e:	4630      	mov	r0, r6
 80059a0:	2101      	movs	r1, #1
 80059a2:	f7fd f8c1 	bl	8002b28 <_ZN5TGpioILh5ELh6ELh1EE8set_modeEh>
 80059a6:	f7ff fc1c 	bl	80051e2 <_ZN4TI2CILh5ELh10ELh6ELj20ELh5EE5delayEv.isra.9>
 80059aa:	f8d8 3004 	ldr.w	r3, [r8, #4]
 80059ae:	691b      	ldr	r3, [r3, #16]
 80059b0:	0064      	lsls	r4, r4, #1
 80059b2:	055b      	lsls	r3, r3, #21
 80059b4:	4630      	mov	r0, r6
 80059b6:	f04f 0100 	mov.w	r1, #0
 80059ba:	b2e4      	uxtb	r4, r4
 80059bc:	f105 35ff 	add.w	r5, r5, #4294967295	; 0xffffffff
 80059c0:	bf48      	it	mi
 80059c2:	f044 0401 	orrmi.w	r4, r4, #1
 80059c6:	f7fd f8af 	bl	8002b28 <_ZN5TGpioILh5ELh6ELh1EE8set_modeEh>
 80059ca:	f7ff fc0a 	bl	80051e2 <_ZN4TI2CILh5ELh10ELh6ELj20ELh5EE5delayEv.isra.9>
 80059ce:	f015 05ff 	ands.w	r5, r5, #255	; 0xff
 80059d2:	d1e4      	bne.n	800599e <_ZN4TI2CILh5ELh10ELh6ELj20ELh5EE4readEh+0x26>
 80059d4:	4638      	mov	r0, r7
 80059d6:	f1b9 0f00 	cmp.w	r9, #0
 80059da:	d001      	beq.n	80059e0 <_ZN4TI2CILh5ELh10ELh6ELj20ELh5EE4readEh+0x68>
 80059dc:	4629      	mov	r1, r5
 80059de:	e000      	b.n	80059e2 <_ZN4TI2CILh5ELh10ELh6ELj20ELh5EE4readEh+0x6a>
 80059e0:	2101      	movs	r1, #1
 80059e2:	f7ff fe35 	bl	8005650 <_ZN5TGpioILh5ELh10ELh1EE8set_modeEh>
 80059e6:	f7ff fbfc 	bl	80051e2 <_ZN4TI2CILh5ELh10ELh6ELj20ELh5EE5delayEv.isra.9>
 80059ea:	4630      	mov	r0, r6
 80059ec:	2101      	movs	r1, #1
 80059ee:	f7fd f89b 	bl	8002b28 <_ZN5TGpioILh5ELh6ELh1EE8set_modeEh>
 80059f2:	f7ff fbf6 	bl	80051e2 <_ZN4TI2CILh5ELh10ELh6ELj20ELh5EE5delayEv.isra.9>
 80059f6:	4630      	mov	r0, r6
 80059f8:	2100      	movs	r1, #0
 80059fa:	f7fd f895 	bl	8002b28 <_ZN5TGpioILh5ELh6ELh1EE8set_modeEh>
 80059fe:	f7ff fbf0 	bl	80051e2 <_ZN4TI2CILh5ELh10ELh6ELj20ELh5EE5delayEv.isra.9>
 8005a02:	4638      	mov	r0, r7
 8005a04:	2101      	movs	r1, #1
 8005a06:	f7ff fe23 	bl	8005650 <_ZN5TGpioILh5ELh10ELh1EE8set_modeEh>
 8005a0a:	f7ff fbea 	bl	80051e2 <_ZN4TI2CILh5ELh10ELh6ELj20ELh5EE5delayEv.isra.9>
 8005a0e:	4620      	mov	r0, r4
 8005a10:	e8bd 83f8 	ldmia.w	sp!, {r3, r4, r5, r6, r7, r8, r9, pc}

08005a14 <_ZN4TI2CILh5ELh10ELh6ELj20ELh5EE5writeEh>:
 8005a14:	e92d 41f0 	stmdb	sp!, {r4, r5, r6, r7, r8, lr}
 8005a18:	4607      	mov	r7, r0
 8005a1a:	460e      	mov	r6, r1
 8005a1c:	2408      	movs	r4, #8
 8005a1e:	f107 0508 	add.w	r5, r7, #8
 8005a22:	2100      	movs	r1, #0
 8005a24:	4628      	mov	r0, r5
 8005a26:	f7fd f87f 	bl	8002b28 <_ZN5TGpioILh5ELh6ELh1EE8set_modeEh>
 8005a2a:	f107 0804 	add.w	r8, r7, #4
 8005a2e:	f7ff fbd8 	bl	80051e2 <_ZN4TI2CILh5ELh10ELh6ELj20ELh5EE5delayEv.isra.9>
 8005a32:	f016 0f80 	tst.w	r6, #128	; 0x80
 8005a36:	bf14      	ite	ne
 8005a38:	2101      	movne	r1, #1
 8005a3a:	2100      	moveq	r1, #0
 8005a3c:	4640      	mov	r0, r8
 8005a3e:	f7ff fe07 	bl	8005650 <_ZN5TGpioILh5ELh10ELh1EE8set_modeEh>
 8005a42:	3c01      	subs	r4, #1
 8005a44:	f7ff fbcd 	bl	80051e2 <_ZN4TI2CILh5ELh10ELh6ELj20ELh5EE5delayEv.isra.9>
 8005a48:	4628      	mov	r0, r5
 8005a4a:	2101      	movs	r1, #1
 8005a4c:	f7fd f86c 	bl	8002b28 <_ZN5TGpioILh5ELh6ELh1EE8set_modeEh>
 8005a50:	0076      	lsls	r6, r6, #1
 8005a52:	f7ff fbc6 	bl	80051e2 <_ZN4TI2CILh5ELh10ELh6ELj20ELh5EE5delayEv.isra.9>
 8005a56:	f014 04ff 	ands.w	r4, r4, #255	; 0xff
 8005a5a:	b2f6      	uxtb	r6, r6
 8005a5c:	d1df      	bne.n	8005a1e <_ZN4TI2CILh5ELh10ELh6ELj20ELh5EE5writeEh+0xa>
 8005a5e:	4628      	mov	r0, r5
 8005a60:	4621      	mov	r1, r4
 8005a62:	f7fd f861 	bl	8002b28 <_ZN5TGpioILh5ELh6ELh1EE8set_modeEh>
 8005a66:	f7ff fbbc 	bl	80051e2 <_ZN4TI2CILh5ELh10ELh6ELj20ELh5EE5delayEv.isra.9>
 8005a6a:	4640      	mov	r0, r8
 8005a6c:	2101      	movs	r1, #1
 8005a6e:	f7ff fdef 	bl	8005650 <_ZN5TGpioILh5ELh10ELh1EE8set_modeEh>
 8005a72:	f7ff fbb6 	bl	80051e2 <_ZN4TI2CILh5ELh10ELh6ELj20ELh5EE5delayEv.isra.9>
 8005a76:	4628      	mov	r0, r5
 8005a78:	2101      	movs	r1, #1
 8005a7a:	f7fd f855 	bl	8002b28 <_ZN5TGpioILh5ELh6ELh1EE8set_modeEh>
 8005a7e:	f7ff fbb0 	bl	80051e2 <_ZN4TI2CILh5ELh10ELh6ELj20ELh5EE5delayEv.isra.9>
 8005a82:	687b      	ldr	r3, [r7, #4]
 8005a84:	691e      	ldr	r6, [r3, #16]
 8005a86:	4628      	mov	r0, r5
 8005a88:	4621      	mov	r1, r4
 8005a8a:	f7fd f84d 	bl	8002b28 <_ZN5TGpioILh5ELh6ELh1EE8set_modeEh>
 8005a8e:	f7ff fba8 	bl	80051e2 <_ZN4TI2CILh5ELh10ELh6ELj20ELh5EE5delayEv.isra.9>
 8005a92:	f486 6080 	eor.w	r0, r6, #1024	; 0x400
 8005a96:	f3c0 2080 	ubfx	r0, r0, #10, #1
 8005a9a:	e8bd 81f0 	ldmia.w	sp!, {r4, r5, r6, r7, r8, pc}
 8005a9e:	0000      	movs	r0, r0

08005aa0 <__aeabi_atexit>:
 8005aa0:	4603      	mov	r3, r0
 8005aa2:	4608      	mov	r0, r1
 8005aa4:	4619      	mov	r1, r3
 8005aa6:	f000 b807 	b.w	8005ab8 <__cxa_atexit>
 8005aaa:	bf00      	nop

08005aac <atexit>:
 8005aac:	4601      	mov	r1, r0
 8005aae:	2000      	movs	r0, #0
 8005ab0:	4602      	mov	r2, r0
 8005ab2:	4603      	mov	r3, r0
 8005ab4:	f000 b820 	b.w	8005af8 <__register_exitproc>

08005ab8 <__cxa_atexit>:
 8005ab8:	b410      	push	{r4}
 8005aba:	460c      	mov	r4, r1
 8005abc:	4613      	mov	r3, r2
 8005abe:	4601      	mov	r1, r0
 8005ac0:	4622      	mov	r2, r4
 8005ac2:	2002      	movs	r0, #2
 8005ac4:	f85d 4b04 	ldr.w	r4, [sp], #4
 8005ac8:	f000 b816 	b.w	8005af8 <__register_exitproc>

08005acc <__libc_fini_array>:
 8005acc:	b538      	push	{r3, r4, r5, lr}
 8005ace:	4b08      	ldr	r3, [pc, #32]	; (8005af0 <__libc_fini_array+0x24>)
 8005ad0:	4d08      	ldr	r5, [pc, #32]	; (8005af4 <__libc_fini_array+0x28>)
 8005ad2:	1aed      	subs	r5, r5, r3
 8005ad4:	10ac      	asrs	r4, r5, #2
 8005ad6:	bf18      	it	ne
 8005ad8:	18ed      	addne	r5, r5, r3
 8005ada:	d005      	beq.n	8005ae8 <__libc_fini_array+0x1c>
 8005adc:	3c01      	subs	r4, #1
 8005ade:	f855 3d04 	ldr.w	r3, [r5, #-4]!
 8005ae2:	4798      	blx	r3
 8005ae4:	2c00      	cmp	r4, #0
 8005ae6:	d1f9      	bne.n	8005adc <__libc_fini_array+0x10>
 8005ae8:	e8bd 4038 	ldmia.w	sp!, {r3, r4, r5, lr}
 8005aec:	f000 b866 	b.w	8005bbc <_fini>
 8005af0:	08005ea4 	stmdaeq	r0, {r2, r5, r7, r9, sl, fp, ip, lr}
 8005af4:	08005ea8 	stmdaeq	r0, {r3, r5, r7, r9, sl, fp, ip, lr}

08005af8 <__register_exitproc>:
 8005af8:	e92d 47f0 	stmdb	sp!, {r4, r5, r6, r7, r8, r9, sl, lr}
 8005afc:	4c25      	ldr	r4, [pc, #148]	; (8005b94 <__register_exitproc+0x9c>)
 8005afe:	6825      	ldr	r5, [r4, #0]
 8005b00:	f8d5 4148 	ldr.w	r4, [r5, #328]	; 0x148
 8005b04:	4606      	mov	r6, r0
 8005b06:	4688      	mov	r8, r1
 8005b08:	4692      	mov	sl, r2
 8005b0a:	4699      	mov	r9, r3
 8005b0c:	b3cc      	cbz	r4, 8005b82 <__register_exitproc+0x8a>
 8005b0e:	6860      	ldr	r0, [r4, #4]
 8005b10:	281f      	cmp	r0, #31
 8005b12:	dc18      	bgt.n	8005b46 <__register_exitproc+0x4e>
 8005b14:	1c43      	adds	r3, r0, #1
 8005b16:	b17e      	cbz	r6, 8005b38 <__register_exitproc+0x40>
 8005b18:	eb04 0580 	add.w	r5, r4, r0, lsl #2
 8005b1c:	2101      	movs	r1, #1
 8005b1e:	f8c5 a088 	str.w	sl, [r5, #136]	; 0x88
 8005b22:	f8d4 7188 	ldr.w	r7, [r4, #392]	; 0x188
 8005b26:	fa01 f200 	lsl.w	r2, r1, r0
 8005b2a:	4317      	orrs	r7, r2
 8005b2c:	2e02      	cmp	r6, #2
 8005b2e:	f8c4 7188 	str.w	r7, [r4, #392]	; 0x188
 8005b32:	f8c5 9108 	str.w	r9, [r5, #264]	; 0x108
 8005b36:	d01e      	beq.n	8005b76 <__register_exitproc+0x7e>
 8005b38:	3002      	adds	r0, #2
 8005b3a:	6063      	str	r3, [r4, #4]
 8005b3c:	f844 8020 	str.w	r8, [r4, r0, lsl #2]
 8005b40:	2000      	movs	r0, #0
 8005b42:	e8bd 87f0 	ldmia.w	sp!, {r4, r5, r6, r7, r8, r9, sl, pc}
 8005b46:	4b14      	ldr	r3, [pc, #80]	; (8005b98 <__register_exitproc+0xa0>)
 8005b48:	b303      	cbz	r3, 8005b8c <__register_exitproc+0x94>
 8005b4a:	f44f 70c8 	mov.w	r0, #400	; 0x190
 8005b4e:	f3af 8000 	nop.w
 8005b52:	4604      	mov	r4, r0
 8005b54:	b1d0      	cbz	r0, 8005b8c <__register_exitproc+0x94>
 8005b56:	f8d5 3148 	ldr.w	r3, [r5, #328]	; 0x148
 8005b5a:	2700      	movs	r7, #0
 8005b5c:	e880 0088 	stmia.w	r0, {r3, r7}
 8005b60:	f8c5 4148 	str.w	r4, [r5, #328]	; 0x148
 8005b64:	4638      	mov	r0, r7
 8005b66:	2301      	movs	r3, #1
 8005b68:	f8c4 7188 	str.w	r7, [r4, #392]	; 0x188
 8005b6c:	f8c4 718c 	str.w	r7, [r4, #396]	; 0x18c
 8005b70:	2e00      	cmp	r6, #0
 8005b72:	d0e1      	beq.n	8005b38 <__register_exitproc+0x40>
 8005b74:	e7d0      	b.n	8005b18 <__register_exitproc+0x20>
 8005b76:	f8d4 118c 	ldr.w	r1, [r4, #396]	; 0x18c
 8005b7a:	430a      	orrs	r2, r1
 8005b7c:	f8c4 218c 	str.w	r2, [r4, #396]	; 0x18c
 8005b80:	e7da      	b.n	8005b38 <__register_exitproc+0x40>
 8005b82:	f505 74a6 	add.w	r4, r5, #332	; 0x14c
 8005b86:	f8c5 4148 	str.w	r4, [r5, #328]	; 0x148
 8005b8a:	e7c0      	b.n	8005b0e <__register_exitproc+0x16>
 8005b8c:	f04f 30ff 	mov.w	r0, #4294967295	; 0xffffffff
 8005b90:	e8bd 87f0 	ldmia.w	sp!, {r4, r5, r6, r7, r8, r9, sl, pc}
 8005b94:	08005e70 	stmdaeq	r0, {r4, r5, r6, r9, sl, fp, ip, lr}
 8005b98:	00000000 	andeq	r0, r0, r0

08005b9c <register_fini>:
 8005b9c:	4b02      	ldr	r3, [pc, #8]	; (8005ba8 <register_fini+0xc>)
 8005b9e:	b113      	cbz	r3, 8005ba6 <register_fini+0xa>
 8005ba0:	4802      	ldr	r0, [pc, #8]	; (8005bac <register_fini+0x10>)
 8005ba2:	f7ff bf83 	b.w	8005aac <atexit>
 8005ba6:	4770      	bx	lr
 8005ba8:	00000000 	andeq	r0, r0, r0
 8005bac:	08005acd 	stmdaeq	r0, {r0, r2, r3, r6, r7, r9, fp, ip, lr}

08005bb0 <_init>:
 8005bb0:	b5f8      	push	{r3, r4, r5, r6, r7, lr}
 8005bb2:	bf00      	nop
 8005bb4:	bcf8      	pop	{r3, r4, r5, r6, r7}
 8005bb6:	bc08      	pop	{r3}
 8005bb8:	469e      	mov	lr, r3
 8005bba:	4770      	bx	lr

08005bbc <_fini>:
 8005bbc:	b5f8      	push	{r3, r4, r5, r6, r7, lr}
 8005bbe:	bf00      	nop
 8005bc0:	bcf8      	pop	{r3, r4, r5, r6, r7}
 8005bc2:	bc08      	pop	{r3}
 8005bc4:	469e      	mov	lr, r3
 8005bc6:	4770      	bx	lr

Disassembly of section .rodata:

08005bc8 <CSWTCH.36>:
 8005bc8:	10101000 	andsne	r1, r0, r0
 8005bcc:	10101004 	andsne	r1, r0, r4
 8005bd0:	10101002 	andsne	r1, r0, r2
 8005bd4:	02040108 	andeq	r0, r4, #8, 2

08005bd5 <CSWTCH.35>:
 8005bd5:	08020401 	stmdaeq	r2, {r0, sl}

08005bd9 <APBAHBPrescTable>:
 8005bd9:	00000000 	andeq	r0, r0, r0
 8005bdd:	04030201 	streq	r0, [r3], #-513	; 0xfffffdff
 8005be1:	04030201 	streq	r0, [r3], #-513	; 0xfffffdff
 8005be5:	09080706 	stmdbeq	r8, {r1, r2, r8, r9, sl}

08005be9 <flagBitshiftOffset.11305>:
 8005be9:	16100600 	ldrne	r0, [r0], -r0, lsl #12
 8005bed:	16100600 	ldrne	r0, [r0], -r0, lsl #12
 8005bf1:	00000000 	andeq	r0, r0, r0
 8005bf5:	00000000 	andeq	r0, r0, r0

08005bf8 <_ZTV4TI2CILh5ELh7ELh6ELj20ELh5EE>:
 8005bf8:	00000000 	andeq	r0, r0, r0
 8005bfc:	00000000 	andeq	r0, r0, r0
 8005c00:	08002d27 	stmdaeq	r0, {r0, r1, r2, r5, r8, sl, fp, sp}
 8005c04:	08002ce5 	stmdaeq	r0, {r0, r2, r5, r6, r7, sl, fp, sp}
 8005c08:	08002e05 	stmdaeq	r0, {r0, r2, r9, sl, fp, sp}
 8005c0c:	08002d69 	stmdaeq	r0, {r0, r3, r5, r6, r8, sl, fp, sp}
 8005c10:	08002791 	stmdaeq	r0, {r0, r4, r7, r8, r9, sl, sp}
 8005c14:	080027cd 	stmdaeq	r0, {r0, r2, r3, r6, r7, r8, r9, sl, sp}
 8005c18:	08002815 	stmdaeq	r0, {r0, r2, r4, fp, sp}
 8005c1c:	0800285b 	stmdaeq	r0, {r0, r1, r3, r4, r6, fp, sp}
 8005c20:	080028a9 	stmdaeq	r0, {r0, r3, r5, r7, fp, sp}
 8005c24:	08002903 	stmdaeq	r0, {r0, r1, r8, fp, sp}

08005c28 <_ZTV4TI2CILh1ELh9ELh8ELj100ELh1EE>:
 8005c28:	00000000 	andeq	r0, r0, r0
 8005c2c:	00000000 	andeq	r0, r0, r0
 8005c30:	08003e5f 	stmdaeq	r0, {r0, r1, r2, r3, r4, r6, r9, sl, fp, ip, sp}
 8005c34:	08003e1d 	stmdaeq	r0, {r0, r2, r3, r4, r9, sl, fp, ip, sp}
 8005c38:	08003f3d 	stmdaeq	r0, {r0, r2, r3, r4, r5, r8, r9, sl, fp, ip, sp}
 8005c3c:	08003ea1 	stmdaeq	r0, {r0, r5, r7, r9, sl, fp, ip, sp}
 8005c40:	080034e3 	stmdaeq	r0, {r0, r1, r5, r6, r7, sl, ip, sp}
 8005c44:	0800351f 	stmdaeq	r0, {r0, r1, r2, r3, r4, r8, sl, ip, sp}
 8005c48:	08003567 	stmdaeq	r0, {r0, r1, r2, r5, r6, r8, sl, ip, sp}
 8005c4c:	08003495 	stmdaeq	r0, {r0, r2, r4, r7, sl, ip, sp}
 8005c50:	080035ad 	stmdaeq	r0, {r0, r2, r3, r5, r7, r8, sl, ip, sp}
 8005c54:	08003607 	stmdaeq	r0, {r0, r1, r2, r9, sl, ip, sp}

08005c58 <_ZL12OV9655_QQVGA>:
 8005c58:	80010000 	andhi	r0, r1, r0
 8005c5c:	02038002 	andeq	r8, r3, #2
 8005c60:	01090304 	tsteq	r9, r4, lsl #6
 8005c64:	610e570b 	tstvs	lr, fp, lsl #14
 8005c68:	0111400f 	tsteq	r1, pc
 8005c6c:	c7136212 			; <UNDEFINED> instruction: 0xc7136212
 8005c70:	24163a14 	ldrcs	r3, [r6], #-2580	; 0xfffff5ec
 8005c74:	04181817 	ldreq	r1, [r8], #-2071	; 0xfffff7e9
 8005c78:	811a0119 	tsthi	sl, r9, lsl r1
 8005c7c:	3c24001e 	stccc	0, cr0, [r4], #-120	; 0xffffff88
 8005c80:	72263625 	eorvc	r3, r6, #38797312	; 0x2500000
 8005c84:	08280827 	stmdaeq	r8!, {r0, r1, r2, r5, fp}
 8005c88:	002a1529 	eoreq	r1, sl, r9, lsr #10
 8005c8c:	082c002b 	stmdaeq	ip!, {r0, r1, r3, r5}
 8005c90:	0033a432 	eorseq	sl, r3, r2, lsr r4
 8005c94:	00353f34 	eorseq	r3, r5, r4, lsr pc
 8005c98:	72383a36 	eorsvc	r3, r8, #221184	; 0x36000
 8005c9c:	cc3a5739 	ldcgt	7, cr5, [sl], #-228	; 0xffffff1c
 8005ca0:	993d043b 	ldmdbls	sp!, {r0, r1, r3, r4, r5, sl}
 8005ca4:	c13f0e3e 	teqgt	pc, lr, lsr lr	; <UNPREDICTABLE>
 8005ca8:	4141c040 	cmpmi	r1, r0, asr #32
 8005cac:	0a43c042 	beq	90f5dbc <_sidata+0x10eff14>
 8005cb0:	4645f044 	strbmi	pc, [r5], -r4, asr #32	; <UNPREDICTABLE>
 8005cb4:	2a476246 	bcs	91de5d4 <_sidata+0x11d872c>
 8005cb8:	fc4a3c48 	mcrr2	12, 4, r3, sl, cr8
 8005cbc:	7f4cfc4b 	svcvc	0x004cfc4b
 8005cc0:	7f4e7f4d 	svcvc	0x004e7f4d
 8005cc4:	9850984f 	ldmdals	r0, {r0, r1, r2, r3, r6, fp, ip, pc}^
 8005cc8:	28520051 	ldmdacs	r2, {r0, r4, r6}^
 8005ccc:	98547053 	ldmdals	r4, {r0, r1, r4, r6, ip, sp, lr}^
 8005cd0:	85591a58 	ldrbhi	r1, [r9, #-2648]	; 0xfffff5a8
 8005cd4:	645ba95a 	ldrbvs	sl, [fp], #-2394	; 0xfffff6a6
 8005cd8:	535d845c 	cmppl	sp, #92, 8	; 0x5c000000
 8005cdc:	f05f0e5e 			; <UNDEFINED> instruction: 0xf05f0e5e
 8005ce0:	f061f060 			; <UNDEFINED> instruction: 0xf061f060
 8005ce4:	00630062 	rsbeq	r0, r3, r2, rrx
 8005ce8:	20650264 	rsbcs	r0, r5, r4, ror #4
 8005cec:	0a690066 	beq	9a45e8c <_sidata+0x1a3ffe4>
 8005cf0:	046c5a6b 	strbteq	r5, [ip], #-2667	; 0xfffff595
 8005cf4:	006e556d 	rsbeq	r5, lr, sp, ror #10
 8005cf8:	21709d6f 	cmncs	r0, pc, ror #26
 8005cfc:	22727871 	rsbscs	r7, r2, #7405568	; 0x710000
 8005d00:	10740273 	rsbsne	r0, r4, r3, ror r2
 8005d04:	01761075 	cmneq	r6, r5, ror r0
 8005d08:	127a0277 	rsbsne	r0, sl, #1879048199	; 0x70000007
 8005d0c:	167c087b 			; <UNDEFINED> instruction: 0x167c087b
 8005d10:	5e7e307d 	mrcpl	0, 3, r3, cr14, cr13, {3}
 8005d14:	8280727f 	addhi	r7, r0, #-268435449	; 0xf0000007
 8005d18:	9a828e81 	bls	60a9724 <_Min_Stack_Size+0x60a9324>
 8005d1c:	ac84a483 	cfstrsge	mvf10, [r4], {131}	; 0x83
 8005d20:	c386b885 	orrgt	fp, r6, #8716288	; 0x850000
 8005d24:	e688d687 	str	sp, [r8], r7, lsl #13
 8005d28:	248af289 	strcs	pc, [sl], #649	; 0x289
 8005d2c:	7d90808c 	ldcvc	0, cr8, [r0, #560]	; 0x230
 8005d30:	029d7b91 	addseq	r7, sp, #148480	; 0x24400
 8005d34:	7a9f029e 	bvc	67c67b4 <_Min_Stack_Size+0x67c63b4>
 8005d38:	40a179a0 	adcmi	r7, r1, r0, lsr #19
 8005d3c:	68a550a4 	stmiavs	r5!, {r2, r5, r7, ip, lr}
 8005d40:	c1a84aa6 			; <UNDEFINED> instruction: 0xc1a84aa6
 8005d44:	92aaefa9 	adcls	lr, sl, #676	; 0x2a4
 8005d48:	80ac04ab 	adchi	r0, ip, fp, lsr #9
 8005d4c:	80ae80ad 	adchi	r8, lr, sp, lsr #1
 8005d50:	f2b280af 	vext.8	d8, d18, d31, #0
 8005d54:	20b420b3 	ldrhtcs	r2, [r4], r3
 8005d58:	afb600b5 	svcge	0x00b600b5
 8005d5c:	aebbafb6 	mrcge	15, 5, sl, cr11, cr6, {5}
 8005d60:	7fbd7fbc 	svcvc	0x00bd7fbc
 8005d64:	7fbf7fbe 	svcvc	0x00bf7fbe
 8005d68:	aac07fbf 	bge	7025c6c <_Min_Stack_Size+0x702586c>
 8005d6c:	01c2c0c1 	biceq	ip, r2, r1, asr #1
 8005d70:	05c64ec3 	strbeq	r4, [r6, #3779]	; 0xec3
 8005d74:	e0c982c7 	sbc	r8, r9, r7, asr #5
 8005d78:	f0cbe8ca 			; <UNDEFINED> instruction: 0xf0cbe8ca
 8005d7c:	93cdd8cc 	bicls	sp, sp, #204, 16	; 0xcc0000
 8005d80:	10406312 	subne	r6, r0, r2, lsl r3
 8005d84:	69747075 	ldmdbvs	r4!, {r0, r2, r4, r5, r6, ip, sp, lr}^
 8005d88:	2520656d 	strcs	r6, [r0, #-1389]!	; 0xfffffa93
 8005d8c:	6d5b2075 	ldclvs	0, cr2, [fp, #-468]	; 0xfffffe2c
 8005d90:	202c5d73 	eorcs	r5, ip, r3, ror sp
 8005d94:	6573616c 	ldrbvs	r6, [r3, #-364]!	; 0xfffffe94
 8005d98:	69642072 	stmdbvs	r4!, {r1, r4, r5, r6, sp}^
 8005d9c:	6e617473 	mcrvs	4, 3, r7, cr1, cr3, {3}
 8005da0:	25206563 	strcs	r6, [r0, #-1379]!	; 0xfffffa9d
 8005da4:	6d5b2069 	ldclvs	0, cr2, [fp, #-420]	; 0xfffffe5c
 8005da8:	000a5d6d 	andeq	r5, sl, sp, ror #26
 8005dac:	000a0a0a 	andeq	r0, sl, sl, lsl #20
 8005db0:	6f666e69 	svcvs	0x00666e69
 8005db4:	73617420 	cmnvc	r1, #32, 8	; 0x20000000
 8005db8:	6e69206b 	cdpvs	0, 6, cr2, cr9, cr11, {3}
 8005dbc:	000a7469 	andeq	r7, sl, r9, ror #8
 8005dc0:	72617473 	rsbvc	r7, r1, #1929379840	; 0x73000000
 8005dc4:	676e6974 			; <UNDEFINED> instruction: 0x676e6974
 8005dc8:	72687420 	rsbvc	r7, r8, #32, 8	; 0x20000000
 8005dcc:	73646165 	cmnvc	r4, #1073741849	; 0x40000019
 8005dd0:	0000000a 	andeq	r0, r0, sl
 8005dd4:	00000000 	andeq	r0, r0, r0

08005dd8 <_ZTV9CInfoTask>:
 8005dd8:	00000000 	andeq	r0, r0, r0
 8005ddc:	00000000 	andeq	r0, r0, r0
 8005de0:	08004d6d 	stmdaeq	r0, {r0, r2, r3, r5, r6, r8, sl, fp, lr}
 8005de4:	08004d85 	stmdaeq	r0, {r0, r2, r7, r8, sl, fp, lr}
 8005de8:	08004d99 	stmdaeq	r0, {r0, r3, r4, r7, r8, sl, fp, lr}
 8005dec:	00000000 	andeq	r0, r0, r0

08005df0 <_ZTV4TI2CILh5ELh10ELh6ELj20ELh5EE>:
 8005df0:	00000000 	andeq	r0, r0, r0
 8005df4:	00000000 	andeq	r0, r0, r0
 8005df8:	08005937 	stmdaeq	r0, {r0, r1, r2, r4, r5, r8, fp, ip, lr}
 8005dfc:	080058f5 	stmdaeq	r0, {r0, r2, r4, r5, r6, r7, fp, ip, lr}
 8005e00:	08005a15 	stmdaeq	r0, {r0, r2, r4, r9, fp, ip, lr}
 8005e04:	08005979 	stmdaeq	r0, {r0, r3, r4, r5, r6, r8, fp, ip, lr}
 8005e08:	08004fe1 	stmdaeq	r0, {r0, r5, r6, r7, r8, r9, sl, fp, lr}
 8005e0c:	0800501d 	stmdaeq	r0, {r0, r2, r3, r4, ip, lr}
 8005e10:	08005065 	stmdaeq	r0, {r0, r2, r5, r6, ip, lr}
 8005e14:	080050ab 	stmdaeq	r0, {r0, r1, r3, r5, r7, ip, lr}
 8005e18:	080050f9 	stmdaeq	r0, {r0, r3, r4, r5, r6, r7, ip, lr}
 8005e1c:	08005153 	stmdaeq	r0, {r0, r1, r4, r6, r8, ip, lr}

08005e20 <_ZTV6CIRCAM>:
 8005e20:	00000000 	andeq	r0, r0, r0
 8005e24:	00000000 	andeq	r0, r0, r0
 8005e28:	080051b1 	stmdaeq	r0, {r0, r4, r5, r7, r8, ip, lr}
 8005e2c:	080051d1 	stmdaeq	r0, {r0, r4, r6, r7, r8, ip, lr}
 8005e30:	08005371 	stmdaeq	r0, {r0, r4, r5, r6, r8, r9, ip, lr}
 8005e34:	20535046 	subscs	r5, r3, r6, asr #32
 8005e38:	000a7525 	andeq	r7, sl, r5, lsr #10
 8005e3c:	656d6163 	strbvs	r6, [sp, #-355]!	; 0xfffffe9d
 8005e40:	69206172 	stmdbvs	r0!, {r1, r4, r5, r6, r8, sp, lr}
 8005e44:	2074696e 	rsbscs	r6, r4, lr, ror #18
 8005e48:	20736572 	rsbscs	r6, r3, r2, ror r5
 8005e4c:	0a206925 	beq	88202e8 <_sidata+0x81a440>
 8005e50:	6d616300 	stclvs	3, cr6, [r1, #-0]
 8005e54:	20617265 	rsbcs	r7, r1, r5, ror #4
 8005e58:	66667562 	strbtvs	r7, [r6], -r2, ror #10
 8005e5c:	73207265 			; <UNDEFINED> instruction: 0x73207265
 8005e60:	74726174 	ldrbtvc	r6, [r2], #-372	; 0xfffffe8c
 8005e64:	20752520 	rsbscs	r2, r5, r0, lsr #10
 8005e68:	0000000a 	andeq	r0, r0, sl
 8005e6c:	00000043 	andeq	r0, r0, r3, asr #32

08005e70 <_global_impure_ptr>:
 8005e70:	20000008 	andcs	r0, r0, r8

Disassembly of section .ARM:

08005e74 <__exidx_start>:
 8005e74:	7ffffc2c 	svcvc	0x00fffc2c
 8005e78:	00000001 	andeq	r0, r0, r1

Disassembly of section .init_array:

08005e7c <__init_array_start>:
 8005e7c:	08005b9d 	stmdaeq	r0, {r0, r2, r3, r4, r7, r8, r9, fp, ip, lr}

08005e80 <__frame_dummy_init_array_entry>:
 8005e80:	08000235 	stmdaeq	r0, {r0, r2, r4, r5, r9}
 8005e84:	08002e91 	stmdaeq	r0, {r0, r4, r7, r9, sl, fp, sp}
 8005e88:	08002ecd 	stmdaeq	r0, {r0, r2, r3, r6, r7, r9, sl, fp, sp}
 8005e8c:	08002f8d 	stmdaeq	r0, {r0, r2, r3, r7, r8, r9, sl, fp, sp}
 8005e90:	08002fa9 	stmdaeq	r0, {r0, r3, r5, r7, r8, r9, sl, fp, sp}
 8005e94:	0800320d 	stmdaeq	r0, {r0, r2, r3, r9, ip, sp}
 8005e98:	08003471 	stmdaeq	r0, {r0, r4, r5, r6, sl, ip, sp}
 8005e9c:	080043e5 	stmdaeq	r0, {r0, r2, r5, r6, r7, r8, r9, lr}
 8005ea0:	08004691 	stmdaeq	r0, {r0, r4, r7, r9, sl, lr}

Disassembly of section .fini_array:

08005ea4 <__do_global_dtors_aux_fini_array_entry>:
 8005ea4:	0800020d 	stmdaeq	r0, {r0, r2, r3, r9}

Disassembly of section .data:

20000000 <__dso_handle>:
20000000:	00000000 	andeq	r0, r0, r0

20000004 <SystemCoreClock>:
20000004:	00f42400 	rscseq	r2, r4, r0, lsl #8

20000008 <impure_data>:
20000008:	00000000 	andeq	r0, r0, r0
2000000c:	200002f4 	strdcs	r0, [r0], -r4
20000010:	2000035c 	andcs	r0, r0, ip, asr r3
20000014:	200003c4 	andcs	r0, r0, r4, asr #7
20000018:	00000000 	andeq	r0, r0, r0
2000001c:	00000000 	andeq	r0, r0, r0
20000020:	00000000 	andeq	r0, r0, r0
20000024:	00000000 	andeq	r0, r0, r0
20000028:	00000000 	andeq	r0, r0, r0
2000002c:	00000000 	andeq	r0, r0, r0
20000030:	00000000 	andeq	r0, r0, r0
20000034:	00000000 	andeq	r0, r0, r0
20000038:	00000000 	andeq	r0, r0, r0
2000003c:	08005e6c 	stmdaeq	r0, {r2, r3, r5, r6, r9, sl, fp, ip, lr}
20000040:	00000000 	andeq	r0, r0, r0
20000044:	00000000 	andeq	r0, r0, r0
20000048:	00000000 	andeq	r0, r0, r0
2000004c:	00000000 	andeq	r0, r0, r0
20000050:	00000000 	andeq	r0, r0, r0
20000054:	00000000 	andeq	r0, r0, r0
20000058:	00000000 	andeq	r0, r0, r0
2000005c:	00000000 	andeq	r0, r0, r0
20000060:	00000000 	andeq	r0, r0, r0
20000064:	00000000 	andeq	r0, r0, r0
20000068:	00000000 	andeq	r0, r0, r0
2000006c:	00000000 	andeq	r0, r0, r0
20000070:	00000000 	andeq	r0, r0, r0
20000074:	00000000 	andeq	r0, r0, r0
20000078:	00000000 	andeq	r0, r0, r0
2000007c:	00000000 	andeq	r0, r0, r0
20000080:	00000000 	andeq	r0, r0, r0
20000084:	00000000 	andeq	r0, r0, r0
20000088:	00000000 	andeq	r0, r0, r0
2000008c:	00000000 	andeq	r0, r0, r0
20000090:	00000000 	andeq	r0, r0, r0
20000094:	00000000 	andeq	r0, r0, r0
20000098:	00000000 	andeq	r0, r0, r0
2000009c:	00000000 	andeq	r0, r0, r0
200000a0:	00000000 	andeq	r0, r0, r0
200000a4:	00000000 	andeq	r0, r0, r0
200000a8:	00000000 	andeq	r0, r0, r0
200000ac:	00000000 	andeq	r0, r0, r0
200000b0:	00000001 	andeq	r0, r0, r1
200000b4:	00000000 	andeq	r0, r0, r0
200000b8:	abcd330e 	blge	1f34ccf8 <_sidata+0x17346e50>
200000bc:	e66d1234 			; <UNDEFINED> instruction: 0xe66d1234
200000c0:	0005deec 	andeq	sp, r5, ip, ror #29
200000c4:	0000000b 	andeq	r0, r0, fp
200000c8:	00000000 	andeq	r0, r0, r0
200000cc:	00000000 	andeq	r0, r0, r0
200000d0:	00000000 	andeq	r0, r0, r0
200000d4:	00000000 	andeq	r0, r0, r0
200000d8:	00000000 	andeq	r0, r0, r0
200000dc:	00000000 	andeq	r0, r0, r0
200000e0:	00000000 	andeq	r0, r0, r0
200000e4:	00000000 	andeq	r0, r0, r0
200000e8:	00000000 	andeq	r0, r0, r0
200000ec:	00000000 	andeq	r0, r0, r0
200000f0:	00000000 	andeq	r0, r0, r0
200000f4:	00000000 	andeq	r0, r0, r0
200000f8:	00000000 	andeq	r0, r0, r0
200000fc:	00000000 	andeq	r0, r0, r0
20000100:	00000000 	andeq	r0, r0, r0
20000104:	00000000 	andeq	r0, r0, r0
20000108:	00000000 	andeq	r0, r0, r0
2000010c:	00000000 	andeq	r0, r0, r0
20000110:	00000000 	andeq	r0, r0, r0
20000114:	00000000 	andeq	r0, r0, r0
20000118:	00000000 	andeq	r0, r0, r0
2000011c:	00000000 	andeq	r0, r0, r0
20000120:	00000000 	andeq	r0, r0, r0
20000124:	00000000 	andeq	r0, r0, r0
20000128:	00000000 	andeq	r0, r0, r0
2000012c:	00000000 	andeq	r0, r0, r0
20000130:	00000000 	andeq	r0, r0, r0
20000134:	00000000 	andeq	r0, r0, r0
20000138:	00000000 	andeq	r0, r0, r0
2000013c:	00000000 	andeq	r0, r0, r0
20000140:	00000000 	andeq	r0, r0, r0
20000144:	00000000 	andeq	r0, r0, r0
20000148:	00000000 	andeq	r0, r0, r0
2000014c:	00000000 	andeq	r0, r0, r0
20000150:	00000000 	andeq	r0, r0, r0
20000154:	00000000 	andeq	r0, r0, r0
20000158:	00000000 	andeq	r0, r0, r0
2000015c:	00000000 	andeq	r0, r0, r0
20000160:	00000000 	andeq	r0, r0, r0
20000164:	00000000 	andeq	r0, r0, r0
20000168:	00000000 	andeq	r0, r0, r0
2000016c:	00000000 	andeq	r0, r0, r0
20000170:	00000000 	andeq	r0, r0, r0
20000174:	00000000 	andeq	r0, r0, r0
20000178:	00000000 	andeq	r0, r0, r0
2000017c:	00000000 	andeq	r0, r0, r0
20000180:	00000000 	andeq	r0, r0, r0
20000184:	00000000 	andeq	r0, r0, r0
20000188:	00000000 	andeq	r0, r0, r0
2000018c:	00000000 	andeq	r0, r0, r0
20000190:	00000000 	andeq	r0, r0, r0
20000194:	00000000 	andeq	r0, r0, r0
20000198:	00000000 	andeq	r0, r0, r0
2000019c:	00000000 	andeq	r0, r0, r0
200001a0:	00000000 	andeq	r0, r0, r0
200001a4:	00000000 	andeq	r0, r0, r0
200001a8:	00000000 	andeq	r0, r0, r0
200001ac:	00000000 	andeq	r0, r0, r0
200001b0:	00000000 	andeq	r0, r0, r0
200001b4:	00000000 	andeq	r0, r0, r0
200001b8:	00000000 	andeq	r0, r0, r0
200001bc:	00000000 	andeq	r0, r0, r0
200001c0:	00000000 	andeq	r0, r0, r0
200001c4:	00000000 	andeq	r0, r0, r0
200001c8:	00000000 	andeq	r0, r0, r0
200001cc:	00000000 	andeq	r0, r0, r0
200001d0:	00000000 	andeq	r0, r0, r0
200001d4:	00000000 	andeq	r0, r0, r0
200001d8:	00000000 	andeq	r0, r0, r0
200001dc:	00000000 	andeq	r0, r0, r0
200001e0:	00000000 	andeq	r0, r0, r0
200001e4:	00000000 	andeq	r0, r0, r0
200001e8:	00000000 	andeq	r0, r0, r0
200001ec:	00000000 	andeq	r0, r0, r0
200001f0:	00000000 	andeq	r0, r0, r0
200001f4:	00000000 	andeq	r0, r0, r0
200001f8:	00000000 	andeq	r0, r0, r0
200001fc:	00000000 	andeq	r0, r0, r0
20000200:	00000000 	andeq	r0, r0, r0
20000204:	00000000 	andeq	r0, r0, r0
20000208:	00000000 	andeq	r0, r0, r0
2000020c:	00000000 	andeq	r0, r0, r0
20000210:	00000000 	andeq	r0, r0, r0
20000214:	00000000 	andeq	r0, r0, r0
20000218:	00000000 	andeq	r0, r0, r0
2000021c:	00000000 	andeq	r0, r0, r0
20000220:	00000000 	andeq	r0, r0, r0
20000224:	00000000 	andeq	r0, r0, r0
20000228:	00000000 	andeq	r0, r0, r0
2000022c:	00000000 	andeq	r0, r0, r0
20000230:	00000000 	andeq	r0, r0, r0
20000234:	00000000 	andeq	r0, r0, r0
20000238:	00000000 	andeq	r0, r0, r0
2000023c:	00000000 	andeq	r0, r0, r0
20000240:	00000000 	andeq	r0, r0, r0
20000244:	00000000 	andeq	r0, r0, r0
20000248:	00000000 	andeq	r0, r0, r0
2000024c:	00000000 	andeq	r0, r0, r0
20000250:	00000000 	andeq	r0, r0, r0
20000254:	00000000 	andeq	r0, r0, r0
20000258:	00000000 	andeq	r0, r0, r0
2000025c:	00000000 	andeq	r0, r0, r0
20000260:	00000000 	andeq	r0, r0, r0
20000264:	00000000 	andeq	r0, r0, r0
20000268:	00000000 	andeq	r0, r0, r0
2000026c:	00000000 	andeq	r0, r0, r0
20000270:	00000000 	andeq	r0, r0, r0
20000274:	00000000 	andeq	r0, r0, r0
20000278:	00000000 	andeq	r0, r0, r0
2000027c:	00000000 	andeq	r0, r0, r0
20000280:	00000000 	andeq	r0, r0, r0
20000284:	00000000 	andeq	r0, r0, r0
20000288:	00000000 	andeq	r0, r0, r0
2000028c:	00000000 	andeq	r0, r0, r0
20000290:	00000000 	andeq	r0, r0, r0
20000294:	00000000 	andeq	r0, r0, r0
20000298:	00000000 	andeq	r0, r0, r0
2000029c:	00000000 	andeq	r0, r0, r0
200002a0:	00000000 	andeq	r0, r0, r0
200002a4:	00000000 	andeq	r0, r0, r0
200002a8:	00000000 	andeq	r0, r0, r0
200002ac:	00000000 	andeq	r0, r0, r0
200002b0:	00000000 	andeq	r0, r0, r0
200002b4:	00000000 	andeq	r0, r0, r0
200002b8:	00000000 	andeq	r0, r0, r0
200002bc:	00000000 	andeq	r0, r0, r0
200002c0:	00000000 	andeq	r0, r0, r0
200002c4:	00000000 	andeq	r0, r0, r0
200002c8:	00000000 	andeq	r0, r0, r0
200002cc:	00000000 	andeq	r0, r0, r0
200002d0:	00000000 	andeq	r0, r0, r0
200002d4:	00000000 	andeq	r0, r0, r0
200002d8:	00000000 	andeq	r0, r0, r0
200002dc:	00000000 	andeq	r0, r0, r0
200002e0:	00000000 	andeq	r0, r0, r0
200002e4:	00000000 	andeq	r0, r0, r0
200002e8:	00000000 	andeq	r0, r0, r0
200002ec:	00000000 	andeq	r0, r0, r0
200002f0:	00000000 	andeq	r0, r0, r0
200002f4:	00000000 	andeq	r0, r0, r0
200002f8:	00000000 	andeq	r0, r0, r0
200002fc:	00000000 	andeq	r0, r0, r0
20000300:	00000000 	andeq	r0, r0, r0
20000304:	00000000 	andeq	r0, r0, r0
20000308:	00000000 	andeq	r0, r0, r0
2000030c:	00000000 	andeq	r0, r0, r0
20000310:	00000000 	andeq	r0, r0, r0
20000314:	00000000 	andeq	r0, r0, r0
20000318:	00000000 	andeq	r0, r0, r0
2000031c:	00000000 	andeq	r0, r0, r0
20000320:	00000000 	andeq	r0, r0, r0
20000324:	00000000 	andeq	r0, r0, r0
20000328:	00000000 	andeq	r0, r0, r0
2000032c:	00000000 	andeq	r0, r0, r0
20000330:	00000000 	andeq	r0, r0, r0
20000334:	00000000 	andeq	r0, r0, r0
20000338:	00000000 	andeq	r0, r0, r0
2000033c:	00000000 	andeq	r0, r0, r0
20000340:	00000000 	andeq	r0, r0, r0
20000344:	00000000 	andeq	r0, r0, r0
20000348:	00000000 	andeq	r0, r0, r0
2000034c:	00000000 	andeq	r0, r0, r0
20000350:	00000000 	andeq	r0, r0, r0
20000354:	00000000 	andeq	r0, r0, r0
20000358:	00000000 	andeq	r0, r0, r0
2000035c:	00000000 	andeq	r0, r0, r0
20000360:	00000000 	andeq	r0, r0, r0
20000364:	00000000 	andeq	r0, r0, r0
20000368:	00000000 	andeq	r0, r0, r0
2000036c:	00000000 	andeq	r0, r0, r0
20000370:	00000000 	andeq	r0, r0, r0
20000374:	00000000 	andeq	r0, r0, r0
20000378:	00000000 	andeq	r0, r0, r0
2000037c:	00000000 	andeq	r0, r0, r0
20000380:	00000000 	andeq	r0, r0, r0
20000384:	00000000 	andeq	r0, r0, r0
20000388:	00000000 	andeq	r0, r0, r0
2000038c:	00000000 	andeq	r0, r0, r0
20000390:	00000000 	andeq	r0, r0, r0
20000394:	00000000 	andeq	r0, r0, r0
20000398:	00000000 	andeq	r0, r0, r0
2000039c:	00000000 	andeq	r0, r0, r0
200003a0:	00000000 	andeq	r0, r0, r0
200003a4:	00000000 	andeq	r0, r0, r0
200003a8:	00000000 	andeq	r0, r0, r0
200003ac:	00000000 	andeq	r0, r0, r0
200003b0:	00000000 	andeq	r0, r0, r0
200003b4:	00000000 	andeq	r0, r0, r0
200003b8:	00000000 	andeq	r0, r0, r0
200003bc:	00000000 	andeq	r0, r0, r0
200003c0:	00000000 	andeq	r0, r0, r0
200003c4:	00000000 	andeq	r0, r0, r0
200003c8:	00000000 	andeq	r0, r0, r0
200003cc:	00000000 	andeq	r0, r0, r0
200003d0:	00000000 	andeq	r0, r0, r0
200003d4:	00000000 	andeq	r0, r0, r0
200003d8:	00000000 	andeq	r0, r0, r0
200003dc:	00000000 	andeq	r0, r0, r0
200003e0:	00000000 	andeq	r0, r0, r0
200003e4:	00000000 	andeq	r0, r0, r0
200003e8:	00000000 	andeq	r0, r0, r0
200003ec:	00000000 	andeq	r0, r0, r0
200003f0:	00000000 	andeq	r0, r0, r0
200003f4:	00000000 	andeq	r0, r0, r0
200003f8:	00000000 	andeq	r0, r0, r0
200003fc:	00000000 	andeq	r0, r0, r0
20000400:	00000000 	andeq	r0, r0, r0
20000404:	00000000 	andeq	r0, r0, r0
20000408:	00000000 	andeq	r0, r0, r0
2000040c:	00000000 	andeq	r0, r0, r0
20000410:	00000000 	andeq	r0, r0, r0
20000414:	00000000 	andeq	r0, r0, r0
20000418:	00000000 	andeq	r0, r0, r0
2000041c:	00000000 	andeq	r0, r0, r0
20000420:	00000000 	andeq	r0, r0, r0
20000424:	00000000 	andeq	r0, r0, r0
20000428:	00000000 	andeq	r0, r0, r0
2000042c:	00000000 	andeq	r0, r0, r0

Disassembly of section .bss:

20000430 <_sbss>:
20000430:	00000000 	andeq	r0, r0, r0

20000434 <object.6271>:
20000434:	00000000 	andeq	r0, r0, r0
20000438:	00000000 	andeq	r0, r0, r0
2000043c:	00000000 	andeq	r0, r0, r0
20000440:	00000000 	andeq	r0, r0, r0
20000444:	00000000 	andeq	r0, r0, r0
20000448:	00000000 	andeq	r0, r0, r0

2000044c <uwTick>:
2000044c:	00000000 	andeq	r0, r0, r0

20000450 <i2c>:
20000450:	00000000 	andeq	r0, r0, r0
20000454:	00000000 	andeq	r0, r0, r0
20000458:	00000000 	andeq	r0, r0, r0

2000045c <mem>:
2000045c:	00000000 	andeq	r0, r0, r0

20000460 <__threads__>:
20000460:	00000000 	andeq	r0, r0, r0
20000464:	00000000 	andeq	r0, r0, r0
20000468:	00000000 	andeq	r0, r0, r0
2000046c:	00000000 	andeq	r0, r0, r0
20000470:	00000000 	andeq	r0, r0, r0
20000474:	00000000 	andeq	r0, r0, r0
20000478:	00000000 	andeq	r0, r0, r0
2000047c:	00000000 	andeq	r0, r0, r0
20000480:	00000000 	andeq	r0, r0, r0
20000484:	00000000 	andeq	r0, r0, r0
20000488:	00000000 	andeq	r0, r0, r0
2000048c:	00000000 	andeq	r0, r0, r0
20000490:	00000000 	andeq	r0, r0, r0
20000494:	00000000 	andeq	r0, r0, r0
20000498:	00000000 	andeq	r0, r0, r0
2000049c:	00000000 	andeq	r0, r0, r0
200004a0:	00000000 	andeq	r0, r0, r0
200004a4:	00000000 	andeq	r0, r0, r0
200004a8:	00000000 	andeq	r0, r0, r0
200004ac:	00000000 	andeq	r0, r0, r0
200004b0:	00000000 	andeq	r0, r0, r0
200004b4:	00000000 	andeq	r0, r0, r0
200004b8:	00000000 	andeq	r0, r0, r0
200004bc:	00000000 	andeq	r0, r0, r0
200004c0:	00000000 	andeq	r0, r0, r0
200004c4:	00000000 	andeq	r0, r0, r0
200004c8:	00000000 	andeq	r0, r0, r0
200004cc:	00000000 	andeq	r0, r0, r0
200004d0:	00000000 	andeq	r0, r0, r0
200004d4:	00000000 	andeq	r0, r0, r0
200004d8:	00000000 	andeq	r0, r0, r0
200004dc:	00000000 	andeq	r0, r0, r0
200004e0:	00000000 	andeq	r0, r0, r0
200004e4:	00000000 	andeq	r0, r0, r0
200004e8:	00000000 	andeq	r0, r0, r0
200004ec:	00000000 	andeq	r0, r0, r0
200004f0:	00000000 	andeq	r0, r0, r0
200004f4:	00000000 	andeq	r0, r0, r0
200004f8:	00000000 	andeq	r0, r0, r0
200004fc:	00000000 	andeq	r0, r0, r0
20000500:	00000000 	andeq	r0, r0, r0
20000504:	00000000 	andeq	r0, r0, r0
20000508:	00000000 	andeq	r0, r0, r0
2000050c:	00000000 	andeq	r0, r0, r0
20000510:	00000000 	andeq	r0, r0, r0
20000514:	00000000 	andeq	r0, r0, r0
20000518:	00000000 	andeq	r0, r0, r0
2000051c:	00000000 	andeq	r0, r0, r0
20000520:	00000000 	andeq	r0, r0, r0
20000524:	00000000 	andeq	r0, r0, r0
20000528:	00000000 	andeq	r0, r0, r0
2000052c:	00000000 	andeq	r0, r0, r0
20000530:	00000000 	andeq	r0, r0, r0
20000534:	00000000 	andeq	r0, r0, r0
20000538:	00000000 	andeq	r0, r0, r0
2000053c:	00000000 	andeq	r0, r0, r0
20000540:	00000000 	andeq	r0, r0, r0
20000544:	00000000 	andeq	r0, r0, r0
20000548:	00000000 	andeq	r0, r0, r0
2000054c:	00000000 	andeq	r0, r0, r0
20000550:	00000000 	andeq	r0, r0, r0
20000554:	00000000 	andeq	r0, r0, r0
20000558:	00000000 	andeq	r0, r0, r0
2000055c:	00000000 	andeq	r0, r0, r0
20000560:	00000000 	andeq	r0, r0, r0
20000564:	00000000 	andeq	r0, r0, r0
20000568:	00000000 	andeq	r0, r0, r0
2000056c:	00000000 	andeq	r0, r0, r0
20000570:	00000000 	andeq	r0, r0, r0
20000574:	00000000 	andeq	r0, r0, r0
20000578:	00000000 	andeq	r0, r0, r0
2000057c:	00000000 	andeq	r0, r0, r0
20000580:	00000000 	andeq	r0, r0, r0
20000584:	00000000 	andeq	r0, r0, r0
20000588:	00000000 	andeq	r0, r0, r0
2000058c:	00000000 	andeq	r0, r0, r0
20000590:	00000000 	andeq	r0, r0, r0
20000594:	00000000 	andeq	r0, r0, r0
20000598:	00000000 	andeq	r0, r0, r0
2000059c:	00000000 	andeq	r0, r0, r0
200005a0:	00000000 	andeq	r0, r0, r0
200005a4:	00000000 	andeq	r0, r0, r0
200005a8:	00000000 	andeq	r0, r0, r0
200005ac:	00000000 	andeq	r0, r0, r0
200005b0:	00000000 	andeq	r0, r0, r0
200005b4:	00000000 	andeq	r0, r0, r0
200005b8:	00000000 	andeq	r0, r0, r0
200005bc:	00000000 	andeq	r0, r0, r0
200005c0:	00000000 	andeq	r0, r0, r0
200005c4:	00000000 	andeq	r0, r0, r0
200005c8:	00000000 	andeq	r0, r0, r0
200005cc:	00000000 	andeq	r0, r0, r0
200005d0:	00000000 	andeq	r0, r0, r0
200005d4:	00000000 	andeq	r0, r0, r0
200005d8:	00000000 	andeq	r0, r0, r0
200005dc:	00000000 	andeq	r0, r0, r0
200005e0:	00000000 	andeq	r0, r0, r0
200005e4:	00000000 	andeq	r0, r0, r0
200005e8:	00000000 	andeq	r0, r0, r0
200005ec:	00000000 	andeq	r0, r0, r0
200005f0:	00000000 	andeq	r0, r0, r0
200005f4:	00000000 	andeq	r0, r0, r0
200005f8:	00000000 	andeq	r0, r0, r0
200005fc:	00000000 	andeq	r0, r0, r0
20000600:	00000000 	andeq	r0, r0, r0
20000604:	00000000 	andeq	r0, r0, r0
20000608:	00000000 	andeq	r0, r0, r0
2000060c:	00000000 	andeq	r0, r0, r0
20000610:	00000000 	andeq	r0, r0, r0
20000614:	00000000 	andeq	r0, r0, r0
20000618:	00000000 	andeq	r0, r0, r0
2000061c:	00000000 	andeq	r0, r0, r0
20000620:	00000000 	andeq	r0, r0, r0
20000624:	00000000 	andeq	r0, r0, r0
20000628:	00000000 	andeq	r0, r0, r0
2000062c:	00000000 	andeq	r0, r0, r0
20000630:	00000000 	andeq	r0, r0, r0
20000634:	00000000 	andeq	r0, r0, r0
20000638:	00000000 	andeq	r0, r0, r0
2000063c:	00000000 	andeq	r0, r0, r0
20000640:	00000000 	andeq	r0, r0, r0
20000644:	00000000 	andeq	r0, r0, r0
20000648:	00000000 	andeq	r0, r0, r0
2000064c:	00000000 	andeq	r0, r0, r0
20000650:	00000000 	andeq	r0, r0, r0
20000654:	00000000 	andeq	r0, r0, r0
20000658:	00000000 	andeq	r0, r0, r0
2000065c:	00000000 	andeq	r0, r0, r0

20000660 <os>:
20000660:	00000000 	andeq	r0, r0, r0

20000664 <__current_thread__>:
20000664:	00000000 	andeq	r0, r0, r0

20000668 <fm>:
20000668:	00000000 	andeq	r0, r0, r0
2000066c:	00000000 	andeq	r0, r0, r0

20000670 <g_time>:
20000670:	00000000 	andeq	r0, r0, r0

20000674 <g_timers>:
20000674:	00000000 	andeq	r0, r0, r0
20000678:	00000000 	andeq	r0, r0, r0
2000067c:	00000000 	andeq	r0, r0, r0
20000680:	00000000 	andeq	r0, r0, r0
20000684:	00000000 	andeq	r0, r0, r0
20000688:	00000000 	andeq	r0, r0, r0
2000068c:	00000000 	andeq	r0, r0, r0
20000690:	00000000 	andeq	r0, r0, r0
20000694:	00000000 	andeq	r0, r0, r0
20000698:	00000000 	andeq	r0, r0, r0
2000069c:	00000000 	andeq	r0, r0, r0
200006a0:	00000000 	andeq	r0, r0, r0
200006a4:	00000000 	andeq	r0, r0, r0
200006a8:	00000000 	andeq	r0, r0, r0
200006ac:	00000000 	andeq	r0, r0, r0
200006b0:	00000000 	andeq	r0, r0, r0
200006b4:	00000000 	andeq	r0, r0, r0
200006b8:	00000000 	andeq	r0, r0, r0
200006bc:	00000000 	andeq	r0, r0, r0
200006c0:	00000000 	andeq	r0, r0, r0
200006c4:	00000000 	andeq	r0, r0, r0
200006c8:	00000000 	andeq	r0, r0, r0
200006cc:	00000000 	andeq	r0, r0, r0
200006d0:	00000000 	andeq	r0, r0, r0
200006d4:	00000000 	andeq	r0, r0, r0
200006d8:	00000000 	andeq	r0, r0, r0
200006dc:	00000000 	andeq	r0, r0, r0
200006e0:	00000000 	andeq	r0, r0, r0
200006e4:	00000000 	andeq	r0, r0, r0
200006e8:	00000000 	andeq	r0, r0, r0
200006ec:	00000000 	andeq	r0, r0, r0
200006f0:	00000000 	andeq	r0, r0, r0
200006f4:	00000000 	andeq	r0, r0, r0
200006f8:	00000000 	andeq	r0, r0, r0
200006fc:	00000000 	andeq	r0, r0, r0
20000700:	00000000 	andeq	r0, r0, r0
20000704:	00000000 	andeq	r0, r0, r0
20000708:	00000000 	andeq	r0, r0, r0
2000070c:	00000000 	andeq	r0, r0, r0
20000710:	00000000 	andeq	r0, r0, r0
20000714:	00000000 	andeq	r0, r0, r0
20000718:	00000000 	andeq	r0, r0, r0
2000071c:	00000000 	andeq	r0, r0, r0
20000720:	00000000 	andeq	r0, r0, r0
20000724:	00000000 	andeq	r0, r0, r0
20000728:	00000000 	andeq	r0, r0, r0
2000072c:	00000000 	andeq	r0, r0, r0
20000730:	00000000 	andeq	r0, r0, r0
20000734:	00000000 	andeq	r0, r0, r0
20000738:	00000000 	andeq	r0, r0, r0
2000073c:	00000000 	andeq	r0, r0, r0
20000740:	00000000 	andeq	r0, r0, r0
20000744:	00000000 	andeq	r0, r0, r0
20000748:	00000000 	andeq	r0, r0, r0
2000074c:	00000000 	andeq	r0, r0, r0
20000750:	00000000 	andeq	r0, r0, r0
20000754:	00000000 	andeq	r0, r0, r0
20000758:	00000000 	andeq	r0, r0, r0
2000075c:	00000000 	andeq	r0, r0, r0
20000760:	00000000 	andeq	r0, r0, r0
20000764:	00000000 	andeq	r0, r0, r0
20000768:	00000000 	andeq	r0, r0, r0
2000076c:	00000000 	andeq	r0, r0, r0
20000770:	00000000 	andeq	r0, r0, r0
20000774:	00000000 	andeq	r0, r0, r0
20000778:	00000000 	andeq	r0, r0, r0
2000077c:	00000000 	andeq	r0, r0, r0
20000780:	00000000 	andeq	r0, r0, r0
20000784:	00000000 	andeq	r0, r0, r0
20000788:	00000000 	andeq	r0, r0, r0
2000078c:	00000000 	andeq	r0, r0, r0
20000790:	00000000 	andeq	r0, r0, r0
20000794:	00000000 	andeq	r0, r0, r0
20000798:	00000000 	andeq	r0, r0, r0
2000079c:	00000000 	andeq	r0, r0, r0
200007a0:	00000000 	andeq	r0, r0, r0
200007a4:	00000000 	andeq	r0, r0, r0
200007a8:	00000000 	andeq	r0, r0, r0
200007ac:	00000000 	andeq	r0, r0, r0
200007b0:	00000000 	andeq	r0, r0, r0
200007b4:	00000000 	andeq	r0, r0, r0
200007b8:	00000000 	andeq	r0, r0, r0
200007bc:	00000000 	andeq	r0, r0, r0
200007c0:	00000000 	andeq	r0, r0, r0
200007c4:	00000000 	andeq	r0, r0, r0
200007c8:	00000000 	andeq	r0, r0, r0
200007cc:	00000000 	andeq	r0, r0, r0
200007d0:	00000000 	andeq	r0, r0, r0
200007d4:	00000000 	andeq	r0, r0, r0
200007d8:	00000000 	andeq	r0, r0, r0
200007dc:	00000000 	andeq	r0, r0, r0
200007e0:	00000000 	andeq	r0, r0, r0
200007e4:	00000000 	andeq	r0, r0, r0
200007e8:	00000000 	andeq	r0, r0, r0
200007ec:	00000000 	andeq	r0, r0, r0
200007f0:	00000000 	andeq	r0, r0, r0
200007f4:	00000000 	andeq	r0, r0, r0
200007f8:	00000000 	andeq	r0, r0, r0
200007fc:	00000000 	andeq	r0, r0, r0
20000800:	00000000 	andeq	r0, r0, r0
20000804:	00000000 	andeq	r0, r0, r0
20000808:	00000000 	andeq	r0, r0, r0
2000080c:	00000000 	andeq	r0, r0, r0
20000810:	00000000 	andeq	r0, r0, r0
20000814:	00000000 	andeq	r0, r0, r0
20000818:	00000000 	andeq	r0, r0, r0
2000081c:	00000000 	andeq	r0, r0, r0
20000820:	00000000 	andeq	r0, r0, r0
20000824:	00000000 	andeq	r0, r0, r0
20000828:	00000000 	andeq	r0, r0, r0
2000082c:	00000000 	andeq	r0, r0, r0
20000830:	00000000 	andeq	r0, r0, r0
20000834:	00000000 	andeq	r0, r0, r0
20000838:	00000000 	andeq	r0, r0, r0
2000083c:	00000000 	andeq	r0, r0, r0
20000840:	00000000 	andeq	r0, r0, r0
20000844:	00000000 	andeq	r0, r0, r0
20000848:	00000000 	andeq	r0, r0, r0
2000084c:	00000000 	andeq	r0, r0, r0
20000850:	00000000 	andeq	r0, r0, r0
20000854:	00000000 	andeq	r0, r0, r0
20000858:	00000000 	andeq	r0, r0, r0
2000085c:	00000000 	andeq	r0, r0, r0
20000860:	00000000 	andeq	r0, r0, r0
20000864:	00000000 	andeq	r0, r0, r0
20000868:	00000000 	andeq	r0, r0, r0
2000086c:	00000000 	andeq	r0, r0, r0
20000870:	00000000 	andeq	r0, r0, r0
20000874:	00000000 	andeq	r0, r0, r0
20000878:	00000000 	andeq	r0, r0, r0
2000087c:	00000000 	andeq	r0, r0, r0
20000880:	00000000 	andeq	r0, r0, r0
20000884:	00000000 	andeq	r0, r0, r0
20000888:	00000000 	andeq	r0, r0, r0
2000088c:	00000000 	andeq	r0, r0, r0
20000890:	00000000 	andeq	r0, r0, r0
20000894:	00000000 	andeq	r0, r0, r0
20000898:	00000000 	andeq	r0, r0, r0
2000089c:	00000000 	andeq	r0, r0, r0
200008a0:	00000000 	andeq	r0, r0, r0
200008a4:	00000000 	andeq	r0, r0, r0
200008a8:	00000000 	andeq	r0, r0, r0
200008ac:	00000000 	andeq	r0, r0, r0
200008b0:	00000000 	andeq	r0, r0, r0
200008b4:	00000000 	andeq	r0, r0, r0
200008b8:	00000000 	andeq	r0, r0, r0
200008bc:	00000000 	andeq	r0, r0, r0
200008c0:	00000000 	andeq	r0, r0, r0
200008c4:	00000000 	andeq	r0, r0, r0
200008c8:	00000000 	andeq	r0, r0, r0
200008cc:	00000000 	andeq	r0, r0, r0
200008d0:	00000000 	andeq	r0, r0, r0
200008d4:	00000000 	andeq	r0, r0, r0
200008d8:	00000000 	andeq	r0, r0, r0
200008dc:	00000000 	andeq	r0, r0, r0
200008e0:	00000000 	andeq	r0, r0, r0
200008e4:	00000000 	andeq	r0, r0, r0
200008e8:	00000000 	andeq	r0, r0, r0
200008ec:	00000000 	andeq	r0, r0, r0
200008f0:	00000000 	andeq	r0, r0, r0

200008f4 <timer>:
200008f4:	00000000 	andeq	r0, r0, r0

200008f8 <terminal>:
200008f8:	00000000 	andeq	r0, r0, r0

200008fc <camera_refresh>:
200008fc:	00000000 	andeq	r0, r0, r0

20000900 <camera_hdma_handler>:
20000900:	00000000 	andeq	r0, r0, r0
20000904:	00000000 	andeq	r0, r0, r0
20000908:	00000000 	andeq	r0, r0, r0
2000090c:	00000000 	andeq	r0, r0, r0
20000910:	00000000 	andeq	r0, r0, r0
20000914:	00000000 	andeq	r0, r0, r0
20000918:	00000000 	andeq	r0, r0, r0
2000091c:	00000000 	andeq	r0, r0, r0
20000920:	00000000 	andeq	r0, r0, r0
20000924:	00000000 	andeq	r0, r0, r0
20000928:	00000000 	andeq	r0, r0, r0
2000092c:	00000000 	andeq	r0, r0, r0
20000930:	00000000 	andeq	r0, r0, r0
20000934:	00000000 	andeq	r0, r0, r0
20000938:	00000000 	andeq	r0, r0, r0
2000093c:	00000000 	andeq	r0, r0, r0
20000940:	00000000 	andeq	r0, r0, r0
20000944:	00000000 	andeq	r0, r0, r0
20000948:	00000000 	andeq	r0, r0, r0
2000094c:	00000000 	andeq	r0, r0, r0
20000950:	00000000 	andeq	r0, r0, r0
20000954:	00000000 	andeq	r0, r0, r0

20000958 <camera_dcmi>:
20000958:	00000000 	andeq	r0, r0, r0
2000095c:	00000000 	andeq	r0, r0, r0
20000960:	00000000 	andeq	r0, r0, r0
20000964:	00000000 	andeq	r0, r0, r0
20000968:	00000000 	andeq	r0, r0, r0
2000096c:	00000000 	andeq	r0, r0, r0
20000970:	00000000 	andeq	r0, r0, r0
20000974:	00000000 	andeq	r0, r0, r0
20000978:	00000000 	andeq	r0, r0, r0
2000097c:	00000000 	andeq	r0, r0, r0
20000980:	00000000 	andeq	r0, r0, r0
20000984:	00000000 	andeq	r0, r0, r0
20000988:	00000000 	andeq	r0, r0, r0
2000098c:	00000000 	andeq	r0, r0, r0
20000990:	00000000 	andeq	r0, r0, r0
20000994:	00000000 	andeq	r0, r0, r0
20000998:	00000000 	andeq	r0, r0, r0
2000099c:	00000000 	andeq	r0, r0, r0
200009a0:	00000000 	andeq	r0, r0, r0
200009a4:	00000000 	andeq	r0, r0, r0

200009a8 <_ZZN4CLCD23lcd_480x272_ClockConfigEvE22periph_clk_init_struct>:
200009a8:	00000000 	andeq	r0, r0, r0
200009ac:	00000000 	andeq	r0, r0, r0
200009b0:	00000000 	andeq	r0, r0, r0
200009b4:	00000000 	andeq	r0, r0, r0
200009b8:	00000000 	andeq	r0, r0, r0
200009bc:	00000000 	andeq	r0, r0, r0
200009c0:	00000000 	andeq	r0, r0, r0
200009c4:	00000000 	andeq	r0, r0, r0
200009c8:	00000000 	andeq	r0, r0, r0
200009cc:	00000000 	andeq	r0, r0, r0
200009d0:	00000000 	andeq	r0, r0, r0
200009d4:	00000000 	andeq	r0, r0, r0
200009d8:	00000000 	andeq	r0, r0, r0
200009dc:	00000000 	andeq	r0, r0, r0
200009e0:	00000000 	andeq	r0, r0, r0
200009e4:	00000000 	andeq	r0, r0, r0
200009e8:	00000000 	andeq	r0, r0, r0
200009ec:	00000000 	andeq	r0, r0, r0
200009f0:	00000000 	andeq	r0, r0, r0
200009f4:	00000000 	andeq	r0, r0, r0
200009f8:	00000000 	andeq	r0, r0, r0
200009fc:	00000000 	andeq	r0, r0, r0
20000a00:	00000000 	andeq	r0, r0, r0
20000a04:	00000000 	andeq	r0, r0, r0
20000a08:	00000000 	andeq	r0, r0, r0
20000a0c:	00000000 	andeq	r0, r0, r0
20000a10:	00000000 	andeq	r0, r0, r0
20000a14:	00000000 	andeq	r0, r0, r0
20000a18:	00000000 	andeq	r0, r0, r0
20000a1c:	00000000 	andeq	r0, r0, r0
20000a20:	00000000 	andeq	r0, r0, r0
20000a24:	00000000 	andeq	r0, r0, r0
20000a28:	00000000 	andeq	r0, r0, r0

20000a2c <lcd>:
20000a2c:	00000000 	andeq	r0, r0, r0
20000a30:	00000000 	andeq	r0, r0, r0
20000a34:	00000000 	andeq	r0, r0, r0
20000a38:	00000000 	andeq	r0, r0, r0
20000a3c:	00000000 	andeq	r0, r0, r0
20000a40:	00000000 	andeq	r0, r0, r0
20000a44:	00000000 	andeq	r0, r0, r0
20000a48:	00000000 	andeq	r0, r0, r0
20000a4c:	00000000 	andeq	r0, r0, r0
20000a50:	00000000 	andeq	r0, r0, r0
20000a54:	00000000 	andeq	r0, r0, r0
20000a58:	00000000 	andeq	r0, r0, r0
20000a5c:	00000000 	andeq	r0, r0, r0
20000a60:	00000000 	andeq	r0, r0, r0
20000a64:	00000000 	andeq	r0, r0, r0
20000a68:	00000000 	andeq	r0, r0, r0
20000a6c:	00000000 	andeq	r0, r0, r0
20000a70:	00000000 	andeq	r0, r0, r0
20000a74:	00000000 	andeq	r0, r0, r0
20000a78:	00000000 	andeq	r0, r0, r0
20000a7c:	00000000 	andeq	r0, r0, r0
20000a80:	00000000 	andeq	r0, r0, r0
20000a84:	00000000 	andeq	r0, r0, r0
20000a88:	00000000 	andeq	r0, r0, r0
20000a8c:	00000000 	andeq	r0, r0, r0
20000a90:	00000000 	andeq	r0, r0, r0
20000a94:	00000000 	andeq	r0, r0, r0
20000a98:	00000000 	andeq	r0, r0, r0
20000a9c:	00000000 	andeq	r0, r0, r0
20000aa0:	00000000 	andeq	r0, r0, r0
20000aa4:	00000000 	andeq	r0, r0, r0
20000aa8:	00000000 	andeq	r0, r0, r0
20000aac:	00000000 	andeq	r0, r0, r0
20000ab0:	00000000 	andeq	r0, r0, r0
20000ab4:	00000000 	andeq	r0, r0, r0
20000ab8:	00000000 	andeq	r0, r0, r0
20000abc:	00000000 	andeq	r0, r0, r0
20000ac0:	00000000 	andeq	r0, r0, r0
20000ac4:	00000000 	andeq	r0, r0, r0
20000ac8:	00000000 	andeq	r0, r0, r0
20000acc:	00000000 	andeq	r0, r0, r0
20000ad0:	00000000 	andeq	r0, r0, r0
20000ad4:	00000000 	andeq	r0, r0, r0
20000ad8:	00000000 	andeq	r0, r0, r0
20000adc:	00000000 	andeq	r0, r0, r0
20000ae0:	00000000 	andeq	r0, r0, r0
20000ae4:	00000000 	andeq	r0, r0, r0
20000ae8:	00000000 	andeq	r0, r0, r0
20000aec:	00000000 	andeq	r0, r0, r0

20000af0 <sdram>:
20000af0:	00000000 	andeq	r0, r0, r0
20000af4:	00000000 	andeq	r0, r0, r0
20000af8:	00000000 	andeq	r0, r0, r0
20000afc:	00000000 	andeq	r0, r0, r0
20000b00:	00000000 	andeq	r0, r0, r0
20000b04:	00000000 	andeq	r0, r0, r0
20000b08:	00000000 	andeq	r0, r0, r0
20000b0c:	00000000 	andeq	r0, r0, r0
20000b10:	00000000 	andeq	r0, r0, r0
20000b14:	00000000 	andeq	r0, r0, r0
20000b18:	00000000 	andeq	r0, r0, r0
20000b1c:	00000000 	andeq	r0, r0, r0
20000b20:	00000000 	andeq	r0, r0, r0
20000b24:	00000000 	andeq	r0, r0, r0
20000b28:	00000000 	andeq	r0, r0, r0
20000b2c:	00000000 	andeq	r0, r0, r0
20000b30:	00000000 	andeq	r0, r0, r0
20000b34:	00000000 	andeq	r0, r0, r0
20000b38:	00000000 	andeq	r0, r0, r0
20000b3c:	00000000 	andeq	r0, r0, r0
20000b40:	00000000 	andeq	r0, r0, r0
20000b44:	00000000 	andeq	r0, r0, r0
20000b48:	00000000 	andeq	r0, r0, r0
20000b4c:	00000000 	andeq	r0, r0, r0
20000b50:	00000000 	andeq	r0, r0, r0

Disassembly of section ._user_heap_stack:

20000b54 <._user_heap_stack>:
20000b54:	00000000 	andeq	r0, r0, r0
20000b58:	00000000 	andeq	r0, r0, r0
20000b5c:	00000000 	andeq	r0, r0, r0
20000b60:	00000000 	andeq	r0, r0, r0
20000b64:	00000000 	andeq	r0, r0, r0
20000b68:	00000000 	andeq	r0, r0, r0
20000b6c:	00000000 	andeq	r0, r0, r0
20000b70:	00000000 	andeq	r0, r0, r0
20000b74:	00000000 	andeq	r0, r0, r0
20000b78:	00000000 	andeq	r0, r0, r0
20000b7c:	00000000 	andeq	r0, r0, r0
20000b80:	00000000 	andeq	r0, r0, r0
20000b84:	00000000 	andeq	r0, r0, r0
20000b88:	00000000 	andeq	r0, r0, r0
20000b8c:	00000000 	andeq	r0, r0, r0
20000b90:	00000000 	andeq	r0, r0, r0
20000b94:	00000000 	andeq	r0, r0, r0
20000b98:	00000000 	andeq	r0, r0, r0
20000b9c:	00000000 	andeq	r0, r0, r0
20000ba0:	00000000 	andeq	r0, r0, r0
20000ba4:	00000000 	andeq	r0, r0, r0
20000ba8:	00000000 	andeq	r0, r0, r0
20000bac:	00000000 	andeq	r0, r0, r0
20000bb0:	00000000 	andeq	r0, r0, r0
20000bb4:	00000000 	andeq	r0, r0, r0
20000bb8:	00000000 	andeq	r0, r0, r0
20000bbc:	00000000 	andeq	r0, r0, r0
20000bc0:	00000000 	andeq	r0, r0, r0
20000bc4:	00000000 	andeq	r0, r0, r0
20000bc8:	00000000 	andeq	r0, r0, r0
20000bcc:	00000000 	andeq	r0, r0, r0
20000bd0:	00000000 	andeq	r0, r0, r0
20000bd4:	00000000 	andeq	r0, r0, r0
20000bd8:	00000000 	andeq	r0, r0, r0
20000bdc:	00000000 	andeq	r0, r0, r0
20000be0:	00000000 	andeq	r0, r0, r0
20000be4:	00000000 	andeq	r0, r0, r0
20000be8:	00000000 	andeq	r0, r0, r0
20000bec:	00000000 	andeq	r0, r0, r0
20000bf0:	00000000 	andeq	r0, r0, r0
20000bf4:	00000000 	andeq	r0, r0, r0
20000bf8:	00000000 	andeq	r0, r0, r0
20000bfc:	00000000 	andeq	r0, r0, r0
20000c00:	00000000 	andeq	r0, r0, r0
20000c04:	00000000 	andeq	r0, r0, r0
20000c08:	00000000 	andeq	r0, r0, r0
20000c0c:	00000000 	andeq	r0, r0, r0
20000c10:	00000000 	andeq	r0, r0, r0
20000c14:	00000000 	andeq	r0, r0, r0
20000c18:	00000000 	andeq	r0, r0, r0
20000c1c:	00000000 	andeq	r0, r0, r0
20000c20:	00000000 	andeq	r0, r0, r0
20000c24:	00000000 	andeq	r0, r0, r0
20000c28:	00000000 	andeq	r0, r0, r0
20000c2c:	00000000 	andeq	r0, r0, r0
20000c30:	00000000 	andeq	r0, r0, r0
20000c34:	00000000 	andeq	r0, r0, r0
20000c38:	00000000 	andeq	r0, r0, r0
20000c3c:	00000000 	andeq	r0, r0, r0
20000c40:	00000000 	andeq	r0, r0, r0
20000c44:	00000000 	andeq	r0, r0, r0
20000c48:	00000000 	andeq	r0, r0, r0
20000c4c:	00000000 	andeq	r0, r0, r0
20000c50:	00000000 	andeq	r0, r0, r0
20000c54:	00000000 	andeq	r0, r0, r0
20000c58:	00000000 	andeq	r0, r0, r0
20000c5c:	00000000 	andeq	r0, r0, r0
20000c60:	00000000 	andeq	r0, r0, r0
20000c64:	00000000 	andeq	r0, r0, r0
20000c68:	00000000 	andeq	r0, r0, r0
20000c6c:	00000000 	andeq	r0, r0, r0
20000c70:	00000000 	andeq	r0, r0, r0
20000c74:	00000000 	andeq	r0, r0, r0
20000c78:	00000000 	andeq	r0, r0, r0
20000c7c:	00000000 	andeq	r0, r0, r0
20000c80:	00000000 	andeq	r0, r0, r0
20000c84:	00000000 	andeq	r0, r0, r0
20000c88:	00000000 	andeq	r0, r0, r0
20000c8c:	00000000 	andeq	r0, r0, r0
20000c90:	00000000 	andeq	r0, r0, r0
20000c94:	00000000 	andeq	r0, r0, r0
20000c98:	00000000 	andeq	r0, r0, r0
20000c9c:	00000000 	andeq	r0, r0, r0
20000ca0:	00000000 	andeq	r0, r0, r0
20000ca4:	00000000 	andeq	r0, r0, r0
20000ca8:	00000000 	andeq	r0, r0, r0
20000cac:	00000000 	andeq	r0, r0, r0
20000cb0:	00000000 	andeq	r0, r0, r0
20000cb4:	00000000 	andeq	r0, r0, r0
20000cb8:	00000000 	andeq	r0, r0, r0
20000cbc:	00000000 	andeq	r0, r0, r0
20000cc0:	00000000 	andeq	r0, r0, r0
20000cc4:	00000000 	andeq	r0, r0, r0
20000cc8:	00000000 	andeq	r0, r0, r0
20000ccc:	00000000 	andeq	r0, r0, r0
20000cd0:	00000000 	andeq	r0, r0, r0
20000cd4:	00000000 	andeq	r0, r0, r0
20000cd8:	00000000 	andeq	r0, r0, r0
20000cdc:	00000000 	andeq	r0, r0, r0
20000ce0:	00000000 	andeq	r0, r0, r0
20000ce4:	00000000 	andeq	r0, r0, r0
20000ce8:	00000000 	andeq	r0, r0, r0
20000cec:	00000000 	andeq	r0, r0, r0
20000cf0:	00000000 	andeq	r0, r0, r0
20000cf4:	00000000 	andeq	r0, r0, r0
20000cf8:	00000000 	andeq	r0, r0, r0
20000cfc:	00000000 	andeq	r0, r0, r0
20000d00:	00000000 	andeq	r0, r0, r0
20000d04:	00000000 	andeq	r0, r0, r0
20000d08:	00000000 	andeq	r0, r0, r0
20000d0c:	00000000 	andeq	r0, r0, r0
20000d10:	00000000 	andeq	r0, r0, r0
20000d14:	00000000 	andeq	r0, r0, r0
20000d18:	00000000 	andeq	r0, r0, r0
20000d1c:	00000000 	andeq	r0, r0, r0
20000d20:	00000000 	andeq	r0, r0, r0
20000d24:	00000000 	andeq	r0, r0, r0
20000d28:	00000000 	andeq	r0, r0, r0
20000d2c:	00000000 	andeq	r0, r0, r0
20000d30:	00000000 	andeq	r0, r0, r0
20000d34:	00000000 	andeq	r0, r0, r0
20000d38:	00000000 	andeq	r0, r0, r0
20000d3c:	00000000 	andeq	r0, r0, r0
20000d40:	00000000 	andeq	r0, r0, r0
20000d44:	00000000 	andeq	r0, r0, r0
20000d48:	00000000 	andeq	r0, r0, r0
20000d4c:	00000000 	andeq	r0, r0, r0
20000d50:	00000000 	andeq	r0, r0, r0
20000d54:	00000000 	andeq	r0, r0, r0
20000d58:	00000000 	andeq	r0, r0, r0
20000d5c:	00000000 	andeq	r0, r0, r0
20000d60:	00000000 	andeq	r0, r0, r0
20000d64:	00000000 	andeq	r0, r0, r0
20000d68:	00000000 	andeq	r0, r0, r0
20000d6c:	00000000 	andeq	r0, r0, r0
20000d70:	00000000 	andeq	r0, r0, r0
20000d74:	00000000 	andeq	r0, r0, r0
20000d78:	00000000 	andeq	r0, r0, r0
20000d7c:	00000000 	andeq	r0, r0, r0
20000d80:	00000000 	andeq	r0, r0, r0
20000d84:	00000000 	andeq	r0, r0, r0
20000d88:	00000000 	andeq	r0, r0, r0
20000d8c:	00000000 	andeq	r0, r0, r0
20000d90:	00000000 	andeq	r0, r0, r0
20000d94:	00000000 	andeq	r0, r0, r0
20000d98:	00000000 	andeq	r0, r0, r0
20000d9c:	00000000 	andeq	r0, r0, r0
20000da0:	00000000 	andeq	r0, r0, r0
20000da4:	00000000 	andeq	r0, r0, r0
20000da8:	00000000 	andeq	r0, r0, r0
20000dac:	00000000 	andeq	r0, r0, r0
20000db0:	00000000 	andeq	r0, r0, r0
20000db4:	00000000 	andeq	r0, r0, r0
20000db8:	00000000 	andeq	r0, r0, r0
20000dbc:	00000000 	andeq	r0, r0, r0
20000dc0:	00000000 	andeq	r0, r0, r0
20000dc4:	00000000 	andeq	r0, r0, r0
20000dc8:	00000000 	andeq	r0, r0, r0
20000dcc:	00000000 	andeq	r0, r0, r0
20000dd0:	00000000 	andeq	r0, r0, r0
20000dd4:	00000000 	andeq	r0, r0, r0
20000dd8:	00000000 	andeq	r0, r0, r0
20000ddc:	00000000 	andeq	r0, r0, r0
20000de0:	00000000 	andeq	r0, r0, r0
20000de4:	00000000 	andeq	r0, r0, r0
20000de8:	00000000 	andeq	r0, r0, r0
20000dec:	00000000 	andeq	r0, r0, r0
20000df0:	00000000 	andeq	r0, r0, r0
20000df4:	00000000 	andeq	r0, r0, r0
20000df8:	00000000 	andeq	r0, r0, r0
20000dfc:	00000000 	andeq	r0, r0, r0
20000e00:	00000000 	andeq	r0, r0, r0
20000e04:	00000000 	andeq	r0, r0, r0
20000e08:	00000000 	andeq	r0, r0, r0
20000e0c:	00000000 	andeq	r0, r0, r0
20000e10:	00000000 	andeq	r0, r0, r0
20000e14:	00000000 	andeq	r0, r0, r0
20000e18:	00000000 	andeq	r0, r0, r0
20000e1c:	00000000 	andeq	r0, r0, r0
20000e20:	00000000 	andeq	r0, r0, r0
20000e24:	00000000 	andeq	r0, r0, r0
20000e28:	00000000 	andeq	r0, r0, r0
20000e2c:	00000000 	andeq	r0, r0, r0
20000e30:	00000000 	andeq	r0, r0, r0
20000e34:	00000000 	andeq	r0, r0, r0
20000e38:	00000000 	andeq	r0, r0, r0
20000e3c:	00000000 	andeq	r0, r0, r0
20000e40:	00000000 	andeq	r0, r0, r0
20000e44:	00000000 	andeq	r0, r0, r0
20000e48:	00000000 	andeq	r0, r0, r0
20000e4c:	00000000 	andeq	r0, r0, r0
20000e50:	00000000 	andeq	r0, r0, r0
20000e54:	00000000 	andeq	r0, r0, r0
20000e58:	00000000 	andeq	r0, r0, r0
20000e5c:	00000000 	andeq	r0, r0, r0
20000e60:	00000000 	andeq	r0, r0, r0
20000e64:	00000000 	andeq	r0, r0, r0
20000e68:	00000000 	andeq	r0, r0, r0
20000e6c:	00000000 	andeq	r0, r0, r0
20000e70:	00000000 	andeq	r0, r0, r0
20000e74:	00000000 	andeq	r0, r0, r0
20000e78:	00000000 	andeq	r0, r0, r0
20000e7c:	00000000 	andeq	r0, r0, r0
20000e80:	00000000 	andeq	r0, r0, r0
20000e84:	00000000 	andeq	r0, r0, r0
20000e88:	00000000 	andeq	r0, r0, r0
20000e8c:	00000000 	andeq	r0, r0, r0
20000e90:	00000000 	andeq	r0, r0, r0
20000e94:	00000000 	andeq	r0, r0, r0
20000e98:	00000000 	andeq	r0, r0, r0
20000e9c:	00000000 	andeq	r0, r0, r0
20000ea0:	00000000 	andeq	r0, r0, r0
20000ea4:	00000000 	andeq	r0, r0, r0
20000ea8:	00000000 	andeq	r0, r0, r0
20000eac:	00000000 	andeq	r0, r0, r0
20000eb0:	00000000 	andeq	r0, r0, r0
20000eb4:	00000000 	andeq	r0, r0, r0
20000eb8:	00000000 	andeq	r0, r0, r0
20000ebc:	00000000 	andeq	r0, r0, r0
20000ec0:	00000000 	andeq	r0, r0, r0
20000ec4:	00000000 	andeq	r0, r0, r0
20000ec8:	00000000 	andeq	r0, r0, r0
20000ecc:	00000000 	andeq	r0, r0, r0
20000ed0:	00000000 	andeq	r0, r0, r0
20000ed4:	00000000 	andeq	r0, r0, r0
20000ed8:	00000000 	andeq	r0, r0, r0
20000edc:	00000000 	andeq	r0, r0, r0
20000ee0:	00000000 	andeq	r0, r0, r0
20000ee4:	00000000 	andeq	r0, r0, r0
20000ee8:	00000000 	andeq	r0, r0, r0
20000eec:	00000000 	andeq	r0, r0, r0
20000ef0:	00000000 	andeq	r0, r0, r0
20000ef4:	00000000 	andeq	r0, r0, r0
20000ef8:	00000000 	andeq	r0, r0, r0
20000efc:	00000000 	andeq	r0, r0, r0
20000f00:	00000000 	andeq	r0, r0, r0
20000f04:	00000000 	andeq	r0, r0, r0
20000f08:	00000000 	andeq	r0, r0, r0
20000f0c:	00000000 	andeq	r0, r0, r0
20000f10:	00000000 	andeq	r0, r0, r0
20000f14:	00000000 	andeq	r0, r0, r0
20000f18:	00000000 	andeq	r0, r0, r0
20000f1c:	00000000 	andeq	r0, r0, r0
20000f20:	00000000 	andeq	r0, r0, r0
20000f24:	00000000 	andeq	r0, r0, r0
20000f28:	00000000 	andeq	r0, r0, r0
20000f2c:	00000000 	andeq	r0, r0, r0
20000f30:	00000000 	andeq	r0, r0, r0
20000f34:	00000000 	andeq	r0, r0, r0
20000f38:	00000000 	andeq	r0, r0, r0
20000f3c:	00000000 	andeq	r0, r0, r0
20000f40:	00000000 	andeq	r0, r0, r0
20000f44:	00000000 	andeq	r0, r0, r0
20000f48:	00000000 	andeq	r0, r0, r0
20000f4c:	00000000 	andeq	r0, r0, r0
20000f50:	00000000 	andeq	r0, r0, r0
20000f54:	00000000 	andeq	r0, r0, r0
20000f58:	00000000 	andeq	r0, r0, r0
20000f5c:	00000000 	andeq	r0, r0, r0
20000f60:	00000000 	andeq	r0, r0, r0
20000f64:	00000000 	andeq	r0, r0, r0
20000f68:	00000000 	andeq	r0, r0, r0
20000f6c:	00000000 	andeq	r0, r0, r0
20000f70:	00000000 	andeq	r0, r0, r0
20000f74:	00000000 	andeq	r0, r0, r0
20000f78:	00000000 	andeq	r0, r0, r0
20000f7c:	00000000 	andeq	r0, r0, r0
20000f80:	00000000 	andeq	r0, r0, r0
20000f84:	00000000 	andeq	r0, r0, r0
20000f88:	00000000 	andeq	r0, r0, r0
20000f8c:	00000000 	andeq	r0, r0, r0
20000f90:	00000000 	andeq	r0, r0, r0
20000f94:	00000000 	andeq	r0, r0, r0
20000f98:	00000000 	andeq	r0, r0, r0
20000f9c:	00000000 	andeq	r0, r0, r0
20000fa0:	00000000 	andeq	r0, r0, r0
20000fa4:	00000000 	andeq	r0, r0, r0
20000fa8:	00000000 	andeq	r0, r0, r0
20000fac:	00000000 	andeq	r0, r0, r0
20000fb0:	00000000 	andeq	r0, r0, r0
20000fb4:	00000000 	andeq	r0, r0, r0
20000fb8:	00000000 	andeq	r0, r0, r0
20000fbc:	00000000 	andeq	r0, r0, r0
20000fc0:	00000000 	andeq	r0, r0, r0
20000fc4:	00000000 	andeq	r0, r0, r0
20000fc8:	00000000 	andeq	r0, r0, r0
20000fcc:	00000000 	andeq	r0, r0, r0
20000fd0:	00000000 	andeq	r0, r0, r0
20000fd4:	00000000 	andeq	r0, r0, r0
20000fd8:	00000000 	andeq	r0, r0, r0
20000fdc:	00000000 	andeq	r0, r0, r0
20000fe0:	00000000 	andeq	r0, r0, r0
20000fe4:	00000000 	andeq	r0, r0, r0
20000fe8:	00000000 	andeq	r0, r0, r0
20000fec:	00000000 	andeq	r0, r0, r0
20000ff0:	00000000 	andeq	r0, r0, r0
20000ff4:	00000000 	andeq	r0, r0, r0
20000ff8:	00000000 	andeq	r0, r0, r0
20000ffc:	00000000 	andeq	r0, r0, r0
20001000:	00000000 	andeq	r0, r0, r0
20001004:	00000000 	andeq	r0, r0, r0
20001008:	00000000 	andeq	r0, r0, r0
2000100c:	00000000 	andeq	r0, r0, r0
20001010:	00000000 	andeq	r0, r0, r0
20001014:	00000000 	andeq	r0, r0, r0
20001018:	00000000 	andeq	r0, r0, r0
2000101c:	00000000 	andeq	r0, r0, r0
20001020:	00000000 	andeq	r0, r0, r0
20001024:	00000000 	andeq	r0, r0, r0
20001028:	00000000 	andeq	r0, r0, r0
2000102c:	00000000 	andeq	r0, r0, r0
20001030:	00000000 	andeq	r0, r0, r0
20001034:	00000000 	andeq	r0, r0, r0
20001038:	00000000 	andeq	r0, r0, r0
2000103c:	00000000 	andeq	r0, r0, r0
20001040:	00000000 	andeq	r0, r0, r0
20001044:	00000000 	andeq	r0, r0, r0
20001048:	00000000 	andeq	r0, r0, r0
2000104c:	00000000 	andeq	r0, r0, r0
20001050:	00000000 	andeq	r0, r0, r0
20001054:	00000000 	andeq	r0, r0, r0
20001058:	00000000 	andeq	r0, r0, r0
2000105c:	00000000 	andeq	r0, r0, r0
20001060:	00000000 	andeq	r0, r0, r0
20001064:	00000000 	andeq	r0, r0, r0
20001068:	00000000 	andeq	r0, r0, r0
2000106c:	00000000 	andeq	r0, r0, r0
20001070:	00000000 	andeq	r0, r0, r0
20001074:	00000000 	andeq	r0, r0, r0
20001078:	00000000 	andeq	r0, r0, r0
2000107c:	00000000 	andeq	r0, r0, r0
20001080:	00000000 	andeq	r0, r0, r0
20001084:	00000000 	andeq	r0, r0, r0
20001088:	00000000 	andeq	r0, r0, r0
2000108c:	00000000 	andeq	r0, r0, r0
20001090:	00000000 	andeq	r0, r0, r0
20001094:	00000000 	andeq	r0, r0, r0
20001098:	00000000 	andeq	r0, r0, r0
2000109c:	00000000 	andeq	r0, r0, r0
200010a0:	00000000 	andeq	r0, r0, r0
200010a4:	00000000 	andeq	r0, r0, r0
200010a8:	00000000 	andeq	r0, r0, r0
200010ac:	00000000 	andeq	r0, r0, r0
200010b0:	00000000 	andeq	r0, r0, r0
200010b4:	00000000 	andeq	r0, r0, r0
200010b8:	00000000 	andeq	r0, r0, r0
200010bc:	00000000 	andeq	r0, r0, r0
200010c0:	00000000 	andeq	r0, r0, r0
200010c4:	00000000 	andeq	r0, r0, r0
200010c8:	00000000 	andeq	r0, r0, r0
200010cc:	00000000 	andeq	r0, r0, r0
200010d0:	00000000 	andeq	r0, r0, r0
200010d4:	00000000 	andeq	r0, r0, r0
200010d8:	00000000 	andeq	r0, r0, r0
200010dc:	00000000 	andeq	r0, r0, r0
200010e0:	00000000 	andeq	r0, r0, r0
200010e4:	00000000 	andeq	r0, r0, r0
200010e8:	00000000 	andeq	r0, r0, r0
200010ec:	00000000 	andeq	r0, r0, r0
200010f0:	00000000 	andeq	r0, r0, r0
200010f4:	00000000 	andeq	r0, r0, r0
200010f8:	00000000 	andeq	r0, r0, r0
200010fc:	00000000 	andeq	r0, r0, r0
20001100:	00000000 	andeq	r0, r0, r0
20001104:	00000000 	andeq	r0, r0, r0
20001108:	00000000 	andeq	r0, r0, r0
2000110c:	00000000 	andeq	r0, r0, r0
20001110:	00000000 	andeq	r0, r0, r0
20001114:	00000000 	andeq	r0, r0, r0
20001118:	00000000 	andeq	r0, r0, r0
2000111c:	00000000 	andeq	r0, r0, r0
20001120:	00000000 	andeq	r0, r0, r0
20001124:	00000000 	andeq	r0, r0, r0
20001128:	00000000 	andeq	r0, r0, r0
2000112c:	00000000 	andeq	r0, r0, r0
20001130:	00000000 	andeq	r0, r0, r0
20001134:	00000000 	andeq	r0, r0, r0
20001138:	00000000 	andeq	r0, r0, r0
2000113c:	00000000 	andeq	r0, r0, r0
20001140:	00000000 	andeq	r0, r0, r0
20001144:	00000000 	andeq	r0, r0, r0
20001148:	00000000 	andeq	r0, r0, r0
2000114c:	00000000 	andeq	r0, r0, r0
20001150:	00000000 	andeq	r0, r0, r0

Disassembly of section .ARM.attributes:

00000000 <.ARM.attributes>:
   0:	00002f41 	andeq	r2, r0, r1, asr #30
   4:	61656100 	cmnvs	r5, r0, lsl #2
   8:	01006962 	tsteq	r0, r2, ror #18
   c:	00000025 	andeq	r0, r0, r5, lsr #32
  10:	2d453705 	stclcs	7, cr3, [r5, #-20]	; 0xffffffec
  14:	0d06004d 	stceq	0, cr0, [r6, #-308]	; 0xfffffecc
  18:	02094d07 	andeq	r4, r9, #448	; 0x1c0
  1c:	0412060a 	ldreq	r0, [r2], #-1546	; 0xfffff9f6
  20:	01150114 	tsteq	r5, r4, lsl r1
  24:	01180317 	tsteq	r8, r7, lsl r3
  28:	011b011a 	tsteq	fp, sl, lsl r1
  2c:	0122011c 			; <UNDEFINED> instruction: 0x0122011c

Disassembly of section .comment:

00000000 <.comment>:
   0:	3a434347 	bcc	10d0d24 <_Min_Stack_Size+0x10d0924>
   4:	35312820 	ldrcc	r2, [r1, #-2080]!	; 0xfffff7e0
   8:	392e343a 	stmdbcc	lr!, {r1, r3, r4, r5, sl, ip, sp}
   c:	732b332e 			; <UNDEFINED> instruction: 0x732b332e
  10:	33326e76 	teqcc	r2, #1888	; 0x760
  14:	37373131 			; <UNDEFINED> instruction: 0x37373131
  18:	2029312d 	eorcs	r3, r9, sp, lsr #2
  1c:	2e392e34 	mrccs	14, 1, r2, cr9, cr4, {1}
  20:	30322033 	eorscc	r2, r2, r3, lsr r0
  24:	35303531 	ldrcc	r3, [r0, #-1329]!	; 0xfffffacf
  28:	28203932 	stmdacs	r0!, {r1, r4, r5, r8, fp, ip, sp}
  2c:	72657270 	rsbvc	r7, r5, #112, 4
  30:	61656c65 	cmnvs	r5, r5, ror #24
  34:	00296573 	eoreq	r6, r9, r3, ror r5
  38:	3a434347 	bcc	10d0d5c <_Min_Stack_Size+0x10d095c>
  3c:	35312820 	ldrcc	r2, [r1, #-2080]!	; 0xfffff7e0
  40:	392e343a 	stmdbcc	lr!, {r1, r3, r4, r5, sl, ip, sp}
  44:	732b332e 			; <UNDEFINED> instruction: 0x732b332e
  48:	32326e76 	eorscc	r6, r2, #1888	; 0x760
  4c:	37393237 			; <UNDEFINED> instruction: 0x37393237
  50:	2029312d 	eorcs	r3, r9, sp, lsr #2
  54:	2e392e34 	mrccs	14, 1, r2, cr9, cr4, {1}
  58:	30322033 	eorscc	r2, r2, r3, lsr r0
  5c:	35303531 	ldrcc	r3, [r0, #-1329]!	; 0xfffffacf
  60:	28203932 	stmdacs	r0!, {r1, r4, r5, r8, fp, ip, sp}
  64:	72657270 	rsbvc	r7, r5, #112, 4
  68:	61656c65 	cmnvs	r5, r5, ror #24
  6c:	00296573 	eoreq	r6, r9, r3, ror r5

Disassembly of section .debug_info:

00000000 <.debug_info>:
       0:	00000107 	andeq	r0, r0, r7, lsl #2
       4:	00000004 	andeq	r0, r0, r4
       8:	01040000 	mrseq	r0, (UNDEF: 4)
       c:	00000096 	muleq	r0, r6, r0
      10:	00019404 	andeq	r9, r1, r4, lsl #8
      14:	00000000 	andeq	r0, r0, r0
      18:	00000000 	andeq	r0, r0, r0
      1c:	00000000 	andeq	r0, r0, r0
      20:	00000000 	andeq	r0, r0, r0
      24:	05040200 	streq	r0, [r4, #-512]	; 0xfffffe00
      28:	00746e69 	rsbseq	r6, r4, r9, ror #28
      2c:	4b070403 	blmi	1c1040 <_Min_Stack_Size+0x1c0c40>
      30:	04000002 	streq	r0, [r0], #-2
      34:	00000067 	andeq	r0, r0, r7, rrx
      38:	005a0002 	subseq	r0, sl, r2
      3c:	cc050000 	stcgt	0, cr0, [r5], {-0}
      40:	03000001 	movweq	r0, #1
      44:	00002583 	andeq	r2, r0, r3, lsl #11
      48:	009d0600 	addseq	r0, sp, r0, lsl #12
      4c:	9b060000 	blls	180054 <_Min_Stack_Size+0x17fc54>
      50:	06000000 	streq	r0, [r0], -r0
      54:	0000009b 	muleq	r0, fp, r0
      58:	04030000 	streq	r0, [r3], #-0
      5c:	0001e505 	andeq	lr, r1, r5, lsl #10
      60:	02010300 	andeq	r0, r1, #0, 6
      64:	0000018f 	andeq	r0, r0, pc, lsl #3
      68:	69626107 	stmdbvs	r2!, {r0, r1, r2, r8, sp, lr}^
      6c:	02a60300 	adceq	r0, r6, #0, 6
      70:	00000033 	andeq	r0, r0, r3, lsr r0
      74:	00007204 	andeq	r7, r0, r4, lsl #4
      78:	9b1d0100 	blls	740480 <_Min_Stack_Size+0x740080>
      7c:	05000000 	streq	r0, [r0, #-0]
      80:	00000087 	andeq	r0, r0, r7, lsl #1
      84:	00251f01 	eoreq	r1, r5, r1, lsl #30
      88:	9b060000 	blls	180090 <_Min_Stack_Size+0x17fc90>
      8c:	06000000 	streq	r0, [r0], -r0
      90:	0000009d 	muleq	r0, sp, r0
      94:	00009b06 	andeq	r9, r0, r6, lsl #22
      98:	08000000 	stmdaeq	r0, {}	; <UNPREDICTABLE>
      9c:	a3040904 	movwge	r0, #18692	; 0x4904
      a0:	0a000000 	beq	a8 <_Min_Heap_Size-0x158>
      a4:	000000ae 	andeq	r0, r0, lr, lsr #1
      a8:	00009b06 	andeq	r9, r0, r6, lsl #22
      ac:	7f0b0000 	svcvc	0x000b0000
      b0:	a0000000 	andge	r0, r0, r0
      b4:	0a08005a 	beq	200224 <_Min_Stack_Size+0x1ffe24>
      b8:	01000000 	mrseq	r0, (UNDEF: 0)
      bc:	01d90c9c 			; <UNDEFINED> instruction: 0x01d90c9c
      c0:	1f010000 	svcne	0x00010000
      c4:	0000009b 	muleq	r0, fp, r0
      c8:	00000000 	andeq	r0, r0, r0
      cc:	00007c0c 	andeq	r7, r0, ip, lsl #24
      d0:	9d200100 	stflss	f0, [r0, #-0]
      d4:	2c000000 	stccs	0, cr0, [r0], {-0}
      d8:	0c000000 	stceq	0, cr0, [r0], {-0}
      dc:	000008c1 	andeq	r0, r0, r1, asr #17
      e0:	009b2101 	addseq	r2, fp, r1, lsl #2
      e4:	00580000 	subseq	r0, r8, r0
      e8:	aa0d0000 	bge	3400f0 <_Min_Stack_Size+0x33fcf0>
      ec:	3e08005a 	mcrcc	0, 0, r0, cr8, cr10, {2}
      f0:	0e000000 	cdpeq	0, 0, cr0, cr0, cr0, {0}
      f4:	f3035201 	vhsub.u8	d5, d3, d1
      f8:	010e5201 	tsteq	lr, r1, lsl #4
      fc:	01f30351 	mvnseq	r0, r1, asr r3
     100:	50010e50 	andpl	r0, r1, r0, asr lr
     104:	5101f303 	tstpl	r1, r3, lsl #6	; <UNPREDICTABLE>
     108:	be000000 	cdplt	0, 0, cr0, cr0, cr0, {0}
     10c:	02000000 	andeq	r0, r0, #0
     110:	0000ac00 	andeq	sl, r0, r0, lsl #24
     114:	de010400 	cfcpysle	mvf0, mvf1
     118:	6c000000 	stcvs	0, cr0, [r0], {-0}
     11c:	0a080002 	beq	20012c <_Min_Stack_Size+0x1ffd2c>
     120:	2e080003 	cdpcs	0, 0, cr0, cr8, cr3, {0}
     124:	2e2e2f2e 	cdpcs	15, 2, cr2, cr14, cr14, {1}
     128:	2f2e2e2f 	svccs	0x002e2e2f
     12c:	2e2f2e2e 	cdpcs	14, 2, cr2, cr15, cr14, {1}
     130:	72732f2e 	rsbsvc	r2, r3, #46, 30	; 0xb8
     134:	696c2f63 	stmdbvs	ip!, {r0, r1, r5, r6, r8, r9, sl, fp, sp}^
     138:	63636762 	cmnvs	r3, #25690112	; 0x1880000
     13c:	6e6f632f 	cdpvs	3, 6, cr6, cr15, cr15, {1}
     140:	2f676966 	svccs	0x00676966
     144:	2f6d7261 	svccs	0x006d7261
     148:	65656569 	strbvs	r6, [r5, #-1385]!	; 0xfffffa97
     14c:	2d343537 	cfldr32cs	mvfx3, [r4, #-220]!	; 0xffffff24
     150:	532e6664 			; <UNDEFINED> instruction: 0x532e6664
     154:	75622f00 	strbvc	r2, [r2, #-3840]!	; 0xfffff100
     158:	2f646c69 	svccs	0x00646c69
     15c:	2d636367 	stclcs	3, cr6, [r3, #-412]!	; 0xfffffe64
     160:	2d6d7261 	sfmcs	f7, 2, [sp, #-388]!	; 0xfffffe7c
     164:	656e6f6e 	strbvs	r6, [lr, #-3950]!	; 0xfffff092
     168:	6261652d 	rsbvs	r6, r1, #188743680	; 0xb400000
     16c:	52442d69 	subpl	r2, r4, #6720	; 0x1a40
     170:	414c6e52 	cmpmi	ip, r2, asr lr
     174:	6363672f 	cmnvs	r3, #12320768	; 0xbc0000
     178:	6d72612d 	ldfvse	f6, [r2, #-180]!	; 0xffffff4c
     17c:	6e6f6e2d 	cdpvs	14, 6, cr6, cr15, cr13, {1}
     180:	61652d65 	cmnvs	r5, r5, ror #26
     184:	342d6962 	strtcc	r6, [sp], #-2402	; 0xfffff69e
     188:	332e392e 			; <UNDEFINED> instruction: 0x332e392e
     18c:	6e76732b 	cdpvs	3, 7, cr7, cr6, cr11, {1}
     190:	31313332 	teqcc	r1, r2, lsr r3
     194:	622f3737 	eorvs	r3, pc, #14417920	; 0xdc0000
     198:	646c6975 	strbtvs	r6, [ip], #-2421	; 0xfffff68b
     19c:	6d72612f 	ldfvse	f6, [r2, #-188]!	; 0xffffff44
     1a0:	6e6f6e2d 	cdpvs	14, 6, cr6, cr15, cr13, {1}
     1a4:	61652d65 	cmnvs	r5, r5, ror #26
     1a8:	612f6962 			; <UNDEFINED> instruction: 0x612f6962
     1ac:	37766d72 			; <UNDEFINED> instruction: 0x37766d72
     1b0:	2f6d2d65 	svccs	0x006d2d65
     1b4:	2f757066 	svccs	0x00757066
     1b8:	6762696c 	strbvs	r6, [r2, -ip, ror #18]!
     1bc:	47006363 	strmi	r6, [r0, -r3, ror #6]
     1c0:	4120554e 			; <UNDEFINED> instruction: 0x4120554e
     1c4:	2e322053 	mrccs	0, 1, r2, cr2, cr3, {2}
     1c8:	01003532 	tsteq	r0, r2, lsr r5
     1cc:	00010680 	andeq	r0, r1, r0, lsl #13
     1d0:	c0000400 	andgt	r0, r0, r0, lsl #8
     1d4:	04000000 	streq	r0, [r0], #-0
     1d8:	00030f01 	andeq	r0, r3, r1, lsl #30
     1dc:	02100100 	andseq	r0, r0, #0, 2
     1e0:	02920000 	addseq	r0, r2, #0
     1e4:	00100000 	andseq	r0, r0, r0
     1e8:	00000000 	andeq	r0, r0, r0
     1ec:	016c0000 	cmneq	ip, r0
     1f0:	04020000 	streq	r0, [r2], #-0
     1f4:	00024b07 	andeq	r4, r2, r7, lsl #22
     1f8:	05040300 	streq	r0, [r4, #-768]	; 0xfffffd00
     1fc:	00746e69 	rsbseq	r6, r4, r9, ror #28
     200:	5a060102 	bpl	180610 <_Min_Stack_Size+0x180210>
     204:	02000002 	andeq	r0, r0, #2
     208:	02580801 	subseq	r0, r8, #65536	; 0x10000
     20c:	02020000 	andeq	r0, r2, #0
     210:	00030505 	andeq	r0, r3, r5, lsl #10
     214:	07020200 	streq	r0, [r2, -r0, lsl #4]
     218:	000001ee 	andeq	r0, r0, lr, ror #3
     21c:	e5050402 	str	r0, [r5, #-1026]	; 0xfffffbfe
     220:	02000001 	andeq	r0, r0, #1
     224:	02460704 	subeq	r0, r6, #4, 14	; 0x100000
     228:	08020000 	stmdaeq	r2, {}	; <UNPREDICTABLE>
     22c:	0001e005 	andeq	lr, r1, r5
     230:	07080200 	streq	r0, [r8, -r0, lsl #4]
     234:	00000241 	andeq	r0, r0, r1, asr #4
     238:	df070402 	svcle	0x00070402
     23c:	04000003 	streq	r0, [r0], #-3
     240:	7a040504 	bvc	101658 <_Min_Stack_Size+0x101258>
     244:	06000000 	streq	r0, [r0], -r0
     248:	61080102 	tstvs	r8, r2, lsl #2
     24c:	07000002 	streq	r0, [r0, -r2]
     250:	00000201 	andeq	r0, r0, r1, lsl #4
     254:	a1050201 	tstge	r5, r1, lsl #4
     258:	08000000 	stmdaeq	r0, {}	; <UNPREDICTABLE>
     25c:	00000266 	andeq	r0, r0, r6, ror #4
     260:	02860800 	addeq	r0, r6, #0, 16
     264:	08010000 	stmdaeq	r1, {}	; <UNPREDICTABLE>
     268:	000002fc 	strdeq	r0, [r0], -ip
     26c:	d2090002 	andle	r0, r9, #2
     270:	03000001 	movweq	r0, #1
     274:	00002c45 	andeq	r2, r0, r5, asr #24
     278:	005aac00 	subseq	sl, sl, r0, lsl #24
     27c:	00000c08 	andeq	r0, r0, r8, lsl #24
     280:	e99c0100 	ldmib	ip, {r8}
     284:	0a000000 	beq	28c <_Min_Heap_Size+0x8c>
     288:	01006e66 	tsteq	r0, r6, ror #28
     28c:	0000743d 	andeq	r7, r0, sp, lsr r4
     290:	00007900 	andeq	r7, r0, r0, lsl #18
     294:	5ab80b00 	bpl	fee02e9c <_estack+0xdedb2e9d>
     298:	00e90800 	rsceq	r0, r9, r0, lsl #16
     29c:	010c0000 	mrseq	r0, (UNDEF: 12)
     2a0:	0c300153 	ldfeqs	f0, [r0], #-332	; 0xfffffeb4
     2a4:	30015201 	andcc	r5, r1, r1, lsl #4
     2a8:	0351010c 	cmpeq	r1, #12, 2
     2ac:	0c5001f3 	ldfeqe	f0, [r0], {243}	; 0xf3
     2b0:	30015001 	andcc	r5, r1, r1
     2b4:	720d0000 	andvc	r0, sp, #0
     2b8:	02000002 	andeq	r0, r0, #2
     2bc:	00002c0d 	andeq	r2, r0, sp, lsl #24
     2c0:	002c0e00 	eoreq	r0, ip, r0, lsl #28
     2c4:	740e0000 	strvc	r0, [lr], #-0
     2c8:	0e000000 	cdpeq	0, 0, cr0, cr0, cr0, {0}
     2cc:	00000072 	andeq	r0, r0, r2, ror r0
     2d0:	0000720e 	andeq	r7, r0, lr, lsl #4
     2d4:	37000000 	strcc	r0, [r0, -r0]
     2d8:	04000001 	streq	r0, [r0], #-1
     2dc:	00017800 	andeq	r7, r1, r0, lsl #16
     2e0:	0f010400 	svceq	0x00010400
     2e4:	01000003 	tsteq	r0, r3
     2e8:	000003e8 	andeq	r0, r0, r8, ror #7
     2ec:	00000292 	muleq	r0, r2, r2
     2f0:	00000020 	andeq	r0, r0, r0, lsr #32
     2f4:	00000000 	andeq	r0, r0, r0
     2f8:	00000230 	andeq	r0, r0, r0, lsr r2
     2fc:	69050402 	stmdbvs	r5, {r1, sl}
     300:	0300746e 	movweq	r7, #1134	; 0x46e
     304:	024b0704 	subeq	r0, fp, #4, 14	; 0x100000
     308:	01030000 	mrseq	r0, (UNDEF: 3)
     30c:	00025a06 	andeq	r5, r2, r6, lsl #20
     310:	08010300 	stmdaeq	r1, {r8, r9}
     314:	00000258 	andeq	r0, r0, r8, asr r2
     318:	05050203 	streq	r0, [r5, #-515]	; 0xfffffdfd
     31c:	03000003 	movweq	r0, #3
     320:	01ee0702 	mvneq	r0, r2, lsl #14
     324:	04030000 	streq	r0, [r3], #-0
     328:	0001e505 	andeq	lr, r1, r5, lsl #10
     32c:	07040300 	streq	r0, [r4, -r0, lsl #6]
     330:	00000246 	andeq	r0, r0, r6, asr #4
     334:	e0050803 	and	r0, r5, r3, lsl #16
     338:	03000001 	movweq	r0, #1
     33c:	02410708 	subeq	r0, r1, #8, 14	; 0x200000
     340:	04030000 	streq	r0, [r3], #-0
     344:	0003df07 	andeq	sp, r3, r7, lsl #30
     348:	05040400 	streq	r0, [r4, #-1024]	; 0xfffffc00
     34c:	00007a04 	andeq	r7, r0, r4, lsl #20
     350:	01030600 	tsteq	r3, r0, lsl #12
     354:	00026108 	andeq	r6, r2, r8, lsl #2
     358:	02010700 	andeq	r0, r1, #0, 14
     35c:	02010000 	andeq	r0, r1, #0
     360:	0000a105 	andeq	sl, r0, r5, lsl #2
     364:	02660800 	rsbeq	r0, r6, #0, 16
     368:	08000000 	stmdaeq	r0, {}	; <UNPREDICTABLE>
     36c:	00000286 	andeq	r0, r0, r6, lsl #5
     370:	02fc0801 	rscseq	r0, ip, #65536	; 0x10000
     374:	00020000 	andeq	r0, r2, r0
     378:	0001cc09 	andeq	ip, r1, r9, lsl #24
     37c:	25100100 	ldrcs	r0, [r0, #-256]	; 0xffffff00
     380:	b8000000 	stmdalt	r0, {}	; <UNPREDICTABLE>
     384:	1408005a 	strne	r0, [r8], #-90	; 0xffffffa6
     388:	01000000 	mrseq	r0, (UNDEF: 0)
     38c:	0001099c 	muleq	r1, ip, r9
     390:	6e660a00 	vmulvs.f32	s1, s12, s0
     394:	14100100 	ldrne	r0, [r0], #-256	; 0xffffff00
     398:	a5000001 	strge	r0, [r0, #-1]
     39c:	0a000000 	beq	3a4 <_Min_Heap_Size+0x1a4>
     3a0:	00677261 	rsbeq	r7, r7, r1, ror #4
     3a4:	00721001 	rsbseq	r1, r2, r1
     3a8:	00d10000 	sbcseq	r0, r1, r0
     3ac:	640a0000 	strvs	r0, [sl], #-0
     3b0:	72100100 	andsvc	r0, r0, #0, 2
     3b4:	08000000 	stmdaeq	r0, {}	; <UNPREDICTABLE>
     3b8:	0b000001 	bleq	3c4 <_Min_Heap_Size+0x1c4>
     3bc:	08005acc 	stmdaeq	r0, {r2, r3, r6, r7, r9, fp, ip, lr}
     3c0:	0000011a 	andeq	r0, r0, sl, lsl r1
     3c4:	0353010c 	cmpeq	r3, #12, 2
     3c8:	0c5201f3 	ldfeqe	f0, [r2], {243}	; 0xf3
     3cc:	f3035201 	vhsub.u8	d5, d3, d1
     3d0:	010c5101 	tsteq	ip, r1, lsl #2
     3d4:	01f30351 	mvnseq	r0, r1, asr r3
     3d8:	50010c50 	andpl	r0, r1, r0, asr ip
     3dc:	00003201 	andeq	r3, r0, r1, lsl #4
     3e0:	0001140d 	andeq	r1, r1, sp, lsl #8
     3e4:	00720e00 	rsbseq	r0, r2, r0, lsl #28
     3e8:	05000000 	streq	r0, [r0, #-0]
     3ec:	00010904 	andeq	r0, r1, r4, lsl #18
     3f0:	02720f00 	rsbseq	r0, r2, #0, 30
     3f4:	0d020000 	stceq	0, cr0, [r2, #-0]
     3f8:	00000025 	andeq	r0, r0, r5, lsr #32
     3fc:	0000250e 	andeq	r2, r0, lr, lsl #10
     400:	00740e00 	rsbseq	r0, r4, r0, lsl #28
     404:	720e0000 	andvc	r0, lr, #0
     408:	0e000000 	cdpeq	0, 0, cr0, cr0, cr0, {0}
     40c:	00000072 	andeq	r0, r0, r2, ror r0
     410:	00eb0000 	rsceq	r0, fp, r0
     414:	00040000 	andeq	r0, r4, r0
     418:	00000239 	andeq	r0, r0, r9, lsr r2
     41c:	030f0104 	movweq	r0, #61700	; 0xf104
     420:	c2010000 	andgt	r0, r1, #0
     424:	5a000004 	bpl	43c <_Min_Stack_Size+0x3c>
     428:	30000004 	andcc	r0, r0, r4
     42c:	00000000 	andeq	r0, r0, r0
     430:	a6000000 	strge	r0, [r0], -r0
     434:	02000002 	andeq	r0, r0, #2
     438:	025a0601 	subseq	r0, sl, #1048576	; 0x100000
     43c:	01020000 	mrseq	r0, (UNDEF: 2)
     440:	00025808 	andeq	r5, r2, r8, lsl #16
     444:	05020200 	streq	r0, [r2, #-512]	; 0xfffffe00
     448:	00000305 	andeq	r0, r0, r5, lsl #6
     44c:	ee070202 	cdp	2, 0, cr0, cr7, cr2, {0}
     450:	02000001 	andeq	r0, r0, #1
     454:	01e50504 	mvneq	r0, r4, lsl #10
     458:	04020000 	streq	r0, [r2], #-0
     45c:	00024607 	andeq	r4, r2, r7, lsl #12
     460:	05080200 	streq	r0, [r8, #-512]	; 0xfffffe00
     464:	000001e0 	andeq	r0, r0, r0, ror #3
     468:	41070802 	tstmi	r7, r2, lsl #16
     46c:	03000002 	movweq	r0, #2
     470:	6e690504 	cdpvs	5, 6, cr0, cr9, cr4, {0}
     474:	04020074 	streq	r0, [r2], #-116	; 0xffffff8c
     478:	00024b07 	andeq	r4, r2, r7, lsl #22
     47c:	041d0400 	ldreq	r0, [sp], #-1024	; 0xfffffc00
     480:	d4020000 	strle	r0, [r2], #-0
     484:	00000064 	andeq	r0, r0, r4, rrx
     488:	df070402 	svcle	0x00070402
     48c:	02000003 	andeq	r0, r0, #3
     490:	02610801 	rsbeq	r0, r1, #65536	; 0x10000
     494:	48050000 	stmdami	r5, {}	; <UNPREDICTABLE>
     498:	01000004 	tsteq	r0, r4
     49c:	005acc18 	subseq	ip, sl, r8, lsl ip
     4a0:	00002c08 	andeq	r2, r0, r8, lsl #24
     4a4:	bf9c0100 	svclt	0x009c0100
     4a8:	06000000 	streq	r0, [r0], -r0
     4ac:	000005ff 	strdeq	r0, [r0], -pc	; <UNPREDICTABLE>
     4b0:	006b1a01 	rsbeq	r1, fp, r1, lsl #20
     4b4:	01340000 	teqeq	r4, r0
     4b8:	69070000 	stmdbvs	r7, {}	; <UNPREDICTABLE>
     4bc:	6b1b0100 	blvs	6c08c4 <_Min_Stack_Size+0x6c04c4>
     4c0:	56000000 	strpl	r0, [r0], -r0
     4c4:	08000001 	stmdaeq	r0, {r0}
     4c8:	08005af0 	stmdaeq	r0, {r4, r5, r6, r7, r9, fp, ip, lr}
     4cc:	000000e7 	andeq	r0, r0, r7, ror #1
     4d0:	00ca0900 	sbceq	r0, sl, r0, lsl #18
     4d4:	00ca0000 	sbceq	r0, sl, r0
     4d8:	000a0000 	andeq	r0, sl, r0
     4dc:	00d0040b 	sbcseq	r0, r0, fp, lsl #8
     4e0:	0d0c0000 	stceq	0, cr0, [ip, #-0]
     4e4:	00000424 	andeq	r0, r0, r4, lsr #8
     4e8:	00bf1101 	adcseq	r1, pc, r1, lsl #2
     4ec:	370d0000 	strcc	r0, [sp, -r0]
     4f0:	01000004 	tsteq	r0, r4
     4f4:	0000bf12 	andeq	fp, r0, r2, lsl pc
     4f8:	09df0e00 	ldmibeq	pc, {r9, sl, fp}^	; <UNPREDICTABLE>
     4fc:	14010000 	strne	r0, [r1], #-0
     500:	00089000 	andeq	r9, r8, r0
     504:	f6000400 			; <UNDEFINED> instruction: 0xf6000400
     508:	04000002 	streq	r0, [r0], #-2
     50c:	00030f01 	andeq	r0, r3, r1, lsl #30
     510:	06cd0100 	strbeq	r0, [sp], r0, lsl #2
     514:	057e0000 	ldrbeq	r0, [lr, #-0]!
     518:	03450000 	movteq	r0, #20480	; 0x5000
     51c:	04020000 	streq	r0, [r2], #-0
     520:	746e6905 	strbtvc	r6, [lr], #-2309	; 0xfffff6fb
     524:	07040300 	streq	r0, [r4, -r0, lsl #6]
     528:	0000024b 	andeq	r0, r0, fp, asr #4
     52c:	5a060103 	bpl	180940 <_Min_Stack_Size+0x180540>
     530:	03000002 	movweq	r0, #2
     534:	02580801 	subseq	r0, r8, #65536	; 0x10000
     538:	02030000 	andeq	r0, r3, #0
     53c:	00030505 	andeq	r0, r3, r5, lsl #10
     540:	07020300 	streq	r0, [r2, -r0, lsl #6]
     544:	000001ee 	andeq	r0, r0, lr, ror #3
     548:	e5050403 	str	r0, [r5, #-1027]	; 0xfffffbfd
     54c:	03000001 	movweq	r0, #1
     550:	02460704 	subeq	r0, r6, #4, 14	; 0x100000
     554:	08030000 	stmdaeq	r3, {}	; <UNPREDICTABLE>
     558:	0001e005 	andeq	lr, r1, r5
     55c:	07080300 	streq	r0, [r8, -r0, lsl #6]
     560:	00000241 	andeq	r0, r0, r1, asr #4
     564:	00064c04 	andeq	r4, r6, r4, lsl #24
     568:	1d070100 	stfnes	f0, [r7, #-0]
     56c:	04000000 	streq	r0, [r0], #-0
     570:	00000525 	andeq	r0, r0, r5, lsr #10
     574:	00471002 	subeq	r1, r7, r2
     578:	29040000 	stmdbcs	r4, {}	; <UNPREDICTABLE>
     57c:	02000007 	andeq	r0, r0, #7
     580:	00004727 	andeq	r4, r0, r7, lsr #14
     584:	08090500 	stmdaeq	r9, {r8, sl}
     588:	61030000 	mrsvs	r0, (UNDEF: 3)
     58c:	00002401 	andeq	r2, r0, r1, lsl #8
     590:	02040600 	andeq	r0, r4, #0, 12
     594:	0000af4a 	andeq	sl, r0, sl, asr #30
     598:	052c0700 	streq	r0, [ip, #-1792]!	; 0xfffff900
     59c:	4c020000 	stcmi	0, cr0, [r2], {-0}
     5a0:	00000084 	andeq	r0, r0, r4, lsl #1
     5a4:	00077c07 	andeq	r7, r7, r7, lsl #24
     5a8:	af4d0200 	svcge	0x004d0200
     5ac:	00000000 	andeq	r0, r0, r0
     5b0:	00003208 	andeq	r3, r0, r8, lsl #4
     5b4:	0000bf00 	andeq	fp, r0, r0, lsl #30
     5b8:	00bf0900 	adcseq	r0, pc, r0, lsl #18
     5bc:	00030000 	andeq	r0, r3, r0
     5c0:	df070403 	svcle	0x00070403
     5c4:	0a000003 	beq	5d8 <_Min_Stack_Size+0x1d8>
     5c8:	e7470208 	strb	r0, [r7, -r8, lsl #4]
     5cc:	0b000000 	bleq	5d4 <_Min_Stack_Size+0x1d4>
     5d0:	000005fd 	strdeq	r0, [r0], -sp
     5d4:	001d4902 	andseq	r4, sp, r2, lsl #18
     5d8:	0b000000 	bleq	5e0 <_Min_Stack_Size+0x1e0>
     5dc:	0000053b 	andeq	r0, r0, fp, lsr r5
     5e0:	00904e02 	addseq	r4, r0, r2, lsl #28
     5e4:	00040000 	andeq	r0, r4, r0
     5e8:	00083404 	andeq	r3, r8, r4, lsl #8
     5ec:	c64f0200 	strbgt	r0, [pc], -r0, lsl #4
     5f0:	04000000 	streq	r0, [r0], #-0
     5f4:	00000738 	andeq	r0, r0, r8, lsr r7
     5f8:	00635302 	rsbeq	r5, r3, r2, lsl #6
     5fc:	040c0000 	streq	r0, [ip], #-0
     600:	00088404 	andeq	r8, r8, r4, lsl #8
     604:	4e160400 	cfmulsmi	mvf0, mvf6, mvf0
     608:	0d000000 	stceq	0, cr0, [r0, #-0]
     60c:	0000083f 	andeq	r0, r0, pc, lsr r8
     610:	5d2d0418 	cfstrspl	mvf0, [sp, #-96]!	; 0xffffffa0
     614:	0b000001 	bleq	620 <_Min_Stack_Size+0x220>
     618:	000008dc 	ldrdeq	r0, [r0], -ip
     61c:	015d2f04 	cmpeq	sp, r4, lsl #30
     620:	0e000000 	cdpeq	0, 0, cr0, cr0, cr0, {0}
     624:	04006b5f 	streq	r6, [r0], #-2911	; 0xfffff4a1
     628:	00001d30 	andeq	r1, r0, r0, lsr sp
     62c:	470b0400 	strmi	r0, [fp, -r0, lsl #8]
     630:	04000008 	streq	r0, [r0], #-8
     634:	00001d30 	andeq	r1, r0, r0, lsr sp
     638:	d10b0800 	tstle	fp, r0, lsl #16
     63c:	04000008 	streq	r0, [r0], #-8
     640:	00001d30 	andeq	r1, r0, r0, lsr sp
     644:	e90b0c00 	stmdb	fp, {sl, fp}
     648:	04000007 	streq	r0, [r0], #-7
     64c:	00001d30 	andeq	r1, r0, r0, lsr sp
     650:	5f0e1000 	svcpl	0x000e1000
     654:	31040078 	tstcc	r4, r8, ror r0
     658:	00000163 	andeq	r0, r0, r3, ror #2
     65c:	040f0014 	streq	r0, [pc], #-20	; 664 <_Min_Stack_Size+0x264>
     660:	0000010a 	andeq	r0, r0, sl, lsl #2
     664:	0000ff08 	andeq	pc, r0, r8, lsl #30
     668:	00017300 	andeq	r7, r1, r0, lsl #6
     66c:	00bf0900 	adcseq	r0, pc, r0, lsl #18
     670:	00000000 	andeq	r0, r0, r0
     674:	0007ee0d 	andeq	lr, r7, sp, lsl #28
     678:	35042400 	strcc	r2, [r4, #-1024]	; 0xfffffc00
     67c:	000001ec 	andeq	r0, r0, ip, ror #3
     680:	0007540b 	andeq	r5, r7, fp, lsl #8
     684:	1d370400 	cfldrsne	mvf0, [r7, #-0]
     688:	00000000 	andeq	r0, r0, r0
     68c:	0006790b 	andeq	r7, r6, fp, lsl #18
     690:	1d380400 	cfldrsne	mvf0, [r8, #-0]
     694:	04000000 	streq	r0, [r0], #-0
     698:	00075d0b 	andeq	r5, r7, fp, lsl #26
     69c:	1d390400 	cfldrsne	mvf0, [r9, #-0]
     6a0:	08000000 	stmdaeq	r0, {}	; <UNPREDICTABLE>
     6a4:	0006050b 	andeq	r0, r6, fp, lsl #10
     6a8:	1d3a0400 	cfldrsne	mvf0, [sl, #-0]
     6ac:	0c000000 	stceq	0, cr0, [r0], {-0}
     6b0:	00089a0b 	andeq	r9, r8, fp, lsl #20
     6b4:	1d3b0400 	cfldrsne	mvf0, [fp, #-0]
     6b8:	10000000 	andne	r0, r0, r0
     6bc:	00084f0b 	andeq	r4, r8, fp, lsl #30
     6c0:	1d3c0400 	cfldrsne	mvf0, [ip, #-0]
     6c4:	14000000 	strne	r0, [r0], #-0
     6c8:	0006bb0b 	andeq	fp, r6, fp, lsl #22
     6cc:	1d3d0400 	cfldrsne	mvf0, [sp, #-0]
     6d0:	18000000 	stmdane	r0, {}	; <UNPREDICTABLE>
     6d4:	0008740b 	andeq	r7, r8, fp, lsl #8
     6d8:	1d3e0400 	cfldrsne	mvf0, [lr, #-0]
     6dc:	1c000000 	stcne	0, cr0, [r0], {-0}
     6e0:	0007030b 	andeq	r0, r7, fp, lsl #6
     6e4:	1d3f0400 	cfldrsne	mvf0, [pc, #-0]	; 6ec <_Min_Stack_Size+0x2ec>
     6e8:	20000000 	andcs	r0, r0, r0
     6ec:	07941000 	ldreq	r1, [r4, r0]
     6f0:	01080000 	mrseq	r0, (UNDEF: 8)
     6f4:	022c4804 	eoreq	r4, ip, #4, 16	; 0x40000
     6f8:	c50b0000 	strgt	r0, [fp, #-0]
     6fc:	04000006 	streq	r0, [r0], #-6
     700:	00022c49 	andeq	r2, r2, r9, asr #24
     704:	c00b0000 	andgt	r0, fp, r0
     708:	04000008 	streq	r0, [r0], #-8
     70c:	00022c4a 	andeq	r2, r2, sl, asr #24
     710:	20118000 	andscs	r8, r1, r0
     714:	04000007 	streq	r0, [r0], #-7
     718:	0000ff4c 	andeq	pc, r0, ip, asr #30
     71c:	11010000 	mrsne	r0, (UNDEF: 1)
     720:	00000822 	andeq	r0, r0, r2, lsr #16
     724:	00ff4f04 	rscseq	r4, pc, r4, lsl #30
     728:	01040000 	mrseq	r0, (UNDEF: 4)
     72c:	00fd0800 	rscseq	r0, sp, r0, lsl #16
     730:	023c0000 	eorseq	r0, ip, #0
     734:	bf090000 	svclt	0x00090000
     738:	1f000000 	svcne	0x00000000
     73c:	01d11000 	bicseq	r1, r1, r0
     740:	01900000 	orrseq	r0, r0, r0
     744:	027a5b04 	rsbseq	r5, sl, #4, 22	; 0x1000
     748:	dc0b0000 	stcle	0, cr0, [fp], {-0}
     74c:	04000008 	streq	r0, [r0], #-8
     750:	00027a5c 	andeq	r7, r2, ip, asr sl
     754:	ad0b0000 	stcge	0, cr0, [fp, #-0]
     758:	04000008 	streq	r0, [r0], #-8
     75c:	00001d5d 	andeq	r1, r0, sp, asr sp
     760:	ad0b0400 	cfstrsge	mvf0, [fp, #-0]
     764:	04000006 	streq	r0, [r0], #-6
     768:	0002805f 	andeq	r8, r2, pc, asr r0
     76c:	940b0800 	strls	r0, [fp], #-2048	; 0xfffff800
     770:	04000007 	streq	r0, [r0], #-7
     774:	0001ec60 	andeq	lr, r1, r0, ror #24
     778:	0f008800 	svceq	0x00008800
     77c:	00023c04 	andeq	r3, r2, r4, lsl #24
     780:	02900800 	addseq	r0, r0, #0, 16
     784:	02900000 	addseq	r0, r0, #0
     788:	bf090000 	svclt	0x00090000
     78c:	1f000000 	svcne	0x00000000
     790:	96040f00 	strls	r0, [r4], -r0, lsl #30
     794:	12000002 	andne	r0, r0, #2
     798:	0005430d 	andeq	r4, r5, sp, lsl #6
     79c:	73040800 	movwvc	r0, #18432	; 0x4800
     7a0:	000002bc 			; <UNDEFINED> instruction: 0x000002bc
     7a4:	0007c10b 	andeq	ip, r7, fp, lsl #2
     7a8:	bc740400 	cfldrdlt	mvd0, [r4], #-0
     7ac:	00000002 	andeq	r0, r0, r2
     7b0:	00091c0b 	andeq	r1, r9, fp, lsl #24
     7b4:	1d750400 	cfldrdne	mvd0, [r5, #-0]
     7b8:	04000000 	streq	r0, [r0], #-0
     7bc:	32040f00 	andcc	r0, r4, #0, 30
     7c0:	0d000000 	stceq	0, cr0, [r0, #-0]
     7c4:	0000092f 	andeq	r0, r0, pc, lsr #18
     7c8:	ecb30468 	cfldrs	mvf0, [r3], #416	; 0x1a0
     7cc:	0e000003 	cdpeq	0, 0, cr0, cr0, cr3, {0}
     7d0:	0400705f 	streq	r7, [r0], #-95	; 0xffffffa1
     7d4:	0002bcb4 			; <UNDEFINED> instruction: 0x0002bcb4
     7d8:	5f0e0000 	svcpl	0x000e0000
     7dc:	b5040072 	strlt	r0, [r4, #-114]	; 0xffffff8e
     7e0:	0000001d 	andeq	r0, r0, sp, lsl r0
     7e4:	775f0e04 	ldrbvc	r0, [pc, -r4, lsl #28]
     7e8:	1db60400 	cfldrsne	mvf0, [r6]
     7ec:	08000000 	stmdaeq	r0, {}	; <UNPREDICTABLE>
     7f0:	00090f0b 	andeq	r0, r9, fp, lsl #30
     7f4:	39b70400 	ldmibcc	r7!, {sl}
     7f8:	0c000000 	stceq	0, cr0, [r0], {-0}
     7fc:	0007c70b 	andeq	ip, r7, fp, lsl #14
     800:	39b80400 	ldmibcc	r8!, {sl}
     804:	0e000000 	cdpeq	0, 0, cr0, cr0, cr0, {0}
     808:	66625f0e 	strbtvs	r5, [r2], -lr, lsl #30
     80c:	97b90400 	ldrls	r0, [r9, r0, lsl #8]!
     810:	10000002 	andne	r0, r0, r2
     814:	0005320b 	andeq	r3, r5, fp, lsl #4
     818:	1dba0400 	cfldrsne	mvf0, [sl]
     81c:	18000000 	stmdane	r0, {}	; <UNPREDICTABLE>
     820:	0007b90b 	andeq	fp, r7, fp, lsl #18
     824:	fdc10400 	stc2l	4, cr0, [r1]
     828:	1c000000 	stcne	0, cr0, [r0], {-0}
     82c:	0007670b 	andeq	r6, r7, fp, lsl #14
     830:	4fc30400 	svcmi	0x00c30400
     834:	20000005 	andcs	r0, r0, r5
     838:	0005e70b 	andeq	lr, r5, fp, lsl #14
     83c:	7ec50400 	cdpvc	4, 12, cr0, cr5, cr0, {0}
     840:	24000005 	strcs	r0, [r0], #-5
     844:	00088c0b 	andeq	r8, r8, fp, lsl #24
     848:	a2c80400 	sbcge	r0, r8, #0, 8
     84c:	28000005 	stmdacs	r0, {r0, r2}
     850:	0007310b 	andeq	r3, r7, fp, lsl #2
     854:	bcc90400 	cfstrdlt	mvd0, [r9], {0}
     858:	2c000005 	stccs	0, cr0, [r0], {5}
     85c:	62755f0e 	rsbsvs	r5, r5, #14, 30	; 0x38
     860:	97cc0400 	strbls	r0, [ip, r0, lsl #8]
     864:	30000002 	andcc	r0, r0, r2
     868:	70755f0e 	rsbsvc	r5, r5, lr, lsl #30
     86c:	bccd0400 	cfstrdlt	mvd0, [sp], {0}
     870:	38000002 	stmdacc	r0, {r1}
     874:	72755f0e 	rsbsvc	r5, r5, #14, 30	; 0x38
     878:	1dce0400 	cfstrdne	mvd0, [lr]
     87c:	3c000000 	stccc	0, cr0, [r0], {-0}
     880:	0009160b 	andeq	r1, r9, fp, lsl #12
     884:	c2d10400 	sbcsgt	r0, r1, #0, 8
     888:	40000005 	andmi	r0, r0, r5
     88c:	0006460b 	andeq	r4, r6, fp, lsl #12
     890:	d2d20400 	sbcsle	r0, r2, #0, 8
     894:	43000005 	movwmi	r0, #5
     898:	626c5f0e 	rsbvs	r5, ip, #14, 30	; 0x38
     89c:	97d50400 	ldrbls	r0, [r5, r0, lsl #8]
     8a0:	44000002 	strmi	r0, [r0], #-2
     8a4:	0007170b 	andeq	r1, r7, fp, lsl #14
     8a8:	1dd80400 	cfldrdne	mvd0, [r8]
     8ac:	4c000000 	stcmi	0, cr0, [r0], {-0}
     8b0:	0005540b 	andeq	r5, r5, fp, lsl #8
     8b4:	6ed90400 	cdpvs	4, 13, cr0, cr9, cr0, {0}
     8b8:	50000000 	andpl	r0, r0, r0
     8bc:	00051f0b 	andeq	r1, r5, fp, lsl #30
     8c0:	0adc0400 	beq	ff7018c8 <_estack+0xdf6b18c9>
     8c4:	54000004 	strpl	r0, [r0], #-4
     8c8:	0009ed0b 	andeq	lr, r9, fp, lsl #26
     8cc:	f2e00400 	vaddhn.i64	d16, q0, q0
     8d0:	58000000 	stmdapl	r0, {}	; <UNPREDICTABLE>
     8d4:	0006b20b 	andeq	fp, r6, fp, lsl #4
     8d8:	e7e20400 	strb	r0, [r2, r0, lsl #8]!
     8dc:	5c000000 	stcpl	0, cr0, [r0], {-0}
     8e0:	0004fa0b 	andeq	pc, r4, fp, lsl #20
     8e4:	1de30400 	cfstrdne	mvd0, [r3]
     8e8:	64000000 	strvs	r0, [r0], #-0
     8ec:	001d1300 	andseq	r1, sp, r0, lsl #6
     8f0:	040a0000 	streq	r0, [sl], #-0
     8f4:	0a140000 	beq	5008fc <_Min_Stack_Size+0x5004fc>
     8f8:	14000004 	strne	r0, [r0], #-4
     8fc:	000000fd 	strdeq	r0, [r0], -sp
     900:	00054214 	andeq	r4, r5, r4, lsl r2
     904:	001d1400 	andseq	r1, sp, r0, lsl #8
     908:	0f000000 	svceq	0x00000000
     90c:	00041004 	andeq	r1, r4, r4
     910:	08f91500 	ldmeq	r9!, {r8, sl, ip}^
     914:	04280000 	strteq	r0, [r8], #-0
     918:	42023904 	andmi	r3, r2, #4, 18	; 0x10000
     91c:	16000005 	strne	r0, [r0], -r5
     920:	00000785 	andeq	r0, r0, r5, lsl #15
     924:	1d023b04 	vstrne	d3, [r2, #-16]
     928:	00000000 	andeq	r0, r0, r0
     92c:	0008e216 	andeq	lr, r8, r6, lsl r2
     930:	02400400 	subeq	r0, r0, #0, 8
     934:	00000629 	andeq	r0, r0, r9, lsr #12
     938:	062b1604 	strteq	r1, [fp], -r4, lsl #12
     93c:	40040000 	andmi	r0, r4, r0
     940:	00062902 	andeq	r2, r6, r2, lsl #18
     944:	74160800 	ldrvc	r0, [r6], #-2048	; 0xfffff800
     948:	04000007 	streq	r0, [r0], #-7
     94c:	06290240 	strteq	r0, [r9], -r0, asr #4
     950:	160c0000 	strne	r0, [ip], -r0
     954:	000008a8 	andeq	r0, r0, r8, lsr #17
     958:	1d024204 	sfmne	f4, 4, [r2, #-16]
     95c:	10000000 	andne	r0, r0, r0
     960:	00063316 	andeq	r3, r6, r6, lsl r3
     964:	02430400 	subeq	r0, r3, #0, 8
     968:	0000080b 	andeq	r0, r0, fp, lsl #16
     96c:	08101614 	ldmdaeq	r0, {r2, r4, r9, sl, ip}
     970:	45040000 	strmi	r0, [r4, #-0]
     974:	00001d02 	andeq	r1, r0, r2, lsl #26
     978:	e9163000 	ldmdb	r6, {ip, sp}
     97c:	04000008 	streq	r0, [r0], #-8
     980:	05730246 	ldrbeq	r0, [r3, #-582]!	; 0xfffffdba
     984:	16340000 	ldrtne	r0, [r4], -r0
     988:	000004ef 	andeq	r0, r0, pc, ror #9
     98c:	1d024804 	stcne	8, cr4, [r2, #-16]
     990:	38000000 	stmdacc	r0, {}	; <UNPREDICTABLE>
     994:	00082a16 	andeq	r2, r8, r6, lsl sl
     998:	024a0400 	subeq	r0, sl, #0, 8
     99c:	00000826 	andeq	r0, r0, r6, lsr #16
     9a0:	0892163c 	ldmeq	r2, {r2, r3, r4, r5, r9, sl, ip}
     9a4:	4d040000 	stcmi	0, cr0, [r4, #-0]
     9a8:	00015d02 	andeq	r5, r1, r2, lsl #26
     9ac:	4a164000 	bmi	5909b4 <_Min_Stack_Size+0x5905b4>
     9b0:	04000005 	streq	r0, [r0], #-5
     9b4:	001d024e 	andseq	r0, sp, lr, asr #4
     9b8:	16440000 	strbne	r0, [r4], -r0
     9bc:	000008cc 	andeq	r0, r0, ip, asr #17
     9c0:	5d024f04 	stcpl	15, cr4, [r2, #-16]
     9c4:	48000001 	stmdami	r0, {r0}
     9c8:	0006a316 	andeq	sl, r6, r6, lsl r3
     9cc:	02500400 	subseq	r0, r0, #0, 8
     9d0:	0000082c 	andeq	r0, r0, ip, lsr #16
     9d4:	063e164c 	ldrteq	r1, [lr], -ip, asr #12
     9d8:	53040000 	movwpl	r0, #16384	; 0x4000
     9dc:	00001d02 	andeq	r1, r0, r2, lsl #26
     9e0:	b1165000 	tstlt	r6, r0
     9e4:	04000007 	streq	r0, [r0], #-7
     9e8:	05420254 	strbeq	r0, [r2, #-596]	; 0xfffffdac
     9ec:	16540000 	ldrbne	r0, [r4], -r0
     9f0:	00000937 	andeq	r0, r0, r7, lsr r9
     9f4:	e9027704 	stmdb	r2, {r2, r8, r9, sl, ip, sp, lr}
     9f8:	58000007 	stmdapl	r0, {r0, r1, r2}
     9fc:	0001d117 	andeq	sp, r1, r7, lsl r1
     a00:	027b0400 	rsbseq	r0, fp, #0, 8
     a04:	0000027a 	andeq	r0, r0, sl, ror r2
     a08:	0e170148 	mufeqsm	f0, f7, #0.0
     a0c:	04000007 	streq	r0, [r0], #-7
     a10:	023c027c 	eorseq	r0, ip, #124, 4	; 0xc0000007
     a14:	014c0000 	mrseq	r0, (UNDEF: 76)
     a18:	00069017 	andeq	r9, r6, r7, lsl r0
     a1c:	02800400 	addeq	r0, r0, #0, 8
     a20:	0000083d 	andeq	r0, r0, sp, lsr r8
     a24:	8c1702dc 	lfmhi	f0, 4, [r7], {220}	; 0xdc
     a28:	04000007 	streq	r0, [r0], #-7
     a2c:	05ee0285 	strbeq	r0, [lr, #645]!	; 0x285
     a30:	02e00000 	rsceq	r0, r0, #0
     a34:	00055c17 	andeq	r5, r5, r7, lsl ip
     a38:	02860400 	addeq	r0, r6, #0, 8
     a3c:	00000849 	andeq	r0, r0, r9, asr #16
     a40:	0f0002ec 	svceq	0x000002ec
     a44:	00054804 	andeq	r4, r5, r4, lsl #16
     a48:	08010300 	stmdaeq	r1, {r8, r9}
     a4c:	00000261 	andeq	r0, r0, r1, ror #4
     a50:	03ec040f 	mvneq	r0, #251658240	; 0xf000000
     a54:	1d130000 	ldcne	0, cr0, [r3, #-0]
     a58:	73000000 	movwvc	r0, #0
     a5c:	14000005 	strne	r0, [r0], #-5
     a60:	0000040a 	andeq	r0, r0, sl, lsl #8
     a64:	0000fd14 	andeq	pc, r0, r4, lsl sp	; <UNPREDICTABLE>
     a68:	05731400 	ldrbeq	r1, [r3, #-1024]!	; 0xfffffc00
     a6c:	1d140000 	ldcne	0, cr0, [r4, #-0]
     a70:	00000000 	andeq	r0, r0, r0
     a74:	0579040f 	ldrbeq	r0, [r9, #-1039]!	; 0xfffffbf1
     a78:	48180000 	ldmdami	r8, {}	; <UNPREDICTABLE>
     a7c:	0f000005 	svceq	0x00000005
     a80:	00055504 	andeq	r5, r5, r4, lsl #10
     a84:	00791300 	rsbseq	r1, r9, r0, lsl #6
     a88:	05a20000 	streq	r0, [r2, #0]!
     a8c:	0a140000 	beq	500a94 <_Min_Stack_Size+0x500694>
     a90:	14000004 	strne	r0, [r0], #-4
     a94:	000000fd 	strdeq	r0, [r0], -sp
     a98:	00007914 	andeq	r7, r0, r4, lsl r9
     a9c:	001d1400 	andseq	r1, sp, r0, lsl #8
     aa0:	0f000000 	svceq	0x00000000
     aa4:	00058404 	andeq	r8, r5, r4, lsl #8
     aa8:	001d1300 	andseq	r1, sp, r0, lsl #6
     aac:	05bc0000 	ldreq	r0, [ip, #0]!
     ab0:	0a140000 	beq	500ab8 <_Min_Stack_Size+0x5006b8>
     ab4:	14000004 	strne	r0, [r0], #-4
     ab8:	000000fd 	strdeq	r0, [r0], -sp
     abc:	a8040f00 	stmdage	r4, {r8, r9, sl, fp}
     ac0:	08000005 	stmdaeq	r0, {r0, r2}
     ac4:	00000032 	andeq	r0, r0, r2, lsr r0
     ac8:	000005d2 	ldrdeq	r0, [r0], -r2
     acc:	0000bf09 	andeq	fp, r0, r9, lsl #30
     ad0:	08000200 	stmdaeq	r0, {r9}
     ad4:	00000032 	andeq	r0, r0, r2, lsr r0
     ad8:	000005e2 	andeq	r0, r0, r2, ror #11
     adc:	0000bf09 	andeq	fp, r0, r9, lsl #30
     ae0:	05000000 	streq	r0, [r0, #-0]
     ae4:	00000665 	andeq	r0, r0, r5, ror #12
     ae8:	c2011d04 	andgt	r1, r1, #4, 26	; 0x100
     aec:	19000002 	stmdbne	r0, {r1}
     af0:	0000060f 	andeq	r0, r0, pc, lsl #12
     af4:	0121040c 			; <UNDEFINED> instruction: 0x0121040c
     af8:	00000623 	andeq	r0, r0, r3, lsr #12
     afc:	0008dc16 	andeq	sp, r8, r6, lsl ip
     b00:	01230400 			; <UNDEFINED> instruction: 0x01230400
     b04:	00000623 	andeq	r0, r0, r3, lsr #12
     b08:	065e1600 	ldrbeq	r1, [lr], -r0, lsl #12
     b0c:	24040000 	strcs	r0, [r4], #-0
     b10:	00001d01 	andeq	r1, r0, r1, lsl #26
     b14:	7e160400 	cfmulsvc	mvf0, mvf6, mvf0
     b18:	04000008 	streq	r0, [r0], #-8
     b1c:	06290125 	strteq	r0, [r9], -r5, lsr #2
     b20:	00080000 	andeq	r0, r8, r0
     b24:	05ee040f 	strbeq	r0, [lr, #1039]!	; 0x40f
     b28:	040f0000 	streq	r0, [pc], #-0	; b30 <_Min_Stack_Size+0x730>
     b2c:	000005e2 	andeq	r0, r0, r2, ror #11
     b30:	00086c19 	andeq	r6, r8, r9, lsl ip
     b34:	3d040e00 	stccc	14, cr0, [r4, #-0]
     b38:	00066401 	andeq	r6, r6, r1, lsl #8
     b3c:	08661600 	stmdaeq	r6!, {r9, sl, ip}^
     b40:	3e040000 	cdpcc	0, 0, cr0, cr4, cr0, {0}
     b44:	00066401 	andeq	r6, r6, r1, lsl #8
     b48:	fd160000 	ldc2	0, cr0, [r6, #-0]
     b4c:	04000006 	streq	r0, [r0], #-6
     b50:	0664013f 			; <UNDEFINED> instruction: 0x0664013f
     b54:	16060000 	strne	r0, [r6], -r0
     b58:	000008a3 	andeq	r0, r0, r3, lsr #17
     b5c:	40014004 	andmi	r4, r1, r4
     b60:	0c000000 	stceq	0, cr0, [r0], {-0}
     b64:	00400800 	subeq	r0, r0, r0, lsl #16
     b68:	06740000 	ldrbteq	r0, [r4], -r0
     b6c:	bf090000 	svclt	0x00090000
     b70:	02000000 	andeq	r0, r0, #0
     b74:	04d01a00 	ldrbeq	r1, [r0], #2560	; 0xa00
     b78:	07750258 			; <UNDEFINED> instruction: 0x07750258
     b7c:	dc160000 	ldcle	0, cr0, [r6], {-0}
     b80:	04000007 	streq	r0, [r0], #-7
     b84:	0024025a 	eoreq	r0, r4, sl, asr r2
     b88:	16000000 	strne	r0, [r0], -r0
     b8c:	00000859 	andeq	r0, r0, r9, asr r8
     b90:	42025b04 	andmi	r5, r2, #4, 22	; 0x1000
     b94:	04000005 	streq	r0, [r0], #-5
     b98:	00092216 	andeq	r2, r9, r6, lsl r2
     b9c:	025c0400 	subseq	r0, ip, #0, 8
     ba0:	00000775 	andeq	r0, r0, r5, ror r7
     ba4:	05ee1608 	strbeq	r1, [lr, #1544]!	; 0x608
     ba8:	5d040000 	stcpl	0, cr0, [r4, #-0]
     bac:	00017302 	andeq	r7, r1, r2, lsl #6
     bb0:	cd162400 	cfldrsgt	mvf2, [r6, #-0]
     bb4:	04000007 	streq	r0, [r0], #-7
     bb8:	001d025e 	andseq	r0, sp, lr, asr r2
     bbc:	16480000 	strbne	r0, [r8], -r0
     bc0:	000008d7 	ldrdeq	r0, [r0], -r7
     bc4:	5c025f04 	stcpl	15, cr5, [r2], {4}
     bc8:	50000000 	andpl	r0, r0, r0
     bcc:	00062616 	andeq	r2, r6, r6, lsl r6
     bd0:	02600400 	rsbeq	r0, r0, #0, 8
     bd4:	0000062f 	andeq	r0, r0, pc, lsr #12
     bd8:	05021658 	streq	r1, [r2, #-1624]	; 0xfffff9a8
     bdc:	61040000 	mrsvs	r0, (UNDEF: 4)
     be0:	0000e702 	andeq	lr, r0, r2, lsl #14
     be4:	fb166800 	blx	59abee <_Min_Stack_Size+0x59a7ee>
     be8:	04000007 	streq	r0, [r0], #-7
     bec:	00e70262 	rsceq	r0, r7, r2, ror #4
     bf0:	16700000 	ldrbtne	r0, [r0], -r0
     bf4:	000008b2 			; <UNDEFINED> instruction: 0x000008b2
     bf8:	e7026304 	str	r6, [r2, -r4, lsl #6]
     bfc:	78000000 	stmdavc	r0, {}	; <UNPREDICTABLE>
     c00:	00050f16 	andeq	r0, r5, r6, lsl pc
     c04:	02640400 	rsbeq	r0, r4, #0, 8
     c08:	00000785 	andeq	r0, r0, r5, lsl #15
     c0c:	05611680 	strbeq	r1, [r1, #-1664]!	; 0xfffff980
     c10:	65040000 	strvs	r0, [r4, #-0]
     c14:	00079502 	andeq	r9, r7, r2, lsl #10
     c18:	6c168800 	ldcvs	8, cr8, [r6], {-0}
     c1c:	04000006 	streq	r0, [r0], #-6
     c20:	001d0266 	andseq	r0, sp, r6, ror #4
     c24:	16a00000 	strtne	r0, [r0], r0
     c28:	00000682 	andeq	r0, r0, r2, lsl #13
     c2c:	e7026704 	str	r6, [r2, -r4, lsl #14]
     c30:	a4000000 	strge	r0, [r0], #-0
     c34:	0007a216 	andeq	sl, r7, r6, lsl r2
     c38:	02680400 	rsbeq	r0, r8, #0, 8
     c3c:	000000e7 	andeq	r0, r0, r7, ror #1
     c40:	061516ac 	ldreq	r1, [r5], -ip, lsr #13
     c44:	69040000 	stmdbvs	r4, {}	; <UNPREDICTABLE>
     c48:	0000e702 	andeq	lr, r0, r2, lsl #14
     c4c:	0016b400 	andseq	fp, r6, r0, lsl #8
     c50:	04000009 	streq	r0, [r0], #-9
     c54:	00e7026a 	rsceq	r0, r7, sl, ror #4
     c58:	16bc0000 	ldrtne	r0, [ip], r0
     c5c:	0000056d 	andeq	r0, r0, sp, ror #10
     c60:	e7026b04 	str	r6, [r2, -r4, lsl #22]
     c64:	c4000000 	strgt	r0, [r0], #-0
     c68:	00078316 	andeq	r8, r7, r6, lsl r3
     c6c:	026c0400 	rsbeq	r0, ip, #0, 8
     c70:	0000001d 	andeq	r0, r0, sp, lsl r0
     c74:	480800cc 	stmdami	r8, {r2, r3, r6, r7}
     c78:	85000005 	strhi	r0, [r0, #-5]
     c7c:	09000007 	stmdbeq	r0, {r0, r1, r2}
     c80:	000000bf 	strheq	r0, [r0], -pc	; <UNPREDICTABLE>
     c84:	48080019 	stmdami	r8, {r0, r3, r4}
     c88:	95000005 	strls	r0, [r0, #-5]
     c8c:	09000007 	stmdbeq	r0, {r0, r1, r2}
     c90:	000000bf 	strheq	r0, [r0], -pc	; <UNPREDICTABLE>
     c94:	48080007 	stmdami	r8, {r0, r1, r2}
     c98:	a5000005 	strge	r0, [r0, #-5]
     c9c:	09000007 	stmdbeq	r0, {r0, r1, r2}
     ca0:	000000bf 	strheq	r0, [r0], -pc	; <UNPREDICTABLE>
     ca4:	f01a0017 			; <UNDEFINED> instruction: 0xf01a0017
     ca8:	c9027104 	stmdbgt	r2, {r2, r8, ip, sp, lr}
     cac:	16000007 	strne	r0, [r0], -r7
     cb0:	0000076d 	andeq	r0, r0, sp, ror #14
     cb4:	c9027404 	stmdbgt	r2, {r2, sl, ip, sp, lr}
     cb8:	00000007 	andeq	r0, r0, r7
     cbc:	00069a16 	andeq	r9, r6, r6, lsl sl
     cc0:	02750400 	rsbseq	r0, r5, #0, 8
     cc4:	000007d9 	ldrdeq	r0, [r0], -r9
     cc8:	bc080078 	stclt	0, cr0, [r8], {120}	; 0x78
     ccc:	d9000002 	stmdble	r0, {r1}
     cd0:	09000007 	stmdbeq	r0, {r0, r1, r2}
     cd4:	000000bf 	strheq	r0, [r0], -pc	; <UNPREDICTABLE>
     cd8:	2408001d 	strcs	r0, [r8], #-29	; 0xffffffe3
     cdc:	e9000000 	stmdb	r0, {}	; <UNPREDICTABLE>
     ce0:	09000007 	stmdbeq	r0, {r0, r1, r2}
     ce4:	000000bf 	strheq	r0, [r0], -pc	; <UNPREDICTABLE>
     ce8:	f01b001d 			; <UNDEFINED> instruction: 0xf01b001d
     cec:	0b025604 	bleq	96504 <_Min_Stack_Size+0x96104>
     cf0:	1c000008 	stcne	0, cr0, [r0], {8}
     cf4:	000008f9 	strdeq	r0, [r0], -r9
     cf8:	74026d04 	strvc	r6, [r2], #-3332	; 0xfffff2fc
     cfc:	1c000006 	stcne	0, cr0, [r0], {6}
     d00:	000007f3 	strdeq	r0, [r0], -r3
     d04:	a5027604 	strge	r7, [r2, #-1540]	; 0xfffff9fc
     d08:	00000007 	andeq	r0, r0, r7
     d0c:	00054808 	andeq	r4, r5, r8, lsl #16
     d10:	00081b00 	andeq	r1, r8, r0, lsl #22
     d14:	00bf0900 	adcseq	r0, pc, r0, lsl #18
     d18:	00180000 	andseq	r0, r8, r0
     d1c:	0008261d 	andeq	r2, r8, sp, lsl r6
     d20:	040a1400 	streq	r1, [sl], #-1024	; 0xfffffc00
     d24:	0f000000 	svceq	0x00000000
     d28:	00081b04 	andeq	r1, r8, r4, lsl #22
     d2c:	5d040f00 	stcpl	15, cr0, [r4, #-0]
     d30:	1d000001 	stcne	0, cr0, [r0, #-4]
     d34:	0000083d 	andeq	r0, r0, sp, lsr r8
     d38:	00001d14 	andeq	r1, r0, r4, lsl sp
     d3c:	040f0000 	streq	r0, [pc], #-0	; d44 <_Min_Stack_Size+0x944>
     d40:	00000843 	andeq	r0, r0, r3, asr #16
     d44:	0832040f 	ldmdaeq	r2!, {r0, r1, r2, r3, sl}
     d48:	e2080000 	and	r0, r8, #0
     d4c:	59000005 	stmdbpl	r0, {r0, r2}
     d50:	09000008 	stmdbeq	r0, {r3}
     d54:	000000bf 	strheq	r0, [r0], -pc	; <UNPREDICTABLE>
     d58:	191e0002 	ldmdbne	lr, {r1}
     d5c:	05000005 	streq	r0, [r0, #-5]
     d60:	00041017 	andeq	r1, r4, r7, lsl r0
     d64:	08030500 	stmdaeq	r3, {r8, sl}
     d68:	1f200000 	svcne	0x00200000
     d6c:	00000748 	andeq	r0, r0, r8, asr #14
     d70:	0a02fa04 	beq	bf588 <_Min_Stack_Size+0xbf188>
     d74:	05000004 	streq	r0, [r0, #-4]
     d78:	00000003 	andeq	r0, r0, r3
     d7c:	07411f00 	strbeq	r1, [r1, -r0, lsl #30]
     d80:	fb040000 	blx	100d8a <_Min_Stack_Size+0x10098a>
     d84:	00088e02 	andeq	r8, r8, r2, lsl #28
     d88:	70030500 	andvc	r0, r3, r0, lsl #10
     d8c:	1808005e 	stmdane	r8, {r1, r2, r3, r4, r6}
     d90:	0000040a 	andeq	r0, r0, sl, lsl #8
     d94:	00093000 	andeq	r3, r9, r0
     d98:	76000400 	strvc	r0, [r0], -r0, lsl #8
     d9c:	04000004 	streq	r0, [r0], #-4
     da0:	00030f01 	andeq	r0, r3, r1, lsl #30
     da4:	093c0100 	ldmdbeq	ip!, {r8}
     da8:	02920000 	addseq	r0, r2, #0
     dac:	00400000 	subeq	r0, r0, r0
     db0:	00000000 	andeq	r0, r0, r0
     db4:	04390000 	ldrteq	r0, [r9], #-0
     db8:	04020000 	streq	r0, [r2], #-0
     dbc:	746e6905 	strbtvc	r6, [lr], #-2309	; 0xfffff6fb
     dc0:	041d0300 	ldreq	r0, [sp], #-768	; 0xfffffd00
     dc4:	d4020000 	strle	r0, [r2], #-0
     dc8:	00000037 	andeq	r0, r0, r7, lsr r0
     dcc:	4b070404 	blmi	1c1de4 <_Min_Stack_Size+0x1c19e4>
     dd0:	04000002 	streq	r0, [r0], #-2
     dd4:	025a0601 	subseq	r0, sl, #1048576	; 0x100000
     dd8:	01040000 	mrseq	r0, (UNDEF: 4)
     ddc:	00025808 	andeq	r5, r2, r8, lsl #16
     de0:	05020400 	streq	r0, [r2, #-1024]	; 0xfffffc00
     de4:	00000305 	andeq	r0, r0, r5, lsl #6
     de8:	ee070204 	cdp	2, 0, cr0, cr7, cr4, {0}
     dec:	04000001 	streq	r0, [r0], #-1
     df0:	01e50504 	mvneq	r0, r4, lsl #10
     df4:	04040000 	streq	r0, [r4], #-0
     df8:	00024607 	andeq	r4, r2, r7, lsl #12
     dfc:	05080400 	streq	r0, [r8, #-1024]	; 0xfffffc00
     e00:	000001e0 	andeq	r0, r0, r0, ror #3
     e04:	41070804 	tstmi	r7, r4, lsl #16
     e08:	03000002 	movweq	r0, #2
     e0c:	0000064c 	andeq	r0, r0, ip, asr #12
     e10:	00250703 	eoreq	r0, r5, r3, lsl #14
     e14:	25030000 	strcs	r0, [r3, #-0]
     e18:	04000005 	streq	r0, [r0], #-5
     e1c:	00005a10 	andeq	r5, r0, r0, lsl sl
     e20:	07290300 	streq	r0, [r9, -r0, lsl #6]!
     e24:	27040000 	strcs	r0, [r4, -r0]
     e28:	0000005a 	andeq	r0, r0, sl, asr r0
     e2c:	00080905 	andeq	r0, r8, r5, lsl #18
     e30:	01610200 	cmneq	r1, r0, lsl #4
     e34:	00000037 	andeq	r0, r0, r7, lsr r0
     e38:	4a040406 	bmi	101e58 <_Min_Stack_Size+0x101a58>
     e3c:	000000c2 	andeq	r0, r0, r2, asr #1
     e40:	00052c07 	andeq	r2, r5, r7, lsl #24
     e44:	974c0400 	strbls	r0, [ip, -r0, lsl #8]
     e48:	07000000 	streq	r0, [r0, -r0]
     e4c:	0000077c 	andeq	r0, r0, ip, ror r7
     e50:	00c24d04 	sbceq	r4, r2, r4, lsl #26
     e54:	08000000 	stmdaeq	r0, {}	; <UNPREDICTABLE>
     e58:	00000045 	andeq	r0, r0, r5, asr #32
     e5c:	000000d2 	ldrdeq	r0, [r0], -r2
     e60:	0000d209 	andeq	sp, r0, r9, lsl #4
     e64:	04000300 	streq	r0, [r0], #-768	; 0xfffffd00
     e68:	03df0704 	bicseq	r0, pc, #4, 14	; 0x100000
     e6c:	080a0000 	stmdaeq	sl, {}	; <UNPREDICTABLE>
     e70:	00fa4704 	rscseq	r4, sl, r4, lsl #14
     e74:	fd0b0000 	stc2	0, cr0, [fp, #-0]
     e78:	04000005 	streq	r0, [r0], #-5
     e7c:	00002549 	andeq	r2, r0, r9, asr #10
     e80:	3b0b0000 	blcc	2c0e88 <_Min_Stack_Size+0x2c0a88>
     e84:	04000005 	streq	r0, [r0], #-5
     e88:	0000a34e 	andeq	sl, r0, lr, asr #6
     e8c:	03000400 	movweq	r0, #1024	; 0x400
     e90:	00000834 	andeq	r0, r0, r4, lsr r8
     e94:	00d94f04 	sbcseq	r4, r9, r4, lsl #30
     e98:	38030000 	stmdacc	r3, {}	; <UNPREDICTABLE>
     e9c:	04000007 	streq	r0, [r0], #-7
     ea0:	00007653 	andeq	r7, r0, r3, asr r6
     ea4:	03040c00 	movweq	r0, #19456	; 0x4c00
     ea8:	00000884 	andeq	r0, r0, r4, lsl #17
     eac:	00611605 	rsbeq	r1, r1, r5, lsl #12
     eb0:	3f0d0000 	svccc	0x000d0000
     eb4:	18000008 	stmdane	r0, {r3}
     eb8:	01702d05 	cmneq	r0, r5, lsl #26
     ebc:	dc0b0000 	stcle	0, cr0, [fp], {-0}
     ec0:	05000008 	streq	r0, [r0, #-8]
     ec4:	0001702f 	andeq	r7, r1, pc, lsr #32
     ec8:	5f0e0000 	svcpl	0x000e0000
     ecc:	3005006b 	andcc	r0, r5, fp, rrx
     ed0:	00000025 	andeq	r0, r0, r5, lsr #32
     ed4:	08470b04 	stmdaeq	r7, {r2, r8, r9, fp}^
     ed8:	30050000 	andcc	r0, r5, r0
     edc:	00000025 	andeq	r0, r0, r5, lsr #32
     ee0:	08d10b08 	ldmeq	r1, {r3, r8, r9, fp}^
     ee4:	30050000 	andcc	r0, r5, r0
     ee8:	00000025 	andeq	r0, r0, r5, lsr #32
     eec:	07e90b0c 	strbeq	r0, [r9, ip, lsl #22]!
     ef0:	30050000 	andcc	r0, r5, r0
     ef4:	00000025 	andeq	r0, r0, r5, lsr #32
     ef8:	785f0e10 	ldmdavc	pc, {r4, r9, sl, fp}^	; <UNPREDICTABLE>
     efc:	76310500 	ldrtvc	r0, [r1], -r0, lsl #10
     f00:	14000001 	strne	r0, [r0], #-1
     f04:	1d040f00 	stcne	15, cr0, [r4, #-0]
     f08:	08000001 	stmdaeq	r0, {r0}
     f0c:	00000112 	andeq	r0, r0, r2, lsl r1
     f10:	00000186 	andeq	r0, r0, r6, lsl #3
     f14:	0000d209 	andeq	sp, r0, r9, lsl #4
     f18:	0d000000 	stceq	0, cr0, [r0, #-0]
     f1c:	000007ee 	andeq	r0, r0, lr, ror #15
     f20:	ff350524 			; <UNDEFINED> instruction: 0xff350524
     f24:	0b000001 	bleq	f30 <_Min_Stack_Size+0xb30>
     f28:	00000754 	andeq	r0, r0, r4, asr r7
     f2c:	00253705 	eoreq	r3, r5, r5, lsl #14
     f30:	0b000000 	bleq	f38 <_Min_Stack_Size+0xb38>
     f34:	00000679 	andeq	r0, r0, r9, ror r6
     f38:	00253805 	eoreq	r3, r5, r5, lsl #16
     f3c:	0b040000 	bleq	100f44 <_Min_Stack_Size+0x100b44>
     f40:	0000075d 	andeq	r0, r0, sp, asr r7
     f44:	00253905 	eoreq	r3, r5, r5, lsl #18
     f48:	0b080000 	bleq	200f50 <_Min_Stack_Size+0x200b50>
     f4c:	00000605 	andeq	r0, r0, r5, lsl #12
     f50:	00253a05 	eoreq	r3, r5, r5, lsl #20
     f54:	0b0c0000 	bleq	300f5c <_Min_Stack_Size+0x300b5c>
     f58:	0000089a 	muleq	r0, sl, r8
     f5c:	00253b05 	eoreq	r3, r5, r5, lsl #22
     f60:	0b100000 	bleq	400f68 <_Min_Stack_Size+0x400b68>
     f64:	0000084f 	andeq	r0, r0, pc, asr #16
     f68:	00253c05 	eoreq	r3, r5, r5, lsl #24
     f6c:	0b140000 	bleq	500f74 <_Min_Stack_Size+0x500b74>
     f70:	000006bb 			; <UNDEFINED> instruction: 0x000006bb
     f74:	00253d05 	eoreq	r3, r5, r5, lsl #26
     f78:	0b180000 	bleq	600f80 <_Min_Stack_Size+0x600b80>
     f7c:	00000874 	andeq	r0, r0, r4, ror r8
     f80:	00253e05 	eoreq	r3, r5, r5, lsl #28
     f84:	0b1c0000 	bleq	700f8c <_Min_Stack_Size+0x700b8c>
     f88:	00000703 	andeq	r0, r0, r3, lsl #14
     f8c:	00253f05 	eoreq	r3, r5, r5, lsl #30
     f90:	00200000 	eoreq	r0, r0, r0
     f94:	00079410 	andeq	r9, r7, r0, lsl r4
     f98:	05010800 	streq	r0, [r1, #-2048]	; 0xfffff800
     f9c:	00023f48 	andeq	r3, r2, r8, asr #30
     fa0:	06c50b00 	strbeq	r0, [r5], r0, lsl #22
     fa4:	49050000 	stmdbmi	r5, {}	; <UNPREDICTABLE>
     fa8:	0000023f 	andeq	r0, r0, pc, lsr r2
     fac:	08c00b00 	stmiaeq	r0, {r8, r9, fp}^
     fb0:	4a050000 	bmi	140fb8 <_Min_Stack_Size+0x140bb8>
     fb4:	0000023f 	andeq	r0, r0, pc, lsr r2
     fb8:	07201180 	streq	r1, [r0, -r0, lsl #3]!
     fbc:	4c050000 	stcmi	0, cr0, [r5], {-0}
     fc0:	00000112 	andeq	r0, r0, r2, lsl r1
     fc4:	22110100 	andscs	r0, r1, #0, 2
     fc8:	05000008 	streq	r0, [r0, #-8]
     fcc:	0001124f 	andeq	r1, r1, pc, asr #4
     fd0:	00010400 	andeq	r0, r1, r0, lsl #8
     fd4:	00011008 	andeq	r1, r1, r8
     fd8:	00024f00 	andeq	r4, r2, r0, lsl #30
     fdc:	00d20900 	sbcseq	r0, r2, r0, lsl #18
     fe0:	001f0000 	andseq	r0, pc, r0
     fe4:	0001d110 	andeq	sp, r1, r0, lsl r1
     fe8:	05019000 	streq	r9, [r1, #-0]
     fec:	00028d5b 	andeq	r8, r2, fp, asr sp
     ff0:	08dc0b00 	ldmeq	ip, {r8, r9, fp}^
     ff4:	5c050000 	stcpl	0, cr0, [r5], {-0}
     ff8:	0000028d 	andeq	r0, r0, sp, lsl #5
     ffc:	08ad0b00 	stmiaeq	sp!, {r8, r9, fp}
    1000:	5d050000 	stcpl	0, cr0, [r5, #-0]
    1004:	00000025 	andeq	r0, r0, r5, lsr #32
    1008:	06ad0b04 	strteq	r0, [sp], r4, lsl #22
    100c:	5f050000 	svcpl	0x00050000
    1010:	00000293 	muleq	r0, r3, r2
    1014:	07940b08 	ldreq	r0, [r4, r8, lsl #22]
    1018:	60050000 	andvs	r0, r5, r0
    101c:	000001ff 	strdeq	r0, [r0], -pc	; <UNPREDICTABLE>
    1020:	040f0088 	streq	r0, [pc], #-136	; 1028 <_Min_Stack_Size+0xc28>
    1024:	0000024f 	andeq	r0, r0, pc, asr #4
    1028:	0002a308 	andeq	sl, r2, r8, lsl #6
    102c:	0002a300 	andeq	sl, r2, r0, lsl #6
    1030:	00d20900 	sbcseq	r0, r2, r0, lsl #18
    1034:	001f0000 	andseq	r0, pc, r0
    1038:	02a9040f 	adceq	r0, r9, #251658240	; 0xf000000
    103c:	0d120000 	ldceq	0, cr0, [r2, #-0]
    1040:	00000543 	andeq	r0, r0, r3, asr #10
    1044:	cf730508 	svcgt	0x00730508
    1048:	0b000002 	bleq	1058 <_Min_Stack_Size+0xc58>
    104c:	000007c1 	andeq	r0, r0, r1, asr #15
    1050:	02cf7405 	sbceq	r7, pc, #83886080	; 0x5000000
    1054:	0b000000 	bleq	105c <_Min_Stack_Size+0xc5c>
    1058:	0000091c 	andeq	r0, r0, ip, lsl r9
    105c:	00257505 	eoreq	r7, r5, r5, lsl #10
    1060:	00040000 	andeq	r0, r4, r0
    1064:	0045040f 	subeq	r0, r5, pc, lsl #8
    1068:	2f0d0000 	svccs	0x000d0000
    106c:	68000009 	stmdavs	r0, {r0, r3}
    1070:	03ffb305 	mvnseq	fp, #335544320	; 0x14000000
    1074:	5f0e0000 	svcpl	0x000e0000
    1078:	b4050070 	strlt	r0, [r5], #-112	; 0xffffff90
    107c:	000002cf 	andeq	r0, r0, pc, asr #5
    1080:	725f0e00 	subsvc	r0, pc, #0, 28
    1084:	25b50500 	ldrcs	r0, [r5, #1280]!	; 0x500
    1088:	04000000 	streq	r0, [r0], #-0
    108c:	00775f0e 	rsbseq	r5, r7, lr, lsl #30
    1090:	0025b605 	eoreq	fp, r5, r5, lsl #12
    1094:	0b080000 	bleq	20109c <_Min_Stack_Size+0x200c9c>
    1098:	0000090f 	andeq	r0, r0, pc, lsl #18
    109c:	004cb705 	subeq	fp, ip, r5, lsl #14
    10a0:	0b0c0000 	bleq	3010a8 <_Min_Stack_Size+0x300ca8>
    10a4:	000007c7 	andeq	r0, r0, r7, asr #15
    10a8:	004cb805 	subeq	fp, ip, r5, lsl #16
    10ac:	0e0e0000 	cdpeq	0, 0, cr0, cr14, cr0, {0}
    10b0:	0066625f 	rsbeq	r6, r6, pc, asr r2
    10b4:	02aab905 	adceq	fp, sl, #81920	; 0x14000
    10b8:	0b100000 	bleq	4010c0 <_Min_Stack_Size+0x400cc0>
    10bc:	00000532 	andeq	r0, r0, r2, lsr r5
    10c0:	0025ba05 	eoreq	fp, r5, r5, lsl #20
    10c4:	0b180000 	bleq	6010cc <_Min_Stack_Size+0x600ccc>
    10c8:	000007b9 			; <UNDEFINED> instruction: 0x000007b9
    10cc:	0110c105 	tsteq	r0, r5, lsl #2
    10d0:	0b1c0000 	bleq	7010d8 <_Min_Stack_Size+0x700cd8>
    10d4:	00000767 	andeq	r0, r0, r7, ror #14
    10d8:	0562c305 	strbeq	ip, [r2, #-773]!	; 0xfffffcfb
    10dc:	0b200000 	bleq	8010e4 <_Min_Stack_Size+0x800ce4>
    10e0:	000005e7 	andeq	r0, r0, r7, ror #11
    10e4:	0591c505 	ldreq	ip, [r1, #1285]	; 0x505
    10e8:	0b240000 	bleq	9010f0 <_Min_Stack_Size+0x900cf0>
    10ec:	0000088c 	andeq	r0, r0, ip, lsl #17
    10f0:	05b5c805 	ldreq	ip, [r5, #2053]!	; 0x805
    10f4:	0b280000 	bleq	a010fc <_Min_Stack_Size+0xa00cfc>
    10f8:	00000731 	andeq	r0, r0, r1, lsr r7
    10fc:	05cfc905 	strbeq	ip, [pc, #2309]	; 1a09 <_Min_Stack_Size+0x1609>
    1100:	0e2c0000 	cdpeq	0, 2, cr0, cr12, cr0, {0}
    1104:	0062755f 	rsbeq	r7, r2, pc, asr r5
    1108:	02aacc05 	adceq	ip, sl, #1280	; 0x500
    110c:	0e300000 	cdpeq	0, 3, cr0, cr0, cr0, {0}
    1110:	0070755f 	rsbseq	r7, r0, pc, asr r5
    1114:	02cfcd05 	sbceq	ip, pc, #320	; 0x140
    1118:	0e380000 	cdpeq	0, 3, cr0, cr8, cr0, {0}
    111c:	0072755f 	rsbseq	r7, r2, pc, asr r5
    1120:	0025ce05 	eoreq	ip, r5, r5, lsl #28
    1124:	0b3c0000 	bleq	f0112c <_Min_Stack_Size+0xf00d2c>
    1128:	00000916 	andeq	r0, r0, r6, lsl r9
    112c:	05d5d105 	ldrbeq	sp, [r5, #261]	; 0x105
    1130:	0b400000 	bleq	1001138 <_Min_Stack_Size+0x1000d38>
    1134:	00000646 	andeq	r0, r0, r6, asr #12
    1138:	05e5d205 	strbeq	sp, [r5, #517]!	; 0x205
    113c:	0e430000 	cdpeq	0, 4, cr0, cr3, cr0, {0}
    1140:	00626c5f 	rsbeq	r6, r2, pc, asr ip
    1144:	02aad505 	adceq	sp, sl, #20971520	; 0x1400000
    1148:	0b440000 	bleq	1101150 <_Min_Stack_Size+0x1100d50>
    114c:	00000717 	andeq	r0, r0, r7, lsl r7
    1150:	0025d805 	eoreq	sp, r5, r5, lsl #16
    1154:	0b4c0000 	bleq	130115c <_Min_Stack_Size+0x1300d5c>
    1158:	00000554 	andeq	r0, r0, r4, asr r5
    115c:	0081d905 	addeq	sp, r1, r5, lsl #18
    1160:	0b500000 	bleq	1401168 <_Min_Stack_Size+0x1400d68>
    1164:	0000051f 	andeq	r0, r0, pc, lsl r5
    1168:	041ddc05 	ldreq	sp, [sp], #-3077	; 0xfffff3fb
    116c:	0b540000 	bleq	1501174 <_Min_Stack_Size+0x1500d74>
    1170:	000009ed 	andeq	r0, r0, sp, ror #19
    1174:	0105e005 	tsteq	r5, r5
    1178:	0b580000 	bleq	1601180 <_Min_Stack_Size+0x1600d80>
    117c:	000006b2 			; <UNDEFINED> instruction: 0x000006b2
    1180:	00fae205 	rscseq	lr, sl, r5, lsl #4
    1184:	0b5c0000 	bleq	170118c <_Min_Stack_Size+0x1700d8c>
    1188:	000004fa 	strdeq	r0, [r0], -sl
    118c:	0025e305 	eoreq	lr, r5, r5, lsl #6
    1190:	00640000 	rsbeq	r0, r4, r0
    1194:	00002513 	andeq	r2, r0, r3, lsl r5
    1198:	00041d00 	andeq	r1, r4, r0, lsl #26
    119c:	041d1400 	ldreq	r1, [sp], #-1024	; 0xfffffc00
    11a0:	10140000 	andsne	r0, r4, r0
    11a4:	14000001 	strne	r0, [r0], #-1
    11a8:	00000555 	andeq	r0, r0, r5, asr r5
    11ac:	00002514 	andeq	r2, r0, r4, lsl r5
    11b0:	040f0000 	streq	r0, [pc], #-0	; 11b8 <_Min_Stack_Size+0xdb8>
    11b4:	00000423 	andeq	r0, r0, r3, lsr #8
    11b8:	0008f915 	andeq	pc, r8, r5, lsl r9	; <UNPREDICTABLE>
    11bc:	05042800 	streq	r2, [r4, #-2048]	; 0xfffff800
    11c0:	05550239 	ldrbeq	r0, [r5, #-569]	; 0xfffffdc7
    11c4:	85160000 	ldrhi	r0, [r6, #-0]
    11c8:	05000007 	streq	r0, [r0, #-7]
    11cc:	0025023b 	eoreq	r0, r5, fp, lsr r2
    11d0:	16000000 	strne	r0, [r0], -r0
    11d4:	000008e2 	andeq	r0, r0, r2, ror #17
    11d8:	3c024005 	stccc	0, cr4, [r2], {5}
    11dc:	04000006 	streq	r0, [r0], #-6
    11e0:	00062b16 	andeq	r2, r6, r6, lsl fp
    11e4:	02400500 	subeq	r0, r0, #0, 10
    11e8:	0000063c 	andeq	r0, r0, ip, lsr r6
    11ec:	07741608 	ldrbeq	r1, [r4, -r8, lsl #12]!
    11f0:	40050000 	andmi	r0, r5, r0
    11f4:	00063c02 	andeq	r3, r6, r2, lsl #24
    11f8:	a8160c00 	ldmdage	r6, {sl, fp}
    11fc:	05000008 	streq	r0, [r0, #-8]
    1200:	00250242 	eoreq	r0, r5, r2, asr #4
    1204:	16100000 	ldrne	r0, [r0], -r0
    1208:	00000633 	andeq	r0, r0, r3, lsr r6
    120c:	1e024305 	cdpne	3, 0, cr4, cr2, cr5, {0}
    1210:	14000008 	strne	r0, [r0], #-8
    1214:	00081016 	andeq	r1, r8, r6, lsl r0
    1218:	02450500 	subeq	r0, r5, #0, 10
    121c:	00000025 	andeq	r0, r0, r5, lsr #32
    1220:	08e91630 	stmiaeq	r9!, {r4, r5, r9, sl, ip}^
    1224:	46050000 	strmi	r0, [r5], -r0
    1228:	00058602 	andeq	r8, r5, r2, lsl #12
    122c:	ef163400 	svc	0x00163400
    1230:	05000004 	streq	r0, [r0, #-4]
    1234:	00250248 	eoreq	r0, r5, r8, asr #4
    1238:	16380000 	ldrtne	r0, [r8], -r0
    123c:	0000082a 	andeq	r0, r0, sl, lsr #16
    1240:	39024a05 	stmdbcc	r2, {r0, r2, r9, fp, lr}
    1244:	3c000008 	stccc	0, cr0, [r0], {8}
    1248:	00089216 	andeq	r9, r8, r6, lsl r2
    124c:	024d0500 	subeq	r0, sp, #0, 10
    1250:	00000170 	andeq	r0, r0, r0, ror r1
    1254:	054a1640 	strbeq	r1, [sl, #-1600]	; 0xfffff9c0
    1258:	4e050000 	cdpmi	0, 0, cr0, cr5, cr0, {0}
    125c:	00002502 	andeq	r2, r0, r2, lsl #10
    1260:	cc164400 	cfldrsgt	mvf4, [r6], {-0}
    1264:	05000008 	streq	r0, [r0, #-8]
    1268:	0170024f 	cmneq	r0, pc, asr #4
    126c:	16480000 	strbne	r0, [r8], -r0
    1270:	000006a3 	andeq	r0, r0, r3, lsr #13
    1274:	3f025005 	svccc	0x00025005
    1278:	4c000008 	stcmi	0, cr0, [r0], {8}
    127c:	00063e16 	andeq	r3, r6, r6, lsl lr
    1280:	02530500 	subseq	r0, r3, #0, 10
    1284:	00000025 	andeq	r0, r0, r5, lsr #32
    1288:	07b11650 	sbfxeq	r1, r0, #12, #18
    128c:	54050000 	strpl	r0, [r5], #-0
    1290:	00055502 	andeq	r5, r5, r2, lsl #10
    1294:	37165400 	ldrcc	r5, [r6, -r0, lsl #8]
    1298:	05000009 	streq	r0, [r0, #-9]
    129c:	07fc0277 			; <UNDEFINED> instruction: 0x07fc0277
    12a0:	17580000 	ldrbne	r0, [r8, -r0]
    12a4:	000001d1 	ldrdeq	r0, [r0], -r1
    12a8:	8d027b05 	vstrhi	d7, [r2, #-20]	; 0xffffffec
    12ac:	48000002 	stmdami	r0, {r1}
    12b0:	070e1701 	streq	r1, [lr, -r1, lsl #14]
    12b4:	7c050000 	stcvc	0, cr0, [r5], {-0}
    12b8:	00024f02 	andeq	r4, r2, r2, lsl #30
    12bc:	17014c00 	strne	r4, [r1, -r0, lsl #24]
    12c0:	00000690 	muleq	r0, r0, r6
    12c4:	50028005 	andpl	r8, r2, r5
    12c8:	dc000008 	stcle	0, cr0, [r0], {8}
    12cc:	078c1702 	streq	r1, [ip, r2, lsl #14]
    12d0:	85050000 	strhi	r0, [r5, #-0]
    12d4:	00060102 	andeq	r0, r6, r2, lsl #2
    12d8:	1702e000 	strne	lr, [r2, -r0]
    12dc:	0000055c 	andeq	r0, r0, ip, asr r5
    12e0:	5c028605 	stcpl	6, cr8, [r2], {5}
    12e4:	ec000008 	stc	0, cr0, [r0], {8}
    12e8:	040f0002 	streq	r0, [pc], #-2	; 12f0 <_Min_Stack_Size+0xef0>
    12ec:	0000055b 	andeq	r0, r0, fp, asr r5
    12f0:	61080104 	tstvs	r8, r4, lsl #2
    12f4:	0f000002 	svceq	0x00000002
    12f8:	0003ff04 	andeq	pc, r3, r4, lsl #30
    12fc:	00251300 	eoreq	r1, r5, r0, lsl #6
    1300:	05860000 	streq	r0, [r6]
    1304:	1d140000 	ldcne	0, cr0, [r4, #-0]
    1308:	14000004 	strne	r0, [r0], #-4
    130c:	00000110 	andeq	r0, r0, r0, lsl r1
    1310:	00058614 	andeq	r8, r5, r4, lsl r6
    1314:	00251400 	eoreq	r1, r5, r0, lsl #8
    1318:	0f000000 	svceq	0x00000000
    131c:	00058c04 	andeq	r8, r5, r4, lsl #24
    1320:	055b1800 	ldrbeq	r1, [fp, #-2048]	; 0xfffff800
    1324:	040f0000 	streq	r0, [pc], #-0	; 132c <_Min_Stack_Size+0xf2c>
    1328:	00000568 	andeq	r0, r0, r8, ror #10
    132c:	00008c13 	andeq	r8, r0, r3, lsl ip
    1330:	0005b500 	andeq	fp, r5, r0, lsl #10
    1334:	041d1400 	ldreq	r1, [sp], #-1024	; 0xfffffc00
    1338:	10140000 	andsne	r0, r4, r0
    133c:	14000001 	strne	r0, [r0], #-1
    1340:	0000008c 	andeq	r0, r0, ip, lsl #1
    1344:	00002514 	andeq	r2, r0, r4, lsl r5
    1348:	040f0000 	streq	r0, [pc], #-0	; 1350 <_Min_Stack_Size+0xf50>
    134c:	00000597 	muleq	r0, r7, r5
    1350:	00002513 	andeq	r2, r0, r3, lsl r5
    1354:	0005cf00 	andeq	ip, r5, r0, lsl #30
    1358:	041d1400 	ldreq	r1, [sp], #-1024	; 0xfffffc00
    135c:	10140000 	andsne	r0, r4, r0
    1360:	00000001 	andeq	r0, r0, r1
    1364:	05bb040f 	ldreq	r0, [fp, #1039]!	; 0x40f
    1368:	45080000 	strmi	r0, [r8, #-0]
    136c:	e5000000 	str	r0, [r0, #-0]
    1370:	09000005 	stmdbeq	r0, {r0, r2}
    1374:	000000d2 	ldrdeq	r0, [r0], -r2
    1378:	45080002 	strmi	r0, [r8, #-2]
    137c:	f5000000 			; <UNDEFINED> instruction: 0xf5000000
    1380:	09000005 	stmdbeq	r0, {r0, r2}
    1384:	000000d2 	ldrdeq	r0, [r0], -r2
    1388:	65050000 	strvs	r0, [r5, #-0]
    138c:	05000006 	streq	r0, [r0, #-6]
    1390:	02d5011d 	sbcseq	r0, r5, #1073741831	; 0x40000007
    1394:	0f190000 	svceq	0x00190000
    1398:	0c000006 	stceq	0, cr0, [r0], {6}
    139c:	36012105 	strcc	r2, [r1], -r5, lsl #2
    13a0:	16000006 	strne	r0, [r0], -r6
    13a4:	000008dc 	ldrdeq	r0, [r0], -ip
    13a8:	36012305 	strcc	r2, [r1], -r5, lsl #6
    13ac:	00000006 	andeq	r0, r0, r6
    13b0:	00065e16 	andeq	r5, r6, r6, lsl lr
    13b4:	01240500 			; <UNDEFINED> instruction: 0x01240500
    13b8:	00000025 	andeq	r0, r0, r5, lsr #32
    13bc:	087e1604 	ldmdaeq	lr!, {r2, r9, sl, ip}^
    13c0:	25050000 	strcs	r0, [r5, #-0]
    13c4:	00063c01 	andeq	r3, r6, r1, lsl #24
    13c8:	0f000800 	svceq	0x00000800
    13cc:	00060104 	andeq	r0, r6, r4, lsl #2
    13d0:	f5040f00 			; <UNDEFINED> instruction: 0xf5040f00
    13d4:	19000005 	stmdbne	r0, {r0, r2}
    13d8:	0000086c 	andeq	r0, r0, ip, ror #16
    13dc:	013d050e 	teqeq	sp, lr, lsl #10
    13e0:	00000677 	andeq	r0, r0, r7, ror r6
    13e4:	00086616 	andeq	r6, r8, r6, lsl r6
    13e8:	013e0500 	teqeq	lr, r0, lsl #10
    13ec:	00000677 	andeq	r0, r0, r7, ror r6
    13f0:	06fd1600 	ldrbteq	r1, [sp], r0, lsl #12
    13f4:	3f050000 	svccc	0x00050000
    13f8:	00067701 	andeq	r7, r6, r1, lsl #14
    13fc:	a3160600 	tstge	r6, #0, 12
    1400:	05000008 	streq	r0, [r0, #-8]
    1404:	00530140 	subseq	r0, r3, r0, asr #2
    1408:	000c0000 	andeq	r0, ip, r0
    140c:	00005308 	andeq	r5, r0, r8, lsl #6
    1410:	00068700 	andeq	r8, r6, r0, lsl #14
    1414:	00d20900 	sbcseq	r0, r2, r0, lsl #18
    1418:	00020000 	andeq	r0, r2, r0
    141c:	5805d01a 	stmdapl	r5, {r1, r3, r4, ip, lr, pc}
    1420:	00078802 	andeq	r8, r7, r2, lsl #16
    1424:	07dc1600 	ldrbeq	r1, [ip, r0, lsl #12]
    1428:	5a050000 	bpl	141430 <_Min_Stack_Size+0x141030>
    142c:	00003702 	andeq	r3, r0, r2, lsl #14
    1430:	59160000 	ldmdbpl	r6, {}	; <UNPREDICTABLE>
    1434:	05000008 	streq	r0, [r0, #-8]
    1438:	0555025b 	ldrbeq	r0, [r5, #-603]	; 0xfffffda5
    143c:	16040000 	strne	r0, [r4], -r0
    1440:	00000922 	andeq	r0, r0, r2, lsr #18
    1444:	88025c05 	stmdahi	r2, {r0, r2, sl, fp, ip, lr}
    1448:	08000007 	stmdaeq	r0, {r0, r1, r2}
    144c:	0005ee16 	andeq	lr, r5, r6, lsl lr
    1450:	025d0500 	subseq	r0, sp, #0, 10
    1454:	00000186 	andeq	r0, r0, r6, lsl #3
    1458:	07cd1624 	strbeq	r1, [sp, r4, lsr #12]
    145c:	5e050000 	cdppl	0, 0, cr0, cr5, cr0, {0}
    1460:	00002502 	andeq	r2, r0, r2, lsl #10
    1464:	d7164800 	ldrle	r4, [r6, -r0, lsl #16]
    1468:	05000008 	streq	r0, [r0, #-8]
    146c:	006f025f 	rsbeq	r0, pc, pc, asr r2	; <UNPREDICTABLE>
    1470:	16500000 	ldrbne	r0, [r0], -r0
    1474:	00000626 	andeq	r0, r0, r6, lsr #12
    1478:	42026005 	andmi	r6, r2, #5
    147c:	58000006 	stmdapl	r0, {r1, r2}
    1480:	00050216 	andeq	r0, r5, r6, lsl r2
    1484:	02610500 	rsbeq	r0, r1, #0, 10
    1488:	000000fa 	strdeq	r0, [r0], -sl
    148c:	07fb1668 	ldrbeq	r1, [fp, r8, ror #12]!
    1490:	62050000 	andvs	r0, r5, #0
    1494:	0000fa02 	andeq	pc, r0, r2, lsl #20
    1498:	b2167000 	andslt	r7, r6, #0
    149c:	05000008 	streq	r0, [r0, #-8]
    14a0:	00fa0263 	rscseq	r0, sl, r3, ror #4
    14a4:	16780000 	ldrbtne	r0, [r8], -r0
    14a8:	0000050f 	andeq	r0, r0, pc, lsl #10
    14ac:	98026405 	stmdals	r2, {r0, r2, sl, sp, lr}
    14b0:	80000007 	andhi	r0, r0, r7
    14b4:	00056116 	andeq	r6, r5, r6, lsl r1
    14b8:	02650500 	rsbeq	r0, r5, #0, 10
    14bc:	000007a8 	andeq	r0, r0, r8, lsr #15
    14c0:	066c1688 	strbteq	r1, [ip], -r8, lsl #13
    14c4:	66050000 	strvs	r0, [r5], -r0
    14c8:	00002502 	andeq	r2, r0, r2, lsl #10
    14cc:	8216a000 	andshi	sl, r6, #0
    14d0:	05000006 	streq	r0, [r0, #-6]
    14d4:	00fa0267 	rscseq	r0, sl, r7, ror #4
    14d8:	16a40000 	strtne	r0, [r4], r0
    14dc:	000007a2 	andeq	r0, r0, r2, lsr #15
    14e0:	fa026805 	blx	9b4fc <_Min_Stack_Size+0x9b0fc>
    14e4:	ac000000 	stcge	0, cr0, [r0], {-0}
    14e8:	00061516 	andeq	r1, r6, r6, lsl r5
    14ec:	02690500 	rsbeq	r0, r9, #0, 10
    14f0:	000000fa 	strdeq	r0, [r0], -sl
    14f4:	090016b4 	stmdbeq	r0, {r2, r4, r5, r7, r9, sl, ip}
    14f8:	6a050000 	bvs	141500 <_Min_Stack_Size+0x141100>
    14fc:	0000fa02 	andeq	pc, r0, r2, lsl #20
    1500:	6d16bc00 	ldcvs	12, cr11, [r6, #-0]
    1504:	05000005 	streq	r0, [r0, #-5]
    1508:	00fa026b 	rscseq	r0, sl, fp, ror #4
    150c:	16c40000 	strbne	r0, [r4], r0
    1510:	00000783 	andeq	r0, r0, r3, lsl #15
    1514:	25026c05 	strcs	r6, [r2, #-3077]	; 0xfffff3fb
    1518:	cc000000 	stcgt	0, cr0, [r0], {-0}
    151c:	055b0800 	ldrbeq	r0, [fp, #-2048]	; 0xfffff800
    1520:	07980000 	ldreq	r0, [r8, r0]
    1524:	d2090000 	andle	r0, r9, #0
    1528:	19000000 	stmdbne	r0, {}	; <UNPREDICTABLE>
    152c:	055b0800 	ldrbeq	r0, [fp, #-2048]	; 0xfffff800
    1530:	07a80000 	streq	r0, [r8, r0]!
    1534:	d2090000 	andle	r0, r9, #0
    1538:	07000000 	streq	r0, [r0, -r0]
    153c:	055b0800 	ldrbeq	r0, [fp, #-2048]	; 0xfffff800
    1540:	07b80000 	ldreq	r0, [r8, r0]!
    1544:	d2090000 	andle	r0, r9, #0
    1548:	17000000 	strne	r0, [r0, -r0]
    154c:	05f01a00 	ldrbeq	r1, [r0, #2560]!	; 0xa00
    1550:	07dc0271 			; <UNDEFINED> instruction: 0x07dc0271
    1554:	6d160000 	ldcvs	0, cr0, [r6, #-0]
    1558:	05000007 	streq	r0, [r0, #-7]
    155c:	07dc0274 			; <UNDEFINED> instruction: 0x07dc0274
    1560:	16000000 	strne	r0, [r0], -r0
    1564:	0000069a 	muleq	r0, sl, r6
    1568:	ec027505 	cfstr32	mvfx7, [r2], {5}
    156c:	78000007 	stmdavc	r0, {r0, r1, r2}
    1570:	02cf0800 	sbceq	r0, pc, #0, 16
    1574:	07ec0000 	strbeq	r0, [ip, r0]!
    1578:	d2090000 	andle	r0, r9, #0
    157c:	1d000000 	stcne	0, cr0, [r0, #-0]
    1580:	00370800 	eorseq	r0, r7, r0, lsl #16
    1584:	07fc0000 	ldrbeq	r0, [ip, r0]!
    1588:	d2090000 	andle	r0, r9, #0
    158c:	1d000000 	stcne	0, cr0, [r0, #-0]
    1590:	05f01b00 	ldrbeq	r1, [r0, #2816]!	; 0xb00
    1594:	081e0256 	ldmdaeq	lr, {r1, r2, r4, r6, r9}
    1598:	f91c0000 			; <UNDEFINED> instruction: 0xf91c0000
    159c:	05000008 	streq	r0, [r0, #-8]
    15a0:	0687026d 	streq	r0, [r7], sp, ror #4
    15a4:	f31c0000 	vhadd.u16	d0, d12, d0
    15a8:	05000007 	streq	r0, [r0, #-7]
    15ac:	07b80276 			; <UNDEFINED> instruction: 0x07b80276
    15b0:	08000000 	stmdaeq	r0, {}	; <UNPREDICTABLE>
    15b4:	0000055b 	andeq	r0, r0, fp, asr r5
    15b8:	0000082e 	andeq	r0, r0, lr, lsr #16
    15bc:	0000d209 	andeq	sp, r0, r9, lsl #4
    15c0:	1d001800 	stcne	8, cr1, [r0, #-0]
    15c4:	00000839 	andeq	r0, r0, r9, lsr r8
    15c8:	00041d14 	andeq	r1, r4, r4, lsl sp
    15cc:	040f0000 	streq	r0, [pc], #-0	; 15d4 <_Min_Stack_Size+0x11d4>
    15d0:	0000082e 	andeq	r0, r0, lr, lsr #16
    15d4:	0170040f 	cmneq	r0, pc, lsl #8
    15d8:	501d0000 	andspl	r0, sp, r0
    15dc:	14000008 	strne	r0, [r0], #-8
    15e0:	00000025 	andeq	r0, r0, r5, lsr #32
    15e4:	56040f00 	strpl	r0, [r4], -r0, lsl #30
    15e8:	0f000008 	svceq	0x00000008
    15ec:	00084504 	andeq	r4, r8, r4, lsl #10
    15f0:	05f50800 	ldrbeq	r0, [r5, #2048]!	; 0x800
    15f4:	086c0000 	stmdaeq	ip!, {}^	; <UNPREDICTABLE>
    15f8:	d2090000 	andle	r0, r9, #0
    15fc:	02000000 	andeq	r0, r0, #0
    1600:	02011e00 	andeq	r1, r1, #0, 28
    1604:	06010000 	streq	r0, [r1], -r0
    1608:	00088b05 	andeq	r8, r8, r5, lsl #22
    160c:	02661f00 	rsbeq	r1, r6, #0, 30
    1610:	1f000000 	svcne	0x00000000
    1614:	00000286 	andeq	r0, r0, r6, lsl #5
    1618:	02fc1f01 	rscseq	r1, ip, #1, 30
    161c:	00020000 	andeq	r0, r2, r0
    1620:	00027220 	andeq	r7, r2, r0, lsr #4
    1624:	25420100 	strbcs	r0, [r2, #-256]	; 0xffffff00
    1628:	f8000000 			; <UNDEFINED> instruction: 0xf8000000
    162c:	a408005a 	strge	r0, [r8], #-90	; 0xffffffa6
    1630:	01000000 	mrseq	r0, (UNDEF: 0)
    1634:	00090b9c 	muleq	r9, ip, fp
    1638:	03e32100 	mvneq	r2, #0, 2
    163c:	42010000 	andmi	r0, r1, #0
    1640:	00000025 	andeq	r0, r0, r5, lsr #32
    1644:	00000190 	muleq	r0, r0, r1
    1648:	006e6622 	rsbeq	r6, lr, r2, lsr #12
    164c:	02a34201 	adceq	r4, r3, #268435456	; 0x10000000
    1650:	01d20000 	bicseq	r0, r2, r0
    1654:	61220000 			; <UNDEFINED> instruction: 0x61220000
    1658:	01006772 	tsteq	r0, r2, ror r7
    165c:	00011042 	andeq	r1, r1, r2, asr #32
    1660:	00022a00 	andeq	r2, r2, r0, lsl #20
    1664:	00642200 	rsbeq	r2, r4, r0, lsl #4
    1668:	01104201 	tsteq	r0, r1, lsl #4
    166c:	02820000 	addeq	r0, r2, #0
    1670:	9d230000 	stcls	0, cr0, [r3, #-0]
    1674:	01000007 	tsteq	r0, r7
    1678:	00090b49 	andeq	r0, r9, r9, asr #22
    167c:	0002da00 	andeq	sp, r2, r0, lsl #20
    1680:	00702400 	rsbseq	r2, r0, r0, lsl #8
    1684:	028d4a01 	addeq	r4, sp, #4096	; 0x1000
    1688:	02fe0000 	rscseq	r0, lr, #0
    168c:	52250000 	eorpl	r0, r5, #0
    1690:	2208005b 	andcs	r0, r8, #91	; 0x5b
    1694:	26000009 	strcs	r0, [r0], -r9
    1698:	0a035001 	beq	d56a4 <_Min_Stack_Size+0xd52a4>
    169c:	00000190 	muleq	r0, r0, r1
    16a0:	01ff040f 	mvnseq	r0, pc, lsl #8
    16a4:	41270000 			; <UNDEFINED> instruction: 0x41270000
    16a8:	05000007 	streq	r0, [r0, #-7]
    16ac:	091d02fb 	ldmdbeq	sp, {r0, r1, r3, r4, r5, r6, r7, r9}
    16b0:	1d180000 	ldcne	0, cr0, [r8, #-0]
    16b4:	28000004 	stmdacs	r0, {r2}
    16b8:	0000069c 	muleq	r0, ip, r6
    16bc:	01106107 	tsteq	r0, r7, lsl #2
    16c0:	2c140000 	ldccs	0, cr0, [r4], {-0}
    16c4:	00000000 	andeq	r0, r0, r0
    16c8:	0009a500 	andeq	sl, r9, r0, lsl #10
    16cc:	85000400 	strhi	r0, [r0, #-1024]	; 0xfffffc00
    16d0:	04000006 	streq	r0, [r0], #-6
    16d4:	00030f01 	andeq	r0, r3, r1, lsl #30
    16d8:	09740100 	ldmdbeq	r4!, {r8}^
    16dc:	02920000 	addseq	r0, r2, #0
    16e0:	00680000 	rsbeq	r0, r8, r0
    16e4:	00000000 	andeq	r0, r0, r0
    16e8:	05cf0000 	strbeq	r0, [pc]	; 16f0 <_Min_Stack_Size+0x12f0>
    16ec:	04020000 	streq	r0, [r2], #-0
    16f0:	00024b07 	andeq	r4, r2, r7, lsl #22
    16f4:	05040300 	streq	r0, [r4, #-768]	; 0xfffffd00
    16f8:	00746e69 	rsbseq	r6, r4, r9, ror #28
    16fc:	5a060102 	bpl	181b0c <_Min_Stack_Size+0x18170c>
    1700:	02000002 	andeq	r0, r0, #2
    1704:	02580801 	subseq	r0, r8, #65536	; 0x10000
    1708:	02020000 	andeq	r0, r2, #0
    170c:	00030505 	andeq	r0, r3, r5, lsl #10
    1710:	07020200 	streq	r0, [r2, -r0, lsl #4]
    1714:	000001ee 	andeq	r0, r0, lr, ror #3
    1718:	e5050402 	str	r0, [r5, #-1026]	; 0xfffffbfe
    171c:	02000001 	andeq	r0, r0, #1
    1720:	02460704 	subeq	r0, r6, #4, 14	; 0x100000
    1724:	08020000 	stmdaeq	r2, {}	; <UNPREDICTABLE>
    1728:	0001e005 	andeq	lr, r1, r5
    172c:	07080200 	streq	r0, [r8, -r0, lsl #4]
    1730:	00000241 	andeq	r0, r0, r1, asr #4
    1734:	00064c04 	andeq	r4, r6, r4, lsl #24
    1738:	2c070200 	sfmcs	f0, 4, [r7], {-0}
    173c:	04000000 	streq	r0, [r0], #-0
    1740:	00000525 	andeq	r0, r0, r5, lsr #10
    1744:	004f1003 	subeq	r1, pc, r3
    1748:	29040000 	stmdbcs	r4, {}	; <UNPREDICTABLE>
    174c:	03000007 	movweq	r0, #7
    1750:	00004f27 	andeq	r4, r0, r7, lsr #30
    1754:	08090500 	stmdaeq	r9, {r8, sl}
    1758:	61040000 	mrsvs	r0, (UNDEF: 4)
    175c:	00002501 	andeq	r2, r0, r1, lsl #10
    1760:	03040600 	movweq	r0, #17920	; 0x4600
    1764:	0000b74a 	andeq	fp, r0, sl, asr #14
    1768:	052c0700 	streq	r0, [ip, #-1792]!	; 0xfffff900
    176c:	4c030000 	stcmi	0, cr0, [r3], {-0}
    1770:	0000008c 	andeq	r0, r0, ip, lsl #1
    1774:	00077c07 	andeq	r7, r7, r7, lsl #24
    1778:	b74d0300 	strblt	r0, [sp, -r0, lsl #6]
    177c:	00000000 	andeq	r0, r0, r0
    1780:	00003a08 	andeq	r3, r0, r8, lsl #20
    1784:	0000c700 	andeq	ip, r0, r0, lsl #14
    1788:	00c70900 	sbceq	r0, r7, r0, lsl #18
    178c:	00030000 	andeq	r0, r3, r0
    1790:	df070402 	svcle	0x00070402
    1794:	0a000003 	beq	17a8 <_Min_Stack_Size+0x13a8>
    1798:	ef470308 	svc	0x00470308
    179c:	0b000000 	bleq	17a4 <_Min_Stack_Size+0x13a4>
    17a0:	000005fd 	strdeq	r0, [r0], -sp
    17a4:	002c4903 	eoreq	r4, ip, r3, lsl #18
    17a8:	0b000000 	bleq	17b0 <_Min_Stack_Size+0x13b0>
    17ac:	0000053b 	andeq	r0, r0, fp, lsr r5
    17b0:	00984e03 	addseq	r4, r8, r3, lsl #28
    17b4:	00040000 	andeq	r0, r4, r0
    17b8:	00083404 	andeq	r3, r8, r4, lsl #8
    17bc:	ce4f0300 	cdpgt	3, 4, cr0, cr15, cr0, {0}
    17c0:	04000000 	streq	r0, [r0], #-0
    17c4:	00000738 	andeq	r0, r0, r8, lsr r7
    17c8:	006b5303 	rsbeq	r5, fp, r3, lsl #6
    17cc:	040c0000 	streq	r0, [ip], #-0
    17d0:	00088404 	andeq	r8, r8, r4, lsl #8
    17d4:	56160500 	ldrpl	r0, [r6], -r0, lsl #10
    17d8:	0d000000 	stceq	0, cr0, [r0, #-0]
    17dc:	0000083f 	andeq	r0, r0, pc, lsr r8
    17e0:	652d0518 	strvs	r0, [sp, #-1304]!	; 0xfffffae8
    17e4:	0b000001 	bleq	17f0 <_Min_Stack_Size+0x13f0>
    17e8:	000008dc 	ldrdeq	r0, [r0], -ip
    17ec:	01652f05 	cmneq	r5, r5, lsl #30
    17f0:	0e000000 	cdpeq	0, 0, cr0, cr0, cr0, {0}
    17f4:	05006b5f 	streq	r6, [r0, #-2911]	; 0xfffff4a1
    17f8:	00002c30 	andeq	r2, r0, r0, lsr ip
    17fc:	470b0400 	strmi	r0, [fp, -r0, lsl #8]
    1800:	05000008 	streq	r0, [r0, #-8]
    1804:	00002c30 	andeq	r2, r0, r0, lsr ip
    1808:	d10b0800 	tstle	fp, r0, lsl #16
    180c:	05000008 	streq	r0, [r0, #-8]
    1810:	00002c30 	andeq	r2, r0, r0, lsr ip
    1814:	e90b0c00 	stmdb	fp, {sl, fp}
    1818:	05000007 	streq	r0, [r0, #-7]
    181c:	00002c30 	andeq	r2, r0, r0, lsr ip
    1820:	5f0e1000 	svcpl	0x000e1000
    1824:	31050078 	tstcc	r5, r8, ror r0
    1828:	0000016b 	andeq	r0, r0, fp, ror #2
    182c:	040f0014 	streq	r0, [pc], #-20	; 1834 <_Min_Stack_Size+0x1434>
    1830:	00000112 	andeq	r0, r0, r2, lsl r1
    1834:	00010708 	andeq	r0, r1, r8, lsl #14
    1838:	00017b00 	andeq	r7, r1, r0, lsl #22
    183c:	00c70900 	sbceq	r0, r7, r0, lsl #18
    1840:	00000000 	andeq	r0, r0, r0
    1844:	0007ee0d 	andeq	lr, r7, sp, lsl #28
    1848:	35052400 	strcc	r2, [r5, #-1024]	; 0xfffffc00
    184c:	000001f4 	strdeq	r0, [r0], -r4
    1850:	0007540b 	andeq	r5, r7, fp, lsl #8
    1854:	2c370500 	cfldr32cs	mvfx0, [r7], #-0
    1858:	00000000 	andeq	r0, r0, r0
    185c:	0006790b 	andeq	r7, r6, fp, lsl #18
    1860:	2c380500 	cfldr32cs	mvfx0, [r8], #-0
    1864:	04000000 	streq	r0, [r0], #-0
    1868:	00075d0b 	andeq	r5, r7, fp, lsl #26
    186c:	2c390500 	cfldr32cs	mvfx0, [r9], #-0
    1870:	08000000 	stmdaeq	r0, {}	; <UNPREDICTABLE>
    1874:	0006050b 	andeq	r0, r6, fp, lsl #10
    1878:	2c3a0500 	cfldr32cs	mvfx0, [sl], #-0
    187c:	0c000000 	stceq	0, cr0, [r0], {-0}
    1880:	00089a0b 	andeq	r9, r8, fp, lsl #20
    1884:	2c3b0500 	cfldr32cs	mvfx0, [fp], #-0
    1888:	10000000 	andne	r0, r0, r0
    188c:	00084f0b 	andeq	r4, r8, fp, lsl #30
    1890:	2c3c0500 	cfldr32cs	mvfx0, [ip], #-0
    1894:	14000000 	strne	r0, [r0], #-0
    1898:	0006bb0b 	andeq	fp, r6, fp, lsl #22
    189c:	2c3d0500 	cfldr32cs	mvfx0, [sp], #-0
    18a0:	18000000 	stmdane	r0, {}	; <UNPREDICTABLE>
    18a4:	0008740b 	andeq	r7, r8, fp, lsl #8
    18a8:	2c3e0500 	cfldr32cs	mvfx0, [lr], #-0
    18ac:	1c000000 	stcne	0, cr0, [r0], {-0}
    18b0:	0007030b 	andeq	r0, r7, fp, lsl #6
    18b4:	2c3f0500 	cfldr32cs	mvfx0, [pc], #-0	; 18bc <_Min_Stack_Size+0x14bc>
    18b8:	20000000 	andcs	r0, r0, r0
    18bc:	07941000 	ldreq	r1, [r4, r0]
    18c0:	01080000 	mrseq	r0, (UNDEF: 8)
    18c4:	02344805 	eorseq	r4, r4, #327680	; 0x50000
    18c8:	c50b0000 	strgt	r0, [fp, #-0]
    18cc:	05000006 	streq	r0, [r0, #-6]
    18d0:	00023449 	andeq	r3, r2, r9, asr #8
    18d4:	c00b0000 	andgt	r0, fp, r0
    18d8:	05000008 	streq	r0, [r0, #-8]
    18dc:	0002344a 	andeq	r3, r2, sl, asr #8
    18e0:	20118000 	andscs	r8, r1, r0
    18e4:	05000007 	streq	r0, [r0, #-7]
    18e8:	0001074c 	andeq	r0, r1, ip, asr #14
    18ec:	11010000 	mrsne	r0, (UNDEF: 1)
    18f0:	00000822 	andeq	r0, r0, r2, lsr #16
    18f4:	01074f05 	tsteq	r7, r5, lsl #30
    18f8:	01040000 	mrseq	r0, (UNDEF: 4)
    18fc:	01050800 	tsteq	r5, r0, lsl #16
    1900:	02440000 	subeq	r0, r4, #0
    1904:	c7090000 	strgt	r0, [r9, -r0]
    1908:	1f000000 	svcne	0x00000000
    190c:	01d11000 	bicseq	r1, r1, r0
    1910:	01900000 	orrseq	r0, r0, r0
    1914:	02825b05 	addeq	r5, r2, #5120	; 0x1400
    1918:	dc0b0000 	stcle	0, cr0, [fp], {-0}
    191c:	05000008 	streq	r0, [r0, #-8]
    1920:	0002825c 	andeq	r8, r2, ip, asr r2
    1924:	ad0b0000 	stcge	0, cr0, [fp, #-0]
    1928:	05000008 	streq	r0, [r0, #-8]
    192c:	00002c5d 	andeq	r2, r0, sp, asr ip
    1930:	ad0b0400 	cfstrsge	mvf0, [fp, #-0]
    1934:	05000006 	streq	r0, [r0, #-6]
    1938:	0002885f 	andeq	r8, r2, pc, asr r8
    193c:	940b0800 	strls	r0, [fp], #-2048	; 0xfffff800
    1940:	05000007 	streq	r0, [r0, #-7]
    1944:	0001f460 	andeq	pc, r1, r0, ror #8
    1948:	0f008800 	svceq	0x00008800
    194c:	00024404 	andeq	r4, r2, r4, lsl #8
    1950:	02980800 	addseq	r0, r8, #0, 16
    1954:	02980000 	addseq	r0, r8, #0
    1958:	c7090000 	strgt	r0, [r9, -r0]
    195c:	1f000000 	svcne	0x00000000
    1960:	9e040f00 	cdpls	15, 0, cr0, cr4, cr0, {0}
    1964:	12000002 	andne	r0, r0, #2
    1968:	0005430d 	andeq	r4, r5, sp, lsl #6
    196c:	73050800 	movwvc	r0, #22528	; 0x5800
    1970:	000002c4 	andeq	r0, r0, r4, asr #5
    1974:	0007c10b 	andeq	ip, r7, fp, lsl #2
    1978:	c4740500 	ldrbtgt	r0, [r4], #-1280	; 0xfffffb00
    197c:	00000002 	andeq	r0, r0, r2
    1980:	00091c0b 	andeq	r1, r9, fp, lsl #24
    1984:	2c750500 	cfldr64cs	mvdx0, [r5], #-0
    1988:	04000000 	streq	r0, [r0], #-0
    198c:	3a040f00 	bcc	105594 <_Min_Stack_Size+0x105194>
    1990:	0d000000 	stceq	0, cr0, [r0, #-0]
    1994:	0000092f 	andeq	r0, r0, pc, lsr #18
    1998:	f4b30568 			; <UNDEFINED> instruction: 0xf4b30568
    199c:	0e000003 	cdpeq	0, 0, cr0, cr0, cr3, {0}
    19a0:	0500705f 	streq	r7, [r0, #-95]	; 0xffffffa1
    19a4:	0002c4b4 			; <UNDEFINED> instruction: 0x0002c4b4
    19a8:	5f0e0000 	svcpl	0x000e0000
    19ac:	b5050072 	strlt	r0, [r5, #-114]	; 0xffffff8e
    19b0:	0000002c 	andeq	r0, r0, ip, lsr #32
    19b4:	775f0e04 	ldrbvc	r0, [pc, -r4, lsl #28]
    19b8:	2cb60500 	cfldr32cs	mvfx0, [r6]
    19bc:	08000000 	stmdaeq	r0, {}	; <UNPREDICTABLE>
    19c0:	00090f0b 	andeq	r0, r9, fp, lsl #30
    19c4:	41b70500 			; <UNDEFINED> instruction: 0x41b70500
    19c8:	0c000000 	stceq	0, cr0, [r0], {-0}
    19cc:	0007c70b 	andeq	ip, r7, fp, lsl #14
    19d0:	41b80500 			; <UNDEFINED> instruction: 0x41b80500
    19d4:	0e000000 	cdpeq	0, 0, cr0, cr0, cr0, {0}
    19d8:	66625f0e 	strbtvs	r5, [r2], -lr, lsl #30
    19dc:	9fb90500 	svcls	0x00b90500
    19e0:	10000002 	andne	r0, r0, r2
    19e4:	0005320b 	andeq	r3, r5, fp, lsl #4
    19e8:	2cba0500 	cfldr32cs	mvfx0, [sl]
    19ec:	18000000 	stmdane	r0, {}	; <UNPREDICTABLE>
    19f0:	0007b90b 	andeq	fp, r7, fp, lsl #18
    19f4:	05c10500 	strbeq	r0, [r1, #1280]	; 0x500
    19f8:	1c000001 	stcne	0, cr0, [r0], {1}
    19fc:	0007670b 	andeq	r6, r7, fp, lsl #14
    1a00:	57c30500 	strbpl	r0, [r3, r0, lsl #10]
    1a04:	20000005 	andcs	r0, r0, r5
    1a08:	0005e70b 	andeq	lr, r5, fp, lsl #14
    1a0c:	86c50500 	strbhi	r0, [r5], r0, lsl #10
    1a10:	24000005 	strcs	r0, [r0], #-5
    1a14:	00088c0b 	andeq	r8, r8, fp, lsl #24
    1a18:	aac80500 	bge	ff202e20 <_estack+0xdf1b2e21>
    1a1c:	28000005 	stmdacs	r0, {r0, r2}
    1a20:	0007310b 	andeq	r3, r7, fp, lsl #2
    1a24:	c4c90500 	strbgt	r0, [r9], #1280	; 0x500
    1a28:	2c000005 	stccs	0, cr0, [r0], {5}
    1a2c:	62755f0e 	rsbsvs	r5, r5, #14, 30	; 0x38
    1a30:	9fcc0500 	svcls	0x00cc0500
    1a34:	30000002 	andcc	r0, r0, r2
    1a38:	70755f0e 	rsbsvc	r5, r5, lr, lsl #30
    1a3c:	c4cd0500 	strbgt	r0, [sp], #1280	; 0x500
    1a40:	38000002 	stmdacc	r0, {r1}
    1a44:	72755f0e 	rsbsvc	r5, r5, #14, 30	; 0x38
    1a48:	2cce0500 	cfstr64cs	mvdx0, [lr], {0}
    1a4c:	3c000000 	stccc	0, cr0, [r0], {-0}
    1a50:	0009160b 	andeq	r1, r9, fp, lsl #12
    1a54:	cad10500 	bgt	ff442e5c <_estack+0xdf3f2e5d>
    1a58:	40000005 	andmi	r0, r0, r5
    1a5c:	0006460b 	andeq	r4, r6, fp, lsl #12
    1a60:	dad20500 	ble	ff482e68 <_estack+0xdf432e69>
    1a64:	43000005 	movwmi	r0, #5
    1a68:	626c5f0e 	rsbvs	r5, ip, #14, 30	; 0x38
    1a6c:	9fd50500 	svcls	0x00d50500
    1a70:	44000002 	strmi	r0, [r0], #-2
    1a74:	0007170b 	andeq	r1, r7, fp, lsl #14
    1a78:	2cd80500 	cfldr64cs	mvdx0, [r8], {0}
    1a7c:	4c000000 	stcmi	0, cr0, [r0], {-0}
    1a80:	0005540b 	andeq	r5, r5, fp, lsl #8
    1a84:	76d90500 	ldrbvc	r0, [r9], r0, lsl #10
    1a88:	50000000 	andpl	r0, r0, r0
    1a8c:	00051f0b 	andeq	r1, r5, fp, lsl #30
    1a90:	12dc0500 	sbcsne	r0, ip, #0, 10
    1a94:	54000004 	strpl	r0, [r0], #-4
    1a98:	0009ed0b 	andeq	lr, r9, fp, lsl #26
    1a9c:	fae00500 	blx	ff802ea4 <_estack+0xdf7b2ea5>
    1aa0:	58000000 	stmdapl	r0, {}	; <UNPREDICTABLE>
    1aa4:	0006b20b 	andeq	fp, r6, fp, lsl #4
    1aa8:	efe20500 	svc	0x00e20500
    1aac:	5c000000 	stcpl	0, cr0, [r0], {-0}
    1ab0:	0004fa0b 	andeq	pc, r4, fp, lsl #20
    1ab4:	2ce30500 	cfstr64cs	mvdx0, [r3]
    1ab8:	64000000 	strvs	r0, [r0], #-0
    1abc:	002c1300 	eoreq	r1, ip, r0, lsl #6
    1ac0:	04120000 	ldreq	r0, [r2], #-0
    1ac4:	12140000 	andsne	r0, r4, #0
    1ac8:	14000004 	strne	r0, [r0], #-4
    1acc:	00000105 	andeq	r0, r0, r5, lsl #2
    1ad0:	00054a14 	andeq	r4, r5, r4, lsl sl
    1ad4:	002c1400 	eoreq	r1, ip, r0, lsl #8
    1ad8:	0f000000 	svceq	0x00000000
    1adc:	00041804 	andeq	r1, r4, r4, lsl #16
    1ae0:	08f91500 	ldmeq	r9!, {r8, sl, ip}^
    1ae4:	04280000 	strteq	r0, [r8], #-0
    1ae8:	4a023905 	bmi	8ff04 <_Min_Stack_Size+0x8fb04>
    1aec:	16000005 	strne	r0, [r0], -r5
    1af0:	00000785 	andeq	r0, r0, r5, lsl #15
    1af4:	2c023b05 	stccs	11, cr3, [r2], {5}
    1af8:	00000000 	andeq	r0, r0, r0
    1afc:	0008e216 	andeq	lr, r8, r6, lsl r2
    1b00:	02400500 	subeq	r0, r0, #0, 10
    1b04:	00000631 	andeq	r0, r0, r1, lsr r6
    1b08:	062b1604 	strteq	r1, [fp], -r4, lsl #12
    1b0c:	40050000 	andmi	r0, r5, r0
    1b10:	00063102 	andeq	r3, r6, r2, lsl #2
    1b14:	74160800 	ldrvc	r0, [r6], #-2048	; 0xfffff800
    1b18:	05000007 	streq	r0, [r0, #-7]
    1b1c:	06310240 	ldrteq	r0, [r1], -r0, asr #4
    1b20:	160c0000 	strne	r0, [ip], -r0
    1b24:	000008a8 	andeq	r0, r0, r8, lsr #17
    1b28:	2c024205 	sfmcs	f4, 4, [r2], {5}
    1b2c:	10000000 	andne	r0, r0, r0
    1b30:	00063316 	andeq	r3, r6, r6, lsl r3
    1b34:	02430500 	subeq	r0, r3, #0, 10
    1b38:	00000813 	andeq	r0, r0, r3, lsl r8
    1b3c:	08101614 	ldmdaeq	r0, {r2, r4, r9, sl, ip}
    1b40:	45050000 	strmi	r0, [r5, #-0]
    1b44:	00002c02 	andeq	r2, r0, r2, lsl #24
    1b48:	e9163000 	ldmdb	r6, {ip, sp}
    1b4c:	05000008 	streq	r0, [r0, #-8]
    1b50:	057b0246 	ldrbeq	r0, [fp, #-582]!	; 0xfffffdba
    1b54:	16340000 	ldrtne	r0, [r4], -r0
    1b58:	000004ef 	andeq	r0, r0, pc, ror #9
    1b5c:	2c024805 	stccs	8, cr4, [r2], {5}
    1b60:	38000000 	stmdacc	r0, {}	; <UNPREDICTABLE>
    1b64:	00082a16 	andeq	r2, r8, r6, lsl sl
    1b68:	024a0500 	subeq	r0, sl, #0, 10
    1b6c:	0000082e 	andeq	r0, r0, lr, lsr #16
    1b70:	0892163c 	ldmeq	r2, {r2, r3, r4, r5, r9, sl, ip}
    1b74:	4d050000 	stcmi	0, cr0, [r5, #-0]
    1b78:	00016502 	andeq	r6, r1, r2, lsl #10
    1b7c:	4a164000 	bmi	591b84 <_Min_Stack_Size+0x591784>
    1b80:	05000005 	streq	r0, [r0, #-5]
    1b84:	002c024e 	eoreq	r0, ip, lr, asr #4
    1b88:	16440000 	strbne	r0, [r4], -r0
    1b8c:	000008cc 	andeq	r0, r0, ip, asr #17
    1b90:	65024f05 	strvs	r4, [r2, #-3845]	; 0xfffff0fb
    1b94:	48000001 	stmdami	r0, {r0}
    1b98:	0006a316 	andeq	sl, r6, r6, lsl r3
    1b9c:	02500500 	subseq	r0, r0, #0, 10
    1ba0:	00000834 	andeq	r0, r0, r4, lsr r8
    1ba4:	063e164c 	ldrteq	r1, [lr], -ip, asr #12
    1ba8:	53050000 	movwpl	r0, #20480	; 0x5000
    1bac:	00002c02 	andeq	r2, r0, r2, lsl #24
    1bb0:	b1165000 	tstlt	r6, r0
    1bb4:	05000007 	streq	r0, [r0, #-7]
    1bb8:	054a0254 	strbeq	r0, [sl, #-596]	; 0xfffffdac
    1bbc:	16540000 	ldrbne	r0, [r4], -r0
    1bc0:	00000937 	andeq	r0, r0, r7, lsr r9
    1bc4:	f1027705 			; <UNDEFINED> instruction: 0xf1027705
    1bc8:	58000007 	stmdapl	r0, {r0, r1, r2}
    1bcc:	0001d117 	andeq	sp, r1, r7, lsl r1
    1bd0:	027b0500 	rsbseq	r0, fp, #0, 10
    1bd4:	00000282 	andeq	r0, r0, r2, lsl #5
    1bd8:	0e170148 	mufeqsm	f0, f7, #0.0
    1bdc:	05000007 	streq	r0, [r0, #-7]
    1be0:	0244027c 	subeq	r0, r4, #124, 4	; 0xc0000007
    1be4:	014c0000 	mrseq	r0, (UNDEF: 76)
    1be8:	00069017 	andeq	r9, r6, r7, lsl r0
    1bec:	02800500 	addeq	r0, r0, #0, 10
    1bf0:	00000845 	andeq	r0, r0, r5, asr #16
    1bf4:	8c1702dc 	lfmhi	f0, 4, [r7], {220}	; 0xdc
    1bf8:	05000007 	streq	r0, [r0, #-7]
    1bfc:	05f60285 	ldrbeq	r0, [r6, #645]!	; 0x285
    1c00:	02e00000 	rsceq	r0, r0, #0
    1c04:	00055c17 	andeq	r5, r5, r7, lsl ip
    1c08:	02860500 	addeq	r0, r6, #0, 10
    1c0c:	00000851 	andeq	r0, r0, r1, asr r8
    1c10:	0f0002ec 	svceq	0x000002ec
    1c14:	00055004 	andeq	r5, r5, r4
    1c18:	08010200 	stmdaeq	r1, {r9}
    1c1c:	00000261 	andeq	r0, r0, r1, ror #4
    1c20:	03f4040f 	mvnseq	r0, #251658240	; 0xf000000
    1c24:	2c130000 	ldccs	0, cr0, [r3], {-0}
    1c28:	7b000000 	blvc	1c30 <_Min_Stack_Size+0x1830>
    1c2c:	14000005 	strne	r0, [r0], #-5
    1c30:	00000412 	andeq	r0, r0, r2, lsl r4
    1c34:	00010514 	andeq	r0, r1, r4, lsl r5
    1c38:	057b1400 	ldrbeq	r1, [fp, #-1024]!	; 0xfffffc00
    1c3c:	2c140000 	ldccs	0, cr0, [r4], {-0}
    1c40:	00000000 	andeq	r0, r0, r0
    1c44:	0581040f 	streq	r0, [r1, #1039]	; 0x40f
    1c48:	50180000 	andspl	r0, r8, r0
    1c4c:	0f000005 	svceq	0x00000005
    1c50:	00055d04 	andeq	r5, r5, r4, lsl #26
    1c54:	00811300 	addeq	r1, r1, r0, lsl #6
    1c58:	05aa0000 	streq	r0, [sl, #0]!
    1c5c:	12140000 	andsne	r0, r4, #0
    1c60:	14000004 	strne	r0, [r0], #-4
    1c64:	00000105 	andeq	r0, r0, r5, lsl #2
    1c68:	00008114 	andeq	r8, r0, r4, lsl r1
    1c6c:	002c1400 	eoreq	r1, ip, r0, lsl #8
    1c70:	0f000000 	svceq	0x00000000
    1c74:	00058c04 	andeq	r8, r5, r4, lsl #24
    1c78:	002c1300 	eoreq	r1, ip, r0, lsl #6
    1c7c:	05c40000 	strbeq	r0, [r4]
    1c80:	12140000 	andsne	r0, r4, #0
    1c84:	14000004 	strne	r0, [r0], #-4
    1c88:	00000105 	andeq	r0, r0, r5, lsl #2
    1c8c:	b0040f00 	andlt	r0, r4, r0, lsl #30
    1c90:	08000005 	stmdaeq	r0, {r0, r2}
    1c94:	0000003a 	andeq	r0, r0, sl, lsr r0
    1c98:	000005da 	ldrdeq	r0, [r0], -sl
    1c9c:	0000c709 	andeq	ip, r0, r9, lsl #14
    1ca0:	08000200 	stmdaeq	r0, {r9}
    1ca4:	0000003a 	andeq	r0, r0, sl, lsr r0
    1ca8:	000005ea 	andeq	r0, r0, sl, ror #11
    1cac:	0000c709 	andeq	ip, r0, r9, lsl #14
    1cb0:	05000000 	streq	r0, [r0, #-0]
    1cb4:	00000665 	andeq	r0, r0, r5, ror #12
    1cb8:	ca011d05 	bgt	490d4 <_Min_Stack_Size+0x48cd4>
    1cbc:	19000002 	stmdbne	r0, {r1}
    1cc0:	0000060f 	andeq	r0, r0, pc, lsl #12
    1cc4:	0121050c 			; <UNDEFINED> instruction: 0x0121050c
    1cc8:	0000062b 	andeq	r0, r0, fp, lsr #12
    1ccc:	0008dc16 	andeq	sp, r8, r6, lsl ip
    1cd0:	01230500 			; <UNDEFINED> instruction: 0x01230500
    1cd4:	0000062b 	andeq	r0, r0, fp, lsr #12
    1cd8:	065e1600 	ldrbeq	r1, [lr], -r0, lsl #12
    1cdc:	24050000 	strcs	r0, [r5], #-0
    1ce0:	00002c01 	andeq	r2, r0, r1, lsl #24
    1ce4:	7e160400 	cfmulsvc	mvf0, mvf6, mvf0
    1ce8:	05000008 	streq	r0, [r0, #-8]
    1cec:	06310125 	ldrteq	r0, [r1], -r5, lsr #2
    1cf0:	00080000 	andeq	r0, r8, r0
    1cf4:	05f6040f 	ldrbeq	r0, [r6, #1039]!	; 0x40f
    1cf8:	040f0000 	streq	r0, [pc], #-0	; 1d00 <_Min_Stack_Size+0x1900>
    1cfc:	000005ea 	andeq	r0, r0, sl, ror #11
    1d00:	00086c19 	andeq	r6, r8, r9, lsl ip
    1d04:	3d050e00 	stccc	14, cr0, [r5, #-0]
    1d08:	00066c01 	andeq	r6, r6, r1, lsl #24
    1d0c:	08661600 	stmdaeq	r6!, {r9, sl, ip}^
    1d10:	3e050000 	cdpcc	0, 0, cr0, cr5, cr0, {0}
    1d14:	00066c01 	andeq	r6, r6, r1, lsl #24
    1d18:	fd160000 	ldc2	0, cr0, [r6, #-0]
    1d1c:	05000006 	streq	r0, [r0, #-6]
    1d20:	066c013f 			; <UNDEFINED> instruction: 0x066c013f
    1d24:	16060000 	strne	r0, [r6], -r0
    1d28:	000008a3 	andeq	r0, r0, r3, lsr #17
    1d2c:	48014005 	stmdami	r1, {r0, r2, lr}
    1d30:	0c000000 	stceq	0, cr0, [r0], {-0}
    1d34:	00480800 	subeq	r0, r8, r0, lsl #16
    1d38:	067c0000 	ldrbteq	r0, [ip], -r0
    1d3c:	c7090000 	strgt	r0, [r9, -r0]
    1d40:	02000000 	andeq	r0, r0, #0
    1d44:	05d01a00 	ldrbeq	r1, [r0, #2560]	; 0xa00
    1d48:	077d0258 			; <UNDEFINED> instruction: 0x077d0258
    1d4c:	dc160000 	ldcle	0, cr0, [r6], {-0}
    1d50:	05000007 	streq	r0, [r0, #-7]
    1d54:	0025025a 	eoreq	r0, r5, sl, asr r2
    1d58:	16000000 	strne	r0, [r0], -r0
    1d5c:	00000859 	andeq	r0, r0, r9, asr r8
    1d60:	4a025b05 	bmi	9897c <_Min_Stack_Size+0x9857c>
    1d64:	04000005 	streq	r0, [r0], #-5
    1d68:	00092216 	andeq	r2, r9, r6, lsl r2
    1d6c:	025c0500 	subseq	r0, ip, #0, 10
    1d70:	0000077d 	andeq	r0, r0, sp, ror r7
    1d74:	05ee1608 	strbeq	r1, [lr, #1544]!	; 0x608
    1d78:	5d050000 	stcpl	0, cr0, [r5, #-0]
    1d7c:	00017b02 	andeq	r7, r1, r2, lsl #22
    1d80:	cd162400 	cfldrsgt	mvf2, [r6, #-0]
    1d84:	05000007 	streq	r0, [r0, #-7]
    1d88:	002c025e 	eoreq	r0, ip, lr, asr r2
    1d8c:	16480000 	strbne	r0, [r8], -r0
    1d90:	000008d7 	ldrdeq	r0, [r0], -r7
    1d94:	64025f05 	strvs	r5, [r2], #-3845	; 0xfffff0fb
    1d98:	50000000 	andpl	r0, r0, r0
    1d9c:	00062616 	andeq	r2, r6, r6, lsl r6
    1da0:	02600500 	rsbeq	r0, r0, #0, 10
    1da4:	00000637 	andeq	r0, r0, r7, lsr r6
    1da8:	05021658 	streq	r1, [r2, #-1624]	; 0xfffff9a8
    1dac:	61050000 	mrsvs	r0, (UNDEF: 5)
    1db0:	0000ef02 	andeq	lr, r0, r2, lsl #30
    1db4:	fb166800 	blx	59bdbe <_Min_Stack_Size+0x59b9be>
    1db8:	05000007 	streq	r0, [r0, #-7]
    1dbc:	00ef0262 	rsceq	r0, pc, r2, ror #4
    1dc0:	16700000 	ldrbtne	r0, [r0], -r0
    1dc4:	000008b2 			; <UNDEFINED> instruction: 0x000008b2
    1dc8:	ef026305 	svc	0x00026305
    1dcc:	78000000 	stmdavc	r0, {}	; <UNPREDICTABLE>
    1dd0:	00050f16 	andeq	r0, r5, r6, lsl pc
    1dd4:	02640500 	rsbeq	r0, r4, #0, 10
    1dd8:	0000078d 	andeq	r0, r0, sp, lsl #15
    1ddc:	05611680 	strbeq	r1, [r1, #-1664]!	; 0xfffff980
    1de0:	65050000 	strvs	r0, [r5, #-0]
    1de4:	00079d02 	andeq	r9, r7, r2, lsl #26
    1de8:	6c168800 	ldcvs	8, cr8, [r6], {-0}
    1dec:	05000006 	streq	r0, [r0, #-6]
    1df0:	002c0266 	eoreq	r0, ip, r6, ror #4
    1df4:	16a00000 	strtne	r0, [r0], r0
    1df8:	00000682 	andeq	r0, r0, r2, lsl #13
    1dfc:	ef026705 	svc	0x00026705
    1e00:	a4000000 	strge	r0, [r0], #-0
    1e04:	0007a216 	andeq	sl, r7, r6, lsl r2
    1e08:	02680500 	rsbeq	r0, r8, #0, 10
    1e0c:	000000ef 	andeq	r0, r0, pc, ror #1
    1e10:	061516ac 	ldreq	r1, [r5], -ip, lsr #13
    1e14:	69050000 	stmdbvs	r5, {}	; <UNPREDICTABLE>
    1e18:	0000ef02 	andeq	lr, r0, r2, lsl #30
    1e1c:	0016b400 	andseq	fp, r6, r0, lsl #8
    1e20:	05000009 	streq	r0, [r0, #-9]
    1e24:	00ef026a 	rsceq	r0, pc, sl, ror #4
    1e28:	16bc0000 	ldrtne	r0, [ip], r0
    1e2c:	0000056d 	andeq	r0, r0, sp, ror #10
    1e30:	ef026b05 	svc	0x00026b05
    1e34:	c4000000 	strgt	r0, [r0], #-0
    1e38:	00078316 	andeq	r8, r7, r6, lsl r3
    1e3c:	026c0500 	rsbeq	r0, ip, #0, 10
    1e40:	0000002c 	andeq	r0, r0, ip, lsr #32
    1e44:	500800cc 	andpl	r0, r8, ip, asr #1
    1e48:	8d000005 	stchi	0, cr0, [r0, #-20]	; 0xffffffec
    1e4c:	09000007 	stmdbeq	r0, {r0, r1, r2}
    1e50:	000000c7 	andeq	r0, r0, r7, asr #1
    1e54:	50080019 	andpl	r0, r8, r9, lsl r0
    1e58:	9d000005 	stcls	0, cr0, [r0, #-20]	; 0xffffffec
    1e5c:	09000007 	stmdbeq	r0, {r0, r1, r2}
    1e60:	000000c7 	andeq	r0, r0, r7, asr #1
    1e64:	50080007 	andpl	r0, r8, r7
    1e68:	ad000005 	stcge	0, cr0, [r0, #-20]	; 0xffffffec
    1e6c:	09000007 	stmdbeq	r0, {r0, r1, r2}
    1e70:	000000c7 	andeq	r0, r0, r7, asr #1
    1e74:	f01a0017 			; <UNDEFINED> instruction: 0xf01a0017
    1e78:	d1027105 	tstle	r2, r5, lsl #2
    1e7c:	16000007 	strne	r0, [r0], -r7
    1e80:	0000076d 	andeq	r0, r0, sp, ror #14
    1e84:	d1027405 	tstle	r2, r5, lsl #8
    1e88:	00000007 	andeq	r0, r0, r7
    1e8c:	00069a16 	andeq	r9, r6, r6, lsl sl
    1e90:	02750500 	rsbseq	r0, r5, #0, 10
    1e94:	000007e1 	andeq	r0, r0, r1, ror #15
    1e98:	c4080078 	strgt	r0, [r8], #-120	; 0xffffff88
    1e9c:	e1000002 	tst	r0, r2
    1ea0:	09000007 	stmdbeq	r0, {r0, r1, r2}
    1ea4:	000000c7 	andeq	r0, r0, r7, asr #1
    1ea8:	2508001d 	strcs	r0, [r8, #-29]	; 0xffffffe3
    1eac:	f1000000 	cps	#0
    1eb0:	09000007 	stmdbeq	r0, {r0, r1, r2}
    1eb4:	000000c7 	andeq	r0, r0, r7, asr #1
    1eb8:	f01b001d 			; <UNDEFINED> instruction: 0xf01b001d
    1ebc:	13025605 	movwne	r5, #9733	; 0x2605
    1ec0:	1c000008 	stcne	0, cr0, [r0], {8}
    1ec4:	000008f9 	strdeq	r0, [r0], -r9
    1ec8:	7c026d05 	stcvc	13, cr6, [r2], {5}
    1ecc:	1c000006 	stcne	0, cr0, [r0], {6}
    1ed0:	000007f3 	strdeq	r0, [r0], -r3
    1ed4:	ad027605 	stcge	6, cr7, [r2, #-20]	; 0xffffffec
    1ed8:	00000007 	andeq	r0, r0, r7
    1edc:	00055008 	andeq	r5, r5, r8
    1ee0:	00082300 	andeq	r2, r8, r0, lsl #6
    1ee4:	00c70900 	sbceq	r0, r7, r0, lsl #18
    1ee8:	00180000 	andseq	r0, r8, r0
    1eec:	00082e1d 	andeq	r2, r8, sp, lsl lr
    1ef0:	04121400 	ldreq	r1, [r2], #-1024	; 0xfffffc00
    1ef4:	0f000000 	svceq	0x00000000
    1ef8:	00082304 	andeq	r2, r8, r4, lsl #6
    1efc:	65040f00 	strvs	r0, [r4, #-3840]	; 0xfffff100
    1f00:	1d000001 	stcne	0, cr0, [r0, #-4]
    1f04:	00000845 	andeq	r0, r0, r5, asr #16
    1f08:	00002c14 	andeq	r2, r0, r4, lsl ip
    1f0c:	040f0000 	streq	r0, [pc], #-0	; 1f14 <_Min_Stack_Size+0x1b14>
    1f10:	0000084b 	andeq	r0, r0, fp, asr #16
    1f14:	083a040f 	ldmdaeq	sl!, {r0, r1, r2, r3, sl}
    1f18:	ea080000 	b	201f20 <_Min_Stack_Size+0x201b20>
    1f1c:	61000005 	tstvs	r0, r5
    1f20:	09000008 	stmdbeq	r0, {r3}
    1f24:	000000c7 	andeq	r0, r0, r7, asr #1
    1f28:	cb1e0002 	blgt	781f38 <_Min_Stack_Size+0x781b38>
    1f2c:	01000009 	tsteq	r0, r9
    1f30:	005b9c2d 	subseq	r9, fp, sp, lsr #24
    1f34:	00001408 	andeq	r1, r0, r8, lsl #8
    1f38:	919c0100 	orrsls	r0, ip, r0, lsl #2
    1f3c:	1f000008 	svcne	0x00000008
    1f40:	08005ba0 	stmdaeq	r0, {r5, r7, r8, r9, fp, ip, lr}
    1f44:	00000010 	andeq	r0, r0, r0, lsl r0
    1f48:	00044820 	andeq	r4, r4, r0, lsr #16
    1f4c:	21310100 	teqcs	r1, r0, lsl #2
    1f50:	08005ba6 	stmdaeq	r0, {r1, r2, r5, r7, r8, r9, fp, ip, lr}
    1f54:	00000986 	andeq	r0, r0, r6, lsl #19
    1f58:	ba220000 	blt	881f60 <_Min_Stack_Size+0x881b60>
    1f5c:	01000009 	tsteq	r0, r9
    1f60:	00000042 	andeq	r0, r0, r2, asr #32
    1f64:	0000d400 	andeq	sp, r0, r0, lsl #8
    1f68:	529c0100 	addspl	r0, ip, #0, 2
    1f6c:	23000009 	movwcs	r0, #9
    1f70:	000009f3 	strdeq	r0, [r0], -r3
    1f74:	002c4201 	eoreq	r4, ip, r1, lsl #4
    1f78:	03270000 			; <UNDEFINED> instruction: 0x03270000
    1f7c:	64240000 	strtvs	r0, [r4], #-0
    1f80:	05420100 	strbeq	r0, [r2, #-256]	; 0xffffff00
    1f84:	45000001 	strmi	r0, [r0, #-1]
    1f88:	25000003 	strcs	r0, [r0, #-3]
    1f8c:	45010070 	strmi	r0, [r1, #-112]	; 0xffffff90
    1f90:	00000282 	andeq	r0, r0, r2, lsl #5
    1f94:	00000363 	andeq	r0, r0, r3, ror #6
    1f98:	0009ac26 	andeq	sl, r9, r6, lsr #24
    1f9c:	52460100 	subpl	r0, r6, #0, 2
    1fa0:	81000009 	tsthi	r0, r9
    1fa4:	26000003 	strcs	r0, [r0], -r3
    1fa8:	0000079d 	muleq	r0, sp, r7
    1fac:	09584701 	ldmdbeq	r8, {r0, r8, r9, sl, lr}^
    1fb0:	039f0000 	orrseq	r0, pc, #0
    1fb4:	6e250000 	cdpvs	0, 2, cr0, cr5, cr0, {0}
    1fb8:	2c480100 	stfcse	f0, [r8], {-0}
    1fbc:	d1000000 	mrsle	r0, (UNDEF: 0)
    1fc0:	25000003 	strcs	r0, [r0, #-3]
    1fc4:	49010069 	stmdbmi	r1, {r0, r3, r5, r6}
    1fc8:	0000002c 	andeq	r0, r0, ip, lsr #32
    1fcc:	000003fc 	strdeq	r0, [r0], -ip
    1fd0:	006e6625 	rsbeq	r6, lr, r5, lsr #12
    1fd4:	02984a01 	addseq	r4, r8, #4096	; 0x1000
    1fd8:	04310000 	ldrteq	r0, [r1], #-0
    1fdc:	b2270000 	eorlt	r0, r7, #0
    1fe0:	01000009 	tsteq	r0, r9
    1fe4:	00502851 	subseq	r2, r0, r1, asr r8
    1fe8:	09410000 	stmdbeq	r1, {}^	; <UNPREDICTABLE>
    1fec:	69250000 	stmdbvs	r5!, {}	; <UNPREDICTABLE>
    1ff0:	0100646e 	tsteq	r0, lr, ror #8
    1ff4:	00002c5e 	andeq	r2, r0, lr, asr ip
    1ff8:	00045a00 	andeq	r5, r4, r0, lsl #20
    1ffc:	00002900 	andeq	r2, r0, r0, lsl #18
    2000:	012a0000 			; <UNDEFINED> instruction: 0x012a0000
    2004:	00790250 	rsbseq	r0, r9, r0, asr r2
    2008:	002b0000 	eoreq	r0, fp, r0
    200c:	9b000000 	blls	2014 <_Min_Stack_Size+0x1c14>
    2010:	2a000009 	bcs	203c <_Min_Stack_Size+0x1c3c>
    2014:	77025001 	strvc	r5, [r2, -r1]
    2018:	0f000000 	svceq	0x00000000
    201c:	00028204 	andeq	r8, r2, r4, lsl #4
    2020:	f4040f00 			; <UNDEFINED> instruction: 0xf4040f00
    2024:	2c000001 	stccs	0, cr0, [r0], {1}
    2028:	000009e5 	andeq	r0, r0, r5, ror #19
    202c:	002c0e01 	eoreq	r0, ip, r1, lsl #28
    2030:	2d000000 	stccs	0, cr0, [r0, #-0]
    2034:	00000741 	andeq	r0, r0, r1, asr #14
    2038:	7602fb05 	strvc	pc, [r2], -r5, lsl #22
    203c:	18000009 	stmdane	r0, {r0, r3}
    2040:	00000412 	andeq	r0, r0, r2, lsl r4
    2044:	0009d92e 	andeq	sp, r9, lr, lsr #18
    2048:	50240100 	eorpl	r0, r4, r0, lsl #2
    204c:	2f000005 	svccs	0x00000005
    2050:	000001d2 	ldrdeq	r0, [r0], -r2
    2054:	002c4506 	eoreq	r4, ip, r6, lsl #10
    2058:	099b0000 	ldmibeq	fp, {}	; <UNPREDICTABLE>
    205c:	98140000 	ldmdals	r4, {}	; <UNPREDICTABLE>
    2060:	00000002 	andeq	r0, r0, r2
    2064:	00096f30 	andeq	r6, r9, r0, lsr pc
    2068:	14560600 	ldrbne	r0, [r6], #-1536	; 0xfffffa00
    206c:	00000105 	andeq	r0, r0, r5, lsl #2
    2070:	Address 0x0000000000002070 is out of bounds.


Disassembly of section .debug_abbrev:

00000000 <.debug_abbrev>:
   0:	25011101 	strcs	r1, [r1, #-257]	; 0xfffffeff
   4:	030b130e 	movweq	r1, #45838	; 0xb30e
   8:	550e1b0e 	strpl	r1, [lr, #-2830]	; 0xfffff4f2
   c:	10011117 	andne	r1, r1, r7, lsl r1
  10:	02000017 	andeq	r0, r0, #23
  14:	0b0b0024 	bleq	2c00ac <_Min_Stack_Size+0x2bfcac>
  18:	08030b3e 	stmdaeq	r3, {r1, r2, r3, r4, r5, r8, r9, fp}
  1c:	24030000 	strcs	r0, [r3], #-0
  20:	3e0b0b00 	vmlacc.f64	d0, d11, d0
  24:	000e030b 	andeq	r0, lr, fp, lsl #6
  28:	01390400 	teqeq	r9, r0, lsl #8
  2c:	0b3a0e03 	bleq	e83840 <_Min_Stack_Size+0xe83440>
  30:	13010b3b 	movwne	r0, #6971	; 0x1b3b
  34:	2e050000 	cdpcs	0, 0, cr0, cr5, cr0, {0}
  38:	03193f01 	tsteq	r9, #1, 30
  3c:	3b0b3a0e 	blcc	2ce87c <_Min_Stack_Size+0x2ce47c>
  40:	3c13490b 	ldccc	9, cr4, [r3], {11}
  44:	06000019 			; <UNDEFINED> instruction: 0x06000019
  48:	13490005 	movtne	r0, #36869	; 0x9005
  4c:	08070000 	stmdaeq	r7, {}	; <UNPREDICTABLE>
  50:	3a080300 	bcc	200c58 <_Min_Stack_Size+0x200858>
  54:	18053b0b 	stmdane	r5, {r0, r1, r3, r8, r9, fp, ip, sp}
  58:	08000013 	stmdaeq	r0, {r0, r1, r4}
  5c:	0b0b000f 	bleq	2c00a0 <_Min_Stack_Size+0x2bfca0>
  60:	0f090000 	svceq	0x00090000
  64:	490b0b00 	stmdbmi	fp, {r8, r9, fp}
  68:	0a000013 	beq	bc <_Min_Heap_Size-0x144>
  6c:	13010115 	movwne	r0, #4373	; 0x1115
  70:	2e0b0000 	cdpcs	0, 0, cr0, cr11, cr0, {0}
  74:	11134701 	tstne	r3, r1, lsl #14
  78:	40061201 	andmi	r1, r6, r1, lsl #4
  7c:	19429718 	stmdbne	r2, {r3, r4, r8, r9, sl, ip, pc}^
  80:	050c0000 	streq	r0, [ip, #-0]
  84:	3a0e0300 	bcc	380c8c <_Min_Stack_Size+0x38088c>
  88:	490b3b0b 	stmdbmi	fp, {r0, r1, r3, r8, r9, fp, ip, sp}
  8c:	00170213 	andseq	r0, r7, r3, lsl r2
  90:	82890d00 	addhi	r0, r9, #0, 26
  94:	01110101 	tsteq	r1, r1, lsl #2
  98:	31194295 			; <UNDEFINED> instruction: 0x31194295
  9c:	0e000013 	mcreq	0, 0, r0, cr0, cr3, {0}
  a0:	0001828a 	andeq	r8, r1, sl, lsl #5
  a4:	42911802 	addsmi	r1, r1, #131072	; 0x20000
  a8:	00000018 	andeq	r0, r0, r8, lsl r0
  ac:	10001101 	andne	r1, r0, r1, lsl #2
  b0:	12011106 	andne	r1, r1, #-2147483647	; 0x80000001
  b4:	1b080301 	blne	200cc0 <_Min_Stack_Size+0x2008c0>
  b8:	13082508 	movwne	r2, #34056	; 0x8508
  bc:	00000005 	andeq	r0, r0, r5
  c0:	25011101 	strcs	r1, [r1, #-257]	; 0xfffffeff
  c4:	030b130e 	movweq	r1, #45838	; 0xb30e
  c8:	550e1b0e 	strpl	r1, [lr, #-2830]	; 0xfffff4f2
  cc:	10011117 	andne	r1, r1, r7, lsl r1
  d0:	02000017 	andeq	r0, r0, #23
  d4:	0b0b0024 	bleq	2c016c <_Min_Stack_Size+0x2bfd6c>
  d8:	0e030b3e 	vmoveq.16	d3[0], r0
  dc:	24030000 	strcs	r0, [r3], #-0
  e0:	3e0b0b00 	vmlacc.f64	d0, d11, d0
  e4:	0008030b 	andeq	r0, r8, fp, lsl #6
  e8:	000f0400 	andeq	r0, pc, r0, lsl #8
  ec:	00000b0b 	andeq	r0, r0, fp, lsl #22
  f0:	0b000f05 	bleq	3d0c <_Min_Stack_Size+0x390c>
  f4:	0013490b 	andseq	r4, r3, fp, lsl #18
  f8:	00150600 	andseq	r0, r5, r0, lsl #12
  fc:	00001927 	andeq	r1, r0, r7, lsr #18
 100:	03010407 	movweq	r0, #5127	; 0x1407
 104:	3a0b0b0e 	bcc	2c2d44 <_Min_Stack_Size+0x2c2944>
 108:	010b3b0b 	tsteq	fp, fp, lsl #22
 10c:	08000013 	stmdaeq	r0, {r0, r1, r4}
 110:	0e030028 	cdpeq	0, 0, cr0, cr3, cr8, {1}
 114:	00000d1c 	andeq	r0, r0, ip, lsl sp
 118:	3f012e09 	svccc	0x00012e09
 11c:	3a0e0319 	bcc	380d88 <_Min_Stack_Size+0x380988>
 120:	270b3b0b 	strcs	r3, [fp, -fp, lsl #22]
 124:	11134919 	tstne	r3, r9, lsl r9
 128:	40061201 	andmi	r1, r6, r1, lsl #4
 12c:	19429718 	stmdbne	r2, {r3, r4, r8, r9, sl, ip, pc}^
 130:	00001301 	andeq	r1, r0, r1, lsl #6
 134:	0300050a 	movweq	r0, #1290	; 0x50a
 138:	3b0b3a08 	blcc	2ce960 <_Min_Stack_Size+0x2ce560>
 13c:	0213490b 	andseq	r4, r3, #180224	; 0x2c000
 140:	0b000017 	bleq	1a4 <_Min_Heap_Size-0x5c>
 144:	01018289 	smlabbeq	r1, r9, r2, r8
 148:	42950111 	addsmi	r0, r5, #1073741828	; 0x40000004
 14c:	00133119 	andseq	r3, r3, r9, lsl r1
 150:	828a0c00 	addhi	r0, sl, #0, 24
 154:	18020001 	stmdane	r2, {r0}
 158:	00184291 	mulseq	r8, r1, r2
 15c:	012e0d00 			; <UNDEFINED> instruction: 0x012e0d00
 160:	0e03193f 	mcreq	9, 0, r1, cr3, cr15, {1}
 164:	0b3b0b3a 	bleq	ec2e54 <_Min_Stack_Size+0xec2a54>
 168:	13491927 	movtne	r1, #39207	; 0x9927
 16c:	0000193c 	andeq	r1, r0, ip, lsr r9
 170:	4900050e 	stmdbmi	r0, {r1, r2, r3, r8, sl}
 174:	00000013 	andeq	r0, r0, r3, lsl r0
 178:	25011101 	strcs	r1, [r1, #-257]	; 0xfffffeff
 17c:	030b130e 	movweq	r1, #45838	; 0xb30e
 180:	550e1b0e 	strpl	r1, [lr, #-2830]	; 0xfffff4f2
 184:	10011117 	andne	r1, r1, r7, lsl r1
 188:	02000017 	andeq	r0, r0, #23
 18c:	0b0b0024 	bleq	2c0224 <_Min_Stack_Size+0x2bfe24>
 190:	08030b3e 	stmdaeq	r3, {r1, r2, r3, r4, r5, r8, r9, fp}
 194:	24030000 	strcs	r0, [r3], #-0
 198:	3e0b0b00 	vmlacc.f64	d0, d11, d0
 19c:	000e030b 	andeq	r0, lr, fp, lsl #6
 1a0:	000f0400 	andeq	r0, pc, r0, lsl #8
 1a4:	00000b0b 	andeq	r0, r0, fp, lsl #22
 1a8:	0b000f05 	bleq	3dc4 <_Min_Stack_Size+0x39c4>
 1ac:	0013490b 	andseq	r4, r3, fp, lsl #18
 1b0:	00150600 	andseq	r0, r5, r0, lsl #12
 1b4:	00001927 	andeq	r1, r0, r7, lsr #18
 1b8:	03010407 	movweq	r0, #5127	; 0x1407
 1bc:	3a0b0b0e 	bcc	2c2dfc <_Min_Stack_Size+0x2c29fc>
 1c0:	010b3b0b 	tsteq	fp, fp, lsl #22
 1c4:	08000013 	stmdaeq	r0, {r0, r1, r4}
 1c8:	0e030028 	cdpeq	0, 0, cr0, cr3, cr8, {1}
 1cc:	00000d1c 	andeq	r0, r0, ip, lsl sp
 1d0:	3f012e09 	svccc	0x00012e09
 1d4:	3a0e0319 	bcc	380e40 <_Min_Stack_Size+0x380a40>
 1d8:	270b3b0b 	strcs	r3, [fp, -fp, lsl #22]
 1dc:	11134919 	tstne	r3, r9, lsl r9
 1e0:	40061201 	andmi	r1, r6, r1, lsl #4
 1e4:	19429718 	stmdbne	r2, {r3, r4, r8, r9, sl, ip, pc}^
 1e8:	00001301 	andeq	r1, r0, r1, lsl #6
 1ec:	0300050a 	movweq	r0, #1290	; 0x50a
 1f0:	3b0b3a08 	blcc	2cea18 <_Min_Stack_Size+0x2ce618>
 1f4:	0213490b 	andseq	r4, r3, #180224	; 0x2c000
 1f8:	0b000017 	bleq	25c <_Min_Heap_Size+0x5c>
 1fc:	01018289 	smlabbeq	r1, r9, r2, r8
 200:	42950111 	addsmi	r0, r5, #1073741828	; 0x40000004
 204:	00133119 	andseq	r3, r3, r9, lsl r1
 208:	828a0c00 	addhi	r0, sl, #0, 24
 20c:	18020001 	stmdane	r2, {r0}
 210:	00184291 	mulseq	r8, r1, r2
 214:	01150d00 	tsteq	r5, r0, lsl #26
 218:	13011927 	movwne	r1, #6439	; 0x1927
 21c:	050e0000 	streq	r0, [lr, #-0]
 220:	00134900 	andseq	r4, r3, r0, lsl #18
 224:	012e0f00 			; <UNDEFINED> instruction: 0x012e0f00
 228:	0e03193f 	mcreq	9, 0, r1, cr3, cr15, {1}
 22c:	0b3b0b3a 	bleq	ec2f1c <_Min_Stack_Size+0xec2b1c>
 230:	13491927 	movtne	r1, #39207	; 0x9927
 234:	0000193c 	andeq	r1, r0, ip, lsr r9
 238:	01110100 	tsteq	r1, r0, lsl #2
 23c:	0b130e25 	bleq	4c3ad8 <_Min_Stack_Size+0x4c36d8>
 240:	0e1b0e03 	cdpeq	14, 1, cr0, cr11, cr3, {0}
 244:	01111755 	tsteq	r1, r5, asr r7
 248:	00001710 	andeq	r1, r0, r0, lsl r7
 24c:	0b002402 	bleq	925c <_Min_Stack_Size+0x8e5c>
 250:	030b3e0b 	movweq	r3, #48651	; 0xbe0b
 254:	0300000e 	movweq	r0, #14
 258:	0b0b0024 	bleq	2c02f0 <_Min_Stack_Size+0x2bfef0>
 25c:	08030b3e 	stmdaeq	r3, {r1, r2, r3, r4, r5, r8, r9, fp}
 260:	16040000 	strne	r0, [r4], -r0
 264:	3a0e0300 	bcc	380e6c <_Min_Stack_Size+0x380a6c>
 268:	490b3b0b 	stmdbmi	fp, {r0, r1, r3, r8, r9, fp, ip, sp}
 26c:	05000013 	streq	r0, [r0, #-19]	; 0xffffffed
 270:	193f012e 	ldmdbne	pc!, {r1, r2, r3, r5, r8}	; <UNPREDICTABLE>
 274:	0b3a0e03 	bleq	e83a88 <_Min_Stack_Size+0xe83688>
 278:	19270b3b 	stmdbne	r7!, {r0, r1, r3, r4, r5, r8, r9, fp}
 27c:	06120111 			; <UNDEFINED> instruction: 0x06120111
 280:	42961840 	addsmi	r1, r6, #64, 16	; 0x400000
 284:	00130119 	andseq	r0, r3, r9, lsl r1
 288:	00340600 	eorseq	r0, r4, r0, lsl #12
 28c:	0b3a0e03 	bleq	e83aa0 <_Min_Stack_Size+0xe836a0>
 290:	13490b3b 	movtne	r0, #39739	; 0x9b3b
 294:	00001702 	andeq	r1, r0, r2, lsl #14
 298:	03003407 	movweq	r3, #1031	; 0x407
 29c:	3b0b3a08 	blcc	2ceac4 <_Min_Stack_Size+0x2ce6c4>
 2a0:	0213490b 	andseq	r4, r3, #180224	; 0x2c000
 2a4:	08000017 	stmdaeq	r0, {r0, r1, r2, r4}
 2a8:	00018289 	andeq	r8, r1, r9, lsl #5
 2ac:	42950111 	addsmi	r0, r5, #1073741828	; 0x40000004
 2b0:	00133119 	andseq	r3, r3, r9, lsl r1
 2b4:	01010900 	tsteq	r1, r0, lsl #18
 2b8:	13011349 	movwne	r1, #4937	; 0x1349
 2bc:	210a0000 	mrscs	r0, (UNDEF: 10)
 2c0:	0b000000 	bleq	2c8 <_Min_Heap_Size+0xc8>
 2c4:	0b0b000f 	bleq	2c0308 <_Min_Stack_Size+0x2bff08>
 2c8:	00001349 	andeq	r1, r0, r9, asr #6
 2cc:	2700150c 	strcs	r1, [r0, -ip, lsl #10]
 2d0:	0d000019 	stceq	0, cr0, [r0, #-100]	; 0xffffff9c
 2d4:	0e030034 	mcreq	0, 0, r0, cr3, cr4, {1}
 2d8:	0b3b0b3a 	bleq	ec2fc8 <_Min_Stack_Size+0xec2bc8>
 2dc:	193f1349 	ldmdbne	pc!, {r0, r3, r6, r8, r9, ip}	; <UNPREDICTABLE>
 2e0:	0000193c 	andeq	r1, r0, ip, lsr r9
 2e4:	3f002e0e 	svccc	0x00002e0e
 2e8:	3a0e0319 	bcc	380f54 <_Min_Stack_Size+0x380b54>
 2ec:	270b3b0b 	strcs	r3, [fp, -fp, lsl #22]
 2f0:	00193c19 	andseq	r3, r9, r9, lsl ip
 2f4:	11010000 	mrsne	r0, (UNDEF: 1)
 2f8:	130e2501 	movwne	r2, #58625	; 0xe501
 2fc:	1b0e030b 	blne	380f30 <_Min_Stack_Size+0x380b30>
 300:	0017100e 	andseq	r1, r7, lr
 304:	00240200 	eoreq	r0, r4, r0, lsl #4
 308:	0b3e0b0b 	bleq	f82f3c <_Min_Stack_Size+0xf82b3c>
 30c:	00000803 	andeq	r0, r0, r3, lsl #16
 310:	0b002403 	bleq	9324 <_Min_Stack_Size+0x8f24>
 314:	030b3e0b 	movweq	r3, #48651	; 0xbe0b
 318:	0400000e 	streq	r0, [r0], #-14
 31c:	0e030016 	mcreq	0, 0, r0, cr3, cr6, {0}
 320:	0b3b0b3a 	bleq	ec3010 <_Min_Stack_Size+0xec2c10>
 324:	00001349 	andeq	r1, r0, r9, asr #6
 328:	03001605 	movweq	r1, #1541	; 0x605
 32c:	3b0b3a0e 	blcc	2ceb6c <_Min_Stack_Size+0x2ce76c>
 330:	00134905 	andseq	r4, r3, r5, lsl #18
 334:	01170600 	tsteq	r7, r0, lsl #12
 338:	0b3a0b0b 	bleq	e82f6c <_Min_Stack_Size+0xe82b6c>
 33c:	13010b3b 	movwne	r0, #6971	; 0x1b3b
 340:	0d070000 	stceq	0, cr0, [r7, #-0]
 344:	3a0e0300 	bcc	380f4c <_Min_Stack_Size+0x380b4c>
 348:	490b3b0b 	stmdbmi	fp, {r0, r1, r3, r8, r9, fp, ip, sp}
 34c:	08000013 	stmdaeq	r0, {r0, r1, r4}
 350:	13490101 	movtne	r0, #37121	; 0x9101
 354:	00001301 	andeq	r1, r0, r1, lsl #6
 358:	49002109 	stmdbmi	r0, {r0, r3, r8, sp}
 35c:	000b2f13 	andeq	r2, fp, r3, lsl pc
 360:	01130a00 	tsteq	r3, r0, lsl #20
 364:	0b3a0b0b 	bleq	e82f98 <_Min_Stack_Size+0xe82b98>
 368:	13010b3b 	movwne	r0, #6971	; 0x1b3b
 36c:	0d0b0000 	stceq	0, cr0, [fp, #-0]
 370:	3a0e0300 	bcc	380f78 <_Min_Stack_Size+0x380b78>
 374:	490b3b0b 	stmdbmi	fp, {r0, r1, r3, r8, r9, fp, ip, sp}
 378:	000b3813 	andeq	r3, fp, r3, lsl r8
 37c:	000f0c00 	andeq	r0, pc, r0, lsl #24
 380:	00000b0b 	andeq	r0, r0, fp, lsl #22
 384:	0301130d 	movweq	r1, #4877	; 0x130d
 388:	3a0b0b0e 	bcc	2c2fc8 <_Min_Stack_Size+0x2c2bc8>
 38c:	010b3b0b 	tsteq	fp, fp, lsl #22
 390:	0e000013 	mcreq	0, 0, r0, cr0, cr3, {0}
 394:	0803000d 	stmdaeq	r3, {r0, r2, r3}
 398:	0b3b0b3a 	bleq	ec3088 <_Min_Stack_Size+0xec2c88>
 39c:	0b381349 	bleq	e050c8 <_Min_Stack_Size+0xe04cc8>
 3a0:	0f0f0000 	svceq	0x000f0000
 3a4:	490b0b00 	stmdbmi	fp, {r8, r9, fp}
 3a8:	10000013 	andne	r0, r0, r3, lsl r0
 3ac:	0e030113 	mcreq	1, 0, r0, cr3, cr3, {0}
 3b0:	0b3a050b 	bleq	e817e4 <_Min_Stack_Size+0xe813e4>
 3b4:	13010b3b 	movwne	r0, #6971	; 0x1b3b
 3b8:	0d110000 	ldceq	0, cr0, [r1, #-0]
 3bc:	3a0e0300 	bcc	380fc4 <_Min_Stack_Size+0x380bc4>
 3c0:	490b3b0b 	stmdbmi	fp, {r0, r1, r3, r8, r9, fp, ip, sp}
 3c4:	00053813 	andeq	r3, r5, r3, lsl r8
 3c8:	00151200 	andseq	r1, r5, r0, lsl #4
 3cc:	00001927 	andeq	r1, r0, r7, lsr #18
 3d0:	27011513 	smladcs	r1, r3, r5, r1
 3d4:	01134919 	tsteq	r3, r9, lsl r9
 3d8:	14000013 	strne	r0, [r0], #-19	; 0xffffffed
 3dc:	13490005 	movtne	r0, #36869	; 0x9005
 3e0:	13150000 	tstne	r5, #0
 3e4:	0b0e0301 	bleq	380ff0 <_Min_Stack_Size+0x380bf0>
 3e8:	3b0b3a05 	blcc	2cec04 <_Min_Stack_Size+0x2ce804>
 3ec:	00130105 	andseq	r0, r3, r5, lsl #2
 3f0:	000d1600 	andeq	r1, sp, r0, lsl #12
 3f4:	0b3a0e03 	bleq	e83c08 <_Min_Stack_Size+0xe83808>
 3f8:	1349053b 	movtne	r0, #38203	; 0x953b
 3fc:	00000b38 	andeq	r0, r0, r8, lsr fp
 400:	03000d17 	movweq	r0, #3351	; 0xd17
 404:	3b0b3a0e 	blcc	2cec44 <_Min_Stack_Size+0x2ce844>
 408:	38134905 	ldmdacc	r3, {r0, r2, r8, fp, lr}
 40c:	18000005 	stmdane	r0, {r0, r2}
 410:	13490026 	movtne	r0, #36902	; 0x9026
 414:	13190000 	tstne	r9, #0
 418:	0b0e0301 	bleq	381024 <_Min_Stack_Size+0x380c24>
 41c:	3b0b3a0b 	blcc	2cec50 <_Min_Stack_Size+0x2ce850>
 420:	00130105 	andseq	r0, r3, r5, lsl #2
 424:	01131a00 	tsteq	r3, r0, lsl #20
 428:	0b3a0b0b 	bleq	e8305c <_Min_Stack_Size+0xe82c5c>
 42c:	1301053b 	movwne	r0, #5435	; 0x153b
 430:	171b0000 	ldrne	r0, [fp, -r0]
 434:	3a0b0b01 	bcc	2c3040 <_Min_Stack_Size+0x2c2c40>
 438:	01053b0b 	tsteq	r5, fp, lsl #22
 43c:	1c000013 	stcne	0, cr0, [r0], {19}
 440:	0e03000d 	cdpeq	0, 0, cr0, cr3, cr13, {0}
 444:	053b0b3a 	ldreq	r0, [fp, #-2874]!	; 0xfffff4c6
 448:	00001349 	andeq	r1, r0, r9, asr #6
 44c:	2701151d 	smladcs	r1, sp, r5, r1
 450:	00130119 	andseq	r0, r3, r9, lsl r1
 454:	00341e00 	eorseq	r1, r4, r0, lsl #28
 458:	0b3a0e03 	bleq	e83c6c <_Min_Stack_Size+0xe8386c>
 45c:	13490b3b 	movtne	r0, #39739	; 0x9b3b
 460:	00001802 	andeq	r1, r0, r2, lsl #16
 464:	0300341f 	movweq	r3, #1055	; 0x41f
 468:	3b0b3a0e 	blcc	2ceca8 <_Min_Stack_Size+0x2ce8a8>
 46c:	3f134905 	svccc	0x00134905
 470:	00180219 	andseq	r0, r8, r9, lsl r2
 474:	11010000 	mrsne	r0, (UNDEF: 1)
 478:	130e2501 	movwne	r2, #58625	; 0xe501
 47c:	1b0e030b 	blne	3810b0 <_Min_Stack_Size+0x380cb0>
 480:	1117550e 	tstne	r7, lr, lsl #10
 484:	00171001 	andseq	r1, r7, r1
 488:	00240200 	eoreq	r0, r4, r0, lsl #4
 48c:	0b3e0b0b 	bleq	f830c0 <_Min_Stack_Size+0xf82cc0>
 490:	00000803 	andeq	r0, r0, r3, lsl #16
 494:	03001603 	movweq	r1, #1539	; 0x603
 498:	3b0b3a0e 	blcc	2cecd8 <_Min_Stack_Size+0x2ce8d8>
 49c:	0013490b 	andseq	r4, r3, fp, lsl #18
 4a0:	00240400 	eoreq	r0, r4, r0, lsl #8
 4a4:	0b3e0b0b 	bleq	f830d8 <_Min_Stack_Size+0xf82cd8>
 4a8:	00000e03 	andeq	r0, r0, r3, lsl #28
 4ac:	03001605 	movweq	r1, #1541	; 0x605
 4b0:	3b0b3a0e 	blcc	2cecf0 <_Min_Stack_Size+0x2ce8f0>
 4b4:	00134905 	andseq	r4, r3, r5, lsl #18
 4b8:	01170600 	tsteq	r7, r0, lsl #12
 4bc:	0b3a0b0b 	bleq	e830f0 <_Min_Stack_Size+0xe82cf0>
 4c0:	13010b3b 	movwne	r0, #6971	; 0x1b3b
 4c4:	0d070000 	stceq	0, cr0, [r7, #-0]
 4c8:	3a0e0300 	bcc	3810d0 <_Min_Stack_Size+0x380cd0>
 4cc:	490b3b0b 	stmdbmi	fp, {r0, r1, r3, r8, r9, fp, ip, sp}
 4d0:	08000013 	stmdaeq	r0, {r0, r1, r4}
 4d4:	13490101 	movtne	r0, #37121	; 0x9101
 4d8:	00001301 	andeq	r1, r0, r1, lsl #6
 4dc:	49002109 	stmdbmi	r0, {r0, r3, r8, sp}
 4e0:	000b2f13 	andeq	r2, fp, r3, lsl pc
 4e4:	01130a00 	tsteq	r3, r0, lsl #20
 4e8:	0b3a0b0b 	bleq	e8311c <_Min_Stack_Size+0xe82d1c>
 4ec:	13010b3b 	movwne	r0, #6971	; 0x1b3b
 4f0:	0d0b0000 	stceq	0, cr0, [fp, #-0]
 4f4:	3a0e0300 	bcc	3810fc <_Min_Stack_Size+0x380cfc>
 4f8:	490b3b0b 	stmdbmi	fp, {r0, r1, r3, r8, r9, fp, ip, sp}
 4fc:	000b3813 	andeq	r3, fp, r3, lsl r8
 500:	000f0c00 	andeq	r0, pc, r0, lsl #24
 504:	00000b0b 	andeq	r0, r0, fp, lsl #22
 508:	0301130d 	movweq	r1, #4877	; 0x130d
 50c:	3a0b0b0e 	bcc	2c314c <_Min_Stack_Size+0x2c2d4c>
 510:	010b3b0b 	tsteq	fp, fp, lsl #22
 514:	0e000013 	mcreq	0, 0, r0, cr0, cr3, {0}
 518:	0803000d 	stmdaeq	r3, {r0, r2, r3}
 51c:	0b3b0b3a 	bleq	ec320c <_Min_Stack_Size+0xec2e0c>
 520:	0b381349 	bleq	e0524c <_Min_Stack_Size+0xe04e4c>
 524:	0f0f0000 	svceq	0x000f0000
 528:	490b0b00 	stmdbmi	fp, {r8, r9, fp}
 52c:	10000013 	andne	r0, r0, r3, lsl r0
 530:	0e030113 	mcreq	1, 0, r0, cr3, cr3, {0}
 534:	0b3a050b 	bleq	e81968 <_Min_Stack_Size+0xe81568>
 538:	13010b3b 	movwne	r0, #6971	; 0x1b3b
 53c:	0d110000 	ldceq	0, cr0, [r1, #-0]
 540:	3a0e0300 	bcc	381148 <_Min_Stack_Size+0x380d48>
 544:	490b3b0b 	stmdbmi	fp, {r0, r1, r3, r8, r9, fp, ip, sp}
 548:	00053813 	andeq	r3, r5, r3, lsl r8
 54c:	00151200 	andseq	r1, r5, r0, lsl #4
 550:	00001927 	andeq	r1, r0, r7, lsr #18
 554:	27011513 	smladcs	r1, r3, r5, r1
 558:	01134919 	tsteq	r3, r9, lsl r9
 55c:	14000013 	strne	r0, [r0], #-19	; 0xffffffed
 560:	13490005 	movtne	r0, #36869	; 0x9005
 564:	13150000 	tstne	r5, #0
 568:	0b0e0301 	bleq	381174 <_Min_Stack_Size+0x380d74>
 56c:	3b0b3a05 	blcc	2ced88 <_Min_Stack_Size+0x2ce988>
 570:	00130105 	andseq	r0, r3, r5, lsl #2
 574:	000d1600 	andeq	r1, sp, r0, lsl #12
 578:	0b3a0e03 	bleq	e83d8c <_Min_Stack_Size+0xe8398c>
 57c:	1349053b 	movtne	r0, #38203	; 0x953b
 580:	00000b38 	andeq	r0, r0, r8, lsr fp
 584:	03000d17 	movweq	r0, #3351	; 0xd17
 588:	3b0b3a0e 	blcc	2cedc8 <_Min_Stack_Size+0x2ce9c8>
 58c:	38134905 	ldmdacc	r3, {r0, r2, r8, fp, lr}
 590:	18000005 	stmdane	r0, {r0, r2}
 594:	13490026 	movtne	r0, #36902	; 0x9026
 598:	13190000 	tstne	r9, #0
 59c:	0b0e0301 	bleq	3811a8 <_Min_Stack_Size+0x380da8>
 5a0:	3b0b3a0b 	blcc	2cedd4 <_Min_Stack_Size+0x2ce9d4>
 5a4:	00130105 	andseq	r0, r3, r5, lsl #2
 5a8:	01131a00 	tsteq	r3, r0, lsl #20
 5ac:	0b3a0b0b 	bleq	e831e0 <_Min_Stack_Size+0xe82de0>
 5b0:	1301053b 	movwne	r0, #5435	; 0x153b
 5b4:	171b0000 	ldrne	r0, [fp, -r0]
 5b8:	3a0b0b01 	bcc	2c31c4 <_Min_Stack_Size+0x2c2dc4>
 5bc:	01053b0b 	tsteq	r5, fp, lsl #22
 5c0:	1c000013 	stcne	0, cr0, [r0], {19}
 5c4:	0e03000d 	cdpeq	0, 0, cr0, cr3, cr13, {0}
 5c8:	053b0b3a 	ldreq	r0, [fp, #-2874]!	; 0xfffff4c6
 5cc:	00001349 	andeq	r1, r0, r9, asr #6
 5d0:	2701151d 	smladcs	r1, sp, r5, r1
 5d4:	00130119 	andseq	r0, r3, r9, lsl r1
 5d8:	01041e00 	tsteq	r4, r0, lsl #28
 5dc:	0b0b0e03 	bleq	2c3df0 <_Min_Stack_Size+0x2c39f0>
 5e0:	0b3b0b3a 	bleq	ec32d0 <_Min_Stack_Size+0xec2ed0>
 5e4:	00001301 	andeq	r1, r0, r1, lsl #6
 5e8:	0300281f 	movweq	r2, #2079	; 0x81f
 5ec:	000d1c0e 	andeq	r1, sp, lr, lsl #24
 5f0:	012e2000 			; <UNDEFINED> instruction: 0x012e2000
 5f4:	0e03193f 	mcreq	9, 0, r1, cr3, cr15, {1}
 5f8:	0b3b0b3a 	bleq	ec32e8 <_Min_Stack_Size+0xec2ee8>
 5fc:	13491927 	movtne	r1, #39207	; 0x9927
 600:	06120111 			; <UNDEFINED> instruction: 0x06120111
 604:	42971840 	addsmi	r1, r7, #64, 16	; 0x400000
 608:	00130119 	andseq	r0, r3, r9, lsl r1
 60c:	00052100 	andeq	r2, r5, r0, lsl #2
 610:	0b3a0e03 	bleq	e83e24 <_Min_Stack_Size+0xe83a24>
 614:	13490b3b 	movtne	r0, #39739	; 0x9b3b
 618:	00001702 	andeq	r1, r0, r2, lsl #14
 61c:	03000522 	movweq	r0, #1314	; 0x522
 620:	3b0b3a08 	blcc	2cee48 <_Min_Stack_Size+0x2cea48>
 624:	0213490b 	andseq	r4, r3, #180224	; 0x2c000
 628:	23000017 	movwcs	r0, #23
 62c:	0e030034 	mcreq	0, 0, r0, cr3, cr4, {1}
 630:	0b3b0b3a 	bleq	ec3320 <_Min_Stack_Size+0xec2f20>
 634:	17021349 	strne	r1, [r2, -r9, asr #6]
 638:	34240000 	strtcc	r0, [r4], #-0
 63c:	3a080300 	bcc	201244 <_Min_Stack_Size+0x200e44>
 640:	490b3b0b 	stmdbmi	fp, {r0, r1, r3, r8, r9, fp, ip, sp}
 644:	00170213 	andseq	r0, r7, r3, lsl r2
 648:	82892500 	addhi	r2, r9, #0, 10
 64c:	01110101 	tsteq	r1, r1, lsl #2
 650:	00001331 	andeq	r1, r0, r1, lsr r3
 654:	01828a26 	orreq	r8, r2, r6, lsr #20
 658:	91180200 	tstls	r8, r0, lsl #4
 65c:	00001842 	andeq	r1, r0, r2, asr #16
 660:	03003427 	movweq	r3, #1063	; 0x427
 664:	3b0b3a0e 	blcc	2ceea4 <_Min_Stack_Size+0x2ceaa4>
 668:	3f134905 	svccc	0x00134905
 66c:	00193c19 	andseq	r3, r9, r9, lsl ip
 670:	012e2800 			; <UNDEFINED> instruction: 0x012e2800
 674:	0e03193f 	mcreq	9, 0, r1, cr3, cr15, {1}
 678:	0b3b0b3a 	bleq	ec3368 <_Min_Stack_Size+0xec2f68>
 67c:	13491927 	movtne	r1, #39207	; 0x9927
 680:	0000193c 	andeq	r1, r0, ip, lsr r9
 684:	01110100 	tsteq	r1, r0, lsl #2
 688:	0b130e25 	bleq	4c3f24 <_Min_Stack_Size+0x4c3b24>
 68c:	0e1b0e03 	cdpeq	14, 1, cr0, cr11, cr3, {0}
 690:	01111755 	tsteq	r1, r5, asr r7
 694:	00001710 	andeq	r1, r0, r0, lsl r7
 698:	0b002402 	bleq	96a8 <_Min_Stack_Size+0x92a8>
 69c:	030b3e0b 	movweq	r3, #48651	; 0xbe0b
 6a0:	0300000e 	movweq	r0, #14
 6a4:	0b0b0024 	bleq	2c073c <_Min_Stack_Size+0x2c033c>
 6a8:	08030b3e 	stmdaeq	r3, {r1, r2, r3, r4, r5, r8, r9, fp}
 6ac:	16040000 	strne	r0, [r4], -r0
 6b0:	3a0e0300 	bcc	3812b8 <_Min_Stack_Size+0x380eb8>
 6b4:	490b3b0b 	stmdbmi	fp, {r0, r1, r3, r8, r9, fp, ip, sp}
 6b8:	05000013 	streq	r0, [r0, #-19]	; 0xffffffed
 6bc:	0e030016 	mcreq	0, 0, r0, cr3, cr6, {0}
 6c0:	053b0b3a 	ldreq	r0, [fp, #-2874]!	; 0xfffff4c6
 6c4:	00001349 	andeq	r1, r0, r9, asr #6
 6c8:	0b011706 	bleq	462e8 <_Min_Stack_Size+0x45ee8>
 6cc:	3b0b3a0b 	blcc	2cef00 <_Min_Stack_Size+0x2ceb00>
 6d0:	0013010b 	andseq	r0, r3, fp, lsl #2
 6d4:	000d0700 	andeq	r0, sp, r0, lsl #14
 6d8:	0b3a0e03 	bleq	e83eec <_Min_Stack_Size+0xe83aec>
 6dc:	13490b3b 	movtne	r0, #39739	; 0x9b3b
 6e0:	01080000 	mrseq	r0, (UNDEF: 8)
 6e4:	01134901 	tsteq	r3, r1, lsl #18
 6e8:	09000013 	stmdbeq	r0, {r0, r1, r4}
 6ec:	13490021 	movtne	r0, #36897	; 0x9021
 6f0:	00000b2f 	andeq	r0, r0, pc, lsr #22
 6f4:	0b01130a 	bleq	45324 <_Min_Stack_Size+0x44f24>
 6f8:	3b0b3a0b 	blcc	2cef2c <_Min_Stack_Size+0x2ceb2c>
 6fc:	0013010b 	andseq	r0, r3, fp, lsl #2
 700:	000d0b00 	andeq	r0, sp, r0, lsl #22
 704:	0b3a0e03 	bleq	e83f18 <_Min_Stack_Size+0xe83b18>
 708:	13490b3b 	movtne	r0, #39739	; 0x9b3b
 70c:	00000b38 	andeq	r0, r0, r8, lsr fp
 710:	0b000f0c 	bleq	4348 <_Min_Stack_Size+0x3f48>
 714:	0d00000b 	stceq	0, cr0, [r0, #-44]	; 0xffffffd4
 718:	0e030113 	mcreq	1, 0, r0, cr3, cr3, {0}
 71c:	0b3a0b0b 	bleq	e83350 <_Min_Stack_Size+0xe82f50>
 720:	13010b3b 	movwne	r0, #6971	; 0x1b3b
 724:	0d0e0000 	stceq	0, cr0, [lr, #-0]
 728:	3a080300 	bcc	201330 <_Min_Stack_Size+0x200f30>
 72c:	490b3b0b 	stmdbmi	fp, {r0, r1, r3, r8, r9, fp, ip, sp}
 730:	000b3813 	andeq	r3, fp, r3, lsl r8
 734:	000f0f00 	andeq	r0, pc, r0, lsl #30
 738:	13490b0b 	movtne	r0, #39691	; 0x9b0b
 73c:	13100000 	tstne	r0, #0
 740:	0b0e0301 	bleq	38134c <_Min_Stack_Size+0x380f4c>
 744:	3b0b3a05 	blcc	2cef60 <_Min_Stack_Size+0x2ceb60>
 748:	0013010b 	andseq	r0, r3, fp, lsl #2
 74c:	000d1100 	andeq	r1, sp, r0, lsl #2
 750:	0b3a0e03 	bleq	e83f64 <_Min_Stack_Size+0xe83b64>
 754:	13490b3b 	movtne	r0, #39739	; 0x9b3b
 758:	00000538 	andeq	r0, r0, r8, lsr r5
 75c:	27001512 	smladcs	r0, r2, r5, r1
 760:	13000019 	movwne	r0, #25
 764:	19270115 	stmdbne	r7!, {r0, r2, r4, r8}
 768:	13011349 	movwne	r1, #4937	; 0x1349
 76c:	05140000 	ldreq	r0, [r4, #-0]
 770:	00134900 	andseq	r4, r3, r0, lsl #18
 774:	01131500 	tsteq	r3, r0, lsl #10
 778:	050b0e03 	streq	r0, [fp, #-3587]	; 0xfffff1fd
 77c:	053b0b3a 	ldreq	r0, [fp, #-2874]!	; 0xfffff4c6
 780:	00001301 	andeq	r1, r0, r1, lsl #6
 784:	03000d16 	movweq	r0, #3350	; 0xd16
 788:	3b0b3a0e 	blcc	2cefc8 <_Min_Stack_Size+0x2cebc8>
 78c:	38134905 	ldmdacc	r3, {r0, r2, r8, fp, lr}
 790:	1700000b 	strne	r0, [r0, -fp]
 794:	0e03000d 	cdpeq	0, 0, cr0, cr3, cr13, {0}
 798:	053b0b3a 	ldreq	r0, [fp, #-2874]!	; 0xfffff4c6
 79c:	05381349 	ldreq	r1, [r8, #-841]!	; 0xfffffcb7
 7a0:	26180000 	ldrcs	r0, [r8], -r0
 7a4:	00134900 	andseq	r4, r3, r0, lsl #18
 7a8:	01131900 	tsteq	r3, r0, lsl #18
 7ac:	0b0b0e03 	bleq	2c3fc0 <_Min_Stack_Size+0x2c3bc0>
 7b0:	053b0b3a 	ldreq	r0, [fp, #-2874]!	; 0xfffff4c6
 7b4:	00001301 	andeq	r1, r0, r1, lsl #6
 7b8:	0b01131a 	bleq	45428 <_Min_Stack_Size+0x45028>
 7bc:	3b0b3a0b 	blcc	2ceff0 <_Min_Stack_Size+0x2cebf0>
 7c0:	00130105 	andseq	r0, r3, r5, lsl #2
 7c4:	01171b00 	tsteq	r7, r0, lsl #22
 7c8:	0b3a0b0b 	bleq	e833fc <_Min_Stack_Size+0xe82ffc>
 7cc:	1301053b 	movwne	r0, #5435	; 0x153b
 7d0:	0d1c0000 	ldceq	0, cr0, [ip, #-0]
 7d4:	3a0e0300 	bcc	3813dc <_Min_Stack_Size+0x380fdc>
 7d8:	49053b0b 	stmdbmi	r5, {r0, r1, r3, r8, r9, fp, ip, sp}
 7dc:	1d000013 	stcne	0, cr0, [r0, #-76]	; 0xffffffb4
 7e0:	19270115 	stmdbne	r7!, {r0, r2, r4, r8}
 7e4:	00001301 	andeq	r1, r0, r1, lsl #6
 7e8:	03012e1e 	movweq	r2, #7710	; 0x1e1e
 7ec:	3b0b3a0e 	blcc	2cf02c <_Min_Stack_Size+0x2cec2c>
 7f0:	1119270b 	tstne	r9, fp, lsl #14
 7f4:	40061201 	andmi	r1, r6, r1, lsl #4
 7f8:	19429718 	stmdbne	r2, {r3, r4, r8, r9, sl, ip, pc}^
 7fc:	00001301 	andeq	r1, r0, r1, lsl #6
 800:	11010b1f 	tstne	r1, pc, lsl fp
 804:	00061201 	andeq	r1, r6, r1, lsl #4
 808:	002e2000 	eoreq	r2, lr, r0
 80c:	0e03193f 	mcreq	9, 0, r1, cr3, cr15, {1}
 810:	0b3b0b3a 	bleq	ec3500 <_Min_Stack_Size+0xec3100>
 814:	193c1927 	ldmdbne	ip!, {r0, r1, r2, r5, r8, fp, ip}
 818:	89210000 	stmdbhi	r1!, {}	; <UNPREDICTABLE>
 81c:	11000182 	smlabbne	r0, r2, r1, r0
 820:	19429501 	stmdbne	r2, {r0, r8, sl, ip, pc}^
 824:	00001331 	andeq	r1, r0, r1, lsr r3
 828:	3f012e22 	svccc	0x00012e22
 82c:	3a0e0319 	bcc	381498 <_Min_Stack_Size+0x381098>
 830:	270b3b0b 	strcs	r3, [fp, -fp, lsl #22]
 834:	12011119 	andne	r1, r1, #1073741830	; 0x40000006
 838:	96184006 	ldrls	r4, [r8], -r6
 83c:	13011942 	movwne	r1, #6466	; 0x1942
 840:	05230000 	streq	r0, [r3, #-0]!
 844:	3a0e0300 	bcc	38144c <_Min_Stack_Size+0x38104c>
 848:	490b3b0b 	stmdbmi	fp, {r0, r1, r3, r8, r9, fp, ip, sp}
 84c:	00170213 	andseq	r0, r7, r3, lsl r2
 850:	00052400 	andeq	r2, r5, r0, lsl #8
 854:	0b3a0803 	bleq	e82868 <_Min_Stack_Size+0xe82468>
 858:	13490b3b 	movtne	r0, #39739	; 0x9b3b
 85c:	00001702 	andeq	r1, r0, r2, lsl #14
 860:	03003425 	movweq	r3, #1061	; 0x425
 864:	3b0b3a08 	blcc	2cf08c <_Min_Stack_Size+0x2cec8c>
 868:	0213490b 	andseq	r4, r3, #180224	; 0x2c000
 86c:	26000017 			; <UNDEFINED> instruction: 0x26000017
 870:	0e030034 	mcreq	0, 0, r0, cr3, cr4, {1}
 874:	0b3b0b3a 	bleq	ec3564 <_Min_Stack_Size+0xec3164>
 878:	17021349 	strne	r1, [r2, -r9, asr #6]
 87c:	0a270000 	beq	9c0884 <_Min_Stack_Size+0x9c0484>
 880:	3a0e0300 	bcc	381488 <_Min_Stack_Size+0x381088>
 884:	000b3b0b 	andeq	r3, fp, fp, lsl #22
 888:	010b2800 	tsteq	fp, r0, lsl #16
 88c:	13011755 	movwne	r1, #5973	; 0x1755
 890:	89290000 	stmdbhi	r9!, {}	; <UNPREDICTABLE>
 894:	11010182 	smlabbne	r1, r2, r1, r0
 898:	2a000001 	bcs	8a4 <_Min_Stack_Size+0x4a4>
 89c:	0001828a 	andeq	r8, r1, sl, lsl #5
 8a0:	42911802 	addsmi	r1, r1, #131072	; 0x20000
 8a4:	2b000018 	blcs	90c <_Min_Stack_Size+0x50c>
 8a8:	01018289 	smlabbeq	r1, r9, r2, r8
 8ac:	13310111 	teqne	r1, #1073741828	; 0x40000004
 8b0:	342c0000 	strtcc	r0, [ip], #-0
 8b4:	3a0e0300 	bcc	3814bc <_Min_Stack_Size+0x3810bc>
 8b8:	490b3b0b 	stmdbmi	fp, {r0, r1, r3, r8, r9, fp, ip, sp}
 8bc:	000b1c13 	andeq	r1, fp, r3, lsl ip
 8c0:	00342d00 	eorseq	r2, r4, r0, lsl #26
 8c4:	0b3a0e03 	bleq	e840d8 <_Min_Stack_Size+0xe83cd8>
 8c8:	1349053b 	movtne	r0, #38203	; 0x953b
 8cc:	193c193f 	ldmdbne	ip!, {r0, r1, r2, r3, r4, r5, r8, fp, ip}
 8d0:	342e0000 	strtcc	r0, [lr], #-0
 8d4:	3a0e0300 	bcc	3814dc <_Min_Stack_Size+0x3810dc>
 8d8:	490b3b0b 	stmdbmi	fp, {r0, r1, r3, r8, r9, fp, ip, sp}
 8dc:	3c193f13 	ldccc	15, cr3, [r9], {19}
 8e0:	2f000019 	svccs	0x00000019
 8e4:	193f012e 	ldmdbne	pc!, {r1, r2, r3, r5, r8}	; <UNPREDICTABLE>
 8e8:	0b3a0e03 	bleq	e840fc <_Min_Stack_Size+0xe83cfc>
 8ec:	19270b3b 	stmdbne	r7!, {r0, r1, r3, r4, r5, r8, r9, fp}
 8f0:	193c1349 	ldmdbne	ip!, {r0, r3, r6, r8, r9, ip}
 8f4:	00001301 	andeq	r1, r0, r1, lsl #6
 8f8:	3f012e30 	svccc	0x00012e30
 8fc:	3a0e0319 	bcc	381568 <_Min_Stack_Size+0x381168>
 900:	270b3b0b 	strcs	r3, [fp, -fp, lsl #22]
 904:	00193c19 	andseq	r3, r9, r9, lsl ip
 908:	Address 0x0000000000000908 is out of bounds.


Disassembly of section .debug_loc:

00000000 <.debug_loc>:
   0:	08005aa0 	stmdaeq	r0, {r5, r7, r9, fp, ip, lr}
   4:	08005aa4 	stmdaeq	r0, {r2, r5, r7, r9, fp, ip, lr}
   8:	a4500001 	ldrbge	r0, [r0], #-1
   c:	a908005a 	stmdbge	r8, {r1, r3, r4, r6}
  10:	0108005a 	qaddeq	r0, sl, r8
  14:	5aa95300 	bpl	fea54c1c <_estack+0xdea04c1d>
  18:	5aaa0800 	bpl	fea82020 <_estack+0xdea32021>
  1c:	00040800 	andeq	r0, r4, r0, lsl #16
  20:	9f5001f3 	svcls	0x005001f3
  24:	00000000 	andeq	r0, r0, r0
  28:	00000000 	andeq	r0, r0, r0
  2c:	08005aa0 	stmdaeq	r0, {r5, r7, r9, fp, ip, lr}
  30:	08005aa6 	stmdaeq	r0, {r1, r2, r5, r7, r9, fp, ip, lr}
  34:	a6510001 	ldrbge	r0, [r1], -r1
  38:	a908005a 	stmdbge	r8, {r1, r3, r4, r6}
  3c:	0108005a 	qaddeq	r0, sl, r8
  40:	5aa95000 	bpl	fea54048 <_estack+0xdea04049>
  44:	5aaa0800 	bpl	fea8204c <_estack+0xdea3204d>
  48:	00040800 	andeq	r0, r4, r0, lsl #16
  4c:	9f5101f3 	svcls	0x005101f3
  50:	00000000 	andeq	r0, r0, r0
  54:	00000000 	andeq	r0, r0, r0
  58:	08005aa0 	stmdaeq	r0, {r5, r7, r9, fp, ip, lr}
  5c:	08005aa9 	stmdaeq	r0, {r0, r3, r5, r7, r9, fp, ip, lr}
  60:	a9520001 	ldmdbge	r2, {r0}^
  64:	aa08005a 	bge	2001d4 <_Min_Stack_Size+0x1ffdd4>
  68:	0408005a 	streq	r0, [r8], #-90	; 0xffffffa6
  6c:	5201f300 	andpl	pc, r1, #0, 6
  70:	0000009f 	muleq	r0, pc, r0	; <UNPREDICTABLE>
  74:	00000000 	andeq	r0, r0, r0
  78:	005aac00 	subseq	sl, sl, r0, lsl #24
  7c:	005ab008 	subseq	fp, sl, r8
  80:	50000108 	andpl	r0, r0, r8, lsl #2
  84:	08005ab0 	stmdaeq	r0, {r4, r5, r7, r9, fp, ip, lr}
  88:	08005ab7 	stmdaeq	r0, {r0, r1, r2, r4, r5, r7, r9, fp, ip, lr}
  8c:	b7510001 	ldrblt	r0, [r1, -r1]
  90:	b808005a 	stmdalt	r8, {r1, r3, r4, r6}
  94:	0408005a 	streq	r0, [r8], #-90	; 0xffffffa6
  98:	5001f300 	andpl	pc, r1, r0, lsl #6
  9c:	0000009f 	muleq	r0, pc, r0	; <UNPREDICTABLE>
  a0:	00000000 	andeq	r0, r0, r0
  a4:	005ab800 	subseq	fp, sl, r0, lsl #16
  a8:	005ac408 	subseq	ip, sl, r8, lsl #8
  ac:	50000108 	andpl	r0, r0, r8, lsl #2
  b0:	08005ac4 	stmdaeq	r0, {r2, r6, r7, r9, fp, ip, lr}
  b4:	08005acb 	stmdaeq	r0, {r0, r1, r3, r6, r7, r9, fp, ip, lr}
  b8:	cb510001 	blgt	14400c4 <_Min_Stack_Size+0x143fcc4>
  bc:	cc08005a 	stcgt	0, cr0, [r8], {90}	; 0x5a
  c0:	0408005a 	streq	r0, [r8], #-90	; 0xffffffa6
  c4:	5001f300 	andpl	pc, r1, r0, lsl #6
  c8:	0000009f 	muleq	r0, pc, r0	; <UNPREDICTABLE>
  cc:	00000000 	andeq	r0, r0, r0
  d0:	005ab800 	subseq	fp, sl, r0, lsl #16
  d4:	005ac008 	subseq	ip, sl, r8
  d8:	51000108 	tstpl	r0, r8, lsl #2
  dc:	08005ac0 	stmdaeq	r0, {r6, r7, r9, fp, ip, lr}
  e0:	08005ac8 	stmdaeq	r0, {r3, r6, r7, r9, fp, ip, lr}
  e4:	c8540001 	ldmdagt	r4, {r0}^
  e8:	cb08005a 	blgt	200258 <_Min_Stack_Size+0x1ffe58>
  ec:	0108005a 	qaddeq	r0, sl, r8
  f0:	5acb5200 	bpl	ff2d48f8 <_estack+0xdf2848f9>
  f4:	5acc0800 	bpl	ff3020fc <_estack+0xdf2b20fd>
  f8:	00040800 	andeq	r0, r4, r0, lsl #16
  fc:	9f5101f3 	svcls	0x005101f3
 100:	00000000 	andeq	r0, r0, r0
 104:	00000000 	andeq	r0, r0, r0
 108:	08005ab8 	stmdaeq	r0, {r3, r4, r5, r7, r9, fp, ip, lr}
 10c:	08005ac2 	stmdaeq	r0, {r1, r6, r7, r9, fp, ip, lr}
 110:	c2520001 	subsgt	r0, r2, #1
 114:	cb08005a 	blgt	200284 <_Min_Stack_Size+0x1ffe84>
 118:	0108005a 	qaddeq	r0, sl, r8
 11c:	5acb5300 	bpl	ff2d4d24 <_estack+0xdf284d25>
 120:	5acc0800 	bpl	ff302128 <_estack+0xdf2b2129>
 124:	00040800 	andeq	r0, r4, r0, lsl #16
 128:	9f5201f3 	svcls	0x005201f3
 12c:	00000000 	andeq	r0, r0, r0
 130:	00000000 	andeq	r0, r0, r0
 134:	08005ad4 	stmdaeq	r0, {r2, r4, r6, r7, r9, fp, ip, lr}
 138:	08005ad6 	stmdaeq	r0, {r1, r2, r4, r6, r7, r9, fp, ip, lr}
 13c:	00750005 	rsbseq	r0, r5, r5
 140:	d69f2632 			; <UNDEFINED> instruction: 0xd69f2632
 144:	dc08005a 	stcle	0, cr0, [r8], {90}	; 0x5a
 148:	0108005a 	qaddeq	r0, sl, r8
 14c:	00005400 	andeq	r5, r0, r0, lsl #8
 150:	00000000 	andeq	r0, r0, r0
 154:	5ad40000 	bpl	ff50015c <_estack+0xdf4b015d>
 158:	5ad60800 	bpl	ff582160 <_estack+0xdf532161>
 15c:	00050800 	andeq	r0, r5, r0, lsl #16
 160:	26320075 			; <UNDEFINED> instruction: 0x26320075
 164:	005ad69f 			; <UNDEFINED> instruction: 0x005ad69f
 168:	005ade08 	subseq	sp, sl, r8, lsl #28
 16c:	54000108 	strpl	r0, [r0], #-264	; 0xfffffef8
 170:	08005ade 	stmdaeq	r0, {r1, r2, r3, r4, r6, r7, r9, fp, ip, lr}
 174:	08005ae4 	stmdaeq	r0, {r2, r5, r6, r7, r9, fp, ip, lr}
 178:	01740003 	cmneq	r4, r3
 17c:	005ae49f 			; <UNDEFINED> instruction: 0x005ae49f
 180:	005aec08 	subseq	lr, sl, r8, lsl #24
 184:	54000108 	strpl	r0, [r0], #-264	; 0xfffffef8
 188:	00000000 	andeq	r0, r0, r0
 18c:	00000000 	andeq	r0, r0, r0
 190:	08005af8 	stmdaeq	r0, {r3, r4, r5, r6, r7, r9, fp, ip, lr}
 194:	08005b10 	stmdaeq	r0, {r4, r8, r9, fp, ip, lr}
 198:	10500001 	subsne	r0, r0, r1
 19c:	8208005b 	andhi	r0, r8, #91	; 0x5b
 1a0:	0108005b 	qaddeq	r0, fp, r8
 1a4:	5b825600 	blpl	fe0959ac <_estack+0xde0459ad>
 1a8:	5b8c0800 	blpl	fe3021b0 <_estack+0xde2b21b1>
 1ac:	00010800 	andeq	r0, r1, r0, lsl #16
 1b0:	005b8c50 	subseq	r8, fp, r0, asr ip
 1b4:	005b9408 	subseq	r9, fp, r8, lsl #8
 1b8:	56000108 	strpl	r0, [r0], -r8, lsl #2
 1bc:	08005b94 	stmdaeq	r0, {r2, r4, r7, r8, r9, fp, ip, lr}
 1c0:	08005b9c 	stmdaeq	r0, {r2, r3, r4, r7, r8, r9, fp, ip, lr}
 1c4:	01f30004 	mvnseq	r0, r4
 1c8:	00009f50 	andeq	r9, r0, r0, asr pc
 1cc:	00000000 	andeq	r0, r0, r0
 1d0:	5af80000 	bpl	ffe001d8 <_estack+0xdfdb01d9>
 1d4:	5b180800 	blpl	6021dc <_Min_Stack_Size+0x601ddc>
 1d8:	00010800 	andeq	r0, r1, r0, lsl #16
 1dc:	005b1851 	subseq	r1, fp, r1, asr r8
 1e0:	005b4608 	subseq	r4, fp, r8, lsl #12
 1e4:	58000108 	stmdapl	r0, {r3, r8}
 1e8:	08005b46 	stmdaeq	r0, {r1, r2, r6, r8, r9, fp, ip, lr}
 1ec:	08005b51 	stmdaeq	r0, {r0, r4, r6, r8, r9, fp, ip, lr}
 1f0:	51510001 	cmppl	r1, r1
 1f4:	8208005b 	andhi	r0, r8, #91	; 0x5b
 1f8:	0108005b 	qaddeq	r0, fp, r8
 1fc:	5b825800 	blpl	fe096204 <_estack+0xde046205>
 200:	5b8c0800 	blpl	fe302208 <_estack+0xde2b2209>
 204:	00010800 	andeq	r0, r1, r0, lsl #16
 208:	005b8c51 	subseq	r8, fp, r1, asr ip
 20c:	005b9408 	subseq	r9, fp, r8, lsl #8
 210:	58000108 	stmdapl	r0, {r3, r8}
 214:	08005b94 	stmdaeq	r0, {r2, r4, r7, r8, r9, fp, ip, lr}
 218:	08005b9c 	stmdaeq	r0, {r2, r3, r4, r7, r8, r9, fp, ip, lr}
 21c:	01f30004 	mvnseq	r0, r4
 220:	00009f51 	andeq	r9, r0, r1, asr pc
 224:	00000000 	andeq	r0, r0, r0
 228:	5af80000 	bpl	ffe00230 <_estack+0xdfdb0231>
 22c:	5b180800 	blpl	602234 <_Min_Stack_Size+0x601e34>
 230:	00010800 	andeq	r0, r1, r0, lsl #16
 234:	005b1852 	subseq	r1, fp, r2, asr r8
 238:	005b4608 	subseq	r4, fp, r8, lsl #12
 23c:	5a000108 	bpl	664 <_Min_Stack_Size+0x264>
 240:	08005b46 	stmdaeq	r0, {r1, r2, r6, r8, r9, fp, ip, lr}
 244:	08005b51 	stmdaeq	r0, {r0, r4, r6, r8, r9, fp, ip, lr}
 248:	51520001 	cmppl	r2, r1
 24c:	8208005b 	andhi	r0, r8, #91	; 0x5b
 250:	0108005b 	qaddeq	r0, fp, r8
 254:	5b825a00 	blpl	fe096a5c <_estack+0xde046a5d>
 258:	5b8c0800 	blpl	fe302260 <_estack+0xde2b2261>
 25c:	00010800 	andeq	r0, r1, r0, lsl #16
 260:	005b8c52 	subseq	r8, fp, r2, asr ip
 264:	005b9408 	subseq	r9, fp, r8, lsl #8
 268:	5a000108 	bpl	690 <_Min_Stack_Size+0x290>
 26c:	08005b94 	stmdaeq	r0, {r2, r4, r7, r8, r9, fp, ip, lr}
 270:	08005b9c 	stmdaeq	r0, {r2, r3, r4, r7, r8, r9, fp, ip, lr}
 274:	01f30004 	mvnseq	r0, r4
 278:	00009f52 	andeq	r9, r0, r2, asr pc
 27c:	00000000 	andeq	r0, r0, r0
 280:	5af80000 	bpl	ffe00288 <_estack+0xdfdb0289>
 284:	5b160800 	blpl	58228c <_Min_Stack_Size+0x581e8c>
 288:	00010800 	andeq	r0, r1, r0, lsl #16
 28c:	005b1653 	subseq	r1, fp, r3, asr r6
 290:	005b4608 	subseq	r4, fp, r8, lsl #12
 294:	59000108 	stmdbpl	r0, {r3, r8}
 298:	08005b46 	stmdaeq	r0, {r1, r2, r6, r8, r9, fp, ip, lr}
 29c:	08005b48 	stmdaeq	r0, {r3, r6, r8, r9, fp, ip, lr}
 2a0:	48530001 	ldmdami	r3, {r0}^
 2a4:	8208005b 	andhi	r0, r8, #91	; 0x5b
 2a8:	0108005b 	qaddeq	r0, fp, r8
 2ac:	5b825900 	blpl	fe0966b4 <_estack+0xde0466b5>
 2b0:	5b8c0800 	blpl	fe3022b8 <_estack+0xde2b22b9>
 2b4:	00010800 	andeq	r0, r1, r0, lsl #16
 2b8:	005b8c53 	subseq	r8, fp, r3, asr ip
 2bc:	005b9408 	subseq	r9, fp, r8, lsl #8
 2c0:	59000108 	stmdbpl	r0, {r3, r8}
 2c4:	08005b94 	stmdaeq	r0, {r2, r4, r7, r8, r9, fp, ip, lr}
 2c8:	08005b9c 	stmdaeq	r0, {r2, r3, r4, r7, r8, r9, fp, ip, lr}
 2cc:	01f30004 	mvnseq	r0, r4
 2d0:	00009f53 	andeq	r9, r0, r3, asr pc
 2d4:	00000000 	andeq	r0, r0, r0
 2d8:	5b180000 	blpl	6002e0 <_Min_Stack_Size+0x5ffee0>
 2dc:	5b380800 	blpl	e022e4 <_Min_Stack_Size+0xe01ee4>
 2e0:	00040800 	andeq	r0, r4, r0, lsl #16
 2e4:	9f018874 	svcls	0x00018874
 2e8:	08005b76 	stmdaeq	r0, {r1, r2, r4, r5, r6, r8, r9, fp, ip, lr}
 2ec:	08005b82 	stmdaeq	r0, {r1, r7, r8, r9, fp, ip, lr}
 2f0:	88740004 	ldmdahi	r4!, {r2}^
 2f4:	00009f01 	andeq	r9, r0, r1, lsl #30
 2f8:	00000000 	andeq	r0, r0, r0
 2fc:	5b040000 	blpl	100304 <_Min_Stack_Size+0xfff04>
 300:	5b520800 	blpl	1482308 <_Min_Stack_Size+0x1481f08>
 304:	00010800 	andeq	r0, r1, r0, lsl #16
 308:	005b5254 	subseq	r5, fp, r4, asr r2
 30c:	005b6608 	subseq	r6, fp, r8, lsl #12
 310:	50000108 	andpl	r0, r0, r8, lsl #2
 314:	08005b66 	stmdaeq	r0, {r1, r2, r5, r6, r8, r9, fp, ip, lr}
 318:	08005b94 	stmdaeq	r0, {r2, r4, r7, r8, r9, fp, ip, lr}
 31c:	00540001 	subseq	r0, r4, r1
 320:	00000000 	andeq	r0, r0, r0
 324:	00000000 	andeq	r0, r0, r0
 328:	00000000 	andeq	r0, r0, r0
 32c:	01000000 	mrseq	r0, (UNDEF: 0)
 330:	00005000 	andeq	r5, r0, r0
 334:	00000000 	andeq	r0, r0, r0
 338:	00010000 	andeq	r0, r1, r0
 33c:	00000059 	andeq	r0, r0, r9, asr r0
 340:	00000000 	andeq	r0, r0, r0
 344:	00000000 	andeq	r0, r0, r0
 348:	00000000 	andeq	r0, r0, r0
 34c:	51000100 	mrspl	r0, (UNDEF: 16)
 350:	00000000 	andeq	r0, r0, r0
 354:	00000000 	andeq	r0, r0, r0
 358:	00560001 	subseq	r0, r6, r1
 35c:	00000000 	andeq	r0, r0, r0
 360:	00000000 	andeq	r0, r0, r0
 364:	00000000 	andeq	r0, r0, r0
 368:	01000000 	mrseq	r0, (UNDEF: 0)
 36c:	00005700 	andeq	r5, r0, r0, lsl #14
 370:	00000000 	andeq	r0, r0, r0
 374:	00010000 	andeq	r0, r1, r0
 378:	00000053 	andeq	r0, r0, r3, asr r0
 37c:	00000000 	andeq	r0, r0, r0
 380:	00000000 	andeq	r0, r0, r0
 384:	00000000 	andeq	r0, r0, r0
 388:	5a000100 	bpl	790 <_Min_Stack_Size+0x390>
 38c:	00000000 	andeq	r0, r0, r0
 390:	00000000 	andeq	r0, r0, r0
 394:	005a0001 	subseq	r0, sl, r1
 398:	00000000 	andeq	r0, r0, r0
 39c:	00000000 	andeq	r0, r0, r0
 3a0:	00000000 	andeq	r0, r0, r0
 3a4:	04000000 	streq	r0, [r0], #-0
 3a8:	01887700 	orreq	r7, r8, r0, lsl #14
 3ac:	0000009f 	muleq	r0, pc, r0	; <UNPREDICTABLE>
 3b0:	00000000 	andeq	r0, r0, r0
 3b4:	77000400 	strvc	r0, [r0, -r0, lsl #8]
 3b8:	009f0188 	addseq	r0, pc, r8, lsl #3
 3bc:	00000000 	andeq	r0, r0, r0
 3c0:	04000000 	streq	r0, [r0], #-0
 3c4:	01887a00 	orreq	r7, r8, r0, lsl #20
 3c8:	0000009f 	muleq	r0, pc, r0	; <UNPREDICTABLE>
 3cc:	00000000 	andeq	r0, r0, r0
 3d0:	00000000 	andeq	r0, r0, r0
 3d4:	00000000 	andeq	r0, r0, r0
 3d8:	74000300 	strvc	r0, [r0], #-768	; 0xfffffd00
 3dc:	00009f7f 	andeq	r9, r0, pc, ror pc
 3e0:	00000000 	andeq	r0, r0, r0
 3e4:	00010000 	andeq	r0, r1, r0
 3e8:	00000055 	andeq	r0, r0, r5, asr r0
 3ec:	00000000 	andeq	r0, r0, r0
 3f0:	55000100 	strpl	r0, [r0, #-256]	; 0xffffff00
 3f4:	00000000 	andeq	r0, r0, r0
 3f8:	00000000 	andeq	r0, r0, r0
 3fc:	00000000 	andeq	r0, r0, r0
 400:	00000000 	andeq	r0, r0, r0
 404:	75310005 	ldrvc	r0, [r1, #-5]!
 408:	009f2400 	addseq	r2, pc, r0, lsl #8
 40c:	00000000 	andeq	r0, r0, r0
 410:	05000000 	streq	r0, [r0, #-0]
 414:	01753100 	cmneq	r5, r0, lsl #2
 418:	00009f24 	andeq	r9, r0, r4, lsr #30
 41c:	00000000 	andeq	r0, r0, r0
 420:	00050000 	andeq	r0, r5, r0
 424:	24007531 	strcs	r7, [r0], #-1329	; 0xfffffacf
 428:	0000009f 	muleq	r0, pc, r0	; <UNPREDICTABLE>
 42c:	00000000 	andeq	r0, r0, r0
 430:	00000000 	andeq	r0, r0, r0
 434:	00000000 	andeq	r0, r0, r0
 438:	52000100 	andpl	r0, r0, #0, 2
 43c:	00000000 	andeq	r0, r0, r0
 440:	00000000 	andeq	r0, r0, r0
 444:	00520001 	subseq	r0, r2, r1
 448:	00000000 	andeq	r0, r0, r0
 44c:	01000000 	mrseq	r0, (UNDEF: 0)
 450:	00005200 	andeq	r5, r0, r0, lsl #4
 454:	00000000 	andeq	r0, r0, r0
 458:	00000000 	andeq	r0, r0, r0
 45c:	00000000 	andeq	r0, r0, r0
 460:	00010000 	andeq	r0, r1, r0
 464:	0000005b 	andeq	r0, r0, fp, asr r0
 468:	00000000 	andeq	r0, r0, r0
 46c:	Address 0x000000000000046c is out of bounds.


Disassembly of section .debug_aranges:

00000000 <.debug_aranges>:
   0:	0000001c 	andeq	r0, r0, ip, lsl r0
   4:	00000002 	andeq	r0, r0, r2
   8:	00040000 	andeq	r0, r4, r0
   c:	00000000 	andeq	r0, r0, r0
  10:	08005aa0 	stmdaeq	r0, {r5, r7, r9, fp, ip, lr}
  14:	0000000a 	andeq	r0, r0, sl
  18:	00000000 	andeq	r0, r0, r0
  1c:	00000000 	andeq	r0, r0, r0
  20:	0000001c 	andeq	r0, r0, ip, lsl r0
  24:	010b0002 	tsteq	fp, r2
  28:	00040000 	andeq	r0, r4, r0
  2c:	00000000 	andeq	r0, r0, r0
  30:	0800026c 	stmdaeq	r0, {r2, r3, r5, r6, r9}
  34:	0000009e 	muleq	r0, lr, r0
  38:	00000000 	andeq	r0, r0, r0
  3c:	00000000 	andeq	r0, r0, r0
  40:	0000001c 	andeq	r0, r0, ip, lsl r0
  44:	01cd0002 	biceq	r0, sp, r2
  48:	00040000 	andeq	r0, r4, r0
  4c:	00000000 	andeq	r0, r0, r0
  50:	08005aac 	stmdaeq	r0, {r2, r3, r5, r7, r9, fp, ip, lr}
  54:	0000000c 	andeq	r0, r0, ip
  58:	00000000 	andeq	r0, r0, r0
  5c:	00000000 	andeq	r0, r0, r0
  60:	0000001c 	andeq	r0, r0, ip, lsl r0
  64:	02d70002 	sbcseq	r0, r7, #2
  68:	00040000 	andeq	r0, r4, r0
  6c:	00000000 	andeq	r0, r0, r0
  70:	08005ab8 	stmdaeq	r0, {r3, r4, r5, r7, r9, fp, ip, lr}
  74:	00000014 	andeq	r0, r0, r4, lsl r0
  78:	00000000 	andeq	r0, r0, r0
  7c:	00000000 	andeq	r0, r0, r0
  80:	0000001c 	andeq	r0, r0, ip, lsl r0
  84:	04120002 	ldreq	r0, [r2], #-2
  88:	00040000 	andeq	r0, r4, r0
  8c:	00000000 	andeq	r0, r0, r0
  90:	08005acc 	stmdaeq	r0, {r2, r3, r6, r7, r9, fp, ip, lr}
  94:	0000002c 	andeq	r0, r0, ip, lsr #32
  98:	00000000 	andeq	r0, r0, r0
  9c:	00000000 	andeq	r0, r0, r0
  a0:	00000014 	andeq	r0, r0, r4, lsl r0
  a4:	05010002 	streq	r0, [r1, #-2]
  a8:	00040000 	andeq	r0, r4, r0
  ac:	00000000 	andeq	r0, r0, r0
  b0:	00000000 	andeq	r0, r0, r0
  b4:	00000000 	andeq	r0, r0, r0
  b8:	0000001c 	andeq	r0, r0, ip, lsl r0
  bc:	0d950002 	ldceq	0, cr0, [r5, #8]
  c0:	00040000 	andeq	r0, r4, r0
  c4:	00000000 	andeq	r0, r0, r0
  c8:	08005af8 	stmdaeq	r0, {r3, r4, r5, r6, r7, r9, fp, ip, lr}
  cc:	000000a4 	andeq	r0, r0, r4, lsr #1
  d0:	00000000 	andeq	r0, r0, r0
  d4:	00000000 	andeq	r0, r0, r0
  d8:	00000024 	andeq	r0, r0, r4, lsr #32
  dc:	16c90002 	strbne	r0, [r9], r2
  e0:	00040000 	andeq	r0, r4, r0
  e4:	00000000 	andeq	r0, r0, r0
  e8:	08005b9c 	stmdaeq	r0, {r2, r3, r4, r7, r8, r9, fp, ip, lr}
  ec:	00000014 	andeq	r0, r0, r4, lsl r0
  f0:	00000000 	andeq	r0, r0, r0
  f4:	000000d4 	ldrdeq	r0, [r0], -r4
  f8:	00000000 	andeq	r0, r0, r0
  fc:	00000000 	andeq	r0, r0, r0

Disassembly of section .debug_ranges:

00000000 <.debug_ranges>:
   0:	08005aa0 	stmdaeq	r0, {r5, r7, r9, fp, ip, lr}
   4:	08005aaa 	stmdaeq	r0, {r1, r3, r5, r7, r9, fp, ip, lr}
   8:	00000000 	andeq	r0, r0, r0
   c:	00000000 	andeq	r0, r0, r0
  10:	08005aac 	stmdaeq	r0, {r2, r3, r5, r7, r9, fp, ip, lr}
  14:	08005ab8 	stmdaeq	r0, {r3, r4, r5, r7, r9, fp, ip, lr}
  18:	00000000 	andeq	r0, r0, r0
  1c:	00000000 	andeq	r0, r0, r0
  20:	08005ab8 	stmdaeq	r0, {r3, r4, r5, r7, r9, fp, ip, lr}
  24:	08005acc 	stmdaeq	r0, {r2, r3, r6, r7, r9, fp, ip, lr}
  28:	00000000 	andeq	r0, r0, r0
  2c:	00000000 	andeq	r0, r0, r0
  30:	08005acc 	stmdaeq	r0, {r2, r3, r6, r7, r9, fp, ip, lr}
  34:	08005af8 	stmdaeq	r0, {r3, r4, r5, r6, r7, r9, fp, ip, lr}
  38:	00000000 	andeq	r0, r0, r0
  3c:	00000000 	andeq	r0, r0, r0
  40:	08005af8 	stmdaeq	r0, {r3, r4, r5, r6, r7, r9, fp, ip, lr}
  44:	08005b9c 	stmdaeq	r0, {r2, r3, r4, r7, r8, r9, fp, ip, lr}
  48:	00000000 	andeq	r0, r0, r0
  4c:	00000000 	andeq	r0, r0, r0
  50:	00000001 	andeq	r0, r0, r1
  54:	00000001 	andeq	r0, r0, r1
  58:	00000001 	andeq	r0, r0, r1
  5c:	00000001 	andeq	r0, r0, r1
  60:	00000000 	andeq	r0, r0, r0
  64:	00000000 	andeq	r0, r0, r0
  68:	08005b9c 	stmdaeq	r0, {r2, r3, r4, r7, r8, r9, fp, ip, lr}
  6c:	08005bb0 	stmdaeq	r0, {r4, r5, r7, r8, r9, fp, ip, lr}
  70:	00000001 	andeq	r0, r0, r1
  74:	00000001 	andeq	r0, r0, r1
  78:	00000000 	andeq	r0, r0, r0
  7c:	00000000 	andeq	r0, r0, r0

Disassembly of section .debug_line:

00000000 <.debug_line>:
   0:	000000da 	ldrdeq	r0, [r0], -sl
   4:	00c30002 	sbceq	r0, r3, r2
   8:	01020000 	mrseq	r0, (UNDEF: 2)
   c:	000d0efb 	strdeq	r0, [sp], -fp
  10:	01010101 	tsteq	r1, r1, lsl #2
  14:	01000000 	mrseq	r0, (UNDEF: 0)
  18:	2e010000 	cdpcs	0, 0, cr0, cr1, cr0, {0}
  1c:	2e2e2f2e 	cdpcs	15, 2, cr2, cr14, cr14, {1}
  20:	2f2e2e2f 	svccs	0x002e2e2f
  24:	2e2f2e2e 	cdpcs	14, 2, cr2, cr15, cr14, {1}
  28:	72732f2e 	rsbsvc	r2, r3, #46, 30	; 0xb8
  2c:	696c2f63 	stmdbvs	ip!, {r0, r1, r5, r6, r8, r9, sl, fp, sp}^
  30:	64747362 	ldrbtvs	r7, [r4], #-866	; 0xfffffc9e
  34:	2d2b2b63 	fstmdbxcs	fp!, {d2-d50}	;@ Deprecated
  38:	6c2f3376 	stcvs	3, cr3, [pc], #-472	; fffffe68 <_estack+0xdffafe69>
  3c:	75736269 	ldrbvc	r6, [r3, #-617]!	; 0xfffffd97
  40:	2b2b6370 	blcs	ad8e08 <_Min_Stack_Size+0xad8a08>
  44:	75622f00 	strbvc	r2, [r2, #-3840]!	; 0xfffff100
  48:	2f646c69 	svccs	0x00646c69
  4c:	7362696c 	cmnvc	r2, #108, 18	; 0x1b0000
  50:	2b636474 	blcs	18d9228 <_Min_Stack_Size+0x18d8e28>
  54:	72612d2b 	rsbvc	r2, r1, #2752	; 0xac0
  58:	6f6e2d6d 	svcvs	0x006e2d6d
  5c:	652d656e 	strvs	r6, [sp, #-1390]!	; 0xfffffa92
  60:	2d696261 	sfmcs	f6, 2, [r9, #-388]!	; 0xfffffe7c
  64:	664e465f 			; <UNDEFINED> instruction: 0x664e465f
  68:	6c2f6764 	stcvs	7, cr6, [pc], #-400	; fffffee0 <_estack+0xdffafee1>
  6c:	74736269 	ldrbtvc	r6, [r3], #-617	; 0xfffffd97
  70:	2b2b6364 	blcs	ad8e08 <_Min_Stack_Size+0xad8a08>
  74:	6d72612d 	ldfvse	f6, [r2, #-180]!	; 0xffffff4c
  78:	6e6f6e2d 	cdpvs	14, 6, cr6, cr15, cr13, {1}
  7c:	61652d65 	cmnvs	r5, r5, ror #26
  80:	382d6962 	stmdacc	sp!, {r1, r5, r6, r8, fp, sp, lr}
  84:	6372732f 	cmnvs	r2, #-1140850688	; 0xbc000000
  88:	62696c2f 	rsbvs	r6, r9, #12032	; 0x2f00
  8c:	63647473 	cmnvs	r4, #1929379840	; 0x73000000
  90:	762d2b2b 	strtvc	r2, [sp], -fp, lsr #22
  94:	696c2f33 	stmdbvs	ip!, {r0, r1, r4, r5, r8, r9, sl, fp, sp}^
  98:	70757362 	rsbsvc	r7, r5, r2, ror #6
  9c:	002b2b63 	eoreq	r2, fp, r3, ror #22
  a0:	65746100 	ldrbvs	r6, [r4, #-256]!	; 0xffffff00
  a4:	5f746978 	svcpl	0x00746978
  a8:	2e6d7261 	cdpcs	2, 6, cr7, cr13, cr1, {3}
  ac:	01006363 	tsteq	r0, r3, ror #6
  b0:	623c0000 	eorsvs	r0, ip, #0
  b4:	746c6975 	strbtvc	r6, [ip], #-2421	; 0xfffff68b
  b8:	3e6e692d 	cdpcc	9, 6, cr6, cr14, cr13, {1}
  bc:	00000000 	andeq	r0, r0, r0
  c0:	61787863 	cmnvs	r8, r3, ror #16
  c4:	682e6962 	stmdavs	lr!, {r1, r5, r6, r8, fp, sp, lr}
  c8:	00000200 	andeq	r0, r0, r0, lsl #4
  cc:	02050000 	andeq	r0, r5, #0
  d0:	08005aa0 	stmdaeq	r0, {r5, r7, r9, fp, ip, lr}
  d4:	01012103 	tsteq	r1, r3, lsl #2
  d8:	00040221 	andeq	r0, r4, r1, lsr #4
  dc:	008a0101 	addeq	r0, sl, r1, lsl #2
  e0:	00020000 	andeq	r0, r2, r0
  e4:	00000048 	andeq	r0, r0, r8, asr #32
  e8:	0efb0102 	cdpeq	1, 15, cr0, cr11, cr2, {0}
  ec:	0101000d 	tsteq	r1, sp
  f0:	00000101 	andeq	r0, r0, r1, lsl #2
  f4:	00000100 	andeq	r0, r0, r0, lsl #2
  f8:	2f2e2e01 	svccs	0x002e2e01
  fc:	2e2f2e2e 	cdpcs	14, 2, cr2, cr15, cr14, {1}
 100:	2e2e2f2e 	cdpcs	15, 2, cr2, cr14, cr14, {1}
 104:	2f2e2e2f 	svccs	0x002e2e2f
 108:	2f637273 	svccs	0x00637273
 10c:	6762696c 	strbvs	r6, [r2, -ip, ror #18]!
 110:	632f6363 			; <UNDEFINED> instruction: 0x632f6363
 114:	69666e6f 	stmdbvs	r6!, {r0, r1, r2, r3, r5, r6, r9, sl, fp, sp, lr}^
 118:	72612f67 	rsbvc	r2, r1, #412	; 0x19c
 11c:	6900006d 	stmdbvs	r0, {r0, r2, r3, r5, r6}
 120:	37656565 	strbcc	r6, [r5, -r5, ror #10]!
 124:	642d3435 	strtvs	r3, [sp], #-1077	; 0xfffffbcb
 128:	00532e66 	subseq	r2, r3, r6, ror #28
 12c:	00000001 	andeq	r0, r0, r1
 130:	6c020500 	cfstr32vs	mvfx0, [r2], {-0}
 134:	03080002 	movweq	r0, #32770	; 0x8002
 138:	2f010abc 	svccs	0x00010abc
 13c:	2f2f212f 	svccs	0x002f212f
 140:	2f2f2f23 	svccs	0x002f2f23
 144:	2f212f2f 	svccs	0x00212f2f
 148:	2f232f23 	svccs	0x00232f23
 14c:	2f232f21 	svccs	0x00232f21
 150:	32302f2f 	eorscc	r2, r0, #47, 30	; 0xbc
 154:	2f2f212f 	svccs	0x002f212f
 158:	2f2f4b2f 	svccs	0x002f4b2f
 15c:	2f212f23 	svccs	0x00212f23
 160:	232f2f21 			; <UNDEFINED> instruction: 0x232f2f21
 164:	022f2f2f 	eoreq	r2, pc, #47, 30	; 0xbc
 168:	01010001 	tsteq	r1, r1
 16c:	000000c0 	andeq	r0, r0, r0, asr #1
 170:	00a90002 	adceq	r0, r9, r2
 174:	01020000 	mrseq	r0, (UNDEF: 2)
 178:	000d0efb 	strdeq	r0, [sp], -fp
 17c:	01010101 	tsteq	r1, r1, lsl #2
 180:	01000000 	mrseq	r0, (UNDEF: 0)
 184:	2e010000 	cdpcs	0, 0, cr0, cr1, cr0, {0}
 188:	2e2e2f2e 	cdpcs	15, 2, cr2, cr14, cr14, {1}
 18c:	2f2e2e2f 	svccs	0x002e2e2f
 190:	2e2f2e2e 	cdpcs	14, 2, cr2, cr15, cr14, {1}
 194:	2e2e2f2e 	cdpcs	15, 2, cr2, cr14, cr14, {1}
 198:	2f2e2e2f 	svccs	0x002e2e2f
 19c:	6c77656e 	cfldr64vs	mvdx6, [r7], #-440	; 0xfffffe48
 1a0:	6c2f6269 	sfmvs	f6, 4, [pc], #-420	; 4 <_Min_Heap_Size-0x1fc>
 1a4:	2f636269 	svccs	0x00636269
 1a8:	6c647473 	cfstrdvs	mvd7, [r4], #-460	; 0xfffffe34
 1ac:	2f006269 	svccs	0x00006269
 1b0:	6c697562 	cfstr64vs	mvdx7, [r9], #-392	; 0xfffffe78
 1b4:	656e2f64 	strbvs	r2, [lr, #-3940]!	; 0xfffff09c
 1b8:	62696c77 	rsbvs	r6, r9, #30464	; 0x7700
 1bc:	777a352d 	ldrbvc	r3, [sl, -sp, lsr #10]!
 1c0:	2f457870 	svccs	0x00457870
 1c4:	6c77656e 	cfldr64vs	mvdx6, [r7], #-440	; 0xfffffe48
 1c8:	322d6269 	eorcc	r6, sp, #-1879048186	; 0x90000006
 1cc:	302e322e 	eorcc	r3, lr, lr, lsr #4
 1d0:	7469672b 	strbtvc	r6, [r9], #-1835	; 0xfffff8d5
 1d4:	35313032 	ldrcc	r3, [r1, #-50]!	; 0xffffffce
 1d8:	30333830 	eorscc	r3, r3, r0, lsr r8
 1dc:	3361352e 	cmncc	r1, #192937984	; 0xb800000
 1e0:	36333564 	ldrtcc	r3, [r3], -r4, ror #10
 1e4:	77656e2f 	strbvc	r6, [r5, -pc, lsr #28]!
 1e8:	2f62696c 	svccs	0x0062696c
 1ec:	6362696c 	cmnvs	r2, #108, 18	; 0x1b0000
 1f0:	636e692f 	cmnvs	lr, #770048	; 0xbc000
 1f4:	6564756c 	strbvs	r7, [r4, #-1388]!	; 0xfffffa94
 1f8:	74610000 	strbtvc	r0, [r1], #-0
 1fc:	74697865 	strbtvc	r7, [r9], #-2149	; 0xfffff79b
 200:	0100632e 	tsteq	r0, lr, lsr #6
 204:	74610000 	strbtvc	r0, [r1], #-0
 208:	74697865 	strbtvc	r7, [r9], #-2149	; 0xfffff79b
 20c:	0100682e 	tsteq	r0, lr, lsr #16
 210:	74730000 	ldrbtvc	r0, [r3], #-0
 214:	62696c64 	rsbvs	r6, r9, #100, 24	; 0x6400
 218:	0200682e 	andeq	r6, r0, #3014656	; 0x2e0000
 21c:	00000000 	andeq	r0, r0, r0
 220:	5aac0205 	bpl	feb00a3c <_estack+0xdeab0a3d>
 224:	3f030800 	svccc	0x00030800
 228:	02210101 	eoreq	r0, r1, #1073741824	; 0x40000000
 22c:	01010005 	tsteq	r1, r5
 230:	00000072 	andeq	r0, r0, r2, ror r0
 234:	00570002 	subseq	r0, r7, r2
 238:	01020000 	mrseq	r0, (UNDEF: 2)
 23c:	000d0efb 	strdeq	r0, [sp], -fp
 240:	01010101 	tsteq	r1, r1, lsl #2
 244:	01000000 	mrseq	r0, (UNDEF: 0)
 248:	2e010000 	cdpcs	0, 0, cr0, cr1, cr0, {0}
 24c:	2e2e2f2e 	cdpcs	15, 2, cr2, cr14, cr14, {1}
 250:	2f2e2e2f 	svccs	0x002e2e2f
 254:	2e2f2e2e 	cdpcs	14, 2, cr2, cr15, cr14, {1}
 258:	2e2e2f2e 	cdpcs	15, 2, cr2, cr14, cr14, {1}
 25c:	2f2e2e2f 	svccs	0x002e2e2f
 260:	6c77656e 	cfldr64vs	mvdx6, [r7], #-440	; 0xfffffe48
 264:	6c2f6269 	sfmvs	f6, 4, [pc], #-420	; c8 <_Min_Heap_Size-0x138>
 268:	2f636269 	svccs	0x00636269
 26c:	6c647473 	cfstrdvs	mvd7, [r4], #-460	; 0xfffffe34
 270:	00006269 	andeq	r6, r0, r9, ror #4
 274:	5f617863 	svcpl	0x00617863
 278:	78657461 	stmdavc	r5!, {r0, r5, r6, sl, ip, sp, lr}^
 27c:	632e7469 			; <UNDEFINED> instruction: 0x632e7469
 280:	00000100 	andeq	r0, r0, r0, lsl #2
 284:	78657461 	stmdavc	r5!, {r0, r5, r6, sl, ip, sp, lr}^
 288:	682e7469 	stmdavs	lr!, {r0, r3, r5, r6, sl, ip, sp, lr}
 28c:	00000100 	andeq	r0, r0, r0, lsl #2
 290:	02050000 	andeq	r0, r5, #0
 294:	08005ab8 	stmdaeq	r0, {r3, r4, r5, r7, r9, fp, ip, lr}
 298:	20011403 	andcs	r1, r1, r3, lsl #8
 29c:	3d2e0a03 	vstmdbcc	lr!, {s0-s2}
 2a0:	0002022d 	andeq	r0, r2, sp, lsr #4
 2a4:	009b0101 	addseq	r0, fp, r1, lsl #2
 2a8:	00020000 	andeq	r0, r2, r0
 2ac:	00000078 	andeq	r0, r0, r8, ror r0
 2b0:	0efb0102 	cdpeq	1, 15, cr0, cr11, cr2, {0}
 2b4:	0101000d 	tsteq	r1, sp
 2b8:	00000101 	andeq	r0, r0, r1, lsl #2
 2bc:	00000100 	andeq	r0, r0, r0, lsl #2
 2c0:	2f2e2e01 	svccs	0x002e2e01
 2c4:	2e2f2e2e 	cdpcs	14, 2, cr2, cr15, cr14, {1}
 2c8:	2e2e2f2e 	cdpcs	15, 2, cr2, cr14, cr14, {1}
 2cc:	2f2e2e2f 	svccs	0x002e2e2f
 2d0:	2e2f2e2e 	cdpcs	14, 2, cr2, cr15, cr14, {1}
 2d4:	656e2f2e 	strbvs	r2, [lr, #-3886]!	; 0xfffff0d2
 2d8:	62696c77 	rsbvs	r6, r9, #30464	; 0x7700
 2dc:	62696c2f 	rsbvs	r6, r9, #12032	; 0x2f00
 2e0:	696d2f63 	stmdbvs	sp!, {r0, r1, r5, r6, r8, r9, sl, fp, sp}^
 2e4:	2f006373 	svccs	0x00006373
 2e8:	2f727375 	svccs	0x00727375
 2ec:	2f62696c 	svccs	0x0062696c
 2f0:	2f636367 	svccs	0x00636367
 2f4:	2d6d7261 	sfmcs	f7, 2, [sp, #-388]!	; 0xfffffe7c
 2f8:	656e6f6e 	strbvs	r6, [lr, #-3950]!	; 0xfffff092
 2fc:	6261652d 	rsbvs	r6, r1, #188743680	; 0xb400000
 300:	2e342f69 	cdpcs	15, 3, cr2, cr4, cr9, {3}
 304:	2f332e39 	svccs	0x00332e39
 308:	6c636e69 	stclvs	14, cr6, [r3], #-420	; 0xfffffe5c
 30c:	00656475 	rsbeq	r6, r5, r5, ror r4
 310:	6e696600 	cdpvs	6, 6, cr6, cr9, cr0, {0}
 314:	00632e69 	rsbeq	r2, r3, r9, ror #28
 318:	73000001 	movwvc	r0, #1
 31c:	65646474 	strbvs	r6, [r4, #-1140]!	; 0xfffffb8c
 320:	00682e66 	rsbeq	r2, r8, r6, ror #28
 324:	00000002 	andeq	r0, r0, r2
 328:	cc020500 	cfstr32gt	mvfx0, [r2], {-0}
 32c:	0308005a 	movweq	r0, #32858	; 0x805a
 330:	3d240118 	stfccs	f0, [r4, #-96]!	; 0xffffffa0
 334:	03040200 	movweq	r0, #16896	; 0x4200
 338:	0402004b 	streq	r0, [r2], #-75	; 0xffffffb5
 33c:	2d324903 	ldccs	9, cr4, [r2, #-12]!
 340:	01000602 	tsteq	r0, r2, lsl #12
 344:	0000f001 	andeq	pc, r0, r1
 348:	ea000200 	b	b50 <_Min_Stack_Size+0x750>
 34c:	02000000 	andeq	r0, r0, #0
 350:	0d0efb01 	vstreq	d15, [lr, #-4]
 354:	01010100 	mrseq	r0, (UNDEF: 17)
 358:	00000001 	andeq	r0, r0, r1
 35c:	01000001 	tsteq	r0, r1
 360:	6975622f 	ldmdbvs	r5!, {r0, r1, r2, r3, r5, r9, sp, lr}^
 364:	6e2f646c 	cdpvs	4, 2, cr6, cr15, cr12, {3}
 368:	696c7765 	stmdbvs	ip!, {r0, r2, r5, r6, r8, r9, sl, ip, sp, lr}^
 36c:	7a352d62 	bvc	d4b8fc <_Min_Stack_Size+0xd4b4fc>
 370:	45787077 	ldrbmi	r7, [r8, #-119]!	; 0xffffff89
 374:	77656e2f 	strbvc	r6, [r5, -pc, lsr #28]!
 378:	2d62696c 	stclcs	9, cr6, [r2, #-432]!	; 0xfffffe50
 37c:	2e322e32 	mrccs	14, 1, r2, cr2, cr2, {1}
 380:	69672b30 	stmdbvs	r7!, {r4, r5, r8, r9, fp, sp}^
 384:	31303274 	teqcc	r0, r4, ror r2
 388:	33383035 	teqcc	r8, #53	; 0x35
 38c:	61352e30 	teqvs	r5, r0, lsr lr
 390:	33356433 	teqcc	r5, #855638016	; 0x33000000
 394:	656e2f36 	strbvs	r2, [lr, #-3894]!	; 0xfffff0ca
 398:	62696c77 	rsbvs	r6, r9, #30464	; 0x7700
 39c:	62696c2f 	rsbvs	r6, r9, #12032	; 0x2f00
 3a0:	6e692f63 	cdpvs	15, 6, cr2, cr9, cr3, {3}
 3a4:	64756c63 	ldrbtvs	r6, [r5], #-3171	; 0xfffff39d
 3a8:	79732f65 	ldmdbvc	r3!, {r0, r2, r5, r6, r8, r9, sl, fp, sp}^
 3ac:	752f0073 	strvc	r0, [pc, #-115]!	; 341 <_Min_Heap_Size+0x141>
 3b0:	6c2f7273 	sfmvs	f7, 4, [pc], #-460	; 1ec <_Min_Heap_Size-0x14>
 3b4:	672f6269 	strvs	r6, [pc, -r9, ror #4]!
 3b8:	612f6363 			; <UNDEFINED> instruction: 0x612f6363
 3bc:	6e2d6d72 	mcrvs	13, 1, r6, cr13, cr2, {3}
 3c0:	2d656e6f 	stclcs	14, cr6, [r5, #-444]!	; 0xfffffe44
 3c4:	69626165 	stmdbvs	r2!, {r0, r2, r5, r6, r8, sp, lr}^
 3c8:	392e342f 	stmdbcc	lr!, {r0, r1, r2, r3, r5, sl, ip, sp}
 3cc:	692f332e 	stmdbvs	pc!, {r1, r2, r3, r5, r8, r9, ip, sp}	; <UNPREDICTABLE>
 3d0:	756c636e 	strbvc	r6, [ip, #-878]!	; 0xfffffc92
 3d4:	2e006564 	cfsh32cs	mvfx6, mvfx0, #52
 3d8:	2e2e2f2e 	cdpcs	15, 2, cr2, cr14, cr14, {1}
 3dc:	2f2e2e2f 	svccs	0x002e2e2f
 3e0:	2e2f2e2e 	cdpcs	14, 2, cr2, cr15, cr14, {1}
 3e4:	2e2e2f2e 	cdpcs	15, 2, cr2, cr14, cr14, {1}
 3e8:	2f2e2e2f 	svccs	0x002e2e2f
 3ec:	6c77656e 	cfldr64vs	mvdx6, [r7], #-440	; 0xfffffe48
 3f0:	6c2f6269 	sfmvs	f6, 4, [pc], #-420	; 254 <_Min_Heap_Size+0x54>
 3f4:	2f636269 	svccs	0x00636269
 3f8:	6e656572 	mcrvs	5, 3, r6, cr5, cr2, {3}
 3fc:	6c000074 	stcvs	0, cr0, [r0], {116}	; 0x74
 400:	2e6b636f 	cdpcs	3, 6, cr6, cr11, cr15, {3}
 404:	00010068 	andeq	r0, r1, r8, rrx
 408:	79745f00 	ldmdbvc	r4!, {r8, r9, sl, fp, ip, lr}^
 40c:	2e736570 	mrccs	5, 3, r6, cr3, cr0, {3}
 410:	00010068 	andeq	r0, r1, r8, rrx
 414:	64747300 	ldrbtvs	r7, [r4], #-768	; 0xfffffd00
 418:	2e666564 	cdpcs	5, 6, cr6, cr6, cr4, {3}
 41c:	00020068 	andeq	r0, r2, r8, rrx
 420:	65657200 	strbvs	r7, [r5, #-512]!	; 0xfffffe00
 424:	682e746e 	stmdavs	lr!, {r1, r2, r3, r5, r6, sl, ip, sp, lr}
 428:	00000100 	andeq	r0, r0, r0, lsl #2
 42c:	75706d69 	ldrbvc	r6, [r0, #-3433]!	; 0xfffff297
 430:	632e6572 			; <UNDEFINED> instruction: 0x632e6572
 434:	00000300 	andeq	r0, r0, r0, lsl #6
 438:	00019200 	andeq	r9, r1, r0, lsl #4
 43c:	4f000200 	svcmi	0x00000200
 440:	02000001 	andeq	r0, r0, #1
 444:	0d0efb01 	vstreq	d15, [lr, #-4]
 448:	01010100 	mrseq	r0, (UNDEF: 17)
 44c:	00000001 	andeq	r0, r0, r1
 450:	01000001 	tsteq	r0, r1
 454:	2e2f2e2e 	cdpcs	14, 2, cr2, cr15, cr14, {1}
 458:	2e2e2f2e 	cdpcs	15, 2, cr2, cr14, cr14, {1}
 45c:	2f2e2e2f 	svccs	0x002e2e2f
 460:	2e2f2e2e 	cdpcs	14, 2, cr2, cr15, cr14, {1}
 464:	2e2e2f2e 	cdpcs	15, 2, cr2, cr14, cr14, {1}
 468:	77656e2f 	strbvc	r6, [r5, -pc, lsr #28]!
 46c:	2f62696c 	svccs	0x0062696c
 470:	6362696c 	cmnvs	r2, #108, 18	; 0x1b0000
 474:	6474732f 	ldrbtvs	r7, [r4], #-815	; 0xfffffcd1
 478:	0062696c 	rsbeq	r6, r2, ip, ror #18
 47c:	7273752f 	rsbsvc	r7, r3, #197132288	; 0xbc00000
 480:	62696c2f 	rsbvs	r6, r9, #12032	; 0x2f00
 484:	6363672f 	cmnvs	r3, #12320768	; 0xbc0000
 488:	6d72612f 	ldfvse	f6, [r2, #-188]!	; 0xffffff44
 48c:	6e6f6e2d 	cdpvs	14, 6, cr6, cr15, cr13, {1}
 490:	61652d65 	cmnvs	r5, r5, ror #26
 494:	342f6962 	strtcc	r6, [pc], #-2402	; 49c <_Min_Stack_Size+0x9c>
 498:	332e392e 			; <UNDEFINED> instruction: 0x332e392e
 49c:	636e692f 	cmnvs	lr, #770048	; 0xbc000
 4a0:	6564756c 	strbvs	r7, [r4, #-1388]!	; 0xfffffa94
 4a4:	75622f00 	strbvc	r2, [r2, #-3840]!	; 0xfffff100
 4a8:	2f646c69 	svccs	0x00646c69
 4ac:	6c77656e 	cfldr64vs	mvdx6, [r7], #-440	; 0xfffffe48
 4b0:	352d6269 	strcc	r6, [sp, #-617]!	; 0xfffffd97
 4b4:	7870777a 	ldmdavc	r0!, {r1, r3, r4, r5, r6, r8, r9, sl, ip, sp, lr}^
 4b8:	656e2f45 	strbvs	r2, [lr, #-3909]!	; 0xfffff0bb
 4bc:	62696c77 	rsbvs	r6, r9, #30464	; 0x7700
 4c0:	322e322d 	eorcc	r3, lr, #-805306366	; 0xd0000002
 4c4:	672b302e 	strvs	r3, [fp, -lr, lsr #32]!
 4c8:	30327469 	eorscc	r7, r2, r9, ror #8
 4cc:	38303531 	ldmdacc	r0!, {r0, r4, r5, r8, sl, ip, sp}
 4d0:	352e3033 	strcc	r3, [lr, #-51]!	; 0xffffffcd
 4d4:	35643361 	strbcc	r3, [r4, #-865]!	; 0xfffffc9f
 4d8:	6e2f3633 	mcrvs	6, 1, r3, cr15, cr3, {1}
 4dc:	696c7765 	stmdbvs	ip!, {r0, r2, r5, r6, r8, r9, sl, ip, sp, lr}^
 4e0:	696c2f62 	stmdbvs	ip!, {r1, r5, r6, r8, r9, sl, fp, sp}^
 4e4:	692f6362 	stmdbvs	pc!, {r1, r5, r6, r8, r9, sp, lr}	; <UNPREDICTABLE>
 4e8:	756c636e 	strbvc	r6, [ip, #-878]!	; 0xfffffc92
 4ec:	732f6564 			; <UNDEFINED> instruction: 0x732f6564
 4f0:	2f007379 	svccs	0x00007379
 4f4:	6c697562 	cfstr64vs	mvdx7, [r9], #-392	; 0xfffffe78
 4f8:	656e2f64 	strbvs	r2, [lr, #-3940]!	; 0xfffff09c
 4fc:	62696c77 	rsbvs	r6, r9, #30464	; 0x7700
 500:	777a352d 	ldrbvc	r3, [sl, -sp, lsr #10]!
 504:	2f457870 	svccs	0x00457870
 508:	6c77656e 	cfldr64vs	mvdx6, [r7], #-440	; 0xfffffe48
 50c:	322d6269 	eorcc	r6, sp, #-1879048186	; 0x90000006
 510:	302e322e 	eorcc	r3, lr, lr, lsr #4
 514:	7469672b 	strbtvc	r6, [r9], #-1835	; 0xfffff8d5
 518:	35313032 	ldrcc	r3, [r1, #-50]!	; 0xffffffce
 51c:	30333830 	eorscc	r3, r3, r0, lsr r8
 520:	3361352e 	cmncc	r1, #192937984	; 0xb800000
 524:	36333564 	ldrtcc	r3, [r3], -r4, ror #10
 528:	77656e2f 	strbvc	r6, [r5, -pc, lsr #28]!
 52c:	2f62696c 	svccs	0x0062696c
 530:	6362696c 	cmnvs	r2, #108, 18	; 0x1b0000
 534:	636e692f 	cmnvs	lr, #770048	; 0xbc000
 538:	6564756c 	strbvs	r7, [r4, #-1388]!	; 0xfffffa94
 53c:	5f5f0000 	svcpl	0x005f0000
 540:	78657461 	stmdavc	r5!, {r0, r5, r6, sl, ip, sp, lr}^
 544:	632e7469 			; <UNDEFINED> instruction: 0x632e7469
 548:	00000100 	andeq	r0, r0, r0, lsl #2
 54c:	64647473 	strbtvs	r7, [r4], #-1139	; 0xfffffb8d
 550:	682e6665 	stmdavs	lr!, {r0, r2, r5, r6, r9, sl, sp, lr}
 554:	00000200 	andeq	r0, r0, r0, lsl #4
 558:	6b636f6c 	blvs	18dc310 <_Min_Stack_Size+0x18dbf10>
 55c:	0300682e 	movweq	r6, #2094	; 0x82e
 560:	745f0000 	ldrbvc	r0, [pc], #-0	; 568 <_Min_Stack_Size+0x168>
 564:	73657079 	cmnvc	r5, #121	; 0x79
 568:	0300682e 	movweq	r6, #2094	; 0x82e
 56c:	65720000 	ldrbvs	r0, [r2, #-0]!
 570:	2e746e65 	cdpcs	14, 7, cr6, cr4, cr5, {3}
 574:	00030068 	andeq	r0, r3, r8, rrx
 578:	65746100 	ldrbvs	r6, [r4, #-256]!	; 0xffffff00
 57c:	2e746978 	mrccs	9, 3, r6, cr4, cr8, {3}
 580:	00010068 	andeq	r0, r1, r8, rrx
 584:	64747300 	ldrbtvs	r7, [r4], #-768	; 0xfffffd00
 588:	2e62696c 	cdpcs	9, 6, cr6, cr2, cr12, {3}
 58c:	00040068 	andeq	r0, r4, r8, rrx
 590:	05000000 	streq	r0, [r0, #-0]
 594:	005af802 	subseq	pc, sl, r2, lsl #16
 598:	00c70308 	sbceq	r0, r7, r8, lsl #6
 59c:	78033601 	stmdavc	r3, {r0, r9, sl, ip, sp}
 5a0:	4a09034a 	bmi	2412d0 <_Min_Stack_Size+0x240ed0>
 5a4:	4a1e0322 	bmi	781234 <_Min_Stack_Size+0x780e34>
 5a8:	1f3c1803 	svcne	0x003c1803
 5ac:	2f1e5a2f 	svccs	0x001e5a2f
 5b0:	214e232f 	cmpcs	lr, pc, lsr #6
 5b4:	312e4703 			; <UNDEFINED> instruction: 0x312e4703
 5b8:	212d364b 			; <UNDEFINED> instruction: 0x212d364b
 5bc:	2f2d312f 	svccs	0x002d312f
 5c0:	3c1b0335 	ldccc	3, cr0, [fp], {53}	; 0x35
 5c4:	03664603 	cmneq	r6, #3145728	; 0x300000
 5c8:	08025809 	stmdaeq	r2, {r0, r3, fp, ip, lr}
 5cc:	c4010100 	strgt	r0, [r1], #-256	; 0xffffff00
 5d0:	02000001 	andeq	r0, r0, #1
 5d4:	00014800 	andeq	r4, r1, r0, lsl #16
 5d8:	fb010200 	blx	40de2 <_Min_Stack_Size+0x409e2>
 5dc:	01000d0e 	tsteq	r0, lr, lsl #26
 5e0:	00010101 	andeq	r0, r1, r1, lsl #2
 5e4:	00010000 	andeq	r0, r1, r0
 5e8:	2e2e0100 	sufcse	f0, f6, f0
 5ec:	2f2e2e2f 	svccs	0x002e2e2f
 5f0:	2e2f2e2e 	cdpcs	14, 2, cr2, cr15, cr14, {1}
 5f4:	2e2e2f2e 	cdpcs	15, 2, cr2, cr14, cr14, {1}
 5f8:	2f2e2e2f 	svccs	0x002e2e2f
 5fc:	6e2f2e2e 	cdpvs	14, 2, cr2, cr15, cr14, {1}
 600:	696c7765 	stmdbvs	ip!, {r0, r2, r5, r6, r8, r9, sl, ip, sp, lr}^
 604:	696c2f62 	stmdbvs	ip!, {r1, r5, r6, r8, r9, sl, fp, sp}^
 608:	732f6362 			; <UNDEFINED> instruction: 0x732f6362
 60c:	696c6474 	stmdbvs	ip!, {r2, r4, r5, r6, sl, sp, lr}^
 610:	622f0062 	eorvs	r0, pc, #98	; 0x62
 614:	646c6975 	strbtvs	r6, [ip], #-2421	; 0xfffff68b
 618:	77656e2f 	strbvc	r6, [r5, -pc, lsr #28]!
 61c:	2d62696c 	stclcs	9, cr6, [r2, #-432]!	; 0xfffffe50
 620:	70777a35 	rsbsvc	r7, r7, r5, lsr sl
 624:	6e2f4578 	mcrvs	5, 1, r4, cr15, cr8, {3}
 628:	696c7765 	stmdbvs	ip!, {r0, r2, r5, r6, r8, r9, sl, ip, sp, lr}^
 62c:	2e322d62 	cdpcs	13, 3, cr2, cr2, cr2, {3}
 630:	2b302e32 	blcs	c0bf00 <_Min_Stack_Size+0xc0bb00>
 634:	32746967 	rsbscc	r6, r4, #1687552	; 0x19c000
 638:	30353130 	eorscc	r3, r5, r0, lsr r1
 63c:	2e303338 	mrccs	3, 1, r3, cr0, cr8, {1}
 640:	64336135 	ldrtvs	r6, [r3], #-309	; 0xfffffecb
 644:	2f363335 	svccs	0x00363335
 648:	6c77656e 	cfldr64vs	mvdx6, [r7], #-440	; 0xfffffe48
 64c:	6c2f6269 	sfmvs	f6, 4, [pc], #-420	; 4b0 <_Min_Stack_Size+0xb0>
 650:	2f636269 	svccs	0x00636269
 654:	6c636e69 	stclvs	14, cr6, [r3], #-420	; 0xfffffe5c
 658:	2f656475 	svccs	0x00656475
 65c:	00737973 	rsbseq	r7, r3, r3, ror r9
 660:	7273752f 	rsbsvc	r7, r3, #197132288	; 0xbc00000
 664:	62696c2f 	rsbvs	r6, r9, #12032	; 0x2f00
 668:	6363672f 	cmnvs	r3, #12320768	; 0xbc0000
 66c:	6d72612f 	ldfvse	f6, [r2, #-188]!	; 0xffffff44
 670:	6e6f6e2d 	cdpvs	14, 6, cr6, cr15, cr13, {1}
 674:	61652d65 	cmnvs	r5, r5, ror #26
 678:	342f6962 	strtcc	r6, [pc], #-2402	; 680 <_Min_Stack_Size+0x280>
 67c:	332e392e 			; <UNDEFINED> instruction: 0x332e392e
 680:	636e692f 	cmnvs	lr, #770048	; 0xbc000
 684:	6564756c 	strbvs	r7, [r4, #-1388]!	; 0xfffffa94
 688:	75622f00 	strbvc	r2, [r2, #-3840]!	; 0xfffff100
 68c:	2f646c69 	svccs	0x00646c69
 690:	6c77656e 	cfldr64vs	mvdx6, [r7], #-440	; 0xfffffe48
 694:	352d6269 	strcc	r6, [sp, #-617]!	; 0xfffffd97
 698:	7870777a 	ldmdavc	r0!, {r1, r3, r4, r5, r6, r8, r9, sl, ip, sp, lr}^
 69c:	656e2f45 	strbvs	r2, [lr, #-3909]!	; 0xfffff0bb
 6a0:	62696c77 	rsbvs	r6, r9, #30464	; 0x7700
 6a4:	322e322d 	eorcc	r3, lr, #-805306366	; 0xd0000002
 6a8:	672b302e 	strvs	r3, [fp, -lr, lsr #32]!
 6ac:	30327469 	eorscc	r7, r2, r9, ror #8
 6b0:	38303531 	ldmdacc	r0!, {r0, r4, r5, r8, sl, ip, sp}
 6b4:	352e3033 	strcc	r3, [lr, #-51]!	; 0xffffffcd
 6b8:	35643361 	strbcc	r3, [r4, #-865]!	; 0xfffffc9f
 6bc:	6e2f3633 	mcrvs	6, 1, r3, cr15, cr3, {1}
 6c0:	696c7765 	stmdbvs	ip!, {r0, r2, r5, r6, r8, r9, sl, ip, sp, lr}^
 6c4:	696c2f62 	stmdbvs	ip!, {r1, r5, r6, r8, r9, sl, fp, sp}^
 6c8:	692f6362 	stmdbvs	pc!, {r1, r5, r6, r8, r9, sp, lr}	; <UNPREDICTABLE>
 6cc:	756c636e 	strbvc	r6, [ip, #-878]!	; 0xfffffc92
 6d0:	00006564 	andeq	r6, r0, r4, ror #10
 6d4:	61635f5f 	cmnvs	r3, pc, asr pc
 6d8:	615f6c6c 	cmpvs	pc, ip, ror #24
 6dc:	69786574 	ldmdbvs	r8!, {r2, r4, r5, r6, r8, sl, sp, lr}^
 6e0:	00632e74 	rsbeq	r2, r3, r4, ror lr
 6e4:	6c000001 	stcvs	0, cr0, [r0], {1}
 6e8:	2e6b636f 	cdpcs	3, 6, cr6, cr11, cr15, {3}
 6ec:	00020068 	andeq	r0, r2, r8, rrx
 6f0:	79745f00 	ldmdbvc	r4!, {r8, r9, sl, fp, ip, lr}^
 6f4:	2e736570 	mrccs	5, 3, r6, cr3, cr0, {3}
 6f8:	00020068 	andeq	r0, r2, r8, rrx
 6fc:	64747300 	ldrbtvs	r7, [r4], #-768	; 0xfffffd00
 700:	2e666564 	cdpcs	5, 6, cr6, cr6, cr4, {3}
 704:	00030068 	andeq	r0, r3, r8, rrx
 708:	65657200 	strbvs	r7, [r5, #-512]!	; 0xfffffe00
 70c:	682e746e 	stmdavs	lr!, {r1, r2, r3, r5, r6, sl, ip, sp, lr}
 710:	00000200 	andeq	r0, r0, r0, lsl #4
 714:	6c647473 	cfstrdvs	mvd7, [r4], #-460	; 0xfffffe34
 718:	682e6269 	stmdavs	lr!, {r0, r3, r5, r6, r9, sp, lr}
 71c:	00000400 	andeq	r0, r0, r0, lsl #8
 720:	02050000 	andeq	r0, r5, #0
 724:	08005b9c 	stmdaeq	r0, {r2, r3, r4, r7, r8, r9, fp, ip, lr}
 728:	13012d03 	movwne	r2, #7427	; 0x1d03
 72c:	00080231 	andeq	r0, r8, r1, lsr r2
 730:	05000101 	streq	r0, [r0, #-257]	; 0xfffffeff
 734:	00000002 	andeq	r0, r0, r2
 738:	00c30300 	sbceq	r0, r3, r0, lsl #6
 73c:	0f038201 	svceq	0x00038201
 740:	03433e3c 	movteq	r3, #15932	; 0x3e3c
 744:	77036610 	smladvc	r3, r0, r6, r6
 748:	0402002e 	streq	r0, [r2], #-46	; 0xffffffd2
 74c:	06200602 	strteq	r0, [r0], -r2, lsl #12
 750:	034a7903 	movteq	r7, #43267	; 0xa903
 754:	0033582c 	eorseq	r5, r3, ip, lsr #16
 758:	06010402 	streq	r0, [r1], -r2, lsl #8
 75c:	1b44063c 	blne	1102054 <_Min_Stack_Size+0x1101c54>
 760:	bf032f33 	svclt	0x00032f33
 764:	ce032e7f 	mcrgt	14, 0, r2, cr3, cr15, {3}
 768:	46032e00 	strmi	r2, [r3], -r0, lsl #28
 76c:	2f211f3c 	svccs	0x00211f3c
 770:	2b343130 	blcs	d0cc38 <_Min_Stack_Size+0xd0c838>
 774:	032e6e03 			; <UNDEFINED> instruction: 0x032e6e03
 778:	032f2e15 			; <UNDEFINED> instruction: 0x032f2e15
 77c:	02002009 	andeq	r2, r0, #9
 780:	3c060104 	stfccs	f0, [r6], {4}
 784:	58780306 	ldmdapl	r8!, {r1, r2, r8, r9}^
 788:	20035a4b 	andcs	r5, r3, fp, asr #20
 78c:	ba032158 	blt	c8cf4 <_Min_Stack_Size+0xc88f4>
 790:	0802207f 	stmdaeq	r2, {r0, r1, r2, r3, r4, r5, r6, sp}
 794:	Address 0x0000000000000794 is out of bounds.


Disassembly of section .debug_str:

00000000 <.debug_str>:
   0:	6975622f 	ldmdbvs	r5!, {r0, r1, r2, r3, r5, r9, sp, lr}^
   4:	6c2f646c 	cfstrsvs	mvf6, [pc], #-432	; fffffe5c <_estack+0xdffafe5d>
   8:	74736269 	ldrbtvc	r6, [r3], #-617	; 0xfffffd97
   c:	2b2b6364 	blcs	ad8da4 <_Min_Stack_Size+0xad89a4>
  10:	6d72612d 	ldfvse	f6, [r2, #-180]!	; 0xffffff4c
  14:	6e6f6e2d 	cdpvs	14, 6, cr6, cr15, cr13, {1}
  18:	61652d65 	cmnvs	r5, r5, ror #26
  1c:	5f2d6962 	svcpl	0x002d6962
  20:	64664e46 	strbtvs	r4, [r6], #-3654	; 0xfffff1ba
  24:	696c2f67 	stmdbvs	ip!, {r0, r1, r2, r5, r6, r8, r9, sl, fp, sp}^
  28:	64747362 	ldrbtvs	r7, [r4], #-866	; 0xfffffc9e
  2c:	2d2b2b63 	fstmdbxcs	fp!, {d2-d50}	;@ Deprecated
  30:	2d6d7261 	sfmcs	f7, 2, [sp, #-388]!	; 0xfffffe7c
  34:	656e6f6e 	strbvs	r6, [lr, #-3950]!	; 0xfffff092
  38:	6261652d 	rsbvs	r6, r1, #188743680	; 0xb400000
  3c:	2f382d69 	svccs	0x00382d69
  40:	6c697562 	cfstr64vs	mvdx7, [r9], #-392	; 0xfffffe78
  44:	72612f64 	rsbvc	r2, r1, #100, 30	; 0x190
  48:	6537766d 	ldrvs	r7, [r7, #-1645]!	; 0xfffff993
  4c:	662f6d2d 	strtvs	r6, [pc], -sp, lsr #26
  50:	6c2f7570 	cfstr32vs	mvfx7, [pc], #-448	; fffffe98 <_estack+0xdffafe99>
  54:	74736269 	ldrbtvc	r6, [r3], #-617	; 0xfffffd97
  58:	2b2b6364 	blcs	ad8df0 <_Min_Stack_Size+0xad89f0>
  5c:	62696c2f 	rsbvs	r6, r9, #12032	; 0x2f00
  60:	63707573 	cmnvs	r0, #482344960	; 0x1cc00000
  64:	5f002b2b 	svcpl	0x00002b2b
  68:	7878635f 	ldmdavc	r8!, {r0, r1, r2, r3, r4, r6, r8, r9, sp, lr}^
  6c:	76696261 	strbtvc	r6, [r9], -r1, ror #4
  70:	5f5f0031 	svcpl	0x005f0031
  74:	62616561 	rsbvs	r6, r1, #406847488	; 0x18400000
  78:	00317669 	eorseq	r7, r1, r9, ror #12
  7c:	74736564 	ldrbtvc	r6, [r3], #-1380	; 0xfffffa9c
  80:	74637572 	strbtvc	r7, [r3], #-1394	; 0xfffffa8e
  84:	5f00726f 	svcpl	0x0000726f
  88:	6165615f 	cmnvs	r5, pc, asr r1
  8c:	615f6962 	cmpvs	pc, r2, ror #18
  90:	69786574 	ldmdbvs	r8!, {r2, r4, r5, r6, r8, sl, sp, lr}^
  94:	4e470074 	mcrmi	0, 2, r0, cr7, cr4, {3}
  98:	2b432055 	blcs	10c81f4 <_Min_Stack_Size+0x10c7df4>
  9c:	2e34202b 	cdpcs	0, 3, cr2, cr4, cr11, {1}
  a0:	20332e39 	eorscs	r2, r3, r9, lsr lr
  a4:	35313032 	ldrcc	r3, [r1, #-50]!	; 0xffffffce
  a8:	39323530 	ldmdbcc	r2!, {r4, r5, r8, sl, ip, sp}
  ac:	72702820 	rsbsvc	r2, r0, #32, 16	; 0x200000
  b0:	6c657265 	sfmvs	f7, 2, [r5], #-404	; 0xfffffe6c
  b4:	65736165 	ldrbvs	r6, [r3, #-357]!	; 0xfffffe9b
  b8:	6d2d2029 	stcvs	0, cr2, [sp, #-164]!	; 0xffffff5c
  bc:	6d756874 	ldclvs	8, cr6, [r5, #-464]!	; 0xfffffe30
  c0:	6d2d2062 	stcvs	0, cr2, [sp, #-392]!	; 0xfffffe78
  c4:	68637261 	stmdavs	r3!, {r0, r5, r6, r9, ip, sp, lr}^
  c8:	6d72613d 	ldfvse	f6, [r2, #-244]!	; 0xffffff0c
  cc:	2d653776 	stclcs	7, cr3, [r5, #-472]!	; 0xfffffe28
  d0:	6d2d206d 	stcvs	0, cr2, [sp, #-436]!	; 0xfffffe4c
  d4:	616f6c66 	cmnvs	pc, r6, ror #24
  d8:	62612d74 	rsbvs	r2, r1, #116, 26	; 0x1d00
  dc:	61683d69 	cmnvs	r8, r9, ror #26
  e0:	2d206472 	cfstrscs	mvf6, [r0, #-456]!	; 0xfffffe38
  e4:	7570666d 	ldrbvc	r6, [r0, #-1645]!	; 0xfffff993
  e8:	7670663d 			; <UNDEFINED> instruction: 0x7670663d
  ec:	70732d34 	rsbsvc	r2, r3, r4, lsr sp
  f0:	3631642d 	ldrtcc	r6, [r1], -sp, lsr #8
  f4:	746d2d20 	strbtvc	r2, [sp], #-3360	; 0xfffff2e0
  f8:	626d7568 	rsbvs	r7, sp, #104, 10	; 0x1a000000
  fc:	616d2d20 	cmnvs	sp, r0, lsr #26
 100:	3d686372 	stclcc	3, cr6, [r8, #-456]!	; 0xfffffe38
 104:	766d7261 	strbtvc	r7, [sp], -r1, ror #4
 108:	6d2d6537 	cfstr32vs	mvfx6, [sp, #-220]!	; 0xffffff24
 10c:	666d2d20 	strbtvs	r2, [sp], -r0, lsr #26
 110:	74616f6c 	strbtvc	r6, [r1], #-3948	; 0xfffff094
 114:	6962612d 	stmdbvs	r2!, {r0, r2, r3, r5, r8, sp, lr}^
 118:	7261683d 	rsbvc	r6, r1, #3997696	; 0x3d0000
 11c:	6d2d2064 	stcvs	0, cr2, [sp, #-400]!	; 0xfffffe70
 120:	3d757066 	ldclcc	0, cr7, [r5, #-408]!	; 0xfffffe68
 124:	34767066 	ldrbtcc	r7, [r6], #-102	; 0xffffff9a
 128:	2d70732d 	ldclcs	3, cr7, [r0, #-180]!	; 0xffffff4c
 12c:	20363164 	eorscs	r3, r6, r4, ror #2
 130:	2d20672d 	stccs	7, cr6, [r0, #-180]!	; 0xffffff4c
 134:	2d20324f 	sfmcs	f3, 4, [r0, #-316]!	; 0xfffffec4
 138:	2d6f6e66 	stclcs	14, cr6, [pc, #-408]!	; ffffffa8 <_estack+0xdffaffa9>
 13c:	6c706d69 	ldclvs	13, cr6, [r0], #-420	; 0xfffffe5c
 140:	74696369 	strbtvc	r6, [r9], #-873	; 0xfffffc97
 144:	6d65742d 	cfstrdvs	mvd7, [r5, #-180]!	; 0xffffff4c
 148:	74616c70 	strbtvc	r6, [r1], #-3184	; 0xfffff390
 14c:	2d207365 	stccs	3, cr7, [r0, #-404]!	; 0xfffffe6c
 150:	6e617266 	cdpvs	2, 6, cr7, cr1, cr6, {3}
 154:	2d6d6f64 	stclcs	15, cr6, [sp, #-400]!	; 0xfffffe70
 158:	64656573 	strbtvs	r6, [r5], #-1395	; 0xfffffa8d
 15c:	6574613d 	ldrbvs	r6, [r4, #-317]!	; 0xfffffec3
 160:	5f746978 	svcpl	0x00746978
 164:	2e6d7261 	cdpcs	2, 6, cr7, cr13, cr1, {3}
 168:	2d206f6c 	stccs	15, cr6, [r0, #-432]!	; 0xfffffe50
 16c:	6e756666 	cdpvs	6, 7, cr6, cr5, cr6, {3}
 170:	6f697463 	svcvs	0x00697463
 174:	65732d6e 	ldrbvs	r2, [r3, #-3438]!	; 0xfffff292
 178:	6f697463 	svcvs	0x00697463
 17c:	2d20736e 	stccs	3, cr7, [r0, #-440]!	; 0xfffffe48
 180:	74616466 	strbtvc	r6, [r1], #-1126	; 0xfffffb9a
 184:	65732d61 	ldrbvs	r2, [r3, #-3425]!	; 0xfffff29f
 188:	6f697463 	svcvs	0x00697463
 18c:	6200736e 	andvs	r7, r0, #-1207959551	; 0xb8000001
 190:	006c6f6f 	rsbeq	r6, ip, pc, ror #30
 194:	2e2f2e2e 	cdpcs	14, 2, cr2, cr15, cr14, {1}
 198:	2e2e2f2e 	cdpcs	15, 2, cr2, cr14, cr14, {1}
 19c:	2f2e2e2f 	svccs	0x002e2e2f
 1a0:	732f2e2e 			; <UNDEFINED> instruction: 0x732f2e2e
 1a4:	6c2f6372 	stcvs	3, cr6, [pc], #-456	; ffffffe4 <_estack+0xdffaffe5>
 1a8:	74736269 	ldrbtvc	r6, [r3], #-617	; 0xfffffd97
 1ac:	2b2b6364 	blcs	ad8f44 <_Min_Stack_Size+0xad8b44>
 1b0:	2f33762d 	svccs	0x0033762d
 1b4:	7362696c 	cmnvc	r2, #108, 18	; 0x1b0000
 1b8:	2b637075 	blcs	18dc394 <_Min_Stack_Size+0x18dbf94>
 1bc:	74612f2b 	strbtvc	r2, [r1], #-3883	; 0xfffff0d5
 1c0:	74697865 	strbtvc	r7, [r9], #-2149	; 0xfffff79b
 1c4:	6d72615f 	ldfvse	f6, [r2, #-380]!	; 0xfffffe84
 1c8:	0063632e 	rsbeq	r6, r3, lr, lsr #6
 1cc:	78635f5f 	stmdavc	r3!, {r0, r1, r2, r3, r4, r6, r8, r9, sl, fp, ip, lr}^
 1d0:	74615f61 	strbtvc	r5, [r1], #-3937	; 0xfffff09f
 1d4:	74697865 	strbtvc	r7, [r9], #-2149	; 0xfffff79b
 1d8:	6a626f00 	bvs	189bde0 <_Min_Stack_Size+0x189b9e0>
 1dc:	00746365 	rsbseq	r6, r4, r5, ror #6
 1e0:	676e6f6c 	strbvs	r6, [lr, -ip, ror #30]!
 1e4:	6e6f6c20 	cdpvs	12, 6, cr6, cr15, cr0, {1}
 1e8:	6e692067 	cdpvs	0, 6, cr2, cr9, cr7, {3}
 1ec:	68730074 	ldmdavs	r3!, {r2, r4, r5, r6}^
 1f0:	2074726f 	rsbscs	r7, r4, pc, ror #4
 1f4:	69736e75 	ldmdbvs	r3!, {r0, r2, r4, r5, r6, r9, sl, fp, sp, lr}^
 1f8:	64656e67 	strbtvs	r6, [r5], #-3687	; 0xfffff199
 1fc:	746e6920 	strbtvc	r6, [lr], #-2336	; 0xfffff6e0
 200:	615f5f00 	cmpvs	pc, r0, lsl #30
 204:	69786574 	ldmdbvs	r8!, {r2, r4, r5, r6, r8, sl, sp, lr}^
 208:	79745f74 	ldmdbvc	r4!, {r2, r4, r5, r6, r8, r9, sl, fp, ip, lr}^
 20c:	00736570 	rsbseq	r6, r3, r0, ror r5
 210:	2e2f2e2e 	cdpcs	14, 2, cr2, cr15, cr14, {1}
 214:	2e2e2f2e 	cdpcs	15, 2, cr2, cr14, cr14, {1}
 218:	2f2e2e2f 	svccs	0x002e2e2f
 21c:	2e2f2e2e 	cdpcs	14, 2, cr2, cr15, cr14, {1}
 220:	2e2e2f2e 	cdpcs	15, 2, cr2, cr14, cr14, {1}
 224:	77656e2f 	strbvc	r6, [r5, -pc, lsr #28]!
 228:	2f62696c 	svccs	0x0062696c
 22c:	6362696c 	cmnvs	r2, #108, 18	; 0x1b0000
 230:	6474732f 	ldrbtvs	r7, [r4], #-815	; 0xfffffcd1
 234:	2f62696c 	svccs	0x0062696c
 238:	78657461 	stmdavc	r5!, {r0, r5, r6, sl, ip, sp, lr}^
 23c:	632e7469 			; <UNDEFINED> instruction: 0x632e7469
 240:	6e6f6c00 	cdpvs	12, 6, cr6, cr15, cr0, {0}
 244:	6f6c2067 	svcvs	0x006c2067
 248:	7520676e 	strvc	r6, [r0, #-1902]!	; 0xfffff892
 24c:	6769736e 	strbvs	r7, [r9, -lr, ror #6]!
 250:	2064656e 	rsbcs	r6, r4, lr, ror #10
 254:	00746e69 	rsbseq	r6, r4, r9, ror #28
 258:	69736e75 	ldmdbvs	r3!, {r0, r2, r4, r5, r6, r9, sl, fp, sp, lr}^
 25c:	64656e67 	strbtvs	r6, [r5], #-3687	; 0xfffff199
 260:	61686320 	cmnvs	r8, r0, lsr #6
 264:	5f5f0072 	svcpl	0x005f0072
 268:	615f7465 	cmpvs	pc, r5, ror #8
 26c:	69786574 	ldmdbvs	r8!, {r2, r4, r5, r6, r8, sl, sp, lr}^
 270:	5f5f0074 	svcpl	0x005f0074
 274:	69676572 	stmdbvs	r7!, {r1, r4, r5, r6, r8, sl, sp, lr}^
 278:	72657473 	rsbvc	r7, r5, #1929379840	; 0x73000000
 27c:	6978655f 	ldmdbvs	r8!, {r0, r1, r2, r3, r4, r6, r8, sl, sp, lr}^
 280:	6f727074 	svcvs	0x00727074
 284:	5f5f0063 	svcpl	0x005f0063
 288:	6f5f7465 	svcvs	0x005f7465
 28c:	6978656e 	ldmdbvs	r8!, {r1, r2, r3, r5, r6, r8, sl, sp, lr}^
 290:	622f0074 	eorvs	r0, pc, #116	; 0x74
 294:	646c6975 	strbtvs	r6, [ip], #-2421	; 0xfffff68b
 298:	77656e2f 	strbvc	r6, [r5, -pc, lsr #28]!
 29c:	2d62696c 	stclcs	9, cr6, [r2, #-432]!	; 0xfffffe50
 2a0:	70777a35 	rsbsvc	r7, r7, r5, lsr sl
 2a4:	6e2f4578 	mcrvs	5, 1, r4, cr15, cr8, {3}
 2a8:	696c7765 	stmdbvs	ip!, {r0, r2, r5, r6, r8, r9, sl, ip, sp, lr}^
 2ac:	2e322d62 	cdpcs	13, 3, cr2, cr2, cr2, {3}
 2b0:	2b302e32 	blcs	c0bb80 <_Min_Stack_Size+0xc0b780>
 2b4:	32746967 	rsbscc	r6, r4, #1687552	; 0x19c000
 2b8:	30353130 	eorscc	r3, r5, r0, lsr r1
 2bc:	2e303338 	mrccs	3, 1, r3, cr0, cr8, {1}
 2c0:	64336135 	ldrtvs	r6, [r3], #-309	; 0xfffffecb
 2c4:	2f363335 	svccs	0x00363335
 2c8:	6c697562 	cfstr64vs	mvdx7, [r9], #-392	; 0xfffffe78
 2cc:	72612f64 	rsbvc	r2, r1, #100, 30	; 0x190
 2d0:	6f6e2d6d 	svcvs	0x006e2d6d
 2d4:	652d656e 	strvs	r6, [sp, #-1390]!	; 0xfffffa92
 2d8:	2f696261 	svccs	0x00696261
 2dc:	766d7261 	strbtvc	r7, [sp], -r1, ror #4
 2e0:	6d2d6537 	cfstr32vs	mvfx6, [sp, #-220]!	; 0xffffff24
 2e4:	7570662f 	ldrbvc	r6, [r0, #-1583]!	; 0xfffff9d1
 2e8:	77656e2f 	strbvc	r6, [r5, -pc, lsr #28]!
 2ec:	2f62696c 	svccs	0x0062696c
 2f0:	6362696c 	cmnvs	r2, #108, 18	; 0x1b0000
 2f4:	6474732f 	ldrbtvs	r7, [r4], #-815	; 0xfffffcd1
 2f8:	0062696c 	rsbeq	r6, r2, ip, ror #18
 2fc:	74655f5f 	strbtvc	r5, [r5], #-3935	; 0xfffff0a1
 300:	6178635f 	cmnvs	r8, pc, asr r3
 304:	6f687300 	svcvs	0x00687300
 308:	69207472 	stmdbvs	r0!, {r1, r4, r5, r6, sl, ip, sp, lr}
 30c:	4700746e 	strmi	r7, [r0, -lr, ror #8]
 310:	4320554e 			; <UNDEFINED> instruction: 0x4320554e
 314:	392e3420 	stmdbcc	lr!, {r5, sl, ip, sp}
 318:	3220332e 	eorcc	r3, r0, #-1207959552	; 0xb8000000
 31c:	30353130 	eorscc	r3, r5, r0, lsr r1
 320:	20393235 	eorscs	r3, r9, r5, lsr r2
 324:	65727028 	ldrbvs	r7, [r2, #-40]!	; 0xffffffd8
 328:	656c6572 	strbvs	r6, [ip, #-1394]!	; 0xfffffa8e
 32c:	29657361 	stmdbcs	r5!, {r0, r5, r6, r8, r9, ip, sp, lr}^
 330:	746d2d20 	strbtvc	r2, [sp], #-3360	; 0xfffff2e0
 334:	626d7568 	rsbvs	r7, sp, #104, 10	; 0x1a000000
 338:	616d2d20 	cmnvs	sp, r0, lsr #26
 33c:	3d686372 	stclcc	3, cr6, [r8, #-456]!	; 0xfffffe38
 340:	766d7261 	strbtvc	r7, [sp], -r1, ror #4
 344:	6d2d6537 	cfstr32vs	mvfx6, [sp, #-220]!	; 0xffffff24
 348:	666d2d20 	strbtvs	r2, [sp], -r0, lsr #26
 34c:	74616f6c 	strbtvc	r6, [r1], #-3948	; 0xfffff094
 350:	6962612d 	stmdbvs	r2!, {r0, r2, r3, r5, r8, sp, lr}^
 354:	7261683d 	rsbvc	r6, r1, #3997696	; 0x3d0000
 358:	6d2d2064 	stcvs	0, cr2, [sp, #-400]!	; 0xfffffe70
 35c:	3d757066 	ldclcc	0, cr7, [r5, #-408]!	; 0xfffffe68
 360:	34767066 	ldrbtcc	r7, [r6], #-102	; 0xffffff9a
 364:	2d70732d 	ldclcs	3, cr7, [r0, #-180]!	; 0xffffff4c
 368:	20363164 	eorscs	r3, r6, r4, ror #2
 36c:	68746d2d 	ldmdavs	r4!, {r0, r2, r3, r5, r8, sl, fp, sp, lr}^
 370:	20626d75 	rsbcs	r6, r2, r5, ror sp
 374:	72616d2d 	rsbvc	r6, r1, #2880	; 0xb40
 378:	613d6863 	teqvs	sp, r3, ror #16
 37c:	37766d72 			; <UNDEFINED> instruction: 0x37766d72
 380:	206d2d65 	rsbcs	r2, sp, r5, ror #26
 384:	6c666d2d 	stclvs	13, cr6, [r6], #-180	; 0xffffff4c
 388:	2d74616f 	ldfcse	f6, [r4, #-444]!	; 0xfffffe44
 38c:	3d696261 	sfmcc	f6, 2, [r9, #-388]!	; 0xfffffe7c
 390:	64726168 	ldrbtvs	r6, [r2], #-360	; 0xfffffe98
 394:	666d2d20 	strbtvs	r2, [sp], -r0, lsr #26
 398:	663d7570 			; <UNDEFINED> instruction: 0x663d7570
 39c:	2d347670 	ldccs	6, cr7, [r4, #-448]!	; 0xfffffe40
 3a0:	642d7073 	strtvs	r7, [sp], #-115	; 0xffffff8d
 3a4:	2d203631 	stccs	6, cr3, [r0, #-196]!	; 0xffffff3c
 3a8:	4f2d2067 	svcmi	0x002d2067
 3ac:	662d2032 			; <UNDEFINED> instruction: 0x662d2032
 3b0:	622d6f6e 	eorvs	r6, sp, #440	; 0x1b8
 3b4:	746c6975 	strbtvc	r6, [ip], #-2421	; 0xfffff68b
 3b8:	2d206e69 	stccs	14, cr6, [r0, #-420]!	; 0xfffffe5c
 3bc:	6e756666 	cdpvs	6, 7, cr6, cr5, cr6, {3}
 3c0:	6f697463 	svcvs	0x00697463
 3c4:	65732d6e 	ldrbvs	r2, [r3, #-3438]!	; 0xfffff292
 3c8:	6f697463 	svcvs	0x00697463
 3cc:	2d20736e 	stccs	3, cr7, [r0, #-440]!	; 0xfffffe48
 3d0:	74616466 	strbtvc	r6, [r1], #-1126	; 0xfffffb9a
 3d4:	65732d61 	ldrbvs	r2, [r3, #-3425]!	; 0xfffff29f
 3d8:	6f697463 	svcvs	0x00697463
 3dc:	7300736e 	movwvc	r7, #878	; 0x36e
 3e0:	74657a69 	strbtvc	r7, [r5], #-2665	; 0xfffff597
 3e4:	00657079 	rsbeq	r7, r5, r9, ror r0
 3e8:	2e2f2e2e 	cdpcs	14, 2, cr2, cr15, cr14, {1}
 3ec:	2e2e2f2e 	cdpcs	15, 2, cr2, cr14, cr14, {1}
 3f0:	2f2e2e2f 	svccs	0x002e2e2f
 3f4:	2e2f2e2e 	cdpcs	14, 2, cr2, cr15, cr14, {1}
 3f8:	2e2e2f2e 	cdpcs	15, 2, cr2, cr14, cr14, {1}
 3fc:	77656e2f 	strbvc	r6, [r5, -pc, lsr #28]!
 400:	2f62696c 	svccs	0x0062696c
 404:	6362696c 	cmnvs	r2, #108, 18	; 0x1b0000
 408:	6474732f 	ldrbtvs	r7, [r4], #-815	; 0xfffffcd1
 40c:	2f62696c 	svccs	0x0062696c
 410:	5f617863 	svcpl	0x00617863
 414:	78657461 	stmdavc	r5!, {r0, r5, r6, sl, ip, sp, lr}^
 418:	632e7469 			; <UNDEFINED> instruction: 0x632e7469
 41c:	7a697300 	bvc	1a5d024 <_Min_Stack_Size+0x1a5cc24>
 420:	00745f65 	rsbseq	r5, r4, r5, ror #30
 424:	69665f5f 	stmdbvs	r6!, {r0, r1, r2, r3, r4, r6, r8, r9, sl, fp, ip, lr}^
 428:	615f696e 	cmpvs	pc, lr, ror #18
 42c:	79617272 	stmdbvc	r1!, {r1, r4, r5, r6, r9, ip, sp, lr}^
 430:	6174735f 	cmnvs	r4, pc, asr r3
 434:	5f007472 	svcpl	0x00007472
 438:	6e69665f 	mcrvs	6, 3, r6, cr9, cr15, {2}
 43c:	72615f69 	rsbvc	r5, r1, #420	; 0x1a4
 440:	5f796172 	svcpl	0x00796172
 444:	00646e65 	rsbeq	r6, r4, r5, ror #28
 448:	696c5f5f 	stmdbvs	ip!, {r0, r1, r2, r3, r4, r6, r8, r9, sl, fp, ip, lr}^
 44c:	665f6362 	ldrbvs	r6, [pc], -r2, ror #6
 450:	5f696e69 	svcpl	0x00696e69
 454:	61727261 	cmnvs	r2, r1, ror #4
 458:	622f0079 	eorvs	r0, pc, #121	; 0x79
 45c:	646c6975 	strbtvs	r6, [ip], #-2421	; 0xfffff68b
 460:	77656e2f 	strbvc	r6, [r5, -pc, lsr #28]!
 464:	2d62696c 	stclcs	9, cr6, [r2, #-432]!	; 0xfffffe50
 468:	70777a35 	rsbsvc	r7, r7, r5, lsr sl
 46c:	6e2f4578 	mcrvs	5, 1, r4, cr15, cr8, {3}
 470:	696c7765 	stmdbvs	ip!, {r0, r2, r5, r6, r8, r9, sl, ip, sp, lr}^
 474:	2e322d62 	cdpcs	13, 3, cr2, cr2, cr2, {3}
 478:	2b302e32 	blcs	c0bd48 <_Min_Stack_Size+0xc0b948>
 47c:	32746967 	rsbscc	r6, r4, #1687552	; 0x19c000
 480:	30353130 	eorscc	r3, r5, r0, lsr r1
 484:	2e303338 	mrccs	3, 1, r3, cr0, cr8, {1}
 488:	64336135 	ldrtvs	r6, [r3], #-309	; 0xfffffecb
 48c:	2f363335 	svccs	0x00363335
 490:	6c697562 	cfstr64vs	mvdx7, [r9], #-392	; 0xfffffe78
 494:	72612f64 	rsbvc	r2, r1, #100, 30	; 0x190
 498:	6f6e2d6d 	svcvs	0x006e2d6d
 49c:	652d656e 	strvs	r6, [sp, #-1390]!	; 0xfffffa92
 4a0:	2f696261 	svccs	0x00696261
 4a4:	766d7261 	strbtvc	r7, [sp], -r1, ror #4
 4a8:	6d2d6537 	cfstr32vs	mvfx6, [sp, #-220]!	; 0xffffff24
 4ac:	7570662f 	ldrbvc	r6, [r0, #-1583]!	; 0xfffff9d1
 4b0:	77656e2f 	strbvc	r6, [r5, -pc, lsr #28]!
 4b4:	2f62696c 	svccs	0x0062696c
 4b8:	6362696c 	cmnvs	r2, #108, 18	; 0x1b0000
 4bc:	73696d2f 	cmnvc	r9, #3008	; 0xbc0
 4c0:	2e2e0063 	cdpcs	0, 2, cr0, cr14, cr3, {3}
 4c4:	2f2e2e2f 	svccs	0x002e2e2f
 4c8:	2e2f2e2e 	cdpcs	14, 2, cr2, cr15, cr14, {1}
 4cc:	2e2e2f2e 	cdpcs	15, 2, cr2, cr14, cr14, {1}
 4d0:	2f2e2e2f 	svccs	0x002e2e2f
 4d4:	6e2f2e2e 	cdpvs	14, 2, cr2, cr15, cr14, {1}
 4d8:	696c7765 	stmdbvs	ip!, {r0, r2, r5, r6, r8, r9, sl, ip, sp, lr}^
 4dc:	696c2f62 	stmdbvs	ip!, {r1, r5, r6, r8, r9, sl, fp, sp}^
 4e0:	6d2f6362 	stcvs	3, cr6, [pc, #-392]!	; 360 <_Min_Heap_Size+0x160>
 4e4:	2f637369 	svccs	0x00637369
 4e8:	696e6966 	stmdbvs	lr!, {r1, r2, r5, r6, r8, fp, sp, lr}^
 4ec:	5f00632e 	svcpl	0x0000632e
 4f0:	6964735f 	stmdbvs	r4!, {r0, r1, r2, r3, r4, r6, r8, r9, ip, sp, lr}^
 4f4:	696e6964 	stmdbvs	lr!, {r2, r5, r6, r8, fp, sp, lr}^
 4f8:	665f0074 			; <UNDEFINED> instruction: 0x665f0074
 4fc:	7367616c 	cmnvc	r7, #108, 2
 500:	6d5f0032 	ldclvs	0, cr0, [pc, #-200]	; 440 <_Min_Stack_Size+0x40>
 504:	6e656c62 	cdpvs	12, 6, cr6, cr5, cr2, {3}
 508:	6174735f 	cmnvs	r4, pc, asr r3
 50c:	5f006574 	svcpl	0x00006574
 510:	6134366c 	teqvs	r4, ip, ror #12
 514:	6675625f 			; <UNDEFINED> instruction: 0x6675625f
 518:	706d6900 	rsbvc	r6, sp, r0, lsl #18
 51c:	5f657275 	svcpl	0x00657275
 520:	61746164 	cmnvs	r4, r4, ror #2
 524:	666f5f00 	strbtvs	r5, [pc], -r0, lsl #30
 528:	00745f66 	rsbseq	r5, r4, r6, ror #30
 52c:	63775f5f 	cmnvs	r7, #380	; 0x17c
 530:	6c5f0068 	mrrcvs	0, 6, r0, pc, cr8	; <UNPREDICTABLE>
 534:	69736662 	ldmdbvs	r3!, {r1, r5, r6, r9, sl, sp, lr}^
 538:	5f00657a 	svcpl	0x0000657a
 53c:	6c61765f 	stclvs	6, cr7, [r1], #-380	; 0xfffffe84
 540:	5f006575 	svcpl	0x00006575
 544:	7562735f 	strbvc	r7, [r2, #-863]!	; 0xfffffca1
 548:	725f0066 	subsvc	r0, pc, #102	; 0x66
 54c:	6c757365 	ldclvs	3, cr7, [r5], #-404	; 0xfffffe6c
 550:	006b5f74 	rsbeq	r5, fp, r4, ror pc
 554:	66666f5f 	uqsaxvs	r6, r6, pc	; <UNPREDICTABLE>
 558:	00746573 	rsbseq	r6, r4, r3, ror r5
 55c:	66735f5f 	uhsaxvs	r5, r3, pc	; <UNPREDICTABLE>
 560:	69735f00 	ldmdbvs	r3!, {r8, r9, sl, fp, ip, lr}^
 564:	6c616e67 	stclvs	14, cr6, [r1], #-412	; 0xfffffe64
 568:	6675625f 			; <UNDEFINED> instruction: 0x6675625f
 56c:	63775f00 	cmnvs	r7, #0, 30
 570:	6f747273 	svcvs	0x00747273
 574:	5f73626d 	svcpl	0x0073626d
 578:	74617473 	strbtvc	r7, [r1], #-1139	; 0xfffffb8d
 57c:	622f0065 	eorvs	r0, pc, #101	; 0x65
 580:	646c6975 	strbtvs	r6, [ip], #-2421	; 0xfffff68b
 584:	77656e2f 	strbvc	r6, [r5, -pc, lsr #28]!
 588:	2d62696c 	stclcs	9, cr6, [r2, #-432]!	; 0xfffffe50
 58c:	70777a35 	rsbsvc	r7, r7, r5, lsr sl
 590:	6e2f4578 	mcrvs	5, 1, r4, cr15, cr8, {3}
 594:	696c7765 	stmdbvs	ip!, {r0, r2, r5, r6, r8, r9, sl, ip, sp, lr}^
 598:	2e322d62 	cdpcs	13, 3, cr2, cr2, cr2, {3}
 59c:	2b302e32 	blcs	c0be6c <_Min_Stack_Size+0xc0ba6c>
 5a0:	32746967 	rsbscc	r6, r4, #1687552	; 0x19c000
 5a4:	30353130 	eorscc	r3, r5, r0, lsr r1
 5a8:	2e303338 	mrccs	3, 1, r3, cr0, cr8, {1}
 5ac:	64336135 	ldrtvs	r6, [r3], #-309	; 0xfffffecb
 5b0:	2f363335 	svccs	0x00363335
 5b4:	6c697562 	cfstr64vs	mvdx7, [r9], #-392	; 0xfffffe78
 5b8:	72612f64 	rsbvc	r2, r1, #100, 30	; 0x190
 5bc:	6f6e2d6d 	svcvs	0x006e2d6d
 5c0:	652d656e 	strvs	r6, [sp, #-1390]!	; 0xfffffa92
 5c4:	2f696261 	svccs	0x00696261
 5c8:	766d7261 	strbtvc	r7, [sp], -r1, ror #4
 5cc:	6d2d6537 	cfstr32vs	mvfx6, [sp, #-220]!	; 0xffffff24
 5d0:	7570662f 	ldrbvc	r6, [r0, #-1583]!	; 0xfffff9d1
 5d4:	77656e2f 	strbvc	r6, [r5, -pc, lsr #28]!
 5d8:	2f62696c 	svccs	0x0062696c
 5dc:	6362696c 	cmnvs	r2, #108, 18	; 0x1b0000
 5e0:	6565722f 	strbvs	r7, [r5, #-559]!	; 0xfffffdd1
 5e4:	5f00746e 	svcpl	0x0000746e
 5e8:	74697277 	strbtvc	r7, [r9], #-631	; 0xfffffd89
 5ec:	6c5f0065 	mrrcvs	0, 6, r0, pc, cr5	; <UNPREDICTABLE>
 5f0:	6c61636f 	stclvs	3, cr6, [r1], #-444	; 0xfffffe44
 5f4:	656d6974 	strbvs	r6, [sp, #-2420]!	; 0xfffff68c
 5f8:	6675625f 			; <UNDEFINED> instruction: 0x6675625f
 5fc:	635f5f00 	cmpvs	pc, #0, 30
 600:	746e756f 	strbtvc	r7, [lr], #-1391	; 0xfffffa91
 604:	745f5f00 	ldrbvc	r5, [pc], #-3840	; 60c <_Min_Stack_Size+0x20c>
 608:	646d5f6d 	strbtvs	r5, [sp], #-3949	; 0xfffff093
 60c:	5f007961 	svcpl	0x00007961
 610:	65756c67 	ldrbvs	r6, [r5, #-3175]!	; 0xfffff399
 614:	626d5f00 	rsbvs	r5, sp, #0, 30
 618:	6f747273 	svcvs	0x00747273
 61c:	5f736377 	svcpl	0x00736377
 620:	74617473 	strbtvc	r7, [r1], #-1139	; 0xfffffb8d
 624:	725f0065 	subsvc	r0, pc, #101	; 0x65
 628:	5f003834 	svcpl	0x00003834
 62c:	6f647473 	svcvs	0x00647473
 630:	5f007475 	svcpl	0x00007475
 634:	72656d65 	rsbvc	r6, r5, #6464	; 0x1940
 638:	636e6567 	cmnvs	lr, #432013312	; 0x19c00000
 63c:	635f0079 	cmpvs	pc, #121	; 0x79
 640:	656c7476 	strbvs	r7, [ip, #-1142]!	; 0xfffffb8a
 644:	6e5f006e 	cdpvs	0, 5, cr0, cr15, cr14, {3}
 648:	00667562 	rsbeq	r7, r6, r2, ror #10
 64c:	434f4c5f 	movtmi	r4, #64607	; 0xfc5f
 650:	45525f4b 	ldrbmi	r5, [r2, #-3915]	; 0xfffff0b5
 654:	53525543 	cmppl	r2, #281018368	; 0x10c00000
 658:	5f455649 	svcpl	0x00455649
 65c:	6e5f0054 	mrcvs	0, 2, r0, cr15, cr4, {2}
 660:	73626f69 	cmnvc	r2, #420	; 0x1a4
 664:	465f5f00 	ldrbmi	r5, [pc], -r0, lsl #30
 668:	00454c49 	subeq	r4, r5, r9, asr #24
 66c:	7465675f 	strbtvc	r6, [r5], #-1887	; 0xfffff8a1
 670:	65746164 	ldrbvs	r6, [r4, #-356]!	; 0xfffffe9c
 674:	7272655f 	rsbsvc	r6, r2, #398458880	; 0x17c00000
 678:	745f5f00 	ldrbvc	r5, [pc], #-3840	; 680 <_Min_Stack_Size+0x280>
 67c:	696d5f6d 	stmdbvs	sp!, {r0, r2, r3, r5, r6, r8, r9, sl, fp, ip, lr}^
 680:	6d5f006e 	ldclvs	0, cr0, [pc, #-440]	; 4d0 <_Min_Stack_Size+0xd0>
 684:	656c7262 	strbvs	r7, [ip, #-610]!	; 0xfffffd9e
 688:	74735f6e 	ldrbtvc	r5, [r3], #-3950	; 0xfffff092
 68c:	00657461 	rsbeq	r7, r5, r1, ror #8
 690:	6769735f 			; <UNDEFINED> instruction: 0x6769735f
 694:	6e75665f 	mrcvs	6, 3, r6, cr5, cr15, {2}
 698:	6e5f0063 	cdpvs	0, 5, cr0, cr15, cr3, {3}
 69c:	6c6c616d 	stfvse	f6, [ip], #-436	; 0xfffffe4c
 6a0:	5f00636f 	svcpl	0x0000636f
 6a4:	65657266 	strbvs	r7, [r5, #-614]!	; 0xfffffd9a
 6a8:	7473696c 	ldrbtvc	r6, [r3], #-2412	; 0xfffff694
 6ac:	6e665f00 	cdpvs	15, 6, cr5, cr6, cr0, {0}
 6b0:	6d5f0073 	ldclvs	0, cr0, [pc, #-460]	; 4ec <_Min_Stack_Size+0xec>
 6b4:	61747362 	cmnvs	r4, r2, ror #6
 6b8:	5f006574 	svcpl	0x00006574
 6bc:	5f6d745f 	svcpl	0x006d745f
 6c0:	79616477 	stmdbvc	r1!, {r0, r1, r2, r4, r5, r6, sl, sp, lr}^
 6c4:	6e665f00 	cdpvs	15, 6, cr5, cr6, cr0, {0}
 6c8:	73677261 	cmnvc	r7, #268435462	; 0x10000006
 6cc:	2f2e2e00 	svccs	0x002e2e00
 6d0:	2e2f2e2e 	cdpcs	14, 2, cr2, cr15, cr14, {1}
 6d4:	2e2e2f2e 	cdpcs	15, 2, cr2, cr14, cr14, {1}
 6d8:	2f2e2e2f 	svccs	0x002e2e2f
 6dc:	2e2f2e2e 	cdpcs	14, 2, cr2, cr15, cr14, {1}
 6e0:	656e2f2e 	strbvs	r2, [lr, #-3886]!	; 0xfffff0d2
 6e4:	62696c77 	rsbvs	r6, r9, #30464	; 0x7700
 6e8:	62696c2f 	rsbvs	r6, r9, #12032	; 0x2f00
 6ec:	65722f63 	ldrbvs	r2, [r2, #-3939]!	; 0xfffff09d
 6f0:	2f746e65 	svccs	0x00746e65
 6f4:	75706d69 	ldrbvc	r6, [r0, #-3433]!	; 0xfffff297
 6f8:	632e6572 			; <UNDEFINED> instruction: 0x632e6572
 6fc:	756d5f00 	strbvc	r5, [sp, #-3840]!	; 0xfffff100
 700:	5f00746c 	svcpl	0x0000746c
 704:	5f6d745f 	svcpl	0x006d745f
 708:	73647369 	cmnvc	r4, #-1543503871	; 0xa4000001
 70c:	615f0074 	cmpvs	pc, r4, ror r0	; <UNPREDICTABLE>
 710:	69786574 	ldmdbvs	r8!, {r2, r4, r5, r6, r8, sl, sp, lr}^
 714:	5f003074 	svcpl	0x00003074
 718:	736b6c62 	cmnvc	fp, #25088	; 0x6200
 71c:	00657a69 	rsbeq	r7, r5, r9, ror #20
 720:	746e665f 	strbtvc	r6, [lr], #-1631	; 0xfffff9a1
 724:	73657079 	cmnvc	r5, #121	; 0x79
 728:	70665f00 	rsbvc	r5, r6, r0, lsl #30
 72c:	745f736f 	ldrbvc	r7, [pc], #-879	; 734 <_Min_Stack_Size+0x334>
 730:	6c635f00 	stclvs	15, cr5, [r3], #-0
 734:	0065736f 	rsbeq	r7, r5, pc, ror #6
 738:	6f6c665f 	svcvs	0x006c665f
 73c:	745f6b63 	ldrbvc	r6, [pc], #-2915	; 744 <_Min_Stack_Size+0x344>
 740:	6c675f00 	stclvs	15, cr5, [r7], #-0
 744:	6c61626f 	sfmvs	f6, 2, [r1], #-444	; 0xfffffe44
 748:	706d695f 	rsbvc	r6, sp, pc, asr r9
 74c:	5f657275 	svcpl	0x00657275
 750:	00727470 	rsbseq	r7, r2, r0, ror r4
 754:	6d745f5f 	ldclvs	15, cr5, [r4, #-380]!	; 0xfffffe84
 758:	6365735f 	cmnvs	r5, #2080374785	; 0x7c000001
 75c:	745f5f00 	ldrbvc	r5, [pc], #-3840	; 764 <_Min_Stack_Size+0x364>
 760:	6f685f6d 	svcvs	0x00685f6d
 764:	5f007275 	svcpl	0x00007275
 768:	64616572 	strbtvs	r6, [r1], #-1394	; 0xfffffa8e
 76c:	656e5f00 	strbvs	r5, [lr, #-3840]!	; 0xfffff100
 770:	00667478 	rsbeq	r7, r6, r8, ror r4
 774:	6474735f 	ldrbtvs	r7, [r4], #-863	; 0xfffffca1
 778:	00727265 	rsbseq	r7, r2, r5, ror #4
 77c:	63775f5f 	cmnvs	r7, #380	; 0x17c
 780:	5f006268 	svcpl	0x00006268
 784:	72655f68 	rsbvc	r5, r5, #104, 30	; 0x1a0
 788:	006f6e72 	rsbeq	r6, pc, r2, ror lr	; <UNPREDICTABLE>
 78c:	67735f5f 			; <UNDEFINED> instruction: 0x67735f5f
 790:	0065756c 	rsbeq	r7, r5, ip, ror #10
 794:	5f6e6f5f 	svcpl	0x006e6f5f
 798:	74697865 	strbtvc	r7, [r9], #-2149	; 0xfffff79b
 79c:	6772615f 			; <UNDEFINED> instruction: 0x6772615f
 7a0:	6d5f0073 	ldclvs	0, cr0, [pc, #-460]	; 5dc <_Min_Stack_Size+0x1dc>
 7a4:	6f747262 	svcvs	0x00747262
 7a8:	735f6377 	cmpvc	pc, #-603979775	; 0xdc000001
 7ac:	65746174 	ldrbvs	r6, [r4, #-372]!	; 0xfffffe8c
 7b0:	76635f00 	strbtvc	r5, [r3], -r0, lsl #30
 7b4:	66756274 			; <UNDEFINED> instruction: 0x66756274
 7b8:	6f635f00 	svcvs	0x00635f00
 7bc:	65696b6f 	strbvs	r6, [r9, #-2927]!	; 0xfffff491
 7c0:	61625f00 	cmnvs	r2, r0, lsl #30
 7c4:	5f006573 	svcpl	0x00006573
 7c8:	656c6966 	strbvs	r6, [ip, #-2406]!	; 0xfffff69a
 7cc:	61675f00 	cmnvs	r7, r0, lsl #30
 7d0:	5f616d6d 	svcpl	0x00616d6d
 7d4:	6e676973 	mcrvs	9, 3, r6, cr7, cr3, {3}
 7d8:	006d6167 	rsbeq	r6, sp, r7, ror #2
 7dc:	756e755f 	strbvc	r7, [lr, #-1375]!	; 0xfffffaa1
 7e0:	5f646573 	svcpl	0x00646573
 7e4:	646e6172 	strbtvs	r6, [lr], #-370	; 0xfffffe8e
 7e8:	64775f00 	ldrbtvs	r5, [r7], #-3840	; 0xfffff100
 7ec:	5f5f0073 	svcpl	0x005f0073
 7f0:	5f006d74 	svcpl	0x00006d74
 7f4:	73756e75 	cmnvc	r5, #1872	; 0x750
 7f8:	5f006465 	svcpl	0x00006465
 7fc:	6f74626d 	svcvs	0x0074626d
 800:	735f6377 	cmpvc	pc, #-603979775	; 0xdc000001
 804:	65746174 	ldrbvs	r6, [r4, #-372]!	; 0xfffffe8c
 808:	6e697700 	cdpvs	7, 6, cr7, cr9, cr0, {0}
 80c:	00745f74 	rsbseq	r5, r4, r4, ror pc
 810:	7275635f 	rsbsvc	r6, r5, #2080374785	; 0x7c000001
 814:	746e6572 	strbtvc	r6, [lr], #-1394	; 0xfffffa8e
 818:	7461635f 	strbtvc	r6, [r1], #-863	; 0xfffffca1
 81c:	726f6765 	rsbvc	r6, pc, #26476544	; 0x1940000
 820:	695f0079 	ldmdbvs	pc, {r0, r3, r4, r5, r6}^	; <UNPREDICTABLE>
 824:	78635f73 	stmdavc	r3!, {r0, r1, r4, r5, r6, r8, r9, sl, fp, ip, lr}^
 828:	5f5f0061 	svcpl	0x005f0061
 82c:	61656c63 	cmnvs	r5, r3, ror #24
 830:	0070756e 	rsbseq	r7, r0, lr, ror #10
 834:	73626d5f 	cmnvc	r2, #6080	; 0x17c0
 838:	65746174 	ldrbvs	r6, [r4, #-372]!	; 0xfffffe8c
 83c:	5f00745f 	svcpl	0x0000745f
 840:	69676942 	stmdbvs	r7!, {r1, r6, r8, fp, sp, lr}^
 844:	5f00746e 	svcpl	0x0000746e
 848:	7778616d 	ldrbvc	r6, [r8, -sp, ror #2]!
 84c:	5f007364 	svcpl	0x00007364
 850:	5f6d745f 	svcpl	0x006d745f
 854:	72616579 	rsbvc	r6, r1, #507510784	; 0x1e400000
 858:	74735f00 	ldrbtvc	r5, [r3], #-3840	; 0xfffff100
 85c:	6b6f7472 	blvs	1bdda2c <_Min_Stack_Size+0x1bdd62c>
 860:	73616c5f 	cmnvc	r1, #24320	; 0x5f00
 864:	735f0074 	cmpvc	pc, #116	; 0x74
 868:	00646565 	rsbeq	r6, r4, r5, ror #10
 86c:	6e61725f 	mcrvs	2, 3, r7, cr1, cr15, {2}
 870:	00383464 	eorseq	r3, r8, r4, ror #8
 874:	6d745f5f 	ldclvs	15, cr5, [r4, #-380]!	; 0xfffffe84
 878:	6164795f 	cmnvs	r4, pc, asr r9
 87c:	695f0079 	ldmdbvs	pc, {r0, r3, r4, r5, r6}^	; <UNPREDICTABLE>
 880:	0073626f 	rsbseq	r6, r3, pc, ror #4
 884:	4c555f5f 	mrrcmi	15, 5, r5, r5, cr15	; <UNPREDICTABLE>
 888:	00676e6f 	rsbeq	r6, r7, pc, ror #28
 88c:	6565735f 	strbvs	r7, [r5, #-863]!	; 0xfffffca1
 890:	725f006b 	subsvc	r0, pc, #107	; 0x6b
 894:	6c757365 	ldclvs	3, cr7, [r5], #-404	; 0xfffffe6c
 898:	5f5f0074 	svcpl	0x005f0074
 89c:	6d5f6d74 	ldclvs	13, cr6, [pc, #-464]	; 6d4 <_Min_Stack_Size+0x2d4>
 8a0:	5f006e6f 	svcpl	0x00006e6f
 8a4:	00646461 	rsbeq	r6, r4, r1, ror #8
 8a8:	636e695f 	cmnvs	lr, #1556480	; 0x17c000
 8ac:	6e695f00 	cdpvs	15, 6, cr5, cr9, cr0, {0}
 8b0:	775f0064 	ldrbvc	r0, [pc, -r4, rrx]
 8b4:	6d6f7463 	cfstrdvs	mvd7, [pc, #-396]!	; 730 <_Min_Stack_Size+0x330>
 8b8:	74735f62 	ldrbtvc	r5, [r3], #-3938	; 0xfffff09e
 8bc:	00657461 	rsbeq	r7, r5, r1, ror #8
 8c0:	6f73645f 	svcvs	0x0073645f
 8c4:	6e61685f 	mcrvs	8, 3, r6, cr1, cr15, {2}
 8c8:	00656c64 	rsbeq	r6, r5, r4, ror #24
 8cc:	7335705f 	teqvc	r5, #95	; 0x5f
 8d0:	69735f00 	ldmdbvs	r3!, {r8, r9, sl, fp, ip, lr}^
 8d4:	5f006e67 	svcpl	0x00006e67
 8d8:	646e6172 	strbtvs	r6, [lr], #-370	; 0xfffffe8e
 8dc:	78656e5f 	stmdavc	r5!, {r0, r1, r2, r3, r4, r6, r9, sl, fp, sp, lr}^
 8e0:	735f0074 	cmpvc	pc, #116	; 0x74
 8e4:	6e696474 	mcrvs	4, 3, r6, cr9, cr4, {3}
 8e8:	75635f00 	strbvc	r5, [r3, #-3840]!	; 0xfffff100
 8ec:	6e657272 	mcrvs	2, 3, r7, cr5, cr2, {3}
 8f0:	6f6c5f74 	svcvs	0x006c5f74
 8f4:	656c6163 	strbvs	r6, [ip, #-355]!	; 0xfffffe9d
 8f8:	65725f00 	ldrbvs	r5, [r2, #-3840]!	; 0xfffff100
 8fc:	00746e65 	rsbseq	r6, r4, r5, ror #28
 900:	7263775f 	rsbvc	r7, r3, #24903680	; 0x17c0000
 904:	626d6f74 	rsbvs	r6, sp, #116, 30	; 0x1d0
 908:	6174735f 	cmnvs	r4, pc, asr r3
 90c:	5f006574 	svcpl	0x00006574
 910:	67616c66 	strbvs	r6, [r1, -r6, ror #24]!
 914:	755f0073 	ldrbvc	r0, [pc, #-115]	; 8a9 <_Min_Stack_Size+0x4a9>
 918:	00667562 	rsbeq	r7, r6, r2, ror #10
 91c:	7a69735f 	bvc	1a5d6a0 <_Min_Stack_Size+0x1a5d2a0>
 920:	615f0065 	cmpvs	pc, r5, rrx
 924:	69746373 	ldmdbvs	r4!, {r0, r1, r4, r5, r6, r8, r9, sp, lr}^
 928:	625f656d 	subsvs	r6, pc, #457179136	; 0x1b400000
 92c:	5f006675 	svcpl	0x00006675
 930:	4946735f 	stmdbmi	r6, {r0, r1, r2, r3, r4, r6, r8, r9, ip, sp, lr}^
 934:	5f00454c 	svcpl	0x0000454c
 938:	0077656e 	rsbseq	r6, r7, lr, ror #10
 93c:	2e2f2e2e 	cdpcs	14, 2, cr2, cr15, cr14, {1}
 940:	2e2e2f2e 	cdpcs	15, 2, cr2, cr14, cr14, {1}
 944:	2f2e2e2f 	svccs	0x002e2e2f
 948:	2e2f2e2e 	cdpcs	14, 2, cr2, cr15, cr14, {1}
 94c:	2e2e2f2e 	cdpcs	15, 2, cr2, cr14, cr14, {1}
 950:	77656e2f 	strbvc	r6, [r5, -pc, lsr #28]!
 954:	2f62696c 	svccs	0x0062696c
 958:	6362696c 	cmnvs	r2, #108, 18	; 0x1b0000
 95c:	6474732f 	ldrbtvs	r7, [r4], #-815	; 0xfffffcd1
 960:	2f62696c 	svccs	0x0062696c
 964:	74615f5f 	strbtvc	r5, [r1], #-3935	; 0xfffff0a1
 968:	74697865 	strbtvc	r7, [r9], #-2149	; 0xfffff79b
 96c:	6600632e 	strvs	r6, [r0], -lr, lsr #6
 970:	00656572 	rsbeq	r6, r5, r2, ror r5
 974:	2e2f2e2e 	cdpcs	14, 2, cr2, cr15, cr14, {1}
 978:	2e2e2f2e 	cdpcs	15, 2, cr2, cr14, cr14, {1}
 97c:	2f2e2e2f 	svccs	0x002e2e2f
 980:	2e2f2e2e 	cdpcs	14, 2, cr2, cr15, cr14, {1}
 984:	2e2e2f2e 	cdpcs	15, 2, cr2, cr14, cr14, {1}
 988:	77656e2f 	strbvc	r6, [r5, -pc, lsr #28]!
 98c:	2f62696c 	svccs	0x0062696c
 990:	6362696c 	cmnvs	r2, #108, 18	; 0x1b0000
 994:	6474732f 	ldrbtvs	r7, [r4], #-815	; 0xfffffcd1
 998:	2f62696c 	svccs	0x0062696c
 99c:	61635f5f 	cmnvs	r3, pc, asr pc
 9a0:	615f6c6c 	cmpvs	pc, ip, ror #24
 9a4:	69786574 	ldmdbvs	r8!, {r2, r4, r5, r6, r8, sl, sp, lr}^
 9a8:	00632e74 	rsbeq	r2, r3, r4, ror lr
 9ac:	7473616c 	ldrbtvc	r6, [r3], #-364	; 0xfffffe94
 9b0:	65720070 	ldrbvs	r0, [r2, #-112]!	; 0xffffff90
 9b4:	72617473 	rsbvc	r7, r1, #1929379840	; 0x73000000
 9b8:	5f5f0074 	svcpl	0x005f0074
 9bc:	6c6c6163 	stfvse	f6, [ip], #-396	; 0xfffffe74
 9c0:	6978655f 	ldmdbvs	r8!, {r0, r1, r2, r3, r4, r6, r8, sl, sp, lr}^
 9c4:	6f727074 	svcvs	0x00727074
 9c8:	72007363 	andvc	r7, r0, #-1946157055	; 0x8c000001
 9cc:	73696765 	cmnvc	r9, #26476544	; 0x1940000
 9d0:	5f726574 	svcpl	0x00726574
 9d4:	696e6966 	stmdbvs	lr!, {r1, r2, r5, r6, r8, fp, sp, lr}^
 9d8:	6c5f5f00 	mrrcvs	15, 0, r5, pc, cr0	; <UNPREDICTABLE>
 9dc:	5f636269 	svcpl	0x00636269
 9e0:	696e6966 	stmdbvs	lr!, {r1, r2, r5, r6, r8, fp, sp, lr}^
 9e4:	615f5f00 	cmpvs	pc, r0, lsl #30
 9e8:	69786574 	ldmdbvs	r8!, {r2, r4, r5, r6, r8, sl, sp, lr}^
 9ec:	6f6c5f74 	svcvs	0x006c5f74
 9f0:	63006b63 	movwvs	r6, #2915	; 0xb63
 9f4:	0065646f 	rsbeq	r6, r5, pc, ror #8

Disassembly of section .debug_frame:

00000000 <.debug_frame>:
   0:	0000000c 	andeq	r0, r0, ip
   4:	ffffffff 			; <UNDEFINED> instruction: 0xffffffff
   8:	7c020001 	stcvc	0, cr0, [r2], {1}
   c:	000d0c0e 	andeq	r0, sp, lr, lsl #24
  10:	0000000c 	andeq	r0, r0, ip
  14:	00000000 	andeq	r0, r0, r0
  18:	08005aa0 	stmdaeq	r0, {r5, r7, r9, fp, ip, lr}
  1c:	0000000a 	andeq	r0, r0, sl
  20:	0000000c 	andeq	r0, r0, ip
  24:	ffffffff 			; <UNDEFINED> instruction: 0xffffffff
  28:	7c020001 	stcvc	0, cr0, [r2], {1}
  2c:	000d0c0e 	andeq	r0, sp, lr, lsl #24
  30:	0000000c 	andeq	r0, r0, ip
  34:	00000020 	andeq	r0, r0, r0, lsr #32
  38:	08005aac 	stmdaeq	r0, {r2, r3, r5, r7, r9, fp, ip, lr}
  3c:	0000000c 	andeq	r0, r0, ip
  40:	0000000c 	andeq	r0, r0, ip
  44:	ffffffff 			; <UNDEFINED> instruction: 0xffffffff
  48:	7c020001 	stcvc	0, cr0, [r2], {1}
  4c:	000d0c0e 	andeq	r0, sp, lr, lsl #24
  50:	00000018 	andeq	r0, r0, r8, lsl r0
  54:	00000040 	andeq	r0, r0, r0, asr #32
  58:	08005ab8 	stmdaeq	r0, {r3, r4, r5, r7, r9, fp, ip, lr}
  5c:	00000014 	andeq	r0, r0, r4, lsl r0
  60:	84040e41 	strhi	r0, [r4], #-3649	; 0xfffff1bf
  64:	0ec44701 	cdpeq	7, 12, cr4, cr4, cr1, {0}
  68:	00000000 	andeq	r0, r0, r0
  6c:	0000000c 	andeq	r0, r0, ip
  70:	ffffffff 			; <UNDEFINED> instruction: 0xffffffff
  74:	7c020001 	stcvc	0, cr0, [r2], {1}
  78:	000d0c0e 	andeq	r0, sp, lr, lsl #24
  7c:	00000020 	andeq	r0, r0, r0, lsr #32
  80:	0000006c 	andeq	r0, r0, ip, rrx
  84:	08005acc 	stmdaeq	r0, {r2, r3, r6, r7, r9, fp, ip, lr}
  88:	0000002c 	andeq	r0, r0, ip, lsr #32
  8c:	83100e41 	tsthi	r0, #1040	; 0x410
  90:	85038404 	strhi	r8, [r3, #-1028]	; 0xfffffbfc
  94:	4f018e02 	svcmi	0x00018e02
  98:	c3c4c5ce 	bicgt	ip, r4, #864026624	; 0x33800000
  9c:	0000000e 	andeq	r0, r0, lr
  a0:	0000000c 	andeq	r0, r0, ip
  a4:	ffffffff 			; <UNDEFINED> instruction: 0xffffffff
  a8:	7c020001 	stcvc	0, cr0, [r2], {1}
  ac:	000d0c0e 	andeq	r0, sp, lr, lsl #24
  b0:	00000020 	andeq	r0, r0, r0, lsr #32
  b4:	000000a0 	andeq	r0, r0, r0, lsr #1
  b8:	08005af8 	stmdaeq	r0, {r3, r4, r5, r6, r7, r9, fp, ip, lr}
  bc:	000000a4 	andeq	r0, r0, r4, lsr #1
  c0:	84200e42 	strthi	r0, [r0], #-3650	; 0xfffff1be
  c4:	86078508 	strhi	r8, [r7], -r8, lsl #10
  c8:	88058706 	stmdahi	r5, {r1, r2, r8, r9, sl, pc}
  cc:	8a038904 	bhi	e24e4 <_Min_Stack_Size+0xe20e4>
  d0:	00018e02 	andeq	r8, r1, r2, lsl #28
  d4:	0000000c 	andeq	r0, r0, ip
  d8:	ffffffff 			; <UNDEFINED> instruction: 0xffffffff
  dc:	7c020001 	stcvc	0, cr0, [r2], {1}
  e0:	000d0c0e 	andeq	r0, sp, lr, lsl #24
  e4:	0000000c 	andeq	r0, r0, ip
  e8:	000000d4 	ldrdeq	r0, [r0], -r4
  ec:	08005b9c 	stmdaeq	r0, {r2, r3, r4, r7, r8, r9, fp, ip, lr}
  f0:	00000014 	andeq	r0, r0, r4, lsl r0
  f4:	0000002c 	andeq	r0, r0, ip, lsr #32
  f8:	000000d4 	ldrdeq	r0, [r0], -r4
  fc:	00000000 	andeq	r0, r0, r0
 100:	000000d4 	ldrdeq	r0, [r0], -r4
 104:	84240e42 	strthi	r0, [r4], #-3650	; 0xfffff1be
 108:	86088509 	strhi	r8, [r8], -r9, lsl #10
 10c:	88068707 	stmdahi	r6, {r0, r1, r2, r8, r9, sl, pc}
 110:	8a048905 	bhi	12252c <_Min_Stack_Size+0x12212c>
 114:	8e028b03 	vmlahi.f64	d8, d2, d3
 118:	300e4201 	andcc	r4, lr, r1, lsl #4
 11c:	240e0a71 	strcs	r0, [lr], #-2673	; 0xfffff58f
 120:	00000b42 	andeq	r0, r0, r2, asr #22
